LIBRARY ALAudio.dll

EXPORTS
??0FALAudioStream@@QAE@ABV0@@Z @ 1
??0FALAudioStream@@QAE@PAV0@PAVFCriticalSection@@@Z @ 2
??0FALAudioStreamManager@@QAE@XZ @ 3
??0FALAudioStreamOgg@@QAE@ABV0@@Z @ 4
??0FALAudioStreamOgg@@QAE@PAVFALAudioStream@@PAVFCriticalSection@@@Z @ 5
??0FALSoundSource@@QAE@ABV0@@Z @ 6
??0FALSoundSource@@QAE@PAVUALAudioSubsystem@@@Z @ 7
??0FFModSoundSource@@QAE@ABV0@@Z @ 8
??0FFModSoundSource@@QAE@PAVUFModAudioSubsystem@@@Z @ 9
??0UALAudioSubsystem@@QAE@ABV0@@Z @ 10
??0UALAudioSubsystem@@QAE@XZ @ 11
??0UFModAudioSubsystem@@QAE@ABV0@@Z @ 12
??0UFModAudioSubsystem@@QAE@XZ @ 13
??1FALAudioStream@@UAE@XZ @ 14
??1FALAudioStreamManager@@QAE@XZ @ 15
??1FALAudioStreamOgg@@UAE@XZ @ 16
??1FALSoundSource@@QAE@XZ @ 17
??1FFModSoundSource@@QAE@XZ @ 18
??1UALAudioSubsystem@@UAE@XZ @ 19
??1UFModAudioSubsystem@@UAE@XZ @ 20
??2UALAudioSubsystem@@SAPAXIPAVUObject@@PAGK@Z @ 21
??2UALAudioSubsystem@@SAPAXIPAVUObject@@PBGK@Z @ 22
??2UALAudioSubsystem@@SAPAXIPAVUObject@@VFName@@K@Z @ 23
??2UALAudioSubsystem@@SAPAXIPAW4EInternal@@@Z @ 24
??2UFModAudioSubsystem@@SAPAXIPAVUObject@@PAGK@Z @ 25
??2UFModAudioSubsystem@@SAPAXIPAVUObject@@PBGK@Z @ 26
??2UFModAudioSubsystem@@SAPAXIPAVUObject@@VFName@@K@Z @ 27
??2UFModAudioSubsystem@@SAPAXIPAW4EInternal@@@Z @ 28
??4FALAudioStream@@QAEAAV0@ABV0@@Z @ 29
??4FALAudioStreamManager@@QAEAAV0@ABV0@@Z @ 30
??4FALAudioStreamOgg@@QAEAAV0@ABV0@@Z @ 31
??4FALSoundSource@@QAEAAV0@ABV0@@Z @ 32
??4FFModSoundSource@@QAEAAV0@ABV0@@Z @ 33
??4UALAudioSubsystem@@QAEAAV0@ABV0@@Z @ 34
??4UFModAudioSubsystem@@QAEAAV0@ABV0@@Z @ 35
??_7FALAudioStream@@6B@ @ 36
??_7FALAudioStreamOgg@@6B@ @ 37
??_7FALSoundSource@@6B@ @ 38
??_7FFModSoundSource@@6B@ @ 39
??_7UALAudioSubsystem@@6BFExec@@@ @ 40
??_7UALAudioSubsystem@@6BUObject@@@ @ 41
??_7UFModAudioSubsystem@@6BFExec@@@ @ 42
??_7UFModAudioSubsystem@@6BUObject@@@ @ 43
?CreateStream@FALAudioStreamManager@@QAEPAVFALAudioStream@@PBGHPAXW4EAudioStreamType@@M@Z @ 44
?Destroy@FALAudioStreamManager@@QAEXXZ @ 45
?Destroy@UALAudioSubsystem@@UAEXXZ @ 46
?Destroy@UFModAudioSubsystem@@UAEXXZ @ 47
?DestroyStream@FALAudioStreamManager@@QAEXPAVFALAudioStream@@H@Z @ 48
?Exec@UALAudioSubsystem@@UAEHPBGAAVFOutputDevice@@@Z @ 49
?Exec@UFModAudioSubsystem@@UAEHPBGAAVFOutputDevice@@@Z @ 50
?FindExt@UALAudioSubsystem@@QAEHPBGH@Z @ 51
?FindProc@UALAudioSubsystem@@QAEXAAPAXPAD1AAHHH@Z @ 52
?FindProcs@UALAudioSubsystem@@QAEXH@Z @ 53
?Flush@UALAudioSubsystem@@UAEXH@Z @ 54
?Flush@UFModAudioSubsystem@@UAEXH@Z @ 55
?GetChunkSize@FALAudioStream@@QAEHXZ @ 56
?GetDuration@FALAudioStream@@QAEMXZ @ 57
?GetFmodEventProj@UFModAudioSubsystem@@UAEPAXXZ @ 58
?GetFormat@FALAudioStream@@QAEHXZ @ 59
?GetNext@FALAudioStream@@QAEPAV1@XZ @ 60
?GetNumSources@UALAudioSubsystem@@UAEHXZ @ 61
?GetNumSources@UFModAudioSubsystem@@UAEHXZ @ 62
?GetPrevious@FALAudioStream@@QAEPAV1@XZ @ 63
?GetRate@FALAudioStream@@QAEHXZ @ 64
?GetSource@UALAudioSubsystem@@UAEPAVFSoundSource@@H@Z @ 65
?GetSource@UFModAudioSubsystem@@UAEPAVFSoundSource@@H@Z @ 66
?GetTransientSource@UALAudioSubsystem@@UAEPAVFSoundSource@@XZ @ 67
?GetTransientSource@UFModAudioSubsystem@@UAEPAVFSoundSource@@XZ @ 68
?Init@FALAudioStream@@UAEHPBGPAXW4EAudioStreamType@@@Z @ 69
?Init@FALAudioStreamManager@@QAEXXZ @ 70
?Init@FALAudioStreamOgg@@UAEHPBGPAXW4EAudioStreamType@@@Z @ 71
?Init@UALAudioSubsystem@@UAEHXZ @ 72
?Init@UFModAudioSubsystem@@UAEHXZ @ 73
?InitBaseInfo@UALAudioSubsystem@@QAEXXZ @ 74
?InitBaseInfo@UFModAudioSubsystem@@QAEXXZ @ 75
?InternalConstructor@UALAudioSubsystem@@SAXPAX@Z @ 76
?InternalConstructor@UFModAudioSubsystem@@SAXPAX@Z @ 77
?IsFinished@FALSoundSource@@UAEHM@Z @ 78
?IsFinished@FFModSoundSource@@UAEHM@Z @ 79
?IsPaused@FALSoundSource@@UAEHXZ @ 80
?IsPaused@FFModSoundSource@@UAEHXZ @ 81
?IsSoundPlayingHK@UALAudioSubsystem@@UAEHH@Z @ 82
?IsSoundPlayingHK@UFModAudioSubsystem@@UAEHH@Z @ 83
?IsStopped@FALSoundSource@@UAEHXZ @ 84
?IsStopped@FFModSoundSource@@UAEHXZ @ 85
?IsSupportsEFX@UALAudioSubsystem@@QAEHXZ @ 86
?NoteDestroy@UALAudioSubsystem@@UAEXPAVAActor@@@Z @ 87
?NoteDestroy@UALAudioSubsystem@@UAEXPAVUSound@@@Z @ 88
?NoteDestroy@UFModAudioSubsystem@@UAEXPAVAActor@@@Z @ 89
?NoteDestroy@UFModAudioSubsystem@@UAEXPAVUSound@@@Z @ 90
?Pause@FALSoundSource@@UAEXXZ @ 91
?Pause@FFModSoundSource@@UAEXXZ @ 92
?Play@FALSoundSource@@QAEXXZ @ 93
?PlayEventSound@UFModAudioSubsystem@@UAEXPAVFSoundSource@@@Z @ 94
?PlaySound@UALAudioSubsystem@@UAEXPAVFSoundSource@@@Z @ 95
?PlaySound@UFModAudioSubsystem@@UAEXPAVFSoundSource@@@Z @ 96
?PlayVoicePacket@UALAudioSubsystem@@UAEHPAUFVoiceInfo@@@Z @ 97
?PostEditChange@UALAudioSubsystem@@UAEXXZ @ 98
?PostEditChange@UFModAudioSubsystem@@UAEXXZ @ 99
?PrivateStaticClass@UALAudioSubsystem@@0VUClass@@A @ 100
?PrivateStaticClass@UFModAudioSubsystem@@0VUClass@@A @ 101
?QueryStream@FALAudioStream@@QAEHAAH@Z @ 102
?ReadChunks@FALAudioStreamOgg@@UAEHH@Z @ 103
?RequestChunks@FALAudioStream@@QAEXHPAX@Z @ 104
?SUPPORTS_AL@UALAudioSubsystem@@2HA @ 105
?SUPPORTS_ALC@UALAudioSubsystem@@2HA @ 106
?SUPPORTS_ALC_EXT_capture@UALAudioSubsystem@@2HA @ 107
?Seek@FALAudioStreamOgg@@UAEHM@Z @ 108
?SeekStream@UALAudioSubsystem@@UAEHHM@Z @ 109
?Serialize@UALAudioSubsystem@@UAEXAAVFArchive@@@Z @ 110
?Serialize@UFModAudioSubsystem@@UAEXAAVFArchive@@@Z @ 111
?SetEAXEffect@UALAudioSubsystem@@UAEXXZ @ 112
?SetEFXEffect@UALAudioSubsystem@@QAEHXZ @ 113
?SetReverbEffect@UFModAudioSubsystem@@QAEXXZ @ 114
?SetTransientSource@UALAudioSubsystem@@UAEXPAVFSoundSource@@@Z @ 115
?SetTransientSource@UFModAudioSubsystem@@UAEXPAVFSoundSource@@@Z @ 116
?SetViewport@UALAudioSubsystem@@UAEXPAVUViewport@@@Z @ 117
?SetViewport@UFModAudioSubsystem@@UAEXPAVUViewport@@@Z @ 118
?Shutdown@UALAudioSubsystem@@QAEXXZ @ 119
?Shutdown@UFModAudioSubsystem@@QAEXXZ @ 120
?ShutdownAfterError@UALAudioSubsystem@@UAEXXZ @ 121
?ShutdownAfterError@UFModAudioSubsystem@@UAEXXZ @ 122
?StaticClass@UALAudioSubsystem@@SAPAVUClass@@XZ @ 123
?StaticClass@UFModAudioSubsystem@@SAPAVUClass@@XZ @ 124
?StaticConstructor@UALAudioSubsystem@@QAEXXZ @ 125
?StaticConstructor@UFModAudioSubsystem@@QAEXXZ @ 126
?Stop@FALSoundSource@@UAEXXZ @ 127
?Stop@FFModSoundSource@@UAEXXZ @ 128
?StopSoundHK@UALAudioSubsystem@@UAEHH@Z @ 129
?StopSoundHK@UFModAudioSubsystem@@UAEHH@Z @ 130
?Update@FALSoundSource@@UAEHM@Z @ 131
?Update@FFModSoundSource@@UAEHM@Z @ 132
?Update@UALAudioSubsystem@@UAEHPAVFSceneNode@@@Z @ 133
?Update@UFModAudioSubsystem@@UAEHPAVFSceneNode@@@Z @ 134
?alAuxiliaryEffectSlotf@UALAudioSubsystem@@2P6AXIHM@ZA @ 135
?alAuxiliaryEffectSlotfv@UALAudioSubsystem@@2P6AXIHPAM@ZA @ 136
?alAuxiliaryEffectSloti@UALAudioSubsystem@@2P6AXIHH@ZA @ 137
?alAuxiliaryEffectSlotiv@UALAudioSubsystem@@2P6AXIHPAH@ZA @ 138
?alBuffer3f@UALAudioSubsystem@@2P6AXIHMMM@ZA @ 139
?alBuffer3i@UALAudioSubsystem@@2P6AXIHHHH@ZA @ 140
?alBufferData@UALAudioSubsystem@@2P6AXIHPAXHH@ZA @ 141
?alBufferf@UALAudioSubsystem@@2P6AXIHM@ZA @ 142
?alBufferfv@UALAudioSubsystem@@2P6AXIHPBM@ZA @ 143
?alBufferi@UALAudioSubsystem@@2P6AXIHH@ZA @ 144
?alBufferiv@UALAudioSubsystem@@2P6AXIHPBH@ZA @ 145
?alDeleteAuxiliaryEffectSlots@UALAudioSubsystem@@2P6AXHPAI@ZA @ 146
?alDeleteBuffers@UALAudioSubsystem@@2P6AXHPAI@ZA @ 147
?alDeleteEffects@UALAudioSubsystem@@2P6AXHPAI@ZA @ 148
?alDeleteFilters@UALAudioSubsystem@@2P6AXHPAI@ZA @ 149
?alDeleteSources@UALAudioSubsystem@@2P6AXHPAI@ZA @ 150
?alDisable@UALAudioSubsystem@@2P6AXH@ZA @ 151
?alDistanceModel@UALAudioSubsystem@@2P6AXH@ZA @ 152
?alDopplerFactor@UALAudioSubsystem@@2P6AXM@ZA @ 153
?alDopplerVelocity@UALAudioSubsystem@@2P6AXM@ZA @ 154
?alEAXGet@UALAudioSubsystem@@2P6AHPBU_GUID@@IIPAXI@ZA @ 155
?alEAXSet@UALAudioSubsystem@@2P6AHPBU_GUID@@IIPAXI@ZA @ 156
?alEffectf@UALAudioSubsystem@@2P6AXIHM@ZA @ 157
?alEffectfv@UALAudioSubsystem@@2P6AXIHPAM@ZA @ 158
?alEffecti@UALAudioSubsystem@@2P6AXIHH@ZA @ 159
?alEffectiv@UALAudioSubsystem@@2P6AXIHPAH@ZA @ 160
?alEnable@UALAudioSubsystem@@2P6AXH@ZA @ 161
?alError@UALAudioSubsystem@@SAHPAGH@Z @ 162
?alFilterf@UALAudioSubsystem@@2P6AXIHM@ZA @ 163
?alFilterfv@UALAudioSubsystem@@2P6AXIHPAM@ZA @ 164
?alFilteri@UALAudioSubsystem@@2P6AXIHH@ZA @ 165
?alFilteriv@UALAudioSubsystem@@2P6AXIHPAH@ZA @ 166
?alGenAuxiliaryEffectSlots@UALAudioSubsystem@@2P6AXHPAI@ZA @ 167
?alGenBuffers@UALAudioSubsystem@@2P6AXHPAI@ZA @ 168
?alGenEffects@UALAudioSubsystem@@2P6AXHPAI@ZA @ 169
?alGenFilters@UALAudioSubsystem@@2P6AXHPAI@ZA @ 170
?alGenSources@UALAudioSubsystem@@2P6AXHPAI@ZA @ 171
?alGetAuxiliaryEffectSlotf@UALAudioSubsystem@@2P6AXIHPAM@ZA @ 172
?alGetAuxiliaryEffectSlotfv@UALAudioSubsystem@@2P6AXIHPAM@ZA @ 173
?alGetAuxiliaryEffectSloti@UALAudioSubsystem@@2P6AXIHPAH@ZA @ 174
?alGetAuxiliaryEffectSlotiv@UALAudioSubsystem@@2P6AXIHPAH@ZA @ 175
?alGetBoolean@UALAudioSubsystem@@2P6ADH@ZA @ 176
?alGetBooleanv@UALAudioSubsystem@@2P6AXHPAD@ZA @ 177
?alGetBuffer3f@UALAudioSubsystem@@2P6AXIHPAM00@ZA @ 178
?alGetBuffer3i@UALAudioSubsystem@@2P6AXIHPAH00@ZA @ 179
?alGetBufferf@UALAudioSubsystem@@2P6AXIHPAM@ZA @ 180
?alGetBufferfv@UALAudioSubsystem@@2P6AXIHPAM@ZA @ 181
?alGetBufferi@UALAudioSubsystem@@2P6AXIHPAH@ZA @ 182
?alGetBufferiv@UALAudioSubsystem@@2P6AXIHPAH@ZA @ 183
?alGetDouble@UALAudioSubsystem@@2P6ANH@ZA @ 184
?alGetDoublev@UALAudioSubsystem@@2P6AXHPAN@ZA @ 185
?alGetEffectf@UALAudioSubsystem@@2P6AXIHPAM@ZA @ 186
?alGetEffectfv@UALAudioSubsystem@@2P6AXIHPAM@ZA @ 187
?alGetEffecti@UALAudioSubsystem@@2P6AXIHPAH@ZA @ 188
?alGetEffectiv@UALAudioSubsystem@@2P6AXIHPAH@ZA @ 189
?alGetEnumValue@UALAudioSubsystem@@2P6AHPBD@ZA @ 190
?alGetError@UALAudioSubsystem@@2P6AHXZA @ 191
?alGetFilterf@UALAudioSubsystem@@2P6AXIHPAM@ZA @ 192
?alGetFilterfv@UALAudioSubsystem@@2P6AXIHPAM@ZA @ 193
?alGetFilteri@UALAudioSubsystem@@2P6AXIHPAH@ZA @ 194
?alGetFilteriv@UALAudioSubsystem@@2P6AXIHPAH@ZA @ 195
?alGetFloat@UALAudioSubsystem@@2P6AMH@ZA @ 196
?alGetFloatv@UALAudioSubsystem@@2P6AXHPAM@ZA @ 197
?alGetInteger@UALAudioSubsystem@@2P6AHH@ZA @ 198
?alGetIntegerv@UALAudioSubsystem@@2P6AXHPAH@ZA @ 199
?alGetListener3f@UALAudioSubsystem@@2P6AXHPAM00@ZA @ 200
?alGetListenerf@UALAudioSubsystem@@2P6AXHPAM@ZA @ 201
?alGetListenerfv@UALAudioSubsystem@@2P6AXHPAM@ZA @ 202
?alGetListeneri@UALAudioSubsystem@@2P6AXHPAH@ZA @ 203
?alGetProcAddress@UALAudioSubsystem@@2P6APAXPBD@ZA @ 204
?alGetSource3f@UALAudioSubsystem@@2P6AXIHPAM00@ZA @ 205
?alGetSource3i@UALAudioSubsystem@@2P6AXIHPAH00@ZA @ 206
?alGetSourcef@UALAudioSubsystem@@2P6AXIHPAM@ZA @ 207
?alGetSourcefv@UALAudioSubsystem@@2P6AXIHPAM@ZA @ 208
?alGetSourcei@UALAudioSubsystem@@2P6AXIHPAH@ZA @ 209
?alGetSourceiv@UALAudioSubsystem@@2P6AXIHPAH@ZA @ 210
?alGetString@UALAudioSubsystem@@2P6APAEH@ZA @ 211
?alIsAuxiliaryEffectSlot@UALAudioSubsystem@@2P6ADI@ZA @ 212
?alIsBuffer@UALAudioSubsystem@@2P6ADI@ZA @ 213
?alIsEffect@UALAudioSubsystem@@2P6ADI@ZA @ 214
?alIsEnabled@UALAudioSubsystem@@2P6ADH@ZA @ 215
?alIsExtensionPresent@UALAudioSubsystem@@2P6ADPBD@ZA @ 216
?alIsFilter@UALAudioSubsystem@@2P6ADI@ZA @ 217
?alIsSource@UALAudioSubsystem@@2P6ADI@ZA @ 218
?alListener3f@UALAudioSubsystem@@2P6AXHMMM@ZA @ 219
?alListenerf@UALAudioSubsystem@@2P6AXHM@ZA @ 220
?alListenerfv@UALAudioSubsystem@@2P6AXHPAM@ZA @ 221
?alListeneri@UALAudioSubsystem@@2P6AXHH@ZA @ 222
?alSource3f@UALAudioSubsystem@@2P6AXIHMMM@ZA @ 223
?alSource3i@UALAudioSubsystem@@2P6AXIHHHH@ZA @ 224
?alSourcePause@UALAudioSubsystem@@2P6AXI@ZA @ 225
?alSourcePausev@UALAudioSubsystem@@2P6AXHPAI@ZA @ 226
?alSourcePlay@UALAudioSubsystem@@2P6AXI@ZA @ 227
?alSourcePlayv@UALAudioSubsystem@@2P6AXHPAI@ZA @ 228
?alSourceQueueBuffers@UALAudioSubsystem@@2P6AXIHPAI@ZA @ 229
?alSourceRewind@UALAudioSubsystem@@2P6AXI@ZA @ 230
?alSourceRewindv@UALAudioSubsystem@@2P6AXHPAI@ZA @ 231
?alSourceStop@UALAudioSubsystem@@2P6AXI@ZA @ 232
?alSourceStopv@UALAudioSubsystem@@2P6AXHPAI@ZA @ 233
?alSourceUnqueueBuffers@UALAudioSubsystem@@2P6AXIHPAI@ZA @ 234
?alSourcef@UALAudioSubsystem@@2P6AXIHM@ZA @ 235
?alSourcefv@UALAudioSubsystem@@2P6AXIHPAM@ZA @ 236
?alSourcei@UALAudioSubsystem@@2P6AXIHH@ZA @ 237
?alSourceiv@UALAudioSubsystem@@2P6AXIHPBH@ZA @ 238
?alSpeedOfSound@UALAudioSubsystem@@2P6AXM@ZA @ 239
?alcCaptureCloseDevice@UALAudioSubsystem@@2P6AXPAUALCdevice_struct@@@ZA @ 240
?alcCaptureOpenDevice@UALAudioSubsystem@@2P6APAUALCdevice_struct@@PBEIHH@ZA @ 241
?alcCaptureSamples@UALAudioSubsystem@@2P6AXPAUALCdevice_struct@@PAXH@ZA @ 242
?alcCaptureStart@UALAudioSubsystem@@2P6AXPAUALCdevice_struct@@@ZA @ 243
?alcCaptureStop@UALAudioSubsystem@@2P6AXPAUALCdevice_struct@@@ZA @ 244
?alcCloseDevice@UALAudioSubsystem@@2P6AXPAUALCdevice_struct@@@ZA @ 245
?alcCreateContext@UALAudioSubsystem@@2P6APAUALCcontext_struct@@PAUALCdevice_struct@@PAH@ZA @ 246
?alcDestroyContext@UALAudioSubsystem@@2P6AXPAUALCcontext_struct@@@ZA @ 247
?alcGetContextsDevice@UALAudioSubsystem@@2P6APAUALCdevice_struct@@PAUALCcontext_struct@@@ZA @ 248
?alcGetCurrentContext@UALAudioSubsystem@@2P6APAUALCcontext_struct@@XZA @ 249
?alcGetEnumValue@UALAudioSubsystem@@2P6AHPAUALCdevice_struct@@PBD@ZA @ 250
?alcGetError@UALAudioSubsystem@@2P6AHPAUALCdevice_struct@@@ZA @ 251
?alcGetIntegerv@UALAudioSubsystem@@2P6AXPAUALCdevice_struct@@HHPAH@ZA @ 252
?alcGetProcAddress@UALAudioSubsystem@@2P6APAXPAUALCdevice_struct@@PBD@ZA @ 253
?alcGetString@UALAudioSubsystem@@2P6APAEPAUALCdevice_struct@@H@ZA @ 254
?alcIsExtensionPresent@UALAudioSubsystem@@2P6ADPAUALCdevice_struct@@PBD@ZA @ 255
?alcMakeContextCurrent@UALAudioSubsystem@@2P6ADPAUALCcontext_struct@@@ZA @ 256
?alcOpenDevice@UALAudioSubsystem@@2P6APAUALCdevice_struct@@PAE@ZA @ 257
?alcProcessContext@UALAudioSubsystem@@2P6AXPAUALCcontext_struct@@@ZA @ 258
?alcSuspendContext@UALAudioSubsystem@@2P6AXPAUALCcontext_struct@@@ZA @ 259
?loadEventData@UFModAudioSubsystem@@QAEPAVFModSound@@PAVFSoundSource@@@Z @ 260
?loadSoundData@UFModAudioSubsystem@@QAEPAVFModSound@@PAVUSound@@@Z @ 261
GPackage @ 263
_DllMain@12 @ 262
autoclassUALAudioSubsystem @ 264
autoclassUFModAudioSubsystem @ 265
