LIBRARY BatteryNet.dll

EXPORTS
??0?$Singleton@VBTSocket_Channel@BatteryNetlib@@@BatteryNetlib@@IAE@XZ @ 1
??0?$Singleton@VBTSocket_Login@BatteryNetlib@@@BatteryNetlib@@IAE@XZ @ 2
??0?$Singleton@VBTSocket_Process2Agent@BatteryNetlib@@@BatteryNetlib@@IAE@XZ @ 3
??0BTSocket_Channel@BatteryNetlib@@IAE@AAV01@@Z @ 4
??0BTSocket_Channel@BatteryNetlib@@IAE@XZ @ 5
??0BTSocket_Login@BatteryNetlib@@IAE@AAV01@@Z @ 6
??0BTSocket_Login@BatteryNetlib@@IAE@XZ @ 7
??0BTSocket_Process2Agent@BatteryNetlib@@IAE@AAV01@@Z @ 8
??0BTSocket_Process2Agent@BatteryNetlib@@IAE@XZ @ 9
??0FClanInfo@@QAE@ABU0@@Z @ 10
??0FClanInfo@@QAE@XZ @ 11
??0FGameRoomInfo@@QAE@ABU0@@Z @ 12
??0FGameRoomInfo@@QAE@XZ @ 13
??0FNetAuctionItem@@QAE@ABU0@@Z @ 14
??0FNetAuctionItem@@QAE@XZ @ 15
??0FSystemMsgParam@@QAE@ABU0@@Z @ 16
??0FSystemMsgParam@@QAE@XZ @ 17
??0UBTDataTransferClientLink@@IAE@XZ @ 18
??0UBTDataTransferClientLink@@QAE@ABV0@@Z @ 19
??0UBTNatDiag@@IAE@XZ @ 20
??0UBTNatDiag@@QAE@ABV0@@Z @ 21
??0UBTNetInterfaceTcp@@QAE@ABV0@@Z @ 22
??0UBTNetInterfaceTcp@@QAE@XZ @ 23
??0UBTSteamMapping@@IAE@XZ @ 24
??0UBTSteamMapping@@QAE@ABV0@@Z @ 25
??0UBTTcpHandler_DS@@QAE@ABV0@@Z @ 26
??0UBTTcpHandler_DS@@QAE@XZ @ 27
??0UBTTcpHandler_DS_Script_Interface@@IAE@XZ @ 28
??0UBTTcpHandler_DS_Script_Interface@@QAE@ABV0@@Z @ 29
??0UBTTcpHandler_DStoDP@@QAE@ABV0@@Z @ 30
??0UBTTcpHandler_DStoDP@@QAE@XZ @ 31
??0UBTTcpHandler_DStoDP_Script_Interface@@IAE@XZ @ 32
??0UBTTcpHandler_DStoDP_Script_Interface@@QAE@ABV0@@Z @ 33
??0UBTTcpLink_Channel@@IAE@XZ @ 34
??0UBTTcpLink_Channel@@QAE@ABV0@@Z @ 35
??0UBTTcpLink_Login@@IAE@XZ @ 36
??0UBTTcpLink_Login@@QAE@ABV0@@Z @ 37
??0UBTTcpLink_Process2Agent@@IAE@XZ @ 38
??0UBTTcpLink_Process2Agent@@QAE@ABV0@@Z @ 39
??1?$Singleton@VBTSocket_Channel@BatteryNetlib@@@BatteryNetlib@@QAE@XZ @ 40
??1?$Singleton@VBTSocket_Login@BatteryNetlib@@@BatteryNetlib@@QAE@XZ @ 41
??1?$Singleton@VBTSocket_Process2Agent@BatteryNetlib@@@BatteryNetlib@@QAE@XZ @ 42
??1BTSocket_Channel@BatteryNetlib@@QAE@XZ @ 43
??1BTSocket_Login@BatteryNetlib@@QAE@XZ @ 44
??1BTSocket_Process2Agent@BatteryNetlib@@QAE@XZ @ 45
??1FClanInfo@@QAE@XZ @ 46
??1FGameRoomInfo@@QAE@XZ @ 47
??1FNetAuctionItem@@QAE@XZ @ 48
??1FSystemMsgParam@@QAE@XZ @ 49
??1UBTDataTransferClientLink@@UAE@XZ @ 50
??1UBTNatDiag@@UAE@XZ @ 51
??1UBTNetInterfaceTcp@@UAE@XZ @ 52
??1UBTSteamMapping@@UAE@XZ @ 53
??1UBTTcpHandler_DS@@UAE@XZ @ 54
??1UBTTcpHandler_DS_Script_Interface@@UAE@XZ @ 55
??1UBTTcpHandler_DStoDP@@UAE@XZ @ 56
??1UBTTcpHandler_DStoDP_Script_Interface@@UAE@XZ @ 57
??1UBTTcpLink_Channel@@UAE@XZ @ 58
??1UBTTcpLink_Login@@UAE@XZ @ 59
??1UBTTcpLink_Process2Agent@@UAE@XZ @ 60
??2UBTDataTransferClientLink@@SAPAXIPAVUObject@@PAGK@Z @ 61
??2UBTDataTransferClientLink@@SAPAXIPAVUObject@@PBGK@Z @ 62
??2UBTDataTransferClientLink@@SAPAXIPAVUObject@@VFName@@K@Z @ 63
??2UBTDataTransferClientLink@@SAPAXIPAW4EInternal@@@Z @ 64
??2UBTNatDiag@@SAPAXIPAVUObject@@PAGK@Z @ 65
??2UBTNatDiag@@SAPAXIPAVUObject@@PBGK@Z @ 66
??2UBTNatDiag@@SAPAXIPAVUObject@@VFName@@K@Z @ 67
??2UBTNatDiag@@SAPAXIPAW4EInternal@@@Z @ 68
??2UBTNetInterfaceTcp@@SAPAXIPAVUObject@@PAGK@Z @ 69
??2UBTNetInterfaceTcp@@SAPAXIPAVUObject@@PBGK@Z @ 70
??2UBTNetInterfaceTcp@@SAPAXIPAVUObject@@VFName@@K@Z @ 71
??2UBTNetInterfaceTcp@@SAPAXIPAW4EInternal@@@Z @ 72
??2UBTSteamMapping@@SAPAXIPAVUObject@@PAGK@Z @ 73
??2UBTSteamMapping@@SAPAXIPAVUObject@@PBGK@Z @ 74
??2UBTSteamMapping@@SAPAXIPAVUObject@@VFName@@K@Z @ 75
??2UBTSteamMapping@@SAPAXIPAW4EInternal@@@Z @ 76
??2UBTTcpHandler_DS@@SAPAXIPAVUObject@@PAGK@Z @ 77
??2UBTTcpHandler_DS@@SAPAXIPAVUObject@@PBGK@Z @ 78
??2UBTTcpHandler_DS@@SAPAXIPAVUObject@@VFName@@K@Z @ 79
??2UBTTcpHandler_DS@@SAPAXIPAW4EInternal@@@Z @ 80
??2UBTTcpHandler_DS_Script_Interface@@SAPAXIPAVUObject@@PAGK@Z @ 81
??2UBTTcpHandler_DS_Script_Interface@@SAPAXIPAVUObject@@PBGK@Z @ 82
??2UBTTcpHandler_DS_Script_Interface@@SAPAXIPAVUObject@@VFName@@K@Z @ 83
??2UBTTcpHandler_DS_Script_Interface@@SAPAXIPAW4EInternal@@@Z @ 84
??2UBTTcpHandler_DStoDP@@SAPAXIPAVUObject@@PAGK@Z @ 85
??2UBTTcpHandler_DStoDP@@SAPAXIPAVUObject@@PBGK@Z @ 86
??2UBTTcpHandler_DStoDP@@SAPAXIPAVUObject@@VFName@@K@Z @ 87
??2UBTTcpHandler_DStoDP@@SAPAXIPAW4EInternal@@@Z @ 88
??2UBTTcpHandler_DStoDP_Script_Interface@@SAPAXIPAVUObject@@PAGK@Z @ 89
??2UBTTcpHandler_DStoDP_Script_Interface@@SAPAXIPAVUObject@@PBGK@Z @ 90
??2UBTTcpHandler_DStoDP_Script_Interface@@SAPAXIPAVUObject@@VFName@@K@Z @ 91
??2UBTTcpHandler_DStoDP_Script_Interface@@SAPAXIPAW4EInternal@@@Z @ 92
??2UBTTcpLink_Channel@@SAPAXIPAVUObject@@PAGK@Z @ 93
??2UBTTcpLink_Channel@@SAPAXIPAVUObject@@PBGK@Z @ 94
??2UBTTcpLink_Channel@@SAPAXIPAVUObject@@VFName@@K@Z @ 95
??2UBTTcpLink_Channel@@SAPAXIPAW4EInternal@@@Z @ 96
??2UBTTcpLink_Login@@SAPAXIPAVUObject@@PAGK@Z @ 97
??2UBTTcpLink_Login@@SAPAXIPAVUObject@@PBGK@Z @ 98
??2UBTTcpLink_Login@@SAPAXIPAVUObject@@VFName@@K@Z @ 99
??2UBTTcpLink_Login@@SAPAXIPAW4EInternal@@@Z @ 100
??2UBTTcpLink_Process2Agent@@SAPAXIPAVUObject@@PAGK@Z @ 101
??2UBTTcpLink_Process2Agent@@SAPAXIPAVUObject@@PBGK@Z @ 102
??2UBTTcpLink_Process2Agent@@SAPAXIPAVUObject@@VFName@@K@Z @ 103
??2UBTTcpLink_Process2Agent@@SAPAXIPAW4EInternal@@@Z @ 104
??4?$Singleton@VBTSocket_Channel@BatteryNetlib@@@BatteryNetlib@@QAEAAV01@ABV01@@Z @ 105
??4?$Singleton@VBTSocket_Login@BatteryNetlib@@@BatteryNetlib@@QAEAAV01@ABV01@@Z @ 106
??4?$Singleton@VBTSocket_Process2Agent@BatteryNetlib@@@BatteryNetlib@@QAEAAV01@ABV01@@Z @ 107
??4BTCheckNick@BatteryNetlib@@QAEAAV01@ABV01@@Z @ 108
??4BTSocket_Channel@BatteryNetlib@@QAEAAV01@ABV01@@Z @ 109
??4BTSocket_Login@BatteryNetlib@@QAEAAV01@ABV01@@Z @ 110
??4BTSocket_Process2Agent@BatteryNetlib@@QAEAAV01@ABV01@@Z @ 111
??4FCharInfo@@QAEAAU0@ABU0@@Z @ 112
??4FClanInfo@@QAEAAU0@ABU0@@Z @ 113
??4FGameRoomInfo@@QAEAAU0@ABU0@@Z @ 114
??4FKillDeathLog@@QAEAAU0@ABU0@@Z @ 115
??4FMatchState@@QAEAAU0@ABU0@@Z @ 116
??4FNetAuctionItem@@QAEAAU0@ABU0@@Z @ 117
??4FSystemMsgParam@@QAEAAU0@ABU0@@Z @ 118
??4UBTDataTransferClientLink@@QAEAAV0@ABV0@@Z @ 119
??4UBTNatDiag@@QAEAAV0@ABV0@@Z @ 120
??4UBTNetInterfaceTcp@@QAEAAV0@ABV0@@Z @ 121
??4UBTSteamMapping@@QAEAAV0@ABV0@@Z @ 122
??4UBTTcpHandler_DS@@QAEAAV0@ABV0@@Z @ 123
??4UBTTcpHandler_DS_Script_Interface@@QAEAAV0@ABV0@@Z @ 124
??4UBTTcpHandler_DStoDP@@QAEAAV0@ABV0@@Z @ 125
??4UBTTcpHandler_DStoDP_Script_Interface@@QAEAAV0@ABV0@@Z @ 126
??4UBTTcpLink_Channel@@QAEAAV0@ABV0@@Z @ 127
??4UBTTcpLink_Login@@QAEAAV0@ABV0@@Z @ 128
??4UBTTcpLink_Process2Agent@@QAEAAV0@ABV0@@Z @ 129
??6@YAAAVFArchive@@AAV0@AAUFCharInfo@@@Z @ 130
??6@YAAAVFArchive@@AAV0@AAUFClanInfo@@@Z @ 131
??6@YAAAVFArchive@@AAV0@AAUFGameRoomInfo@@@Z @ 132
??6@YAAAVFArchive@@AAV0@AAUFKillDeathLog@@@Z @ 133
??6@YAAAVFArchive@@AAV0@AAUFMatchState@@@Z @ 134
??6@YAAAVFArchive@@AAV0@AAUFNetAuctionItem@@@Z @ 135
??6@YAAAVFArchive@@AAV0@AAUFSystemMsgParam@@@Z @ 136
??_7UBTDataTransferClientLink@@6B@ @ 137
??_7UBTNatDiag@@6B@ @ 138
??_7UBTNetInterfaceTcp@@6B@ @ 139
??_7UBTSteamMapping@@6B@ @ 140
??_7UBTTcpHandler_DS@@6B@ @ 141
??_7UBTTcpHandler_DS_Script_Interface@@6B@ @ 142
??_7UBTTcpHandler_DStoDP@@6B@ @ 143
??_7UBTTcpHandler_DStoDP_Script_Interface@@6B@ @ 144
??_7UBTTcpLink_Channel@@6B@ @ 145
??_7UBTTcpLink_Login@@6B@ @ 146
??_7UBTTcpLink_Process2Agent@@6B@ @ 147
?BATTERYNET_OnClose@@3VFName@@A @ 148
?BATTERYNET_OnConnect@@3VFName@@A @ 149
?BATTERYNET_OnError@@3VFName@@A @ 150
?BATTERYNET_OnReceivedParamDataComplete@@3VFName@@A @ 151
?BATTERYNET_SetGameManager@@3VFName@@A @ 152
?BATTERYNET_SetMatchMaker@@3VFName@@A @ 153
?BATTERYNET_rfAckAccesItemTypeList@@3VFName@@A @ 154
?BATTERYNET_rfAckAcquirePromotionItems@@3VFName@@A @ 155
?BATTERYNET_rfAckAddBlockUserList@@3VFName@@A @ 156
?BATTERYNET_rfAckAdjustClanMemberGrade@@3VFName@@A @ 157
?BATTERYNET_rfAckAdvertisement@@3VFName@@A @ 158
?BATTERYNET_rfAckAhnHsObject@@3VFName@@A @ 159
?BATTERYNET_rfAckAuctionBidding@@3VFName@@A @ 160
?BATTERYNET_rfAckAuctionInstantlyBuying@@3VFName@@A @ 161
?BATTERYNET_rfAckAuctionItemList@@3VFName@@A @ 162
?BATTERYNET_rfAckAuctionItemListCount@@3VFName@@A @ 163
?BATTERYNET_rfAckAuctionItemListEnd@@3VFName@@A @ 164
?BATTERYNET_rfAckAuctionItemListStart@@3VFName@@A @ 165
?BATTERYNET_rfAckAuctionMyItemCancel@@3VFName@@A @ 166
?BATTERYNET_rfAckAuctionMyItemRegister@@3VFName@@A @ 167
?BATTERYNET_rfAckAuctionTradeHistory@@3VFName@@A @ 168
?BATTERYNET_rfAckAutoChangedTeamUserList@@3VFName@@A @ 169
?BATTERYNET_rfAckBanUser@@3VFName@@A @ 170
?BATTERYNET_rfAckBlockUserList@@3VFName@@A @ 171
?BATTERYNET_rfAckBlockUserListEnd@@3VFName@@A @ 172
?BATTERYNET_rfAckBlockUserListStart@@3VFName@@A @ 173
?BATTERYNET_rfAckBuyItemByWebzenCash@@3VFName@@A @ 174
?BATTERYNET_rfAckBuyShopItem@@3VFName@@A @ 175
?BATTERYNET_rfAckChangeGameMode@@3VFName@@A @ 176
?BATTERYNET_rfAckChangeHost@@3VFName@@A @ 177
?BATTERYNET_rfAckChangeNewGuest@@3VFName@@A @ 178
?BATTERYNET_rfAckChangeRoomMaxNum@@3VFName@@A @ 179
?BATTERYNET_rfAckChangeRoomOwner@@3VFName@@A @ 180
?BATTERYNET_rfAckChangeRoomSetting@@3VFName@@A @ 181
?BATTERYNET_rfAckChangeRoomTitle_GM@@3VFName@@A @ 182
?BATTERYNET_rfAckChangeTeam@@3VFName@@A @ 183
?BATTERYNET_rfAckChangeUserState@@3VFName@@A @ 184
?BATTERYNET_rfAckChangedRoomTitle_FromGM@@3VFName@@A @ 185
?BATTERYNET_rfAckChannelList@@3VFName@@A @ 186
?BATTERYNET_rfAckChannelUserList@@3VFName@@A @ 187
?BATTERYNET_rfAckChannelUserListInGameRoom@@3VFName@@A @ 188
?BATTERYNET_rfAckCharBlockInfo@@3VFName@@A @ 189
?BATTERYNET_rfAckCharDetailInfo@@3VFName@@A @ 190
?BATTERYNET_rfAckCharInfo@@3VFName@@A @ 191
?BATTERYNET_rfAckChatClan@@3VFName@@A @ 192
?BATTERYNET_rfAckChatNormal@@3VFName@@A @ 193
?BATTERYNET_rfAckChatWispher@@3VFName@@A @ 194
?BATTERYNET_rfAckChatWispherMyCommunity@@3VFName@@A @ 195
?BATTERYNET_rfAckCheckEquipedWeaponDurability@@3VFName@@A @ 196
?BATTERYNET_rfAckClanChangeInfo@@3VFName@@A @ 197
?BATTERYNET_rfAckClanCharPersonelIntro@@3VFName@@A @ 198
?BATTERYNET_rfAckClanClose@@3VFName@@A @ 199
?BATTERYNET_rfAckClanInfo@@3VFName@@A @ 200
?BATTERYNET_rfAckClanMatchResultHistory@@3VFName@@A @ 201
?BATTERYNET_rfAckClanMatch_ChangeLeader@@3VFName@@A @ 202
?BATTERYNET_rfAckClanMatch_ChangeRoomSetting@@3VFName@@A @ 203
?BATTERYNET_rfAckClanMatch_Chat@@3VFName@@A @ 204
?BATTERYNET_rfAckClanMatch_EndPublicWaitRoomList@@3VFName@@A @ 205
?BATTERYNET_rfAckClanMatch_FoundMatch@@3VFName@@A @ 206
?BATTERYNET_rfAckClanMatch_GetClanWaittingRoomInfo@@3VFName@@A @ 207
?BATTERYNET_rfAckClanMatch_GetReady@@3VFName@@A @ 208
?BATTERYNET_rfAckClanMatch_InviteCrew@@3VFName@@A @ 209
?BATTERYNET_rfAckClanMatch_Join@@3VFName@@A @ 210
?BATTERYNET_rfAckClanMatch_JoinNotify@@3VFName@@A @ 211
?BATTERYNET_rfAckClanMatch_Leave@@3VFName@@A @ 212
?BATTERYNET_rfAckClanMatch_LeaveNotify@@3VFName@@A @ 213
?BATTERYNET_rfAckClanMatch_MemberList@@3VFName@@A @ 214
?BATTERYNET_rfAckClanMatch_NotifiyStartCombat@@3VFName@@A @ 215
?BATTERYNET_rfAckClanMatch_NotifyStartSearching@@3VFName@@A @ 216
?BATTERYNET_rfAckClanMatch_PublicWaitRoomChanged@@3VFName@@A @ 217
?BATTERYNET_rfAckClanMatch_PublicWaitRoomList@@3VFName@@A @ 218
?BATTERYNET_rfAckClanMatch_RecvInviteCrew@@3VFName@@A @ 219
?BATTERYNET_rfAckClanMatch_SetWaitRoomPublic@@3VFName@@A @ 220
?BATTERYNET_rfAckClanMatch_StartCombat@@3VFName@@A @ 221
?BATTERYNET_rfAckClanMatch_StartPublicWaitRoomList@@3VFName@@A @ 222
?BATTERYNET_rfAckClanMatch_StartSearching@@3VFName@@A @ 223
?BATTERYNET_rfAckClanMatch_StopSearching@@3VFName@@A @ 224
?BATTERYNET_rfAckClanMatch_WaittingTeamList@@3VFName@@A @ 225
?BATTERYNET_rfAckClanMemberListFromClient@@3VFName@@A @ 226
?BATTERYNET_rfAckClanMemberListFromClientEnd@@3VFName@@A @ 227
?BATTERYNET_rfAckClanMemberListFromClientStart@@3VFName@@A @ 228
?BATTERYNET_rfAckClanNews@@3VFName@@A @ 229
?BATTERYNET_rfAckClanPersonelIntro@@3VFName@@A @ 230
?BATTERYNET_rfAckClanSecession@@3VFName@@A @ 231
?BATTERYNET_rfAckClanUserList@@3VFName@@A @ 232
?BATTERYNET_rfAckClanUserListEnd@@3VFName@@A @ 233
?BATTERYNET_rfAckClanUserListStart@@3VFName@@A @ 234
?BATTERYNET_rfAckClientChallenge@@3VFName@@A @ 235
?BATTERYNET_rfAckClientChecksum@@3VFName@@A @ 236
?BATTERYNET_rfAckClientUdpInfoList@@3VFName@@A @ 237
?BATTERYNET_rfAckCommunityOptionList@@3VFName@@A @ 238
?BATTERYNET_rfAckConfirmFriendInvite@@3VFName@@A @ 239
?BATTERYNET_rfAckConfirmItemChanged@@3VFName@@A @ 240
?BATTERYNET_rfAckConfirmSkillChanged@@3VFName@@A @ 241
?BATTERYNET_rfAckConnectChannelServer@@3VFName@@A @ 242
?BATTERYNET_rfAckConnectGame@@3VFName@@A @ 243
?BATTERYNET_rfAckCouponUse@@3VFName@@A @ 244
?BATTERYNET_rfAckCreateChar@@3VFName@@A @ 245
?BATTERYNET_rfAckCreateClan@@3VFName@@A @ 246
?BATTERYNET_rfAckCreateGameRoom@@3VFName@@A @ 247
?BATTERYNET_rfAckDBCharInfo@@3VFName@@A @ 248
?BATTERYNET_rfAckDedicateHost_Login@@3VFName@@A @ 249
?BATTERYNET_rfAckDelMemo@@3VFName@@A @ 250
?BATTERYNET_rfAckDeleteFriend@@3VFName@@A @ 251
?BATTERYNET_rfAckDeleteMailAll@@3VFName@@A @ 252
?BATTERYNET_rfAckDisconnectGame@@3VFName@@A @ 253
?BATTERYNET_rfAckDummy@@3VFName@@A @ 254
?BATTERYNET_rfAckDupCheckClanName@@3VFName@@A @ 255
?BATTERYNET_rfAckEndMemoList@@3VFName@@A @ 256
?BATTERYNET_rfAckEnterChannel@@3VFName@@A @ 257
?BATTERYNET_rfAckEnterRoom@@3VFName@@A @ 258
?BATTERYNET_rfAckEntryItemList@@3VFName@@A @ 259
?BATTERYNET_rfAckEntryQSlotIDList@@3VFName@@A @ 260
?BATTERYNET_rfAckEntryQSlotUniqueIDList@@3VFName@@A @ 261
?BATTERYNET_rfAckEntrySkillList@@3VFName@@A @ 262
?BATTERYNET_rfAckEquipItem@@3VFName@@A @ 263
?BATTERYNET_rfAckEquipSkill@@3VFName@@A @ 264
?BATTERYNET_rfAckErrorReportServerAddr@@3VFName@@A @ 265
?BATTERYNET_rfAckEventNotify@@3VFName@@A @ 266
?BATTERYNET_rfAckExceedMaxUser@@3VFName@@A @ 267
?BATTERYNET_rfAckExteriorRoomInfo@@3VFName@@A @ 268
?BATTERYNET_rfAckExteriorRoomOwnerInfo@@3VFName@@A @ 269
?BATTERYNET_rfAckExteriorRoomState@@3VFName@@A @ 270
?BATTERYNET_rfAckExteriorRoomUserCount@@3VFName@@A @ 271
?BATTERYNET_rfAckFailedStartGame@@3VFName@@A @ 272
?BATTERYNET_rfAckForceDisconnectUDPFromHost@@3VFName@@A @ 273
?BATTERYNET_rfAckForceDisconnectUser_GM@@3VFName@@A @ 274
?BATTERYNET_rfAckForceFailedClientLoading@@3VFName@@A @ 275
?BATTERYNET_rfAckForceGameOver@@3VFName@@A @ 276
?BATTERYNET_rfAckFriendList@@3VFName@@A @ 277
?BATTERYNET_rfAckFriendListEnd@@3VFName@@A @ 278
?BATTERYNET_rfAckFriendListStart@@3VFName@@A @ 279
?BATTERYNET_rfAckFriendPosition@@3VFName@@A @ 280
?BATTERYNET_rfAckFriendsList@@3VFName@@A @ 281
?BATTERYNET_rfAckFriendsListEnd@@3VFName@@A @ 282
?BATTERYNET_rfAckFriendsListStart@@3VFName@@A @ 283
?BATTERYNET_rfAckGMEnterRoom@@3VFName@@A @ 284
?BATTERYNET_rfAckGMLeaveRoom@@3VFName@@A @ 285
?BATTERYNET_rfAckGameGuardAuthData@@3VFName@@A @ 286
?BATTERYNET_rfAckGameHostInfo@@3VFName@@A @ 287
?BATTERYNET_rfAckGameMapData@@3VFName@@A @ 288
?BATTERYNET_rfAckGameOver@@3VFName@@A @ 289
?BATTERYNET_rfAckGameOverEnd@@3VFName@@A @ 290
?BATTERYNET_rfAckGameRoomDestroy@@3VFName@@A @ 291
?BATTERYNET_rfAckGameRoomInfo@@3VFName@@A @ 292
?BATTERYNET_rfAckGetAttachedItemFromMemo@@3VFName@@A @ 293
?BATTERYNET_rfAckGetBooty@@3VFName@@A @ 294
?BATTERYNET_rfAckGetBootyChoose@@3VFName@@A @ 295
?BATTERYNET_rfAckGetBotID@@3VFName@@A @ 296
?BATTERYNET_rfAckGetCharBlockInfo@@3VFName@@A @ 297
?BATTERYNET_rfAckGetHolePunchingResult@@3VFName@@A @ 298
?BATTERYNET_rfAckGetIsHostBlocking@@3VFName@@A @ 299
?BATTERYNET_rfAckGetItemFromItemBox@@3VFName@@A @ 300
?BATTERYNET_rfAckGetMyMailBoxState@@3VFName@@A @ 301
?BATTERYNET_rfAckGetRankingInfoList@@3VFName@@A @ 302
?BATTERYNET_rfAckGetRankingInfoListEnd@@3VFName@@A @ 303
?BATTERYNET_rfAckGetRankingInfoListStart@@3VFName@@A @ 304
?BATTERYNET_rfAckGetServerTime@@3VFName@@A @ 305
?BATTERYNET_rfAckGetUserHostPriorityPoint@@3VFName@@A @ 306
?BATTERYNET_rfAckGiftItemByWebzenCash@@3VFName@@A @ 307
?BATTERYNET_rfAckGiveSkill@@3VFName@@A @ 308
?BATTERYNET_rfAckHash@@3VFName@@A @ 309
?BATTERYNET_rfAckHeadItemTypeList@@3VFName@@A @ 310
?BATTERYNET_rfAckHelmetItemTypeList@@3VFName@@A @ 311
?BATTERYNET_rfAckInviteClan@@3VFName@@A @ 312
?BATTERYNET_rfAckInviteClanResult@@3VFName@@A @ 313
?BATTERYNET_rfAckInviteGameRoom@@3VFName@@A @ 314
?BATTERYNET_rfAckIsAvailClanURL@@3VFName@@A @ 315
?BATTERYNET_rfAckIsGameRoomPlaying@@3VFName@@A @ 316
?BATTERYNET_rfAckIsHostAvailable@@3VFName@@A @ 317
?BATTERYNET_rfAckItemList@@3VFName@@A @ 318
?BATTERYNET_rfAckItemListEnd@@3VFName@@A @ 319
?BATTERYNET_rfAckItemListInItemBox@@3VFName@@A @ 320
?BATTERYNET_rfAckItemListStart@@3VFName@@A @ 321
?BATTERYNET_rfAckJoinClan@@3VFName@@A @ 322
?BATTERYNET_rfAckJoinClanResult@@3VFName@@A @ 323
?BATTERYNET_rfAckLeaveChannel@@3VFName@@A @ 324
?BATTERYNET_rfAckLeaveRoom@@3VFName@@A @ 325
?BATTERYNET_rfAckLimitedListInChannel@@3VFName@@A @ 326
?BATTERYNET_rfAckLogOut@@3VFName@@A @ 327
?BATTERYNET_rfAckLogin2@@3VFName@@A @ 328
?BATTERYNET_rfAckLogin@@3VFName@@A @ 329
?BATTERYNET_rfAckLoginInHouseTest@@3VFName@@A @ 330
?BATTERYNET_rfAckLoginWithGlobal@@3VFName@@A @ 331
?BATTERYNET_rfAckLoginWithIndonesia@@3VFName@@A @ 332
?BATTERYNET_rfAckLoginWithTencentAuth@@3VFName@@A @ 333
?BATTERYNET_rfAckLoginWithThailand@@3VFName@@A @ 334
?BATTERYNET_rfAckLoginWithWZAuth@@3VFName@@A @ 335
?BATTERYNET_rfAckMaxUserExceed@@3VFName@@A @ 336
?BATTERYNET_rfAckMemoList@@3VFName@@A @ 337
?BATTERYNET_rfAckModifyWeapon@@3VFName@@A @ 338
?BATTERYNET_rfAckMoveToLobby@@3VFName@@A @ 339
?BATTERYNET_rfAckMyEquipedItemList@@3VFName@@A @ 340
?BATTERYNET_rfAckMyEquipedQSlotList@@3VFName@@A @ 341
?BATTERYNET_rfAckMyEquipedSkillList@@3VFName@@A @ 342
?BATTERYNET_rfAckMyMoney@@3VFName@@A @ 343
?BATTERYNET_rfAckNotice_GM@@3VFName@@A @ 344
?BATTERYNET_rfAckNotifyAdjustClanMemberGrade@@3VFName@@A @ 345
?BATTERYNET_rfAckNotifyChangedItemState@@3VFName@@A @ 346
?BATTERYNET_rfAckNotifyChangedSkillState@@3VFName@@A @ 347
?BATTERYNET_rfAckNotifyClanSecession@@3VFName@@A @ 348
?BATTERYNET_rfAckNotifyClientJoinTime@@3VFName@@A @ 349
?BATTERYNET_rfAckNotifyEndTutorial@@3VFName@@A @ 350
?BATTERYNET_rfAckNotifyExpiredItemIDs@@3VFName@@A @ 351
?BATTERYNET_rfAckNotifyExpiredSkillIDs@@3VFName@@A @ 352
?BATTERYNET_rfAckNotifyHostBlocking@@3VFName@@A @ 353
?BATTERYNET_rfAckNotifyLoadingState@@3VFName@@A @ 354
?BATTERYNET_rfAckNotifyMyCharInfoToRoomUser@@3VFName@@A @ 355
?BATTERYNET_rfAckNotifyNewClanMember@@3VFName@@A @ 356
?BATTERYNET_rfAckNotifyStartTutorial@@3VFName@@A @ 357
?BATTERYNET_rfAckNotifyUpdateCharInfo_LevelMark@@3VFName@@A @ 358
?BATTERYNET_rfAckNotifyUpdateCharInfo_TitleMark@@3VFName@@A @ 359
?BATTERYNET_rfAckPCBangUserList@@3VFName@@A @ 360
?BATTERYNET_rfAckPCBangUserListEnd@@3VFName@@A @ 361
?BATTERYNET_rfAckPCBangUserListStart@@3VFName@@A @ 362
?BATTERYNET_rfAckPaidItem_BroadCast@@3VFName@@A @ 363
?BATTERYNET_rfAckPaidItem_ChangeCharname@@3VFName@@A @ 364
?BATTERYNET_rfAckPaidItem_ChangeClanMark@@3VFName@@A @ 365
?BATTERYNET_rfAckPaidItem_ChangeClanname@@3VFName@@A @ 366
?BATTERYNET_rfAckPaidItem_ClanMarkDupCheck@@3VFName@@A @ 367
?BATTERYNET_rfAckPaidItem_EraseRecord@@3VFName@@A @ 368
?BATTERYNET_rfAckPaidItem_NotifyChangeClanMark@@3VFName@@A @ 369
?BATTERYNET_rfAckPaidItem_NotifyChangeClanname@@3VFName@@A @ 370
?BATTERYNET_rfAckPaidItem_RelayBroadcast@@3VFName@@A @ 371
?BATTERYNET_rfAckParamCheckSum@@3VFName@@A @ 372
?BATTERYNET_rfAckPermanentRoomInfo@@3VFName@@A @ 373
?BATTERYNET_rfAckPopUpMessage@@3VFName@@A @ 374
?BATTERYNET_rfAckProcessExcuteCmd@@3VFName@@A @ 375
?BATTERYNET_rfAckProcessPreLoginUser@@3VFName@@A @ 376
?BATTERYNET_rfAckQSlotList@@3VFName@@A @ 377
?BATTERYNET_rfAckQuestGetAvailableEventList@@3VFName@@A @ 378
?BATTERYNET_rfAckQuestList@@3VFName@@A @ 379
?BATTERYNET_rfAckQuestListEnd@@3VFName@@A @ 380
?BATTERYNET_rfAckQuestListStart@@3VFName@@A @ 381
?BATTERYNET_rfAckQuestUpdate@@3VFName@@A @ 382
?BATTERYNET_rfAckQuitDedicateHost@@3VFName@@A @ 383
?BATTERYNET_rfAckRandomBox_Use@@3VFName@@A @ 384
?BATTERYNET_rfAckReadMemo@@3VFName@@A @ 385
?BATTERYNET_rfAckRecvClanInvite@@3VFName@@A @ 386
?BATTERYNET_rfAckRecvClanInviteResult@@3VFName@@A @ 387
?BATTERYNET_rfAckRecvInviteGameRoom@@3VFName@@A @ 388
?BATTERYNET_rfAckRecvInviteGameRoomResult@@3VFName@@A @ 389
?BATTERYNET_rfAckRecvJoinClan@@3VFName@@A @ 390
?BATTERYNET_rfAckRecvJoinClanResult@@3VFName@@A @ 391
?BATTERYNET_rfAckRecvSystemMsg@@3VFName@@A @ 392
?BATTERYNET_rfAckRegisterMainPCBang@@3VFName@@A @ 393
?BATTERYNET_rfAckRegisterMyUdpInfo@@3VFName@@A @ 394
?BATTERYNET_rfAckRegisterOtherUdpInfo@@3VFName@@A @ 395
?BATTERYNET_rfAckRegisteredPCBangInfo@@3VFName@@A @ 396
?BATTERYNET_rfAckRemoveBlockUserList@@3VFName@@A @ 397
?BATTERYNET_rfAckRepairCost@@3VFName@@A @ 398
?BATTERYNET_rfAckRepairItem@@3VFName@@A @ 399
?BATTERYNET_rfAckReturnBotID@@3VFName@@A @ 400
?BATTERYNET_rfAckRoomList@@3VFName@@A @ 401
?BATTERYNET_rfAckRoomListEnd@@3VFName@@A @ 402
?BATTERYNET_rfAckRoomListStart@@3VFName@@A @ 403
?BATTERYNET_rfAckRoomUserList@@3VFName@@A @ 404
?BATTERYNET_rfAckRoomUserPingInfo@@3VFName@@A @ 405
?BATTERYNET_rfAckSearchClan@@3VFName@@A @ 406
?BATTERYNET_rfAckSelectMap@@3VFName@@A @ 407
?BATTERYNET_rfAckSellShopItem@@3VFName@@A @ 408
?BATTERYNET_rfAckSellShopItemInfo@@3VFName@@A @ 409
?BATTERYNET_rfAckSendFriendInvite@@3VFName@@A @ 410
?BATTERYNET_rfAckSendGift@@3VFName@@A @ 411
?BATTERYNET_rfAckSendMemo@@3VFName@@A @ 412
?BATTERYNET_rfAckSendSystemMsg@@3VFName@@A @ 413
?BATTERYNET_rfAckServerList@@3VFName@@A @ 414
?BATTERYNET_rfAckServerShutdown@@3VFName@@A @ 415
?BATTERYNET_rfAckServerTime@@3VFName@@A @ 416
?BATTERYNET_rfAckServerType@@3VFName@@A @ 417
?BATTERYNET_rfAckSetCommunityOption@@3VFName@@A @ 418
?BATTERYNET_rfAckSetLookForClan@@3VFName@@A @ 419
?BATTERYNET_rfAckSetUserBootySeedValue@@3VFName@@A @ 420
?BATTERYNET_rfAckShopItemData@@3VFName@@A @ 421
?BATTERYNET_rfAckShopItemList@@3VFName@@A @ 422
?BATTERYNET_rfAckShopItemListEnd@@3VFName@@A @ 423
?BATTERYNET_rfAckShopItemListStart@@3VFName@@A @ 424
?BATTERYNET_rfAckSpecificChannelUserInfo@@3VFName@@A @ 425
?BATTERYNET_rfAckSpecificGameRoomInfo@@3VFName@@A @ 426
?BATTERYNET_rfAckStartDedicateHost@@3VFName@@A @ 427
?BATTERYNET_rfAckStartGame@@3VFName@@A @ 428
?BATTERYNET_rfAckStartHolePunching@@3VFName@@A @ 429
?BATTERYNET_rfAckStartMemoList@@3VFName@@A @ 430
?BATTERYNET_rfAckStartNatDiag@@3VFName@@A @ 431
?BATTERYNET_rfAckSuccessStartGame@@3VFName@@A @ 432
?BATTERYNET_rfAckTencent_AASInfo@@3VFName@@A @ 433
?BATTERYNET_rfAckTencent_StartTenProtect@@3VFName@@A @ 434
?BATTERYNET_rfAckTestDouble@@3VFName@@A @ 435
?BATTERYNET_rfAckUpdateQSlot@@3VFName@@A @ 436
?BATTERYNET_rfAckUpdateScore@@3VFName@@A @ 437
?BATTERYNET_rfAckUpdateScoreResult@@3VFName@@A @ 438
?BATTERYNET_rfAckUpdateWeaponDurability@@3VFName@@A @ 439
?BATTERYNET_rfAckUserDetailInfo@@3VFName@@A @ 440
?BATTERYNET_rfAckUserSkillList@@3VFName@@A @ 441
?BATTERYNET_rfAckUserSkillListEnd@@3VFName@@A @ 442
?BATTERYNET_rfAckUserSkillListStart@@3VFName@@A @ 443
?BATTERYNET_rfAckWebzenBillingStorageList@@3VFName@@A @ 444
?BATTERYNET_rfAckWebzenBillingStorageListEnd@@3VFName@@A @ 445
?BATTERYNET_rfAckWebzenBillingStorageListStart@@3VFName@@A @ 446
?BATTERYNET_rfAckWebzenBillingUseStorageItem@@3VFName@@A @ 447
?BATTERYNET_rfAckWebzenCash@@3VFName@@A @ 448
?BATTERYNET_rfAckWebzenShopScriptVersion@@3VFName@@A @ 449
?BATTERYNET_rfNotifyClanLevelup@@3VFName@@A @ 450
?BATTERYNET_rfNotifyCouponUseError@@3VFName@@A @ 451
?BATTERYNET_rfNotifyNewClanName@@3VFName@@A @ 452
?BATTERYNET_rfNotifyNewNickName@@3VFName@@A @ 453
?BATTERYNET_rfReqAccesItemTypeList@@3VFName@@A @ 454
?BATTERYNET_rfReqAddBlockUserList@@3VFName@@A @ 455
?BATTERYNET_rfReqAdjustClanMemberGrade@@3VFName@@A @ 456
?BATTERYNET_rfReqAdvertisement@@3VFName@@A @ 457
?BATTERYNET_rfReqAhnHsObject@@3VFName@@A @ 458
?BATTERYNET_rfReqAhnNotifyDisconnct@@3VFName@@A @ 459
?BATTERYNET_rfReqAuctionBidding@@3VFName@@A @ 460
?BATTERYNET_rfReqAuctionInstantlyBuying@@3VFName@@A @ 461
?BATTERYNET_rfReqAuctionItemList@@3VFName@@A @ 462
?BATTERYNET_rfReqAuctionItemListCount@@3VFName@@A @ 463
?BATTERYNET_rfReqAuctionMyItemCancel@@3VFName@@A @ 464
?BATTERYNET_rfReqAuctionMyItemRegister@@3VFName@@A @ 465
?BATTERYNET_rfReqAuctionTradeHistory@@3VFName@@A @ 466
?BATTERYNET_rfReqBanUser@@3VFName@@A @ 467
?BATTERYNET_rfReqBlockUserList@@3VFName@@A @ 468
?BATTERYNET_rfReqBuyItemByWebzenCash@@3VFName@@A @ 469
?BATTERYNET_rfReqBuyItemByWebzenCashGP20@@3VFName@@A @ 470
?BATTERYNET_rfReqBuyShopItem@@3VFName@@A @ 471
?BATTERYNET_rfReqChangeGameMode@@3VFName@@A @ 472
?BATTERYNET_rfReqChangeRoomMaxNum@@3VFName@@A @ 473
?BATTERYNET_rfReqChangeRoomOwner@@3VFName@@A @ 474
?BATTERYNET_rfReqChangeRoomSetting@@3VFName@@A @ 475
?BATTERYNET_rfReqChangeRoomTitle_GM@@3VFName@@A @ 476
?BATTERYNET_rfReqChangeTeam@@3VFName@@A @ 477
?BATTERYNET_rfReqChangeUserState@@3VFName@@A @ 478
?BATTERYNET_rfReqChannelList@@3VFName@@A @ 479
?BATTERYNET_rfReqChannelUserList@@3VFName@@A @ 480
?BATTERYNET_rfReqChannelUserListInGameRoom@@3VFName@@A @ 481
?BATTERYNET_rfReqCharBlockInfo@@3VFName@@A @ 482
?BATTERYNET_rfReqCharDetailInfo@@3VFName@@A @ 483
?BATTERYNET_rfReqCharInfo@@3VFName@@A @ 484
?BATTERYNET_rfReqChatClan@@3VFName@@A @ 485
?BATTERYNET_rfReqChatNormal@@3VFName@@A @ 486
?BATTERYNET_rfReqChatWispher@@3VFName@@A @ 487
?BATTERYNET_rfReqChatWispherMyCommunity@@3VFName@@A @ 488
?BATTERYNET_rfReqCheckEquipedWeaponDurability@@3VFName@@A @ 489
?BATTERYNET_rfReqClanChangeInfo@@3VFName@@A @ 490
?BATTERYNET_rfReqClanCharPersonelIntro@@3VFName@@A @ 491
?BATTERYNET_rfReqClanClose@@3VFName@@A @ 492
?BATTERYNET_rfReqClanInfo@@3VFName@@A @ 493
?BATTERYNET_rfReqClanMatchResultHistory@@3VFName@@A @ 494
?BATTERYNET_rfReqClanMatch_ChangeLeader@@3VFName@@A @ 495
?BATTERYNET_rfReqClanMatch_ChangeRoomSetting@@3VFName@@A @ 496
?BATTERYNET_rfReqClanMatch_Chat@@3VFName@@A @ 497
?BATTERYNET_rfReqClanMatch_FoundMatch@@3VFName@@A @ 498
?BATTERYNET_rfReqClanMatch_GetClanWaittingRoomInfo@@3VFName@@A @ 499
?BATTERYNET_rfReqClanMatch_GetPublicWaitRoomList@@3VFName@@A @ 500
?BATTERYNET_rfReqClanMatch_GetReady@@3VFName@@A @ 501
?BATTERYNET_rfReqClanMatch_InviteCrew@@3VFName@@A @ 502
?BATTERYNET_rfReqClanMatch_InviteCrewResult@@3VFName@@A @ 503
?BATTERYNET_rfReqClanMatch_Join@@3VFName@@A @ 504
?BATTERYNET_rfReqClanMatch_Leave@@3VFName@@A @ 505
?BATTERYNET_rfReqClanMatch_MemberList@@3VFName@@A @ 506
?BATTERYNET_rfReqClanMatch_RecvInviteCrew@@3VFName@@A @ 507
?BATTERYNET_rfReqClanMatch_SetWaitRoomPublic@@3VFName@@A @ 508
?BATTERYNET_rfReqClanMatch_StartCombat@@3VFName@@A @ 509
?BATTERYNET_rfReqClanMatch_StartSearching@@3VFName@@A @ 510
?BATTERYNET_rfReqClanMatch_StopSearching@@3VFName@@A @ 511
?BATTERYNET_rfReqClanMatch_WaittingTeamList@@3VFName@@A @ 512
?BATTERYNET_rfReqClanMemberListFromClient@@3VFName@@A @ 513
?BATTERYNET_rfReqClanNews@@3VFName@@A @ 514
?BATTERYNET_rfReqClanPersonelIntro@@3VFName@@A @ 515
?BATTERYNET_rfReqClanSecession@@3VFName@@A @ 516
?BATTERYNET_rfReqClanUserList@@3VFName@@A @ 517
?BATTERYNET_rfReqClientChallenge@@3VFName@@A @ 518
?BATTERYNET_rfReqClientChecksum@@3VFName@@A @ 519
?BATTERYNET_rfReqClientUdpInfoList@@3VFName@@A @ 520
?BATTERYNET_rfReqCommunityOptionList@@3VFName@@A @ 521
?BATTERYNET_rfReqCompleteFriendInvite@@3VFName@@A @ 522
?BATTERYNET_rfReqConfirmFriendInvite@@3VFName@@A @ 523
?BATTERYNET_rfReqConfirmItemChanged@@3VFName@@A @ 524
?BATTERYNET_rfReqConfirmSkillChanged@@3VFName@@A @ 525
?BATTERYNET_rfReqConnectChannelServer@@3VFName@@A @ 526
?BATTERYNET_rfReqConnectGame@@3VFName@@A @ 527
?BATTERYNET_rfReqCouponUse@@3VFName@@A @ 528
?BATTERYNET_rfReqCreateChar@@3VFName@@A @ 529
?BATTERYNET_rfReqCreateClan@@3VFName@@A @ 530
?BATTERYNET_rfReqCreateGameRoom@@3VFName@@A @ 531
?BATTERYNET_rfReqDBCharInfo@@3VFName@@A @ 532
?BATTERYNET_rfReqDailyQuestNewAvailable@@3VFName@@A @ 533
?BATTERYNET_rfReqDedicateHost_Login@@3VFName@@A @ 534
?BATTERYNET_rfReqDelMemo@@3VFName@@A @ 535
?BATTERYNET_rfReqDeleteFriend@@3VFName@@A @ 536
?BATTERYNET_rfReqDeleteMailAll@@3VFName@@A @ 537
?BATTERYNET_rfReqDisconnectGame@@3VFName@@A @ 538
?BATTERYNET_rfReqDummy@@3VFName@@A @ 539
?BATTERYNET_rfReqDupCheckClanName@@3VFName@@A @ 540
?BATTERYNET_rfReqEnterChannel@@3VFName@@A @ 541
?BATTERYNET_rfReqEnterRoom@@3VFName@@A @ 542
?BATTERYNET_rfReqEntryItemList@@3VFName@@A @ 543
?BATTERYNET_rfReqEntryQSlotIDList@@3VFName@@A @ 544
?BATTERYNET_rfReqEntryQSlotUniqueIDList@@3VFName@@A @ 545
?BATTERYNET_rfReqEntrySkillList@@3VFName@@A @ 546
?BATTERYNET_rfReqEquipItem@@3VFName@@A @ 547
?BATTERYNET_rfReqEquipSkill@@3VFName@@A @ 548
?BATTERYNET_rfReqErrorReportServerAddr@@3VFName@@A @ 549
?BATTERYNET_rfReqEventNotify@@3VFName@@A @ 550
?BATTERYNET_rfReqExteriorRoomInfo@@3VFName@@A @ 551
?BATTERYNET_rfReqExteriorRoomOwnerInfo@@3VFName@@A @ 552
?BATTERYNET_rfReqExteriorRoomState@@3VFName@@A @ 553
?BATTERYNET_rfReqExteriorRoomUserCount@@3VFName@@A @ 554
?BATTERYNET_rfReqFailedStartGame@@3VFName@@A @ 555
?BATTERYNET_rfReqForceDisconnectUDPFromHost@@3VFName@@A @ 556
?BATTERYNET_rfReqForceDisconnectUser_GM@@3VFName@@A @ 557
?BATTERYNET_rfReqForceFailedClientLoading@@3VFName@@A @ 558
?BATTERYNET_rfReqForceGameOver@@3VFName@@A @ 559
?BATTERYNET_rfReqForceLogoutByOwner@@3VFName@@A @ 560
?BATTERYNET_rfReqForceNatTypeSetting@@3VFName@@A @ 561
?BATTERYNET_rfReqFriendList@@3VFName@@A @ 562
?BATTERYNET_rfReqFriendPosition@@3VFName@@A @ 563
?BATTERYNET_rfReqFriendsList@@3VFName@@A @ 564
?BATTERYNET_rfReqGameGuardAuthData@@3VFName@@A @ 565
?BATTERYNET_rfReqGameHostInfo@@3VFName@@A @ 566
?BATTERYNET_rfReqGameMapData@@3VFName@@A @ 567
?BATTERYNET_rfReqGameOver@@3VFName@@A @ 568
?BATTERYNET_rfReqGameOverEnd@@3VFName@@A @ 569
?BATTERYNET_rfReqGamePlay_ChangeWeaponSet@@3VFName@@A @ 570
?BATTERYNET_rfReqGamePlay_DefuseBomb@@3VFName@@A @ 571
?BATTERYNET_rfReqGamePlay_GetChopper@@3VFName@@A @ 572
?BATTERYNET_rfReqGamePlay_InstallBomb@@3VFName@@A @ 573
?BATTERYNET_rfReqGamePlay_SetGameStartTime@@3VFName@@A @ 574
?BATTERYNET_rfReqGamePlay_SetRoundStartTime@@3VFName@@A @ 575
?BATTERYNET_rfReqGamePlay_TakeAPoint@@3VFName@@A @ 576
?BATTERYNET_rfReqGamePlay_UpdateDomScore@@3VFName@@A @ 577
?BATTERYNET_rfReqGameRoomInfo@@3VFName@@A @ 578
?BATTERYNET_rfReqGetAttachedItemFromMemo@@3VFName@@A @ 579
?BATTERYNET_rfReqGetBooty@@3VFName@@A @ 580
?BATTERYNET_rfReqGetBotID@@3VFName@@A @ 581
?BATTERYNET_rfReqGetCharBlockInfo@@3VFName@@A @ 582
?BATTERYNET_rfReqGetHolePunchingResult@@3VFName@@A @ 583
?BATTERYNET_rfReqGetIsHostBlocking@@3VFName@@A @ 584
?BATTERYNET_rfReqGetItemFromItemBox@@3VFName@@A @ 585
?BATTERYNET_rfReqGetMyMailBoxState@@3VFName@@A @ 586
?BATTERYNET_rfReqGetRankingInfoList@@3VFName@@A @ 587
?BATTERYNET_rfReqGetServerTime@@3VFName@@A @ 588
?BATTERYNET_rfReqGetUserHostPriorityPoint@@3VFName@@A @ 589
?BATTERYNET_rfReqGiftItemByWebzenCash@@3VFName@@A @ 590
?BATTERYNET_rfReqGiftItemByWebzenCashGP20@@3VFName@@A @ 591
?BATTERYNET_rfReqGiveSkill@@3VFName@@A @ 592
?BATTERYNET_rfReqHash@@3VFName@@A @ 593
?BATTERYNET_rfReqHeadItemTypeList@@3VFName@@A @ 594
?BATTERYNET_rfReqHelmetItemTypeList@@3VFName@@A @ 595
?BATTERYNET_rfReqInGameRoomUserClanLevelChanged@@3VFName@@A @ 596
?BATTERYNET_rfReqInGameRoomUserInfoChanged@@3VFName@@A @ 597
?BATTERYNET_rfReqInviteClan@@3VFName@@A @ 598
?BATTERYNET_rfReqInviteGameRoom@@3VFName@@A @ 599
?BATTERYNET_rfReqIsAvailClanURL@@3VFName@@A @ 600
?BATTERYNET_rfReqIsGameRoomPlaying@@3VFName@@A @ 601
?BATTERYNET_rfReqIsHostAvailable@@3VFName@@A @ 602
?BATTERYNET_rfReqIsPaidWebzenPCBang@@3VFName@@A @ 603
?BATTERYNET_rfReqItemList@@3VFName@@A @ 604
?BATTERYNET_rfReqItemListInItemBox@@3VFName@@A @ 605
?BATTERYNET_rfReqJoinClan@@3VFName@@A @ 606
?BATTERYNET_rfReqKeepAlive@@3VFName@@A @ 607
?BATTERYNET_rfReqLeaveChannel@@3VFName@@A @ 608
?BATTERYNET_rfReqLeaveRoom@@3VFName@@A @ 609
?BATTERYNET_rfReqLimitedListInChannel@@3VFName@@A @ 610
?BATTERYNET_rfReqLogEndEachRound@@3VFName@@A @ 611
?BATTERYNET_rfReqLogGetScore@@3VFName@@A @ 612
?BATTERYNET_rfReqLogOut@@3VFName@@A @ 613
?BATTERYNET_rfReqLogin2@@3VFName@@A @ 614
?BATTERYNET_rfReqLogin@@3VFName@@A @ 615
?BATTERYNET_rfReqLoginInHouseTest@@3VFName@@A @ 616
?BATTERYNET_rfReqLoginWithGlobal@@3VFName@@A @ 617
?BATTERYNET_rfReqLoginWithIndonesia@@3VFName@@A @ 618
?BATTERYNET_rfReqLoginWithTencentAuth@@3VFName@@A @ 619
?BATTERYNET_rfReqLoginWithThailand@@3VFName@@A @ 620
?BATTERYNET_rfReqLoginWithWZAuth@@3VFName@@A @ 621
?BATTERYNET_rfReqMemoList@@3VFName@@A @ 622
?BATTERYNET_rfReqModifyWeapon@@3VFName@@A @ 623
?BATTERYNET_rfReqMyEquipedItemList@@3VFName@@A @ 624
?BATTERYNET_rfReqMyEquipedQSlotList@@3VFName@@A @ 625
?BATTERYNET_rfReqMyEquipedSkillList@@3VFName@@A @ 626
?BATTERYNET_rfReqMyMoney@@3VFName@@A @ 627
?BATTERYNET_rfReqNotice_GM@@3VFName@@A @ 628
?BATTERYNET_rfReqNotifyChangeRoomState@@3VFName@@A @ 629
?BATTERYNET_rfReqNotifyChangedItemState@@3VFName@@A @ 630
?BATTERYNET_rfReqNotifyChangedSkillState@@3VFName@@A @ 631
?BATTERYNET_rfReqNotifyClientJoinTime@@3VFName@@A @ 632
?BATTERYNET_rfReqNotifyDisconnectHostInLoading@@3VFName@@A @ 633
?BATTERYNET_rfReqNotifyDurabilityZeroItem@@3VFName@@A @ 634
?BATTERYNET_rfReqNotifyEndTutorial@@3VFName@@A @ 635
?BATTERYNET_rfReqNotifyExpiredItemIDs@@3VFName@@A @ 636
?BATTERYNET_rfReqNotifyExpiredSkillIDs@@3VFName@@A @ 637
?BATTERYNET_rfReqNotifyHostBlocking@@3VFName@@A @ 638
?BATTERYNET_rfReqNotifyLevelUp@@3VFName@@A @ 639
?BATTERYNET_rfReqNotifyLoadingState@@3VFName@@A @ 640
?BATTERYNET_rfReqNotifyLoadingStatus@@3VFName@@A @ 641
?BATTERYNET_rfReqNotifyMyCharInfoToRoomUser@@3VFName@@A @ 642
?BATTERYNET_rfReqNotifyRecvDummyForHolePunching@@3VFName@@A @ 643
?BATTERYNET_rfReqNotifyRelayServerAddr@@3VFName@@A @ 644
?BATTERYNET_rfReqNotifyShopItemData@@3VFName@@A @ 645
?BATTERYNET_rfReqNotifyShopItemDataEnd@@3VFName@@A @ 646
?BATTERYNET_rfReqNotifyStartTutorial@@3VFName@@A @ 647
?BATTERYNET_rfReqPCBangUserList@@3VFName@@A @ 648
?BATTERYNET_rfReqPaidItem_BroadCast@@3VFName@@A @ 649
?BATTERYNET_rfReqPaidItem_ChangeCharname@@3VFName@@A @ 650
?BATTERYNET_rfReqPaidItem_ChangeClanMark@@3VFName@@A @ 651
?BATTERYNET_rfReqPaidItem_ChangeClanname@@3VFName@@A @ 652
?BATTERYNET_rfReqPaidItem_ClanMarkDupCheck@@3VFName@@A @ 653
?BATTERYNET_rfReqPaidItem_EraseRecord@@3VFName@@A @ 654
?BATTERYNET_rfReqParamCheckSum@@3VFName@@A @ 655
?BATTERYNET_rfReqPermanentRoomInfo@@3VFName@@A @ 656
?BATTERYNET_rfReqProcessExcuteCmd@@3VFName@@A @ 657
?BATTERYNET_rfReqProcessPreLoginUser@@3VFName@@A @ 658
?BATTERYNET_rfReqQSlotList@@3VFName@@A @ 659
?BATTERYNET_rfReqQuestGetAvailableEventList@@3VFName@@A @ 660
?BATTERYNET_rfReqQuestList@@3VFName@@A @ 661
?BATTERYNET_rfReqQuestNewAvailable@@3VFName@@A @ 662
?BATTERYNET_rfReqQuestUpdate@@3VFName@@A @ 663
?BATTERYNET_rfReqQuitDedicateHost@@3VFName@@A @ 664
?BATTERYNET_rfReqRandomBox_Use@@3VFName@@A @ 665
?BATTERYNET_rfReqReadMemo@@3VFName@@A @ 666
?BATTERYNET_rfReqRecvChatWispher@@3VFName@@A @ 667
?BATTERYNET_rfReqRecvClanInvite@@3VFName@@A @ 668
?BATTERYNET_rfReqRecvDeleteFriend@@3VFName@@A @ 669
?BATTERYNET_rfReqRecvForceDisconnectUDPFromHost@@3VFName@@A @ 670
?BATTERYNET_rfReqRecvForceDisconnected_FromGM@@3VFName@@A @ 671
?BATTERYNET_rfReqRecvForceFailedClientLoading@@3VFName@@A @ 672
?BATTERYNET_rfReqRecvFriendInvite@@3VFName@@A @ 673
?BATTERYNET_rfReqRecvInviteGameRoom@@3VFName@@A @ 674
?BATTERYNET_rfReqRecvJoinClan@@3VFName@@A @ 675
?BATTERYNET_rfReqRecvMemo@@3VFName@@A @ 676
?BATTERYNET_rfReqRecvNotice_FromGM@@3VFName@@A @ 677
?BATTERYNET_rfReqRegisterMainPCBang@@3VFName@@A @ 678
?BATTERYNET_rfReqRegisterMyUdpInfo@@3VFName@@A @ 679
?BATTERYNET_rfReqRegisteredPCBangInfo@@3VFName@@A @ 680
?BATTERYNET_rfReqRelayServerOff@@3VFName@@A @ 681
?BATTERYNET_rfReqRelayServerOn@@3VFName@@A @ 682
?BATTERYNET_rfReqRemoveBlockUserList@@3VFName@@A @ 683
?BATTERYNET_rfReqRemoveCheckTeamBalanceList@@3VFName@@A @ 684
?BATTERYNET_rfReqRepairCost@@3VFName@@A @ 685
?BATTERYNET_rfReqRepairItem@@3VFName@@A @ 686
?BATTERYNET_rfReqReturnBotID@@3VFName@@A @ 687
?BATTERYNET_rfReqRoomList@@3VFName@@A @ 688
?BATTERYNET_rfReqRoomUserList@@3VFName@@A @ 689
?BATTERYNET_rfReqRoomUserPingInfo@@3VFName@@A @ 690
?BATTERYNET_rfReqSelectMap@@3VFName@@A @ 691
?BATTERYNET_rfReqSellShopItem@@3VFName@@A @ 692
?BATTERYNET_rfReqSellShopItemInfo@@3VFName@@A @ 693
?BATTERYNET_rfReqSendFriendInvite@@3VFName@@A @ 694
?BATTERYNET_rfReqSendGift@@3VFName@@A @ 695
?BATTERYNET_rfReqSendMemo@@3VFName@@A @ 696
?BATTERYNET_rfReqSendSystemMsg@@3VFName@@A @ 697
?BATTERYNET_rfReqSerachClan@@3VFName@@A @ 698
?BATTERYNET_rfReqServerList@@3VFName@@A @ 699
?BATTERYNET_rfReqServerShutdown@@3VFName@@A @ 700
?BATTERYNET_rfReqServerTime@@3VFName@@A @ 701
?BATTERYNET_rfReqServerType@@3VFName@@A @ 702
?BATTERYNET_rfReqSetClientVersion@@3VFName@@A @ 703
?BATTERYNET_rfReqSetCommunityOption@@3VFName@@A @ 704
?BATTERYNET_rfReqSetLookForClan@@3VFName@@A @ 705
?BATTERYNET_rfReqSetUserBootySeedValue@@3VFName@@A @ 706
?BATTERYNET_rfReqShopItemData@@3VFName@@A @ 707
?BATTERYNET_rfReqShopItemList@@3VFName@@A @ 708
?BATTERYNET_rfReqSpecificChannelUserInfo@@3VFName@@A @ 709
?BATTERYNET_rfReqSpecificGameRoomInfo@@3VFName@@A @ 710
?BATTERYNET_rfReqStartDedicateHost@@3VFName@@A @ 711
?BATTERYNET_rfReqStartGame@@3VFName@@A @ 712
?BATTERYNET_rfReqStartHolePunching@@3VFName@@A @ 713
?BATTERYNET_rfReqStartNatDiag@@3VFName@@A @ 714
?BATTERYNET_rfReqSuccessStartGame@@3VFName@@A @ 715
?BATTERYNET_rfReqTerminateDedicateHostProcess@@3VFName@@A @ 716
?BATTERYNET_rfReqTestDouble@@3VFName@@A @ 717
?BATTERYNET_rfReqUpdateMyHostPriorityPoint@@3VFName@@A @ 718
?BATTERYNET_rfReqUpdateProcessState@@3VFName@@A @ 719
?BATTERYNET_rfReqUpdateQSlot@@3VFName@@A @ 720
?BATTERYNET_rfReqUpdateScore@@3VFName@@A @ 721
?BATTERYNET_rfReqUpdateUserCount_ChannelServer@@3VFName@@A @ 722
?BATTERYNET_rfReqUpdateUserCount_DudeServer@@3VFName@@A @ 723
?BATTERYNET_rfReqUpdateUserCount_LoginServer@@3VFName@@A @ 724
?BATTERYNET_rfReqUpdateUserPerformenceInfo@@3VFName@@A @ 725
?BATTERYNET_rfReqUpdateWeaponDurability@@3VFName@@A @ 726
?BATTERYNET_rfReqUserDetailInfo@@3VFName@@A @ 727
?BATTERYNET_rfReqUserSkillList@@3VFName@@A @ 728
?BATTERYNET_rfReqWebzenBillingStorageList@@3VFName@@A @ 729
?BATTERYNET_rfReqWebzenBillingUseStorageItem@@3VFName@@A @ 730
?BATTERYNET_rfReqWebzenCash@@3VFName@@A @ 731
?BATTERYNET_rfReqWebzenShopScriptVersion@@3VFName@@A @ 732
?BATTERYNET_rfReqWriteServerLog@@3VFName@@A @ 733
?BATTERYNET_rfUpdateWebzenShopScriptVersion@@3VFName@@A @ 734
?CheckNick@BTCheckNick@BatteryNetlib@@SAHPAG@Z @ 735
?CheckNick_China@BTCheckNick@BatteryNetlib@@SAHPAG@Z @ 736
?CheckNick_THAILAND@BTCheckNick@BatteryNetlib@@SAHPAG@Z @ 737
?Close@BTSocket_Channel@BatteryNetlib@@QAE_NXZ @ 738
?Close@BTSocket_Login@BatteryNetlib@@QAE_NXZ @ 739
?Close@BTSocket_Process2Agent@BatteryNetlib@@QAE_NXZ @ 740
?Close@UBTTcpHandler_DS@@UAE_NXZ @ 741
?Close@UBTTcpHandler_DStoDP@@UAE_NXZ @ 742
?Connect@BTSocket_Channel@BatteryNetlib@@QAE_NPBGH@Z @ 743
?Connect@BTSocket_Login@BatteryNetlib@@QAE_NPBGH@Z @ 744
?Connect@BTSocket_Process2Agent@BatteryNetlib@@QAE_NPBGH@Z @ 745
?Connect@UBTTcpHandler_DS@@UAE_NPAGH@Z @ 746
?Connect@UBTTcpHandler_DStoDP@@UAE_NPAGH@Z @ 747
?CreateSingleton@BTSocket_Channel@BatteryNetlib@@SAXXZ @ 748
?CreateSingleton@BTSocket_Login@BatteryNetlib@@SAXXZ @ 749
?CreateSingleton@BTSocket_Process2Agent@BatteryNetlib@@SAXXZ @ 750
?GetInstance@?$Singleton@VBTSocket_Channel@BatteryNetlib@@@BatteryNetlib@@SAAAVBTSocket_Channel@2@XZ @ 751
?GetInstance@?$Singleton@VBTSocket_Login@BatteryNetlib@@@BatteryNetlib@@SAAAVBTSocket_Login@2@XZ @ 752
?GetInstance@?$Singleton@VBTSocket_Process2Agent@BatteryNetlib@@@BatteryNetlib@@SAAAVBTSocket_Process2Agent@2@XZ @ 753
?GetInstancePtr@?$Singleton@VBTSocket_Channel@BatteryNetlib@@@BatteryNetlib@@SAPAVBTSocket_Channel@2@XZ @ 754
?GetInstancePtr@?$Singleton@VBTSocket_Login@BatteryNetlib@@@BatteryNetlib@@SAPAVBTSocket_Login@2@XZ @ 755
?GetInstancePtr@?$Singleton@VBTSocket_Process2Agent@BatteryNetlib@@@BatteryNetlib@@SAPAVBTSocket_Process2Agent@2@XZ @ 756
?GetIsConnected@BTSocket_Channel@BatteryNetlib@@QAEEXZ @ 757
?GetIsConnected@BTSocket_Login@BatteryNetlib@@QAEEXZ @ 758
?GetIsConnected@BTSocket_Process2Agent@BatteryNetlib@@QAEEXZ @ 759
?GetPeer@BTSocket_Channel@BatteryNetlib@@QAEPAVBTPeer_Channel@2@XZ @ 760
?GetPeer@BTSocket_Login@BatteryNetlib@@QAEPAVBTPeer_Login@2@XZ @ 761
?GetPeer@BTSocket_Process2Agent@BatteryNetlib@@QAEPAVBTPeer_Process2Agent@2@XZ @ 762
?Init@UBTTcpHandler_DS@@UAEXXZ @ 763
?Init@UBTTcpHandler_DStoDP@@UAEXXZ @ 764
?InitBatteryNetLib@BTSocket_Channel@BatteryNetlib@@QAE_NXZ @ 765
?InitBatteryNetLib@BTSocket_Login@BatteryNetlib@@QAE_NXZ @ 766
?InitBatteryNetLib@BTSocket_Process2Agent@BatteryNetlib@@QAE_NXZ @ 767
?InternalConstructor@UBTDataTransferClientLink@@SAXPAX@Z @ 768
?InternalConstructor@UBTNatDiag@@SAXPAX@Z @ 769
?InternalConstructor@UBTNetInterfaceTcp@@SAXPAX@Z @ 770
?InternalConstructor@UBTSteamMapping@@SAXPAX@Z @ 771
?InternalConstructor@UBTTcpHandler_DS@@SAXPAX@Z @ 772
?InternalConstructor@UBTTcpHandler_DS_Script_Interface@@SAXPAX@Z @ 773
?InternalConstructor@UBTTcpHandler_DStoDP@@SAXPAX@Z @ 774
?InternalConstructor@UBTTcpHandler_DStoDP_Script_Interface@@SAXPAX@Z @ 775
?InternalConstructor@UBTTcpLink_Channel@@SAXPAX@Z @ 776
?InternalConstructor@UBTTcpLink_Login@@SAXPAX@Z @ 777
?InternalConstructor@UBTTcpLink_Process2Agent@@SAXPAX@Z @ 778
?IsInIncompleteLetter@BTCheckNick@BatteryNetlib@@SA_NPAG@Z @ 779
?MakeProtocol@UBTNetInterfaceTcp@@UAEHPAEHIIPAPAEAAH@Z @ 780
?MakeProtocolForSend@UBTNetInterfaceTcp@@UAEHPAEHIIPAPAEAAH@Z @ 781
?OnClose@BTSocket_Channel@BatteryNetlib@@QAEXXZ @ 782
?OnClose@BTSocket_Login@BatteryNetlib@@QAEXXZ @ 783
?OnClose@BTSocket_Process2Agent@BatteryNetlib@@QAEXXZ @ 784
?OnConnectComplete@BTSocket_Channel@BatteryNetlib@@QAEXXZ @ 785
?OnConnectComplete@BTSocket_Login@BatteryNetlib@@QAEXXZ @ 786
?OnConnectComplete@BTSocket_Process2Agent@BatteryNetlib@@QAEXXZ @ 787
?OnError@BTSocket_Channel@BatteryNetlib@@QAEXK@Z @ 788
?OnError@BTSocket_Login@BatteryNetlib@@QAEXK@Z @ 789
?OnError@BTSocket_Process2Agent@BatteryNetlib@@QAEXK@Z @ 790
?ParseProtocol@UBTNetInterfaceTcp@@UAEHPAEHAAI11PAPAEAAH@Z @ 791
?ParseProtocolForSend@UBTNetInterfaceTcp@@UAEHPAEHAAI1PAPAEAAH@Z @ 792
?PrivateStaticClass@UBTDataTransferClientLink@@0VUClass@@A @ 793
?PrivateStaticClass@UBTNatDiag@@0VUClass@@A @ 794
?PrivateStaticClass@UBTNetInterfaceTcp@@0VUClass@@A @ 795
?PrivateStaticClass@UBTSteamMapping@@0VUClass@@A @ 796
?PrivateStaticClass@UBTTcpHandler_DS@@0VUClass@@A @ 797
?PrivateStaticClass@UBTTcpHandler_DS_Script_Interface@@0VUClass@@A @ 798
?PrivateStaticClass@UBTTcpHandler_DStoDP@@0VUClass@@A @ 799
?PrivateStaticClass@UBTTcpHandler_DStoDP_Script_Interface@@0VUClass@@A @ 800
?PrivateStaticClass@UBTTcpLink_Channel@@0VUClass@@A @ 801
?PrivateStaticClass@UBTTcpLink_Login@@0VUClass@@A @ 802
?PrivateStaticClass@UBTTcpLink_Process2Agent@@0VUClass@@A @ 803
?SendAntiBotPacketToChannelServer@UBTNetInterfaceTcp@@UAEHPAEH@Z @ 804
?SendDProtoPacketToChannelServer@UBTNetInterfaceTcp@@UAEHPAEH@Z @ 805
?SendTest@UBTTcpHandler_DS@@UAEXPAG@Z @ 806
?SendTest@UBTTcpHandler_DStoDP@@UAEXPAG@Z @ 807
?SetGameManager@UBTTcpHandler_DS@@UAEXPAVUwGameManager@@@Z @ 808
?SetGameManager@UBTTcpHandler_DStoDP@@UAEXPAVUwGameManager@@@Z @ 809
?SetMatchMaker@UBTTcpHandler_DS@@UAEXPAVUwMatchMaker@@@Z @ 810
?SetMatchMaker@UBTTcpHandler_DStoDP@@UAEXPAVUwMatchMaker@@@Z @ 811
?SetUnrealClassPtr@BTSocket_Channel@BatteryNetlib@@QAE_NPAVUBTTcpLink_Channel@@@Z @ 812
?SetUnrealClassPtr@BTSocket_Login@BatteryNetlib@@QAE_NPAVUBTTcpLink_Login@@@Z @ 813
?SetUnrealClassPtr@BTSocket_Process2Agent@BatteryNetlib@@QAE_NPAVUBTTcpLink_Process2Agent@@@Z @ 814
?StaticClass@UBTDataTransferClientLink@@SAPAVUClass@@XZ @ 815
?StaticClass@UBTNatDiag@@SAPAVUClass@@XZ @ 816
?StaticClass@UBTNetInterfaceTcp@@SAPAVUClass@@XZ @ 817
?StaticClass@UBTSteamMapping@@SAPAVUClass@@XZ @ 818
?StaticClass@UBTTcpHandler_DS@@SAPAVUClass@@XZ @ 819
?StaticClass@UBTTcpHandler_DS_Script_Interface@@SAPAVUClass@@XZ @ 820
?StaticClass@UBTTcpHandler_DStoDP@@SAPAVUClass@@XZ @ 821
?StaticClass@UBTTcpHandler_DStoDP_Script_Interface@@SAPAVUClass@@XZ @ 822
?StaticClass@UBTTcpLink_Channel@@SAPAVUClass@@XZ @ 823
?StaticClass@UBTTcpLink_Login@@SAPAVUClass@@XZ @ 824
?StaticClass@UBTTcpLink_Process2Agent@@SAPAVUClass@@XZ @ 825
?cflag@?1??CreateSingleton@BTSocket_Channel@BatteryNetlib@@SAXXZ@4HA @ 826
?cflag@?1??CreateSingleton@BTSocket_Login@BatteryNetlib@@SAXXZ@4HA @ 827
?cflag@?1??CreateSingleton@BTSocket_Process2Agent@BatteryNetlib@@SAXXZ@4HA @ 828
?eventOnClose@UBTTcpLink_Channel@@QAEXH@Z @ 829
?eventOnClose@UBTTcpLink_Login@@QAEXH@Z @ 830
?eventOnClose@UBTTcpLink_Process2Agent@@QAEXH@Z @ 831
?eventOnConnect@UBTTcpLink_Channel@@QAEXH@Z @ 832
?eventOnConnect@UBTTcpLink_Login@@QAEXH@Z @ 833
?eventOnConnect@UBTTcpLink_Process2Agent@@QAEXH@Z @ 834
?eventOnError@UBTTcpLink_Channel@@QAEXH@Z @ 835
?eventOnError@UBTTcpLink_Login@@QAEXH@Z @ 836
?eventOnError@UBTTcpLink_Process2Agent@@QAEXH@Z @ 837
?eventOnReceivedParamDataComplete@UBTDataTransferClientLink@@QAEXH@Z @ 838
?eventSetGameManager@UBTTcpHandler_DS_Script_Interface@@QAEXPAVUwGameManager@@@Z @ 839
?eventSetGameManager@UBTTcpHandler_DStoDP_Script_Interface@@QAEXPAVUwGameManager@@@Z @ 840
?eventSetMatchMaker@UBTTcpHandler_DS_Script_Interface@@QAEXPAVUwMatchMaker@@@Z @ 841
?eventSetMatchMaker@UBTTcpHandler_DStoDP_Script_Interface@@QAEXPAVUwMatchMaker@@@Z @ 842
?eventrfAckAccesItemTypeList@UBTTcpLink_Login@@QAEKV?$TArray@VFString@@@@V?$TArray@H@@@Z @ 843
?eventrfAckAcquirePromotionItems@UBTTcpLink_Channel@@QAEKHHABVFString@@V?$TArray@VFBtrDouble@@@@V?$TArray@H@@2@Z @ 844
?eventrfAckAddBlockUserList@UBTTcpLink_Channel@@QAEKHABVFString@@@Z @ 845
?eventrfAckAdjustClanMemberGrade@UBTTcpLink_Channel@@QAEKHABVFString@@00E@Z @ 846
?eventrfAckAdvertisement@UBTTcpLink_Login@@QAEKHEABVFString@@@Z @ 847
?eventrfAckAhnHsObject@UBTTcpLink_Channel@@QAEKV?$TArray@E@@H@Z @ 848
?eventrfAckAuctionBidding@UBTTcpLink_Channel@@QAEKHABVFString@@H@Z @ 849
?eventrfAckAuctionInstantlyBuying@UBTTcpLink_Channel@@QAEKHABVFString@@H@Z @ 850
?eventrfAckAuctionItemList@UBTTcpLink_Channel@@QAEKEV?$TArray@H@@00V?$TArray@VFBtrDouble@@@@000V?$TArray@VFString@@@@20@Z @ 851
?eventrfAckAuctionItemListCount@UBTTcpLink_Channel@@QAEKHABVFString@@EEHHH@Z @ 852
?eventrfAckAuctionItemListEnd@UBTTcpLink_Channel@@QAEKE@Z @ 853
?eventrfAckAuctionItemListStart@UBTTcpLink_Channel@@QAEKHABVFString@@EHH@Z @ 854
?eventrfAckAuctionMyItemCancel@UBTTcpLink_Channel@@QAEKHABVFString@@@Z @ 855
?eventrfAckAuctionMyItemRegister@UBTTcpLink_Channel@@QAEKHABVFString@@HHHH@Z @ 856
?eventrfAckAuctionTradeHistory@UBTTcpLink_Channel@@QAEKHABVFString@@HHV?$TArray@VFString@@@@V?$TArray@H@@2@Z @ 857
?eventrfAckAutoChangedTeamUserList@UBTTcpLink_Channel@@QAEKV?$TArray@H@@0@Z @ 858
?eventrfAckBanUser@UBTTcpLink_Channel@@QAEKHHHHABVFString@@@Z @ 859
?eventrfAckBlockUserList@UBTTcpLink_Channel@@QAEKV?$TArray@VFString@@@@@Z @ 860
?eventrfAckBlockUserListEnd@UBTTcpLink_Channel@@QAEKXZ @ 861
?eventrfAckBlockUserListStart@UBTTcpLink_Channel@@QAEKHH@Z @ 862
?eventrfAckBuyItemByWebzenCash@UBTTcpLink_Channel@@QAEKHABVFString@@@Z @ 863
?eventrfAckBuyShopItem@UBTTcpLink_Channel@@QAEKHV?$TArray@H@@0V?$TArray@VFBtrDouble@@@@010HH@Z @ 864
?eventrfAckChangeGameMode@UBTTcpLink_Channel@@QAEKHHABVFString@@EH0@Z @ 865
?eventrfAckChangeHost@UBTTcpLink_Channel@@QAEKE@Z @ 866
?eventrfAckChangeNewGuest@UBTTcpLink_Channel@@QAEKABVFString@@@Z @ 867
?eventrfAckChangeRoomMaxNum@UBTTcpLink_Channel@@QAEKHHHHABVFString@@@Z @ 868
?eventrfAckChangeRoomOwner@UBTTcpLink_Channel@@QAEKHHHHABVFString@@@Z @ 869
?eventrfAckChangeRoomSetting@UBTTcpLink_Channel@@QAEKHABVFString@@UFGameRoomInfo@@@Z @ 870
?eventrfAckChangeRoomTitle_GM@UBTTcpLink_Channel@@QAEKHHABVFString@@@Z @ 871
?eventrfAckChangeTeam@UBTTcpLink_Channel@@QAEKHABVFString@@HHH0@Z @ 872
?eventrfAckChangeUserState@UBTTcpLink_Channel@@QAEKHABVFString@@V?$TArray@H@@V?$TArray@E@@122@Z @ 873
?eventrfAckChangedRoomTitle_FromGM@UBTTcpLink_Channel@@QAEKHHABVFString@@@Z @ 874
?eventrfAckChannelList@UBTTcpLink_Channel@@QAEKV?$TArray@H@@V?$TArray@VFString@@@@00@Z @ 875
?eventrfAckChannelUserList@UBTTcpLink_Channel@@QAEKHHHV?$TArray@H@@V?$TArray@VFString@@@@01000000V?$TArray@E@@HABVFString@@000000@Z @ 876
?eventrfAckChannelUserListInGameRoom@UBTTcpLink_Channel@@QAEKHHHHV?$TArray@H@@V?$TArray@VFString@@@@01000V?$TArray@E@@000000@Z @ 877
?eventrfAckCharBlockInfo@UBTTcpLink_Channel@@QAEKHVFBtrDouble@@0V?$TArray@VFBtrDouble@@@@@Z @ 878
?eventrfAckCharDetailInfo@UBTTcpLink_Channel@@QAEKHHHHHHHHHHHHHHHHHHHHHHHHHHHHHHHHH@Z @ 879
?eventrfAckCharInfo@UBTTcpLink_Channel@@QAEKHABVFString@@H00HHHUFCharInfo@@EH@Z @ 880
?eventrfAckCharInfo@UBTTcpLink_Login@@QAEKHABVFString@@HH0@Z @ 881
?eventrfAckChatClan@UBTTcpLink_Channel@@QAEKABVFString@@0H@Z @ 882
?eventrfAckChatNormal@UBTTcpLink_Channel@@QAEKHABVFString@@0H@Z @ 883
?eventrfAckChatWispher@UBTTcpLink_Channel@@QAEKHABVFString@@0@Z @ 884
?eventrfAckChatWispherMyCommunity@UBTTcpLink_Channel@@QAEKHABVFString@@@Z @ 885
?eventrfAckCheckEquipedWeaponDurability@UBTTcpLink_Channel@@QAEKHV?$TArray@VFBtrDouble@@@@V?$TArray@H@@@Z @ 886
?eventrfAckClanChangeInfo@UBTTcpLink_Channel@@QAEKHABVFString@@@Z @ 887
?eventrfAckClanCharPersonelIntro@UBTTcpLink_Channel@@QAEKHABVFString@@0@Z @ 888
?eventrfAckClanClose@UBTTcpLink_Channel@@QAEKHABVFString@@0@Z @ 889
?eventrfAckClanInfo@UBTTcpLink_Channel@@QAEKUFClanInfo@@@Z @ 890
?eventrfAckClanMatchResultHistory@UBTTcpLink_Channel@@QAEKV?$TArray@VFBtrDouble@@@@V?$TArray@E@@V?$TArray@VFString@@@@@Z @ 891
?eventrfAckClanMatch_ChangeLeader@UBTTcpLink_Channel@@QAEKHABVFString@@H0@Z @ 892
?eventrfAckClanMatch_ChangeRoomSetting@UBTTcpLink_Channel@@QAEKHHABVFString@@V?$TArray@H@@HE@Z @ 893
?eventrfAckClanMatch_Chat@UBTTcpLink_Channel@@QAEKHABVFString@@00@Z @ 894
?eventrfAckClanMatch_EndPublicWaitRoomList@UBTTcpLink_Channel@@QAEKXZ @ 895
?eventrfAckClanMatch_FoundMatch@UBTTcpLink_Channel@@QAEKXZ @ 896
?eventrfAckClanMatch_GetClanWaittingRoomInfo@UBTTcpLink_Channel@@QAEKHHABVFString@@V?$TArray@H@@H0@Z @ 897
?eventrfAckClanMatch_GetReady@UBTTcpLink_Channel@@QAEKHABVFString@@H@Z @ 898
?eventrfAckClanMatch_InviteCrew@UBTTcpLink_Channel@@QAEKHABVFString@@@Z @ 899
?eventrfAckClanMatch_Join@UBTTcpLink_Channel@@QAEKHABVFString@@@Z @ 900
?eventrfAckClanMatch_JoinNotify@UBTTcpLink_Channel@@QAEKEHHHHABVFString@@HHH0HHHHHH@Z @ 901
?eventrfAckClanMatch_Leave@UBTTcpLink_Channel@@QAEKHABVFString@@@Z @ 902
?eventrfAckClanMatch_LeaveNotify@UBTTcpLink_Channel@@QAEKABVFString@@@Z @ 903
?eventrfAckClanMatch_MemberList@UBTTcpLink_Channel@@QAEKV?$TArray@E@@V?$TArray@H@@111V?$TArray@VFString@@@@1112111111@Z @ 904
?eventrfAckClanMatch_NotifiyStartCombat@UBTTcpLink_Channel@@QAEKV?$TArray@H@@H@Z @ 905
?eventrfAckClanMatch_NotifyStartSearching@UBTTcpLink_Channel@@QAEKH@Z @ 906
?eventrfAckClanMatch_PublicWaitRoomChanged@UBTTcpLink_Channel@@QAEKHABVFString@@HHHEE@Z @ 907
?eventrfAckClanMatch_PublicWaitRoomList@UBTTcpLink_Channel@@QAEKV?$TArray@H@@V?$TArray@VFString@@@@1000V?$TArray@E@@@Z @ 908
?eventrfAckClanMatch_RecvInviteCrew@UBTTcpLink_Channel@@QAEKHABVFString@@@Z @ 909
?eventrfAckClanMatch_SetWaitRoomPublic@UBTTcpLink_Channel@@QAEKHABVFString@@E@Z @ 910
?eventrfAckClanMatch_StartCombat@UBTTcpLink_Channel@@QAEKHABVFString@@@Z @ 911
?eventrfAckClanMatch_StartPublicWaitRoomList@UBTTcpLink_Channel@@QAEKHABVFString@@H@Z @ 912
?eventrfAckClanMatch_StartSearching@UBTTcpLink_Channel@@QAEKHABVFString@@H@Z @ 913
?eventrfAckClanMatch_StopSearching@UBTTcpLink_Channel@@QAEKXZ @ 914
?eventrfAckClanMatch_WaittingTeamList@UBTTcpLink_Channel@@QAEKHV?$TArray@H@@00@Z @ 915
?eventrfAckClanMemberListFromClient@UBTTcpLink_Login@@QAEKHABVFString@@V?$TArray@H@@V?$TArray@VFString@@@@V?$TArray@E@@22213121@Z @ 916
?eventrfAckClanMemberListFromClientEnd@UBTTcpLink_Login@@QAEKXZ @ 917
?eventrfAckClanMemberListFromClientStart@UBTTcpLink_Login@@QAEKHH@Z @ 918
?eventrfAckClanNews@UBTTcpLink_Channel@@QAEKV?$TArray@VFString@@@@V?$TArray@E@@0@Z @ 919
?eventrfAckClanPersonelIntro@UBTTcpLink_Channel@@QAEKHABVFString@@@Z @ 920
?eventrfAckClanSecession@UBTTcpLink_Channel@@QAEKHABVFString@@@Z @ 921
?eventrfAckClanUserList@UBTTcpLink_Channel@@QAEKHABVFString@@V?$TArray@H@@V?$TArray@VFString@@@@V?$TArray@E@@11111@Z @ 922
?eventrfAckClanUserListEnd@UBTTcpLink_Channel@@QAEKXZ @ 923
?eventrfAckClanUserListStart@UBTTcpLink_Channel@@QAEKHH@Z @ 924
?eventrfAckClientChallenge@UBTTcpLink_Login@@QAEKABVFString@@VFBtrDouble@@@Z @ 925
?eventrfAckClientChecksum@UBTTcpLink_Login@@QAEKH@Z @ 926
?eventrfAckClientUdpInfoList@UBTTcpLink_Channel@@QAEKHABVFString@@V?$TArray@H@@V?$TArray@VFString@@@@1@Z @ 927
?eventrfAckCommunityOptionList@UBTTcpLink_Channel@@QAEKHHHH@Z @ 928
?eventrfAckConfirmFriendInvite@UBTTcpLink_Channel@@QAEKHABVFString@@@Z @ 929
?eventrfAckConfirmItemChanged@UBTTcpLink_Channel@@QAEKHABVFString@@@Z @ 930
?eventrfAckConfirmSkillChanged@UBTTcpLink_Channel@@QAEKHABVFString@@@Z @ 931
?eventrfAckConnectChannelServer@UBTTcpLink_Login@@QAEKABVFString@@H@Z @ 932
?eventrfAckConnectGame@UBTTcpLink_Channel@@QAEKHH@Z @ 933
?eventrfAckCouponUse@UBTTcpLink_Channel@@QAEKHABVFString@@@Z @ 934
?eventrfAckCreateChar@UBTTcpLink_Login@@QAEKHABVFString@@@Z @ 935
?eventrfAckCreateClan@UBTTcpLink_Channel@@QAEKHABVFString@@VFBtrDouble@@H@Z @ 936
?eventrfAckCreateGameRoom@UBTTcpLink_Channel@@QAEKHABVFString@@H0UFGameRoomInfo@@@Z @ 937
?eventrfAckDBCharInfo@UBTTcpLink_Channel@@QAEKHABVFString@@00HHH0HHHHHHUFCharInfo@@H@Z @ 938
?eventrfAckDedicateHost_Login@UBTTcpLink_Channel@@QAEKHHHH@Z @ 939
?eventrfAckDelMemo@UBTTcpLink_Channel@@QAEKHABVFString@@V?$TArray@H@@@Z @ 940
?eventrfAckDeleteFriend@UBTTcpLink_Channel@@QAEKHV?$TArray@VFString@@@@@Z @ 941
?eventrfAckDeleteMailAll@UBTTcpLink_Channel@@QAEKHEH@Z @ 942
?eventrfAckDisconnectGame@UBTTcpLink_Channel@@QAEKHHABVFString@@@Z @ 943
?eventrfAckDummy@UBTTcpLink_Channel@@QAEKH@Z @ 944
?eventrfAckDupCheckClanName@UBTTcpLink_Channel@@QAEKHABVFString@@@Z @ 945
?eventrfAckEndMemoList@UBTTcpLink_Channel@@QAEKXZ @ 946
?eventrfAckEnterChannel@UBTTcpLink_Channel@@QAEKHHABVFString@@H0HHHHHHEH0HHHHHH@Z @ 947
?eventrfAckEnterRoom@UBTTcpLink_Channel@@QAEKHHHABVFString@@HH00HHHEH0HHHHHH@Z @ 948
?eventrfAckEntryItemList@UBTTcpLink_Channel@@QAEKV?$TArray@H@@000V?$TArray@VFBtrDouble@@@@0HABVFString@@@Z @ 949
?eventrfAckEntryQSlotIDList@UBTTcpLink_Channel@@QAEKHV?$TArray@E@@V?$TArray@H@@11111111111@Z @ 950
?eventrfAckEntryQSlotUniqueIDList@UBTTcpLink_Channel@@QAEKHV?$TArray@E@@V?$TArray@VFBtrDouble@@@@111@Z @ 951
?eventrfAckEntrySkillList@UBTTcpLink_Channel@@QAEKV?$TArray@H@@00HABVFString@@@Z @ 952
?eventrfAckEquipItem@UBTTcpLink_Channel@@QAEKHVFBtrDouble@@HH0HHABVFString@@@Z @ 953
?eventrfAckEquipSkill@UBTTcpLink_Channel@@QAEKHHEHHEHABVFString@@@Z @ 954
?eventrfAckErrorReportServerAddr@UBTTcpLink_Login@@QAEKABVFString@@H@Z @ 955
?eventrfAckEventNotify@UBTTcpLink_Channel@@QAEKH@Z @ 956
?eventrfAckEventNotify@UBTTcpLink_Login@@QAEKH@Z @ 957
?eventrfAckExceedMaxUser@UBTTcpLink_Channel@@QAEKXZ @ 958
?eventrfAckExceedMaxUser@UBTTcpLink_Login@@QAEKXZ @ 959
?eventrfAckExteriorRoomInfo@UBTTcpLink_Channel@@QAEKXZ @ 960
?eventrfAckExteriorRoomOwnerInfo@UBTTcpLink_Channel@@QAEKXZ @ 961
?eventrfAckExteriorRoomState@UBTTcpLink_Channel@@QAEKXZ @ 962
?eventrfAckExteriorRoomUserCount@UBTTcpLink_Channel@@QAEKXZ @ 963
?eventrfAckFailedStartGame@UBTTcpLink_Channel@@QAEKHABVFString@@EHH@Z @ 964
?eventrfAckForceDisconnectUDPFromHost@UBTTcpLink_Channel@@QAEKH@Z @ 965
?eventrfAckForceDisconnectUser_GM@UBTTcpLink_Channel@@QAEKHABVFString@@0@Z @ 966
?eventrfAckForceFailedClientLoading@UBTTcpLink_Channel@@QAEKHABVFString@@@Z @ 967
?eventrfAckForceGameOver@UBTTcpLink_Channel@@QAEKHHHABVFString@@@Z @ 968
?eventrfAckFriendList@UBTTcpLink_Channel@@QAEKV?$TArray@VFString@@@@V?$TArray@E@@0V?$TArray@H@@222221@Z @ 969
?eventrfAckFriendListEnd@UBTTcpLink_Channel@@QAEKXZ @ 970
?eventrfAckFriendListStart@UBTTcpLink_Channel@@QAEKHH@Z @ 971
?eventrfAckFriendPosition@UBTTcpLink_Channel@@QAEKHABVFString@@E000HEEH0H@Z @ 972
?eventrfAckFriendsList@UBTTcpLink_Login@@QAEKEV?$TArray@VFString@@@@V?$TArray@E@@V?$TArray@H@@2202@Z @ 973
?eventrfAckFriendsListEnd@UBTTcpLink_Login@@QAEKXZ @ 974
?eventrfAckFriendsListStart@UBTTcpLink_Login@@QAEKHH@Z @ 975
?eventrfAckGMEnterRoom@UBTTcpLink_Channel@@QAEKHHH@Z @ 976
?eventrfAckGMLeaveRoom@UBTTcpLink_Channel@@QAEKHHH@Z @ 977
?eventrfAckGameGuardAuthData@UBTTcpLink_Channel@@QAEKHHHH@Z @ 978
?eventrfAckGameHostInfo@UBTTcpLink_Channel@@QAEKHABVFString@@0HH0@Z @ 979
?eventrfAckGameMapData@UBTTcpLink_Channel@@QAEKV?$TArray@H@@0V?$TArray@VFString@@@@V?$TArray@M@@2220000000000@Z @ 980
?eventrfAckGameOver@UBTTcpLink_Channel@@QAEKHHHABVFString@@@Z @ 981
?eventrfAckGameOverEnd@UBTTcpLink_Channel@@QAEKHABVFString@@@Z @ 982
?eventrfAckGameRoomDestroy@UBTTcpLink_Channel@@QAEKH@Z @ 983
?eventrfAckGameRoomInfo@UBTTcpLink_Channel@@QAEKHABVFString@@UFGameRoomInfo@@@Z @ 984
?eventrfAckGetAttachedItemFromMemo@UBTTcpLink_Channel@@QAEKHABVFString@@VFBtrDouble@@H@Z @ 985
?eventrfAckGetBooty@UBTTcpLink_Channel@@QAEKHABVFString@@V?$TArray@H@@11@Z @ 986
?eventrfAckGetBootyChoose@UBTTcpLink_Channel@@QAEKHABVFString@@EVFBtrDouble@@HHE1HH@Z @ 987
?eventrfAckGetBotID@UBTTcpLink_Channel@@QAEKHEEV?$TArray@H@@0@Z @ 988
?eventrfAckGetCharBlockInfo@UBTTcpLink_Login@@QAEKHEEVFBtrDouble@@V?$TArray@VFString@@@@@Z @ 989
?eventrfAckGetHolePunchingResult@UBTTcpLink_Channel@@QAEKHEHEV?$TArray@H@@@Z @ 990
?eventrfAckGetIsHostBlocking@UBTTcpLink_Channel@@QAEKHE@Z @ 991
?eventrfAckGetItemFromItemBox@UBTTcpLink_Channel@@QAEKHABVFString@@HHVFBtrDouble@@HE11H@Z @ 992
?eventrfAckGetMyMailBoxState@UBTTcpLink_Channel@@QAEKHEH@Z @ 993
?eventrfAckGetRankingInfoList@UBTTcpLink_Channel@@QAEKHEEV?$TArray@VFString@@@@V?$TArray@H@@011111111111@Z @ 994
?eventrfAckGetRankingInfoListEnd@UBTTcpLink_Channel@@QAEKXZ @ 995
?eventrfAckGetRankingInfoListStart@UBTTcpLink_Channel@@QAEKHEEH@Z @ 996
?eventrfAckGetServerTime@UBTTcpLink_Channel@@QAEKVFBtrDouble@@ABVFString@@@Z @ 997
?eventrfAckGetUserHostPriorityPoint@UBTTcpLink_Channel@@QAEKHHH@Z @ 998
?eventrfAckGiftItemByWebzenCash@UBTTcpLink_Channel@@QAEKHABVFString@@H@Z @ 999
?eventrfAckGiveSkill@UBTTcpLink_Channel@@QAEKHHABVFString@@@Z @ 1000
?eventrfAckHash@UBTTcpLink_Channel@@QAEKHABVFString@@@Z @ 1001
?eventrfAckHash@UBTTcpLink_Login@@QAEKHABVFString@@@Z @ 1002
?eventrfAckHash@UBTTcpLink_Process2Agent@@QAEKHABVFString@@@Z @ 1003
?eventrfAckHeadItemTypeList@UBTTcpLink_Login@@QAEKV?$TArray@H@@@Z @ 1004
?eventrfAckHelmetItemTypeList@UBTTcpLink_Login@@QAEKV?$TArray@VFString@@@@V?$TArray@H@@@Z @ 1005
?eventrfAckInviteClan@UBTTcpLink_Channel@@QAEKHABVFString@@@Z @ 1006
?eventrfAckInviteClanResult@UBTTcpLink_Channel@@QAEKABVFString@@E0@Z @ 1007
?eventrfAckInviteGameRoom@UBTTcpLink_Channel@@QAEKHEABVFString@@@Z @ 1008
?eventrfAckIsAvailClanURL@UBTTcpLink_Channel@@QAEKABVFString@@H0@Z @ 1009
?eventrfAckIsGameRoomPlaying@UBTTcpLink_Channel@@QAEKHE@Z @ 1010
?eventrfAckIsHostAvailable@UBTTcpLink_Channel@@QAEKH@Z @ 1011
?eventrfAckItemList@UBTTcpLink_Channel@@QAEKV?$TArray@VFBtrDouble@@@@V?$TArray@H@@110111V?$TArray@E@@111@Z @ 1012
?eventrfAckItemListEnd@UBTTcpLink_Channel@@QAEKXZ @ 1013
?eventrfAckItemListInItemBox@UBTTcpLink_Channel@@QAEKHABVFString@@VFBtrDouble@@HV?$TArray@H@@2@Z @ 1014
?eventrfAckItemListStart@UBTTcpLink_Channel@@QAEKHHABVFString@@@Z @ 1015
?eventrfAckJoinClan@UBTTcpLink_Channel@@QAEKHABVFString@@00E@Z @ 1016
?eventrfAckJoinClanResult@UBTTcpLink_Channel@@QAEKABVFString@@E0@Z @ 1017
?eventrfAckLeaveChannel@UBTTcpLink_Channel@@QAEKHABVFString@@H@Z @ 1018
?eventrfAckLeaveRoom@UBTTcpLink_Channel@@QAEKHHABVFString@@H0@Z @ 1019
?eventrfAckLimitedListInChannel@UBTTcpLink_Channel@@QAEKHV?$TArray@H@@0@Z @ 1020
?eventrfAckLogOut@UBTTcpLink_Channel@@QAEKEE@Z @ 1021
?eventrfAckLogOut@UBTTcpLink_Login@@QAEKEE@Z @ 1022
?eventrfAckLogin2@UBTTcpLink_Channel@@QAEKHABVFString@@H0VFBtrDouble@@HE@Z @ 1023
?eventrfAckLogin@UBTTcpLink_Channel@@QAEKHABVFString@@H00UFCharInfo@@@Z @ 1024
?eventrfAckLogin@UBTTcpLink_Login@@QAEKEABVFString@@HHHHHHE0@Z @ 1025
?eventrfAckLogin@UBTTcpLink_Process2Agent@@QAEKH@Z @ 1026
?eventrfAckLoginInHouseTest@UBTTcpLink_Login@@QAEKEABVFString@@HHHHHHE00EVFBtrDouble@@@Z @ 1027
?eventrfAckLoginWithGlobal@UBTTcpLink_Login@@QAEKH@Z @ 1028
?eventrfAckLoginWithIndonesia@UBTTcpLink_Login@@QAEKH@Z @ 1029
?eventrfAckLoginWithTencentAuth@UBTTcpLink_Login@@QAEKHEE@Z @ 1030
?eventrfAckLoginWithThailand@UBTTcpLink_Login@@QAEKH@Z @ 1031
?eventrfAckLoginWithWZAuth@UBTTcpLink_Login@@QAEKHEEEE@Z @ 1032
?eventrfAckMaxUserExceed@UBTTcpLink_Login@@QAEKXZ @ 1033
?eventrfAckMemoList@UBTTcpLink_Channel@@QAEKV?$TArray@H@@V?$TArray@VFString@@@@11V?$TArray@E@@0V?$TArray@VFBtrDouble@@@@020@Z @ 1034
?eventrfAckModifyWeapon@UBTTcpLink_Channel@@QAEKHABVFString@@VFBtrDouble@@HHHH@Z @ 1035
?eventrfAckMoveToLobby@UBTTcpLink_Channel@@QAEKE@Z @ 1036
?eventrfAckMyEquipedItemList@UBTTcpLink_Channel@@QAEKV?$TArray@H@@000V?$TArray@VFBtrDouble@@@@H@Z @ 1037
?eventrfAckMyEquipedQSlotList@UBTTcpLink_Channel@@QAEKV?$TArray@E@@V?$TArray@VFBtrDouble@@@@V?$TArray@H@@22122212122222H@Z @ 1038
?eventrfAckMyEquipedSkillList@UBTTcpLink_Channel@@QAEKV?$TArray@H@@0H@Z @ 1039
?eventrfAckMyMoney@UBTTcpLink_Channel@@QAEKHABVFString@@HH@Z @ 1040
?eventrfAckNotice_GM@UBTTcpLink_Channel@@QAEKHABVFString@@EHHH0@Z @ 1041
?eventrfAckNotifyAdjustClanMemberGrade@UBTTcpLink_Channel@@QAEKABVFString@@0E@Z @ 1042
?eventrfAckNotifyChangedItemState@UBTTcpLink_Channel@@QAEKHV?$TArray@H@@V?$TArray@E@@HABVFString@@@Z @ 1043
?eventrfAckNotifyChangedSkillState@UBTTcpLink_Channel@@QAEKHV?$TArray@H@@V?$TArray@E@@HABVFString@@@Z @ 1044
?eventrfAckNotifyClanSecession@UBTTcpLink_Channel@@QAEKABVFString@@0@Z @ 1045
?eventrfAckNotifyClientJoinTime@UBTTcpLink_Channel@@QAEKHABVFString@@@Z @ 1046
?eventrfAckNotifyEndTutorial@UBTTcpLink_Channel@@QAEKHABVFString@@H0HHHHHHEHHHHHHH@Z @ 1047
?eventrfAckNotifyExpiredItemIDs@UBTTcpLink_Channel@@QAEKHV?$TArray@VFBtrDouble@@@@V?$TArray@H@@1V?$TArray@E@@HABVFString@@@Z @ 1048
?eventrfAckNotifyExpiredSkillIDs@UBTTcpLink_Channel@@QAEKHV?$TArray@VFBtrDouble@@@@V?$TArray@H@@HABVFString@@V?$TArray@E@@@Z @ 1049
?eventrfAckNotifyHostBlocking@UBTTcpLink_Channel@@QAEKHE@Z @ 1050
?eventrfAckNotifyLoadingState@UBTTcpLink_Channel@@QAEKHHE@Z @ 1051
?eventrfAckNotifyMyCharInfoToRoomUser@UBTTcpLink_Channel@@QAEKHABVFString@@H0HHEE00HHHE@Z @ 1052
?eventrfAckNotifyNewClanMember@UBTTcpLink_Channel@@QAEKABVFString@@0@Z @ 1053
?eventrfAckNotifyStartTutorial@UBTTcpLink_Channel@@QAEKHH@Z @ 1054
?eventrfAckNotifyUpdateCharInfo_LevelMark@UBTTcpLink_Channel@@QAEKABVFString@@H@Z @ 1055
?eventrfAckNotifyUpdateCharInfo_TitleMark@UBTTcpLink_Channel@@QAEKABVFString@@H@Z @ 1056
?eventrfAckPCBangUserList@UBTTcpLink_Channel@@QAEKV?$TArray@VFString@@@@0V?$TArray@H@@111111V?$TArray@E@@2111111@Z @ 1057
?eventrfAckPCBangUserList@UBTTcpLink_Login@@QAEKV?$TArray@VFString@@@@V?$TArray@E@@0V?$TArray@H@@222222@Z @ 1058
?eventrfAckPCBangUserListEnd@UBTTcpLink_Channel@@QAEKXZ @ 1059
?eventrfAckPCBangUserListEnd@UBTTcpLink_Login@@QAEKXZ @ 1060
?eventrfAckPCBangUserListStart@UBTTcpLink_Channel@@QAEKHH@Z @ 1061
?eventrfAckPCBangUserListStart@UBTTcpLink_Login@@QAEKHH@Z @ 1062
?eventrfAckPaidItem_BroadCast@UBTTcpLink_Channel@@QAEKHABVFString@@VFBtrDouble@@H@Z @ 1063
?eventrfAckPaidItem_ChangeCharname@UBTTcpLink_Channel@@QAEKHABVFString@@VFBtrDouble@@H0@Z @ 1064
?eventrfAckPaidItem_ChangeClanMark@UBTTcpLink_Channel@@QAEKHABVFString@@VFBtrDouble@@H@Z @ 1065
?eventrfAckPaidItem_ChangeClanname@UBTTcpLink_Channel@@QAEKHABVFString@@VFBtrDouble@@H0@Z @ 1066
?eventrfAckPaidItem_ClanMarkDupCheck@UBTTcpLink_Channel@@QAEKHABVFString@@@Z @ 1067
?eventrfAckPaidItem_EraseRecord@UBTTcpLink_Channel@@QAEKHABVFString@@VFBtrDouble@@HH@Z @ 1068
?eventrfAckPaidItem_NotifyChangeClanMark@UBTTcpLink_Channel@@QAEKABVFString@@HHH@Z @ 1069
?eventrfAckPaidItem_NotifyChangeClanname@UBTTcpLink_Channel@@QAEKABVFString@@@Z @ 1070
?eventrfAckPaidItem_RelayBroadcast@UBTTcpLink_Channel@@QAEKABVFString@@0@Z @ 1071
?eventrfAckParamCheckSum@UBTTcpLink_Channel@@QAEKH@Z @ 1072
?eventrfAckPermanentRoomInfo@UBTTcpLink_Channel@@QAEKHHEE@Z @ 1073
?eventrfAckPopUpMessage@UBTTcpLink_Channel@@QAEKH@Z @ 1074
?eventrfAckProcessExcuteCmd@UBTTcpLink_Process2Agent@@QAEKHHHABVFString@@@Z @ 1075
?eventrfAckProcessPreLoginUser@UBTTcpLink_Login@@QAEKHABVFString@@@Z @ 1076
?eventrfAckQSlotList@UBTTcpLink_Channel@@QAEKHABVFString@@V?$TArray@H@@V?$TArray@VFString@@@@V?$TArray@E@@V?$TArray@VFBtrDouble@@@@4441111@Z @ 1077
?eventrfAckQuestGetAvailableEventList@UBTTcpLink_Channel@@QAEKHABVFString@@V?$TArray@H@@@Z @ 1078
?eventrfAckQuestList@UBTTcpLink_Channel@@QAEKV?$TArray@H@@0V?$TArray@E@@@Z @ 1079
?eventrfAckQuestListEnd@UBTTcpLink_Channel@@QAEKXZ @ 1080
?eventrfAckQuestListStart@UBTTcpLink_Channel@@QAEKHABVFString@@@Z @ 1081
?eventrfAckQuestUpdate@UBTTcpLink_Channel@@QAEKHABVFString@@@Z @ 1082
?eventrfAckQuitDedicateHost@UBTTcpLink_Process2Agent@@QAEKHHHHH@Z @ 1083
?eventrfAckRandomBox_Use@UBTTcpLink_Channel@@QAEKHABVFString@@VFBtrDouble@@HV?$TArray@H@@222V?$TArray@E@@V?$TArray@VFBtrDouble@@@@42@Z @ 1084
?eventrfAckReadMemo@UBTTcpLink_Channel@@QAEKABVFString@@00VFBtrDouble@@@Z @ 1085
?eventrfAckRecvClanInvite@UBTTcpLink_Channel@@QAEKHABVFString@@00E@Z @ 1086
?eventrfAckRecvClanInviteResult@UBTTcpLink_Channel@@QAEKHABVFString@@@Z @ 1087
?eventrfAckRecvInviteGameRoom@UBTTcpLink_Channel@@QAEKABVFString@@HE0@Z @ 1088
?eventrfAckRecvInviteGameRoomResult@UBTTcpLink_Channel@@QAEKH@Z @ 1089
?eventrfAckRecvJoinClan@UBTTcpLink_Channel@@QAEKHABVFString@@0E@Z @ 1090
?eventrfAckRecvJoinClanResult@UBTTcpLink_Channel@@QAEKHABVFString@@@Z @ 1091
?eventrfAckRecvSystemMsg@UBTTcpLink_Channel@@QAEKEUFSystemMsgParam@@@Z @ 1092
?eventrfAckRegisterMainPCBang@UBTTcpLink_Channel@@QAEKHABVFString@@@Z @ 1093
?eventrfAckRegisterMainPCBang@UBTTcpLink_Login@@QAEKHABVFString@@@Z @ 1094
?eventrfAckRegisterMyUdpInfo@UBTTcpLink_Channel@@QAEKHABVFString@@@Z @ 1095
?eventrfAckRegisterOtherUdpInfo@UBTTcpLink_Channel@@QAEKHABVFString@@HEE0H@Z @ 1096
?eventrfAckRegisteredPCBangInfo@UBTTcpLink_Channel@@QAEKHABVFString@@EE0@Z @ 1097
?eventrfAckRegisteredPCBangInfo@UBTTcpLink_Login@@QAEKHABVFString@@EE0@Z @ 1098
?eventrfAckRemoveBlockUserList@UBTTcpLink_Channel@@QAEKHABVFString@@@Z @ 1099
?eventrfAckRepairCost@UBTTcpLink_Channel@@QAEKHABVFString@@V?$TArray@VFBtrDouble@@@@V?$TArray@H@@@Z @ 1100
?eventrfAckRepairItem@UBTTcpLink_Channel@@QAEKHABVFString@@V?$TArray@VFBtrDouble@@@@HV?$TArray@H@@@Z @ 1101
?eventrfAckReturnBotID@UBTTcpLink_Channel@@QAEKH@Z @ 1102
?eventrfAckRoomList@UBTTcpLink_Channel@@QAEKV?$TArray@H@@V?$TArray@VFString@@@@10V?$TArray@E@@2102221012222@Z @ 1103
?eventrfAckRoomListEnd@UBTTcpLink_Channel@@QAEKXZ @ 1104
?eventrfAckRoomListStart@UBTTcpLink_Channel@@QAEKHHHH@Z @ 1105
?eventrfAckRoomUserList@UBTTcpLink_Channel@@QAEKV?$TArray@H@@V?$TArray@VFString@@@@00V?$TArray@E@@21100020000000@Z @ 1106
?eventrfAckRoomUserPingInfo@UBTTcpLink_Channel@@QAEKV?$TArray@H@@0H@Z @ 1107
?eventrfAckSearchClan@UBTTcpLink_Channel@@QAEKHABVFString@@HV?$TArray@H@@1V?$TArray@E@@V?$TArray@VFString@@@@3111111121@Z @ 1108
?eventrfAckSelectMap@UBTTcpLink_Channel@@QAEKHHABVFString@@H0@Z @ 1109
?eventrfAckSellShopItem@UBTTcpLink_Channel@@QAEKHABVFString@@HHH@Z @ 1110
?eventrfAckSellShopItemInfo@UBTTcpLink_Channel@@QAEKHABVFString@@VFBtrDouble@@HHH@Z @ 1111
?eventrfAckSendFriendInvite@UBTTcpLink_Channel@@QAEKHABVFString@@@Z @ 1112
?eventrfAckSendGift@UBTTcpLink_Channel@@QAEKHABVFString@@HH@Z @ 1113
?eventrfAckSendMemo@UBTTcpLink_Channel@@QAEKV?$TArray@VFString@@@@V?$TArray@H@@@Z @ 1114
?eventrfAckSendSystemMsg@UBTTcpLink_Channel@@QAEKH@Z @ 1115
?eventrfAckServerList@UBTTcpLink_Login@@QAEKV?$TArray@VFString@@@@00V?$TArray@H@@001110111V?$TArray@E@@2222122V?$TArray@M@@22@Z @ 1116
?eventrfAckServerShutdown@UBTTcpLink_Channel@@QAEKHABVFString@@@Z @ 1117
?eventrfAckServerTime@UBTTcpLink_Channel@@QAEKH@Z @ 1118
?eventrfAckServerTime@UBTTcpLink_Login@@QAEKH@Z @ 1119
?eventrfAckServerType@UBTTcpLink_Channel@@QAEKE@Z @ 1120
?eventrfAckSetCommunityOption@UBTTcpLink_Channel@@QAEKHABVFString@@@Z @ 1121
?eventrfAckSetLookForClan@UBTTcpLink_Channel@@QAEKHABVFString@@E@Z @ 1122
?eventrfAckSetUserBootySeedValue@UBTTcpLink_Channel@@QAEKHHABVFString@@@Z @ 1123
?eventrfAckShopItemData@UBTTcpLink_Channel@@QAEKXZ @ 1124
?eventrfAckShopItemList@UBTTcpLink_Channel@@QAEKV?$TArray@H@@@Z @ 1125
?eventrfAckShopItemListEnd@UBTTcpLink_Channel@@QAEKXZ @ 1126
?eventrfAckShopItemListStart@UBTTcpLink_Channel@@QAEKH@Z @ 1127
?eventrfAckSpecificChannelUserInfo@UBTTcpLink_Channel@@QAEKHABVFString@@H0HHHH0HHHHH@Z @ 1128
?eventrfAckSpecificGameRoomInfo@UBTTcpLink_Channel@@QAEKHHABVFString@@0HEE0HEEE0H0EE@Z @ 1129
?eventrfAckStartDedicateHost@UBTTcpLink_Process2Agent@@QAEKHHHHH@Z @ 1130
?eventrfAckStartGame@UBTTcpLink_Channel@@QAEKHHHHABVFString@@@Z @ 1131
?eventrfAckStartHolePunching@UBTTcpLink_Channel@@QAEKHABVFString@@HH@Z @ 1132
?eventrfAckStartMemoList@UBTTcpLink_Channel@@QAEKHABVFString@@EH@Z @ 1133
?eventrfAckStartNatDiag@UBTTcpLink_Channel@@QAEKH@Z @ 1134
?eventrfAckSuccessStartGame@UBTTcpLink_Channel@@QAEKHABVFString@@E0HH@Z @ 1135
?eventrfAckTencent_AASInfo@UBTTcpLink_Channel@@QAEKHEEH@Z @ 1136
?eventrfAckTencent_AASInfo@UBTTcpLink_Login@@QAEKHEEH@Z @ 1137
?eventrfAckTencent_StartTenProtect@UBTTcpLink_Channel@@QAEKH@Z @ 1138
?eventrfAckTestDouble@UBTTcpLink_Channel@@QAEKVFBtrDouble@@V?$TArray@VFBtrDouble@@@@@Z @ 1139
?eventrfAckUpdateQSlot@UBTTcpLink_Channel@@QAEKHABVFString@@@Z @ 1140
?eventrfAckUpdateScore@UBTTcpLink_Channel@@QAEKV?$TArray@H@@V?$TArray@VFString@@@@V?$TArray@E@@00000000000@Z @ 1141
?eventrfAckUpdateScoreResult@UBTTcpLink_Channel@@QAEKHABVFString@@@Z @ 1142
?eventrfAckUpdateWeaponDurability@UBTTcpLink_Channel@@QAEKHABVFString@@V?$TArray@VFBtrDouble@@@@V?$TArray@H@@V?$TArray@E@@1@Z @ 1143
?eventrfAckUserDetailInfo@UBTTcpLink_Login@@QAEKHABVFString@@0HHHHHHHHHH@Z @ 1144
?eventrfAckUserSkillList@UBTTcpLink_Channel@@QAEKV?$TArray@H@@0V?$TArray@VFBtrDouble@@@@V?$TArray@E@@@Z @ 1145
?eventrfAckUserSkillListEnd@UBTTcpLink_Channel@@QAEKXZ @ 1146
?eventrfAckUserSkillListStart@UBTTcpLink_Channel@@QAEKHHABVFString@@@Z @ 1147
?eventrfAckWebzenBillingStorageList@UBTTcpLink_Channel@@QAEKV?$TArray@H@@0000V?$TArray@VFString@@@@V?$TArray@VFBtrDouble@@@@11V?$TArray@E@@300@Z @ 1148
?eventrfAckWebzenBillingStorageListEnd@UBTTcpLink_Channel@@QAEKXZ @ 1149
?eventrfAckWebzenBillingStorageListStart@UBTTcpLink_Channel@@QAEKHABVFString@@HHH@Z @ 1150
?eventrfAckWebzenBillingUseStorageItem@UBTTcpLink_Channel@@QAEKHABVFString@@VFBtrDouble@@H1@Z @ 1151
?eventrfAckWebzenCash@UBTTcpLink_Channel@@QAEKHABVFString@@VFBtrDouble@@1@Z @ 1152
?eventrfAckWebzenShopScriptVersion@UBTTcpLink_Channel@@QAEKHHH@Z @ 1153
?eventrfNotifyClanLevelup@UBTTcpLink_Channel@@QAEKABVFString@@H@Z @ 1154
?eventrfNotifyCouponUseError@UBTTcpLink_Channel@@QAEKH@Z @ 1155
?eventrfNotifyNewClanName@UBTTcpLink_Channel@@QAEKABVFString@@@Z @ 1156
?eventrfNotifyNewNickName@UBTTcpLink_Channel@@QAEKHABVFString@@0@Z @ 1157
?eventrfReqAccesItemTypeList@UBTTcpLink_Login@@QAEKXZ @ 1158
?eventrfReqAddBlockUserList@UBTTcpLink_Channel@@QAEKABVFString@@@Z @ 1159
?eventrfReqAdjustClanMemberGrade@UBTTcpLink_Channel@@QAEKABVFString@@0E@Z @ 1160
?eventrfReqAdvertisement@UBTTcpLink_Login@@QAEKXZ @ 1161
?eventrfReqAhnHsObject@UBTTcpLink_Channel@@QAEKV?$TArray@E@@H@Z @ 1162
?eventrfReqAhnNotifyDisconnct@UBTTcpLink_Channel@@QAEKH@Z @ 1163
?eventrfReqAuctionBidding@UBTTcpLink_Channel@@QAEKHH@Z @ 1164
?eventrfReqAuctionInstantlyBuying@UBTTcpLink_Channel@@QAEKH@Z @ 1165
?eventrfReqAuctionItemList@UBTTcpLink_Channel@@QAEKEABVFString@@HEEHHH@Z @ 1166
?eventrfReqAuctionItemListCount@UBTTcpLink_Channel@@QAEKEEHH@Z @ 1167
?eventrfReqAuctionMyItemCancel@UBTTcpLink_Channel@@QAEKH@Z @ 1168
?eventrfReqAuctionMyItemRegister@UBTTcpLink_Channel@@QAEKVFBtrDouble@@HHHH@Z @ 1169
?eventrfReqAuctionTradeHistory@UBTTcpLink_Channel@@QAEKHH@Z @ 1170
?eventrfReqBanUser@UBTTcpLink_Channel@@QAEKHHH@Z @ 1171
?eventrfReqBlockUserList@UBTTcpLink_Channel@@QAEKXZ @ 1172
?eventrfReqBuyItemByWebzenCash@UBTTcpLink_Channel@@QAEKHHHV?$TArray@H@@VFBtrDouble@@EE@Z @ 1173
?eventrfReqBuyItemByWebzenCashGP20@UBTTcpLink_Channel@@QAEKHEVFBtrDouble@@@Z @ 1174
?eventrfReqBuyShopItem@UBTTcpLink_Channel@@QAEKHVFBtrDouble@@EE@Z @ 1175
?eventrfReqChangeGameMode@UBTTcpLink_Channel@@QAEKHHABVFString@@E@Z @ 1176
?eventrfReqChangeRoomMaxNum@UBTTcpLink_Channel@@QAEKHHHH@Z @ 1177
?eventrfReqChangeRoomOwner@UBTTcpLink_Channel@@QAEKHHH@Z @ 1178
?eventrfReqChangeRoomSetting@UBTTcpLink_Channel@@QAEKUFGameRoomInfo@@@Z @ 1179
?eventrfReqChangeRoomTitle_GM@UBTTcpLink_Channel@@QAEKHABVFString@@@Z @ 1180
?eventrfReqChangeTeam@UBTTcpLink_Channel@@QAEKH@Z @ 1181
?eventrfReqChangeUserState@UBTTcpLink_Channel@@QAEKEE@Z @ 1182
?eventrfReqChannelList@UBTTcpLink_Channel@@QAEKH@Z @ 1183
?eventrfReqChannelUserList@UBTTcpLink_Channel@@QAEKHHH@Z @ 1184
?eventrfReqChannelUserListInGameRoom@UBTTcpLink_Channel@@QAEKHHH@Z @ 1185
?eventrfReqCharBlockInfo@UBTTcpLink_Channel@@QAEKXZ @ 1186
?eventrfReqCharDetailInfo@UBTTcpLink_Channel@@QAEKXZ @ 1187
?eventrfReqCharInfo@UBTTcpLink_Channel@@QAEKXZ @ 1188
?eventrfReqCharInfo@UBTTcpLink_Login@@QAEKABVFString@@@Z @ 1189
?eventrfReqChatClan@UBTTcpLink_Channel@@QAEKABVFString@@@Z @ 1190
?eventrfReqChatNormal@UBTTcpLink_Channel@@QAEKABVFString@@@Z @ 1191
?eventrfReqChatWispher@UBTTcpLink_Channel@@QAEKABVFString@@0@Z @ 1192
?eventrfReqChatWispherMyCommunity@UBTTcpLink_Channel@@QAEKABVFString@@00@Z @ 1193
?eventrfReqCheckEquipedWeaponDurability@UBTTcpLink_Channel@@QAEKXZ @ 1194
?eventrfReqClanChangeInfo@UBTTcpLink_Channel@@QAEKABVFString@@EE000@Z @ 1195
?eventrfReqClanCharPersonelIntro@UBTTcpLink_Channel@@QAEKABVFString@@0@Z @ 1196
?eventrfReqClanClose@UBTTcpLink_Channel@@QAEKABVFString@@@Z @ 1197
?eventrfReqClanInfo@UBTTcpLink_Channel@@QAEKABVFString@@@Z @ 1198
?eventrfReqClanMatchResultHistory@UBTTcpLink_Channel@@QAEKABVFString@@@Z @ 1199
?eventrfReqClanMatch_ChangeLeader@UBTTcpLink_Channel@@QAEKHHABVFString@@@Z @ 1200
?eventrfReqClanMatch_ChangeRoomSetting@UBTTcpLink_Channel@@QAEKHV?$TArray@H@@HE@Z @ 1201
?eventrfReqClanMatch_Chat@UBTTcpLink_Channel@@QAEKABVFString@@@Z @ 1202
?eventrfReqClanMatch_FoundMatch@UBTTcpLink_Channel@@QAEKHH@Z @ 1203
?eventrfReqClanMatch_GetClanWaittingRoomInfo@UBTTcpLink_Channel@@QAEKXZ @ 1204
?eventrfReqClanMatch_GetPublicWaitRoomList@UBTTcpLink_Channel@@QAEKXZ @ 1205
?eventrfReqClanMatch_GetReady@UBTTcpLink_Channel@@QAEKXZ @ 1206
?eventrfReqClanMatch_InviteCrew@UBTTcpLink_Channel@@QAEKABVFString@@@Z @ 1207
?eventrfReqClanMatch_InviteCrewResult@UBTTcpLink_Channel@@QAEKABVFString@@H@Z @ 1208
?eventrfReqClanMatch_Join@UBTTcpLink_Channel@@QAEKH@Z @ 1209
?eventrfReqClanMatch_Leave@UBTTcpLink_Channel@@QAEKH@Z @ 1210
?eventrfReqClanMatch_MemberList@UBTTcpLink_Channel@@QAEKXZ @ 1211
?eventrfReqClanMatch_RecvInviteCrew@UBTTcpLink_Channel@@QAEKABVFString@@0HH0HH00@Z @ 1212
?eventrfReqClanMatch_SetWaitRoomPublic@UBTTcpLink_Channel@@QAEKE@Z @ 1213
?eventrfReqClanMatch_StartCombat@UBTTcpLink_Channel@@QAEKV?$TArray@H@@H@Z @ 1214
?eventrfReqClanMatch_StartSearching@UBTTcpLink_Channel@@QAEKH@Z @ 1215
?eventrfReqClanMatch_StopSearching@UBTTcpLink_Channel@@QAEKXZ @ 1216
?eventrfReqClanMatch_WaittingTeamList@UBTTcpLink_Channel@@QAEKHH@Z @ 1217
?eventrfReqClanMemberListFromClient@UBTTcpLink_Login@@QAEKXZ @ 1218
?eventrfReqClanNews@UBTTcpLink_Channel@@QAEKABVFString@@@Z @ 1219
?eventrfReqClanPersonelIntro@UBTTcpLink_Channel@@QAEKABVFString@@00@Z @ 1220
?eventrfReqClanSecession@UBTTcpLink_Channel@@QAEKABVFString@@@Z @ 1221
?eventrfReqClanUserList@UBTTcpLink_Channel@@QAEKABVFString@@@Z @ 1222
?eventrfReqClientChallenge@UBTTcpLink_Login@@QAEKXZ @ 1223
?eventrfReqClientChecksum@UBTTcpLink_Login@@QAEKABVFString@@VFBtrDouble@@@Z @ 1224
?eventrfReqClientUdpInfoList@UBTTcpLink_Channel@@QAEKH@Z @ 1225
?eventrfReqCommunityOptionList@UBTTcpLink_Channel@@QAEKXZ @ 1226
?eventrfReqCompleteFriendInvite@UBTTcpLink_Channel@@QAEKABVFString@@E@Z @ 1227
?eventrfReqConfirmFriendInvite@UBTTcpLink_Channel@@QAEKHABVFString@@E@Z @ 1228
?eventrfReqConfirmItemChanged@UBTTcpLink_Channel@@QAEKXZ @ 1229
?eventrfReqConfirmSkillChanged@UBTTcpLink_Channel@@QAEKXZ @ 1230
?eventrfReqConnectChannelServer@UBTTcpLink_Login@@QAEKABVFString@@H@Z @ 1231
?eventrfReqConnectGame@UBTTcpLink_Channel@@QAEKXZ @ 1232
?eventrfReqCouponUse@UBTTcpLink_Channel@@QAEKABVFString@@@Z @ 1233
?eventrfReqCreateChar@UBTTcpLink_Login@@QAEKABVFString@@HHH@Z @ 1234
?eventrfReqCreateClan@UBTTcpLink_Channel@@QAEKABVFString@@000E@Z @ 1235
?eventrfReqCreateGameRoom@UBTTcpLink_Channel@@QAEKUFGameRoomInfo@@@Z @ 1236
?eventrfReqDBCharInfo@UBTTcpLink_Channel@@QAEKABVFString@@@Z @ 1237
?eventrfReqDailyQuestNewAvailable@UBTTcpLink_Channel@@QAEKV?$TArray@H@@0@Z @ 1238
?eventrfReqDedicateHost_Login@UBTTcpLink_Channel@@QAEKHHH@Z @ 1239
?eventrfReqDelMemo@UBTTcpLink_Channel@@QAEKV?$TArray@H@@E@Z @ 1240
?eventrfReqDeleteFriend@UBTTcpLink_Channel@@QAEKV?$TArray@VFString@@@@@Z @ 1241
?eventrfReqDeleteMailAll@UBTTcpLink_Channel@@QAEKE@Z @ 1242
?eventrfReqDisconnectGame@UBTTcpLink_Channel@@QAEKXZ @ 1243
?eventrfReqDummy@UBTTcpLink_Channel@@QAEKH@Z @ 1244
?eventrfReqDupCheckClanName@UBTTcpLink_Channel@@QAEKABVFString@@@Z @ 1245
?eventrfReqEnterChannel@UBTTcpLink_Channel@@QAEKH@Z @ 1246
?eventrfReqEnterRoom@UBTTcpLink_Channel@@QAEKHABVFString@@E@Z @ 1247
?eventrfReqEntryItemList@UBTTcpLink_Channel@@QAEKH@Z @ 1248
?eventrfReqEntryQSlotIDList@UBTTcpLink_Channel@@QAEKH@Z @ 1249
?eventrfReqEntryQSlotUniqueIDList@UBTTcpLink_Channel@@QAEKH@Z @ 1250
?eventrfReqEntrySkillList@UBTTcpLink_Channel@@QAEKH@Z @ 1251
?eventrfReqEquipItem@UBTTcpLink_Channel@@QAEKHVFBtrDouble@@H@Z @ 1252
?eventrfReqEquipSkill@UBTTcpLink_Channel@@QAEKHHE@Z @ 1253
?eventrfReqErrorReportServerAddr@UBTTcpLink_Login@@QAEKXZ @ 1254
?eventrfReqEventNotify@UBTTcpLink_Channel@@QAEKXZ @ 1255
?eventrfReqEventNotify@UBTTcpLink_Login@@QAEKXZ @ 1256
?eventrfReqExteriorRoomInfo@UBTTcpLink_Channel@@QAEKHHEABVFString@@00HHEHHEEEE@Z @ 1257
?eventrfReqExteriorRoomOwnerInfo@UBTTcpLink_Channel@@QAEKHABVFString@@0@Z @ 1258
?eventrfReqExteriorRoomState@UBTTcpLink_Channel@@QAEKHE@Z @ 1259
?eventrfReqExteriorRoomUserCount@UBTTcpLink_Channel@@QAEKHH@Z @ 1260
?eventrfReqFailedStartGame@UBTTcpLink_Channel@@QAEKH@Z @ 1261
?eventrfReqForceDisconnectUDPFromHost@UBTTcpLink_Channel@@QAEKH@Z @ 1262
?eventrfReqForceDisconnectUser_GM@UBTTcpLink_Channel@@QAEKABVFString@@@Z @ 1263
?eventrfReqForceFailedClientLoading@UBTTcpLink_Channel@@QAEKHH@Z @ 1264
?eventrfReqForceGameOver@UBTTcpLink_Channel@@QAEKXZ @ 1265
?eventrfReqForceLogoutByOwner@UBTTcpLink_Channel@@QAEKXZ @ 1266
?eventrfReqForceLogoutByOwner@UBTTcpLink_Login@@QAEKXZ @ 1267
?eventrfReqForceNatTypeSetting@UBTTcpLink_Channel@@QAEKH@Z @ 1268
?eventrfReqFriendList@UBTTcpLink_Channel@@QAEKXZ @ 1269
?eventrfReqFriendPosition@UBTTcpLink_Channel@@QAEKABVFString@@E@Z @ 1270
?eventrfReqFriendsList@UBTTcpLink_Login@@QAEKXZ @ 1271
?eventrfReqGameGuardAuthData@UBTTcpLink_Channel@@QAEKHHHH@Z @ 1272
?eventrfReqGameHostInfo@UBTTcpLink_Channel@@QAEKH@Z @ 1273
?eventrfReqGameMapData@UBTTcpLink_Channel@@QAEKXZ @ 1274
?eventrfReqGameOver@UBTTcpLink_Channel@@QAEKHH@Z @ 1275
?eventrfReqGameOverEnd@UBTTcpLink_Channel@@QAEKXZ @ 1276
?eventrfReqGamePlay_ChangeWeaponSet@UBTTcpLink_Channel@@QAEKHH@Z @ 1277
?eventrfReqGamePlay_DefuseBomb@UBTTcpLink_Channel@@QAEKHEMMMHHHH@Z @ 1278
?eventrfReqGamePlay_GetChopper@UBTTcpLink_Channel@@QAEKHV?$TArray@H@@MMMHHHHHHABVFString@@MMM@Z @ 1279
?eventrfReqGamePlay_InstallBomb@UBTTcpLink_Channel@@QAEKHEMMMHHHH@Z @ 1280
?eventrfReqGamePlay_SetGameStartTime@UBTTcpLink_Channel@@QAEKV?$TArray@H@@@Z @ 1281
?eventrfReqGamePlay_SetRoundStartTime@UBTTcpLink_Channel@@QAEKV?$TArray@H@@@Z @ 1282
?eventrfReqGamePlay_TakeAPoint@UBTTcpLink_Channel@@QAEKV?$TArray@H@@EV?$TArray@M@@110000@Z @ 1283
?eventrfReqGamePlay_UpdateDomScore@UBTTcpLink_Channel@@QAEKHH@Z @ 1284
?eventrfReqGameRoomInfo@UBTTcpLink_Channel@@QAEKHH@Z @ 1285
?eventrfReqGetAttachedItemFromMemo@UBTTcpLink_Channel@@QAEKHHH@Z @ 1286
?eventrfReqGetBooty@UBTTcpLink_Channel@@QAEKH@Z @ 1287
?eventrfReqGetBotID@UBTTcpLink_Channel@@QAEKEE@Z @ 1288
?eventrfReqGetCharBlockInfo@UBTTcpLink_Login@@QAEKXZ @ 1289
?eventrfReqGetHolePunchingResult@UBTTcpLink_Channel@@QAEKXZ @ 1290
?eventrfReqGetIsHostBlocking@UBTTcpLink_Channel@@QAEKXZ @ 1291
?eventrfReqGetItemFromItemBox@UBTTcpLink_Channel@@QAEKVFBtrDouble@@HHH@Z @ 1292
?eventrfReqGetMyMailBoxState@UBTTcpLink_Channel@@QAEKXZ @ 1293
?eventrfReqGetRankingInfoList@UBTTcpLink_Channel@@QAEKEE@Z @ 1294
?eventrfReqGetServerTime@UBTTcpLink_Channel@@QAEKXZ @ 1295
?eventrfReqGetUserHostPriorityPoint@UBTTcpLink_Channel@@QAEKH@Z @ 1296
?eventrfReqGiftItemByWebzenCash@UBTTcpLink_Channel@@QAEKABVFString@@0HHH@Z @ 1297
?eventrfReqGiftItemByWebzenCashGP20@UBTTcpLink_Channel@@QAEKABVFString@@0HE@Z @ 1298
?eventrfReqGiveSkill@UBTTcpLink_Channel@@QAEKXZ @ 1299
?eventrfReqHash@UBTTcpLink_Channel@@QAEKHHHH@Z @ 1300
?eventrfReqHash@UBTTcpLink_Login@@QAEKHHHH@Z @ 1301
?eventrfReqHash@UBTTcpLink_Process2Agent@@QAEKHHHH@Z @ 1302
?eventrfReqHeadItemTypeList@UBTTcpLink_Login@@QAEKXZ @ 1303
?eventrfReqHelmetItemTypeList@UBTTcpLink_Login@@QAEKXZ @ 1304
?eventrfReqInGameRoomUserClanLevelChanged@UBTTcpLink_Channel@@QAEKHH@Z @ 1305
?eventrfReqInGameRoomUserInfoChanged@UBTTcpLink_Channel@@QAEKXZ @ 1306
?eventrfReqInviteClan@UBTTcpLink_Channel@@QAEKABVFString@@0@Z @ 1307
?eventrfReqInviteGameRoom@UBTTcpLink_Channel@@QAEKABVFString@@@Z @ 1308
?eventrfReqIsAvailClanURL@UBTTcpLink_Channel@@QAEKABVFString@@@Z @ 1309
?eventrfReqIsGameRoomPlaying@UBTTcpLink_Channel@@QAEKH@Z @ 1310
?eventrfReqIsHostAvailable@UBTTcpLink_Channel@@QAEKABVFString@@HHHH@Z @ 1311
?eventrfReqIsPaidWebzenPCBang@UBTTcpLink_Channel@@QAEKE@Z @ 1312
?eventrfReqItemList@UBTTcpLink_Channel@@QAEKH@Z @ 1313
?eventrfReqItemListInItemBox@UBTTcpLink_Channel@@QAEKVFBtrDouble@@H@Z @ 1314
?eventrfReqJoinClan@UBTTcpLink_Channel@@QAEKABVFString@@00@Z @ 1315
?eventrfReqKeepAlive@UBTTcpLink_Login@@QAEKXZ @ 1316
?eventrfReqLeaveChannel@UBTTcpLink_Channel@@QAEKH@Z @ 1317
?eventrfReqLeaveRoom@UBTTcpLink_Channel@@QAEKH@Z @ 1318
?eventrfReqLimitedListInChannel@UBTTcpLink_Channel@@QAEKXZ @ 1319
?eventrfReqLogEndEachRound@UBTTcpLink_Channel@@QAEKHHHHEEHHH@Z @ 1320
?eventrfReqLogGetScore@UBTTcpLink_Channel@@QAEKUFKillDeathLog@@V?$TArray@H@@V?$TArray@E@@@Z @ 1321
?eventrfReqLogOut@UBTTcpLink_Channel@@QAEKE@Z @ 1322
?eventrfReqLogOut@UBTTcpLink_Login@@QAEKE@Z @ 1323
?eventrfReqLogin2@UBTTcpLink_Channel@@QAEKABVFString@@HHHHHH0H@Z @ 1324
?eventrfReqLogin@UBTTcpLink_Channel@@QAEKABVFString@@@Z @ 1325
?eventrfReqLogin@UBTTcpLink_Login@@QAEKABVFString@@@Z @ 1326
?eventrfReqLogin@UBTTcpLink_Process2Agent@@QAEKHHV?$TArray@E@@V?$TArray@VFString@@@@0V?$TArray@H@@@Z @ 1327
?eventrfReqLoginInHouseTest@UBTTcpLink_Login@@QAEKABVFString@@00@Z @ 1328
?eventrfReqLoginWithGlobal@UBTTcpLink_Login@@QAEKABVFString@@00H@Z @ 1329
?eventrfReqLoginWithIndonesia@UBTTcpLink_Login@@QAEKABVFString@@@Z @ 1330
?eventrfReqLoginWithTencentAuth@UBTTcpLink_Login@@QAEKABVFString@@V?$TArray@E@@@Z @ 1331
?eventrfReqLoginWithThailand@UBTTcpLink_Login@@QAEKABVFString@@HH00E@Z @ 1332
?eventrfReqLoginWithWZAuth@UBTTcpLink_Login@@QAEKABVFString@@00@Z @ 1333
?eventrfReqMemoList@UBTTcpLink_Channel@@QAEKEE@Z @ 1334
?eventrfReqModifyWeapon@UBTTcpLink_Channel@@QAEKVFBtrDouble@@HH@Z @ 1335
?eventrfReqMyEquipedItemList@UBTTcpLink_Channel@@QAEKXZ @ 1336
?eventrfReqMyEquipedQSlotList@UBTTcpLink_Channel@@QAEKXZ @ 1337
?eventrfReqMyEquipedSkillList@UBTTcpLink_Channel@@QAEKXZ @ 1338
?eventrfReqMyMoney@UBTTcpLink_Channel@@QAEKXZ @ 1339
?eventrfReqNotice_GM@UBTTcpLink_Channel@@QAEKEHHHABVFString@@@Z @ 1340
?eventrfReqNotifyChangeRoomState@UBTTcpLink_Channel@@QAEKE@Z @ 1341
?eventrfReqNotifyChangedItemState@UBTTcpLink_Channel@@QAEKXZ @ 1342
?eventrfReqNotifyChangedSkillState@UBTTcpLink_Channel@@QAEKXZ @ 1343
?eventrfReqNotifyClientJoinTime@UBTTcpLink_Channel@@QAEKH@Z @ 1344
?eventrfReqNotifyDisconnectHostInLoading@UBTTcpLink_Channel@@QAEKHABVFString@@H@Z @ 1345
?eventrfReqNotifyDurabilityZeroItem@UBTTcpLink_Channel@@QAEKHABVFString@@HV?$TArray@VFBtrDouble@@@@V?$TArray@H@@2V?$TArray@E@@@Z @ 1346
?eventrfReqNotifyEndTutorial@UBTTcpLink_Channel@@QAEKH@Z @ 1347
?eventrfReqNotifyExpiredItemIDs@UBTTcpLink_Channel@@QAEKXZ @ 1348
?eventrfReqNotifyExpiredSkillIDs@UBTTcpLink_Channel@@QAEKXZ @ 1349
?eventrfReqNotifyHostBlocking@UBTTcpLink_Channel@@QAEKE@Z @ 1350
?eventrfReqNotifyLevelUp@UBTTcpLink_Channel@@QAEKHHHV?$TArray@H@@0@Z @ 1351
?eventrfReqNotifyLoadingState@UBTTcpLink_Channel@@QAEKE@Z @ 1352
?eventrfReqNotifyLoadingStatus@UBTTcpLink_Channel@@QAEKH@Z @ 1353
?eventrfReqNotifyMyCharInfoToRoomUser@UBTTcpLink_Channel@@QAEKXZ @ 1354
?eventrfReqNotifyRecvDummyForHolePunching@UBTTcpLink_Channel@@QAEKHE@Z @ 1355
?eventrfReqNotifyRelayServerAddr@UBTTcpLink_Channel@@QAEKABVFString@@H@Z @ 1356
?eventrfReqNotifyShopItemData@UBTTcpLink_Channel@@QAEKV?$TArray@H@@V?$TArray@VFString@@@@1111V?$TArray@E@@1200000000020001111110@Z @ 1357
?eventrfReqNotifyShopItemDataEnd@UBTTcpLink_Channel@@QAEKH@Z @ 1358
?eventrfReqNotifyStartTutorial@UBTTcpLink_Channel@@QAEKXZ @ 1359
?eventrfReqPCBangUserList@UBTTcpLink_Channel@@QAEKXZ @ 1360
?eventrfReqPCBangUserList@UBTTcpLink_Login@@QAEKXZ @ 1361
?eventrfReqPaidItem_BroadCast@UBTTcpLink_Channel@@QAEKVFBtrDouble@@HABVFString@@@Z @ 1362
?eventrfReqPaidItem_ChangeCharname@UBTTcpLink_Channel@@QAEKVFBtrDouble@@ABVFString@@@Z @ 1363
?eventrfReqPaidItem_ChangeClanMark@UBTTcpLink_Channel@@QAEKVFBtrDouble@@EHHH@Z @ 1364
?eventrfReqPaidItem_ChangeClanname@UBTTcpLink_Channel@@QAEKVFBtrDouble@@ABVFString@@@Z @ 1365
?eventrfReqPaidItem_ClanMarkDupCheck@UBTTcpLink_Channel@@QAEKEHHH@Z @ 1366
?eventrfReqPaidItem_EraseRecord@UBTTcpLink_Channel@@QAEKVFBtrDouble@@H@Z @ 1367
?eventrfReqParamCheckSum@UBTTcpLink_Channel@@QAEKABVFString@@0@Z @ 1368
?eventrfReqPermanentRoomInfo@UBTTcpLink_Channel@@QAEKH@Z @ 1369
?eventrfReqProcessExcuteCmd@UBTTcpLink_Process2Agent@@QAEKHHABVFString@@@Z @ 1370
?eventrfReqProcessPreLoginUser@UBTTcpLink_Login@@QAEKABVFString@@E@Z @ 1371
?eventrfReqQSlotList@UBTTcpLink_Channel@@QAEKXZ @ 1372
?eventrfReqQuestGetAvailableEventList@UBTTcpLink_Channel@@QAEKXZ @ 1373
?eventrfReqQuestList@UBTTcpLink_Channel@@QAEKXZ @ 1374
?eventrfReqQuestNewAvailable@UBTTcpLink_Channel@@QAEKV?$TArray@H@@0V?$TArray@E@@0@Z @ 1375
?eventrfReqQuestUpdate@UBTTcpLink_Channel@@QAEKHHV?$TArray@H@@0@Z @ 1376
?eventrfReqQuitDedicateHost@UBTTcpLink_Process2Agent@@QAEKHHH@Z @ 1377
?eventrfReqRandomBox_Use@UBTTcpLink_Channel@@QAEKVFBtrDouble@@@Z @ 1378
?eventrfReqReadMemo@UBTTcpLink_Channel@@QAEKH@Z @ 1379
?eventrfReqRecvChatWispher@UBTTcpLink_Channel@@QAEKABVFString@@0@Z @ 1380
?eventrfReqRecvClanInvite@UBTTcpLink_Channel@@QAEKHABVFString@@00@Z @ 1381
?eventrfReqRecvDeleteFriend@UBTTcpLink_Channel@@QAEKHABVFString@@@Z @ 1382
?eventrfReqRecvForceDisconnectUDPFromHost@UBTTcpLink_Channel@@QAEKH@Z @ 1383
?eventrfReqRecvForceDisconnected_FromGM@UBTTcpLink_Channel@@QAEKHABVFString@@@Z @ 1384
?eventrfReqRecvForceFailedClientLoading@UBTTcpLink_Channel@@QAEKH@Z @ 1385
?eventrfReqRecvFriendInvite@UBTTcpLink_Channel@@QAEKHABVFString@@0@Z @ 1386
?eventrfReqRecvInviteGameRoom@UBTTcpLink_Channel@@QAEKABVFString@@HH0H0E00EEE00@Z @ 1387
?eventrfReqRecvJoinClan@UBTTcpLink_Channel@@QAEKHABVFString@@0@Z @ 1388
?eventrfReqRecvMemo@UBTTcpLink_Channel@@QAEKABVFString@@E@Z @ 1389
?eventrfReqRecvNotice_FromGM@UBTTcpLink_Channel@@QAEKHABVFString@@V?$TArray@VFString@@@@E@Z @ 1390
?eventrfReqRegisterMainPCBang@UBTTcpLink_Channel@@QAEKXZ @ 1391
?eventrfReqRegisterMainPCBang@UBTTcpLink_Login@@QAEKXZ @ 1392
?eventrfReqRegisterMyUdpInfo@UBTTcpLink_Channel@@QAEKEABVFString@@HE0H@Z @ 1393
?eventrfReqRegisteredPCBangInfo@UBTTcpLink_Channel@@QAEKXZ @ 1394
?eventrfReqRegisteredPCBangInfo@UBTTcpLink_Login@@QAEKXZ @ 1395
?eventrfReqRelayServerOff@UBTTcpLink_Channel@@QAEKXZ @ 1396
?eventrfReqRelayServerOn@UBTTcpLink_Channel@@QAEKABVFString@@H@Z @ 1397
?eventrfReqRemoveBlockUserList@UBTTcpLink_Channel@@QAEKABVFString@@@Z @ 1398
?eventrfReqRemoveCheckTeamBalanceList@UBTTcpLink_Channel@@QAEKXZ @ 1399
?eventrfReqRepairCost@UBTTcpLink_Channel@@QAEKV?$TArray@VFBtrDouble@@@@@Z @ 1400
?eventrfReqRepairItem@UBTTcpLink_Channel@@QAEKV?$TArray@VFBtrDouble@@@@@Z @ 1401
?eventrfReqReturnBotID@UBTTcpLink_Channel@@QAEKV?$TArray@H@@@Z @ 1402
?eventrfReqRoomList@UBTTcpLink_Channel@@QAEKHHH@Z @ 1403
?eventrfReqRoomUserList@UBTTcpLink_Channel@@QAEKH@Z @ 1404
?eventrfReqRoomUserPingInfo@UBTTcpLink_Channel@@QAEKV?$TArray@H@@0H@Z @ 1405
?eventrfReqSelectMap@UBTTcpLink_Channel@@QAEKHHABVFString@@@Z @ 1406
?eventrfReqSellShopItem@UBTTcpLink_Channel@@QAEKVFBtrDouble@@H@Z @ 1407
?eventrfReqSellShopItemInfo@UBTTcpLink_Channel@@QAEKVFBtrDouble@@H@Z @ 1408
?eventrfReqSendFriendInvite@UBTTcpLink_Channel@@QAEKHABVFString@@0@Z @ 1409
?eventrfReqSendGift@UBTTcpLink_Channel@@QAEKHABVFString@@0EE@Z @ 1410
?eventrfReqSendMemo@UBTTcpLink_Channel@@QAEKV?$TArray@VFString@@@@ABVFString@@H@Z @ 1411
?eventrfReqSendSystemMsg@UBTTcpLink_Channel@@QAEKEABVFString@@0UFSystemMsgParam@@@Z @ 1412
?eventrfReqSerachClan@UBTTcpLink_Channel@@QAEKEABVFString@@EEH@Z @ 1413
?eventrfReqServerList@UBTTcpLink_Login@@QAEKXZ @ 1414
?eventrfReqServerShutdown@UBTTcpLink_Channel@@QAEKABVFString@@HVFBtrDouble@@@Z @ 1415
?eventrfReqServerTime@UBTTcpLink_Channel@@QAEKXZ @ 1416
?eventrfReqServerTime@UBTTcpLink_Login@@QAEKXZ @ 1417
?eventrfReqServerType@UBTTcpLink_Channel@@QAEKXZ @ 1418
?eventrfReqSetClientVersion@UBTTcpLink_Channel@@QAEKH@Z @ 1419
?eventrfReqSetCommunityOption@UBTTcpLink_Channel@@QAEKHHHH@Z @ 1420
?eventrfReqSetLookForClan@UBTTcpLink_Channel@@QAEKE@Z @ 1421
?eventrfReqSetUserBootySeedValue@UBTTcpLink_Channel@@QAEKHH@Z @ 1422
?eventrfReqShopItemData@UBTTcpLink_Channel@@QAEKH@Z @ 1423
?eventrfReqShopItemList@UBTTcpLink_Channel@@QAEKXZ @ 1424
?eventrfReqSpecificChannelUserInfo@UBTTcpLink_Channel@@QAEKH@Z @ 1425
?eventrfReqSpecificGameRoomInfo@UBTTcpLink_Channel@@QAEKH@Z @ 1426
?eventrfReqStartDedicateHost@UBTTcpLink_Process2Agent@@QAEKHABVFString@@HHH@Z @ 1427
?eventrfReqStartGame@UBTTcpLink_Channel@@QAEKH@Z @ 1428
?eventrfReqStartHolePunching@UBTTcpLink_Channel@@QAEKHH@Z @ 1429
?eventrfReqStartNatDiag@UBTTcpLink_Channel@@QAEKABVFString@@H0H@Z @ 1430
?eventrfReqSuccessStartGame@UBTTcpLink_Channel@@QAEKH@Z @ 1431
?eventrfReqTerminateDedicateHostProcess@UBTTcpLink_Process2Agent@@QAEKXZ @ 1432
?eventrfReqTestDouble@UBTTcpLink_Channel@@QAEKVFBtrDouble@@V?$TArray@VFBtrDouble@@@@@Z @ 1433
?eventrfReqUpdateMyHostPriorityPoint@UBTTcpLink_Channel@@QAEKH@Z @ 1434
?eventrfReqUpdateProcessState@UBTTcpLink_Process2Agent@@QAEKH@Z @ 1435
?eventrfReqUpdateQSlot@UBTTcpLink_Channel@@QAEKHABVFString@@VFBtrDouble@@111HHHH@Z @ 1436
?eventrfReqUpdateScore@UBTTcpLink_Channel@@QAEKHV?$TArray@H@@000000000HEV?$TArray@VFString@@@@@Z @ 1437
?eventrfReqUpdateUserCount_ChannelServer@UBTTcpLink_Process2Agent@@QAEKHHV?$TArray@H@@0000@Z @ 1438
?eventrfReqUpdateUserCount_DudeServer@UBTTcpLink_Process2Agent@@QAEKHHH@Z @ 1439
?eventrfReqUpdateUserCount_LoginServer@UBTTcpLink_Process2Agent@@QAEKHHH@Z @ 1440
?eventrfReqUpdateUserPerformenceInfo@UBTTcpLink_Channel@@QAEKHHHHHHH@Z @ 1441
?eventrfReqUpdateWeaponDurability@UBTTcpLink_Channel@@QAEKHV?$TArray@H@@0V?$TArray@VFBtrDouble@@@@00@Z @ 1442
?eventrfReqUserDetailInfo@UBTTcpLink_Login@@QAEKHABVFString@@@Z @ 1443
?eventrfReqUserSkillList@UBTTcpLink_Channel@@QAEKH@Z @ 1444
?eventrfReqWebzenBillingStorageList@UBTTcpLink_Channel@@QAEKHHE@Z @ 1445
?eventrfReqWebzenBillingUseStorageItem@UBTTcpLink_Channel@@QAEKHHE@Z @ 1446
?eventrfReqWebzenCash@UBTTcpLink_Channel@@QAEKXZ @ 1447
?eventrfReqWebzenShopScriptVersion@UBTTcpLink_Channel@@QAEKXZ @ 1448
?eventrfReqWriteServerLog@UBTTcpLink_Channel@@QAEKEABVFString@@@Z @ 1449
?eventrfUpdateWebzenShopScriptVersion@UBTTcpLink_Channel@@QAEKHHH@Z @ 1450
?execCheckPhrase1@UBTNatDiag@@QAEXAAUFFrame@@QAX@Z @ 1451
?execCheckPhrase2@UBTNatDiag@@QAEXAAUFFrame@@QAX@Z @ 1452
?execClose@UBTDataTransferClientLink@@QAEXAAUFFrame@@QAX@Z @ 1453
?execClose@UBTTcpLink_Channel@@QAEXAAUFFrame@@QAX@Z @ 1454
?execClose@UBTTcpLink_Login@@QAEXAAUFFrame@@QAX@Z @ 1455
?execClose@UBTTcpLink_Process2Agent@@QAEXAAUFFrame@@QAX@Z @ 1456
?execConnect@UBTTcpLink_Channel@@QAEXAAUFFrame@@QAX@Z @ 1457
?execConnect@UBTTcpLink_Login@@QAEXAAUFFrame@@QAX@Z @ 1458
?execConnect@UBTTcpLink_Process2Agent@@QAEXAAUFFrame@@QAX@Z @ 1459
?execGetNatType@UBTNatDiag@@QAEXAAUFFrame@@QAX@Z @ 1460
?execGetPayURL@UBTSteamMapping@@QAEXAAUFFrame@@QAX@Z @ 1461
?execInitNatSocket@UBTNatDiag@@QAEXAAUFFrame@@QAX@Z @ 1462
?execInitNetwork@UBTDataTransferClientLink@@QAEXAAUFFrame@@QAX@Z @ 1463
?execInitNetwork@UBTTcpLink_Channel@@QAEXAAUFFrame@@QAX@Z @ 1464
?execInitNetwork@UBTTcpLink_Login@@QAEXAAUFFrame@@QAX@Z @ 1465
?execInitNetwork@UBTTcpLink_Process2Agent@@QAEXAAUFFrame@@QAX@Z @ 1466
?execRequestData@UBTDataTransferClientLink@@QAEXAAUFFrame@@QAX@Z @ 1467
?execSetNatServerIp@UBTNatDiag@@QAEXAAUFFrame@@QAX@Z @ 1468
?execSetPrimaryServer@UBTNatDiag@@QAEXAAUFFrame@@QAX@Z @ 1469
?execSetSecondServer@UBTNatDiag@@QAEXAAUFFrame@@QAX@Z @ 1470
?execStartNatCheck@UBTNatDiag@@QAEXAAUFFrame@@QAX@Z @ 1471
?execsfAckAccesItemTypeList@UBTTcpLink_Login@@QAEXAAUFFrame@@QAX@Z @ 1472
?execsfAckAcquirePromotionItems@UBTTcpLink_Channel@@QAEXAAUFFrame@@QAX@Z @ 1473
?execsfAckAddBlockUserList@UBTTcpLink_Channel@@QAEXAAUFFrame@@QAX@Z @ 1474
?execsfAckAdjustClanMemberGrade@UBTTcpLink_Channel@@QAEXAAUFFrame@@QAX@Z @ 1475
?execsfAckAdvertisement@UBTTcpLink_Login@@QAEXAAUFFrame@@QAX@Z @ 1476
?execsfAckAhnHsObject@UBTTcpLink_Channel@@QAEXAAUFFrame@@QAX@Z @ 1477
?execsfAckAuctionBidding@UBTTcpLink_Channel@@QAEXAAUFFrame@@QAX@Z @ 1478
?execsfAckAuctionInstantlyBuying@UBTTcpLink_Channel@@QAEXAAUFFrame@@QAX@Z @ 1479
?execsfAckAuctionItemList@UBTTcpLink_Channel@@QAEXAAUFFrame@@QAX@Z @ 1480
?execsfAckAuctionItemListCount@UBTTcpLink_Channel@@QAEXAAUFFrame@@QAX@Z @ 1481
?execsfAckAuctionItemListEnd@UBTTcpLink_Channel@@QAEXAAUFFrame@@QAX@Z @ 1482
?execsfAckAuctionItemListStart@UBTTcpLink_Channel@@QAEXAAUFFrame@@QAX@Z @ 1483
?execsfAckAuctionMyItemCancel@UBTTcpLink_Channel@@QAEXAAUFFrame@@QAX@Z @ 1484
?execsfAckAuctionMyItemRegister@UBTTcpLink_Channel@@QAEXAAUFFrame@@QAX@Z @ 1485
?execsfAckAuctionTradeHistory@UBTTcpLink_Channel@@QAEXAAUFFrame@@QAX@Z @ 1486
?execsfAckAutoChangedTeamUserList@UBTTcpLink_Channel@@QAEXAAUFFrame@@QAX@Z @ 1487
?execsfAckBanUser@UBTTcpLink_Channel@@QAEXAAUFFrame@@QAX@Z @ 1488
?execsfAckBlockUserList@UBTTcpLink_Channel@@QAEXAAUFFrame@@QAX@Z @ 1489
?execsfAckBlockUserListEnd@UBTTcpLink_Channel@@QAEXAAUFFrame@@QAX@Z @ 1490
?execsfAckBlockUserListStart@UBTTcpLink_Channel@@QAEXAAUFFrame@@QAX@Z @ 1491
?execsfAckBuyItemByWebzenCash@UBTTcpLink_Channel@@QAEXAAUFFrame@@QAX@Z @ 1492
?execsfAckBuyShopItem@UBTTcpLink_Channel@@QAEXAAUFFrame@@QAX@Z @ 1493
?execsfAckChangeGameMode@UBTTcpLink_Channel@@QAEXAAUFFrame@@QAX@Z @ 1494
?execsfAckChangeHost@UBTTcpLink_Channel@@QAEXAAUFFrame@@QAX@Z @ 1495
?execsfAckChangeNewGuest@UBTTcpLink_Channel@@QAEXAAUFFrame@@QAX@Z @ 1496
?execsfAckChangeRoomMaxNum@UBTTcpLink_Channel@@QAEXAAUFFrame@@QAX@Z @ 1497
?execsfAckChangeRoomOwner@UBTTcpLink_Channel@@QAEXAAUFFrame@@QAX@Z @ 1498
?execsfAckChangeRoomSetting@UBTTcpLink_Channel@@QAEXAAUFFrame@@QAX@Z @ 1499
?execsfAckChangeRoomTitle_GM@UBTTcpLink_Channel@@QAEXAAUFFrame@@QAX@Z @ 1500
?execsfAckChangeTeam@UBTTcpLink_Channel@@QAEXAAUFFrame@@QAX@Z @ 1501
?execsfAckChangeUserState@UBTTcpLink_Channel@@QAEXAAUFFrame@@QAX@Z @ 1502
?execsfAckChangedRoomTitle_FromGM@UBTTcpLink_Channel@@QAEXAAUFFrame@@QAX@Z @ 1503
?execsfAckChannelList@UBTTcpLink_Channel@@QAEXAAUFFrame@@QAX@Z @ 1504
?execsfAckChannelUserList@UBTTcpLink_Channel@@QAEXAAUFFrame@@QAX@Z @ 1505
?execsfAckChannelUserListInGameRoom@UBTTcpLink_Channel@@QAEXAAUFFrame@@QAX@Z @ 1506
?execsfAckCharBlockInfo@UBTTcpLink_Channel@@QAEXAAUFFrame@@QAX@Z @ 1507
?execsfAckCharDetailInfo@UBTTcpLink_Channel@@QAEXAAUFFrame@@QAX@Z @ 1508
?execsfAckCharInfo@UBTTcpLink_Channel@@QAEXAAUFFrame@@QAX@Z @ 1509
?execsfAckCharInfo@UBTTcpLink_Login@@QAEXAAUFFrame@@QAX@Z @ 1510
?execsfAckChatClan@UBTTcpLink_Channel@@QAEXAAUFFrame@@QAX@Z @ 1511
?execsfAckChatNormal@UBTTcpLink_Channel@@QAEXAAUFFrame@@QAX@Z @ 1512
?execsfAckChatWispher@UBTTcpLink_Channel@@QAEXAAUFFrame@@QAX@Z @ 1513
?execsfAckChatWispherMyCommunity@UBTTcpLink_Channel@@QAEXAAUFFrame@@QAX@Z @ 1514
?execsfAckCheckEquipedWeaponDurability@UBTTcpLink_Channel@@QAEXAAUFFrame@@QAX@Z @ 1515
?execsfAckClanChangeInfo@UBTTcpLink_Channel@@QAEXAAUFFrame@@QAX@Z @ 1516
?execsfAckClanCharPersonelIntro@UBTTcpLink_Channel@@QAEXAAUFFrame@@QAX@Z @ 1517
?execsfAckClanClose@UBTTcpLink_Channel@@QAEXAAUFFrame@@QAX@Z @ 1518
?execsfAckClanInfo@UBTTcpLink_Channel@@QAEXAAUFFrame@@QAX@Z @ 1519
?execsfAckClanMatchResultHistory@UBTTcpLink_Channel@@QAEXAAUFFrame@@QAX@Z @ 1520
?execsfAckClanMatch_ChangeLeader@UBTTcpLink_Channel@@QAEXAAUFFrame@@QAX@Z @ 1521
?execsfAckClanMatch_ChangeRoomSetting@UBTTcpLink_Channel@@QAEXAAUFFrame@@QAX@Z @ 1522
?execsfAckClanMatch_Chat@UBTTcpLink_Channel@@QAEXAAUFFrame@@QAX@Z @ 1523
?execsfAckClanMatch_EndPublicWaitRoomList@UBTTcpLink_Channel@@QAEXAAUFFrame@@QAX@Z @ 1524
?execsfAckClanMatch_FoundMatch@UBTTcpLink_Channel@@QAEXAAUFFrame@@QAX@Z @ 1525
?execsfAckClanMatch_GetClanWaittingRoomInfo@UBTTcpLink_Channel@@QAEXAAUFFrame@@QAX@Z @ 1526
?execsfAckClanMatch_GetReady@UBTTcpLink_Channel@@QAEXAAUFFrame@@QAX@Z @ 1527
?execsfAckClanMatch_InviteCrew@UBTTcpLink_Channel@@QAEXAAUFFrame@@QAX@Z @ 1528
?execsfAckClanMatch_Join@UBTTcpLink_Channel@@QAEXAAUFFrame@@QAX@Z @ 1529
?execsfAckClanMatch_JoinNotify@UBTTcpLink_Channel@@QAEXAAUFFrame@@QAX@Z @ 1530
?execsfAckClanMatch_Leave@UBTTcpLink_Channel@@QAEXAAUFFrame@@QAX@Z @ 1531
?execsfAckClanMatch_LeaveNotify@UBTTcpLink_Channel@@QAEXAAUFFrame@@QAX@Z @ 1532
?execsfAckClanMatch_MemberList@UBTTcpLink_Channel@@QAEXAAUFFrame@@QAX@Z @ 1533
?execsfAckClanMatch_NotifiyStartCombat@UBTTcpLink_Channel@@QAEXAAUFFrame@@QAX@Z @ 1534
?execsfAckClanMatch_NotifyStartSearching@UBTTcpLink_Channel@@QAEXAAUFFrame@@QAX@Z @ 1535
?execsfAckClanMatch_PublicWaitRoomChanged@UBTTcpLink_Channel@@QAEXAAUFFrame@@QAX@Z @ 1536
?execsfAckClanMatch_PublicWaitRoomList@UBTTcpLink_Channel@@QAEXAAUFFrame@@QAX@Z @ 1537
?execsfAckClanMatch_RecvInviteCrew@UBTTcpLink_Channel@@QAEXAAUFFrame@@QAX@Z @ 1538
?execsfAckClanMatch_SetWaitRoomPublic@UBTTcpLink_Channel@@QAEXAAUFFrame@@QAX@Z @ 1539
?execsfAckClanMatch_StartCombat@UBTTcpLink_Channel@@QAEXAAUFFrame@@QAX@Z @ 1540
?execsfAckClanMatch_StartPublicWaitRoomList@UBTTcpLink_Channel@@QAEXAAUFFrame@@QAX@Z @ 1541
?execsfAckClanMatch_StartSearching@UBTTcpLink_Channel@@QAEXAAUFFrame@@QAX@Z @ 1542
?execsfAckClanMatch_StopSearching@UBTTcpLink_Channel@@QAEXAAUFFrame@@QAX@Z @ 1543
?execsfAckClanMatch_WaittingTeamList@UBTTcpLink_Channel@@QAEXAAUFFrame@@QAX@Z @ 1544
?execsfAckClanMemberListFromClient@UBTTcpLink_Login@@QAEXAAUFFrame@@QAX@Z @ 1545
?execsfAckClanMemberListFromClientEnd@UBTTcpLink_Login@@QAEXAAUFFrame@@QAX@Z @ 1546
?execsfAckClanMemberListFromClientStart@UBTTcpLink_Login@@QAEXAAUFFrame@@QAX@Z @ 1547
?execsfAckClanNews@UBTTcpLink_Channel@@QAEXAAUFFrame@@QAX@Z @ 1548
?execsfAckClanPersonelIntro@UBTTcpLink_Channel@@QAEXAAUFFrame@@QAX@Z @ 1549
?execsfAckClanSecession@UBTTcpLink_Channel@@QAEXAAUFFrame@@QAX@Z @ 1550
?execsfAckClanUserList@UBTTcpLink_Channel@@QAEXAAUFFrame@@QAX@Z @ 1551
?execsfAckClanUserListEnd@UBTTcpLink_Channel@@QAEXAAUFFrame@@QAX@Z @ 1552
?execsfAckClanUserListStart@UBTTcpLink_Channel@@QAEXAAUFFrame@@QAX@Z @ 1553
?execsfAckClientChallenge@UBTTcpLink_Login@@QAEXAAUFFrame@@QAX@Z @ 1554
?execsfAckClientChecksum@UBTTcpLink_Login@@QAEXAAUFFrame@@QAX@Z @ 1555
?execsfAckClientUdpInfoList@UBTTcpLink_Channel@@QAEXAAUFFrame@@QAX@Z @ 1556
?execsfAckCommunityOptionList@UBTTcpLink_Channel@@QAEXAAUFFrame@@QAX@Z @ 1557
?execsfAckConfirmFriendInvite@UBTTcpLink_Channel@@QAEXAAUFFrame@@QAX@Z @ 1558
?execsfAckConfirmItemChanged@UBTTcpLink_Channel@@QAEXAAUFFrame@@QAX@Z @ 1559
?execsfAckConfirmSkillChanged@UBTTcpLink_Channel@@QAEXAAUFFrame@@QAX@Z @ 1560
?execsfAckConnectChannelServer@UBTTcpLink_Login@@QAEXAAUFFrame@@QAX@Z @ 1561
?execsfAckConnectGame@UBTTcpLink_Channel@@QAEXAAUFFrame@@QAX@Z @ 1562
?execsfAckCouponUse@UBTTcpLink_Channel@@QAEXAAUFFrame@@QAX@Z @ 1563
?execsfAckCreateChar@UBTTcpLink_Login@@QAEXAAUFFrame@@QAX@Z @ 1564
?execsfAckCreateClan@UBTTcpLink_Channel@@QAEXAAUFFrame@@QAX@Z @ 1565
?execsfAckCreateGameRoom@UBTTcpLink_Channel@@QAEXAAUFFrame@@QAX@Z @ 1566
?execsfAckDBCharInfo@UBTTcpLink_Channel@@QAEXAAUFFrame@@QAX@Z @ 1567
?execsfAckDedicateHost_Login@UBTTcpLink_Channel@@QAEXAAUFFrame@@QAX@Z @ 1568
?execsfAckDelMemo@UBTTcpLink_Channel@@QAEXAAUFFrame@@QAX@Z @ 1569
?execsfAckDeleteFriend@UBTTcpLink_Channel@@QAEXAAUFFrame@@QAX@Z @ 1570
?execsfAckDeleteMailAll@UBTTcpLink_Channel@@QAEXAAUFFrame@@QAX@Z @ 1571
?execsfAckDisconnectGame@UBTTcpLink_Channel@@QAEXAAUFFrame@@QAX@Z @ 1572
?execsfAckDummy@UBTTcpLink_Channel@@QAEXAAUFFrame@@QAX@Z @ 1573
?execsfAckDupCheckClanName@UBTTcpLink_Channel@@QAEXAAUFFrame@@QAX@Z @ 1574
?execsfAckEndMemoList@UBTTcpLink_Channel@@QAEXAAUFFrame@@QAX@Z @ 1575
?execsfAckEnterChannel@UBTTcpLink_Channel@@QAEXAAUFFrame@@QAX@Z @ 1576
?execsfAckEnterRoom@UBTTcpLink_Channel@@QAEXAAUFFrame@@QAX@Z @ 1577
?execsfAckEntryItemList@UBTTcpLink_Channel@@QAEXAAUFFrame@@QAX@Z @ 1578
?execsfAckEntryQSlotIDList@UBTTcpLink_Channel@@QAEXAAUFFrame@@QAX@Z @ 1579
?execsfAckEntryQSlotUniqueIDList@UBTTcpLink_Channel@@QAEXAAUFFrame@@QAX@Z @ 1580
?execsfAckEntrySkillList@UBTTcpLink_Channel@@QAEXAAUFFrame@@QAX@Z @ 1581
?execsfAckEquipItem@UBTTcpLink_Channel@@QAEXAAUFFrame@@QAX@Z @ 1582
?execsfAckEquipSkill@UBTTcpLink_Channel@@QAEXAAUFFrame@@QAX@Z @ 1583
?execsfAckErrorReportServerAddr@UBTTcpLink_Login@@QAEXAAUFFrame@@QAX@Z @ 1584
?execsfAckEventNotify@UBTTcpLink_Channel@@QAEXAAUFFrame@@QAX@Z @ 1585
?execsfAckEventNotify@UBTTcpLink_Login@@QAEXAAUFFrame@@QAX@Z @ 1586
?execsfAckExceedMaxUser@UBTTcpLink_Channel@@QAEXAAUFFrame@@QAX@Z @ 1587
?execsfAckExceedMaxUser@UBTTcpLink_Login@@QAEXAAUFFrame@@QAX@Z @ 1588
?execsfAckExteriorRoomInfo@UBTTcpLink_Channel@@QAEXAAUFFrame@@QAX@Z @ 1589
?execsfAckExteriorRoomOwnerInfo@UBTTcpLink_Channel@@QAEXAAUFFrame@@QAX@Z @ 1590
?execsfAckExteriorRoomState@UBTTcpLink_Channel@@QAEXAAUFFrame@@QAX@Z @ 1591
?execsfAckExteriorRoomUserCount@UBTTcpLink_Channel@@QAEXAAUFFrame@@QAX@Z @ 1592
?execsfAckFailedStartGame@UBTTcpLink_Channel@@QAEXAAUFFrame@@QAX@Z @ 1593
?execsfAckForceDisconnectUDPFromHost@UBTTcpLink_Channel@@QAEXAAUFFrame@@QAX@Z @ 1594
?execsfAckForceDisconnectUser_GM@UBTTcpLink_Channel@@QAEXAAUFFrame@@QAX@Z @ 1595
?execsfAckForceFailedClientLoading@UBTTcpLink_Channel@@QAEXAAUFFrame@@QAX@Z @ 1596
?execsfAckForceGameOver@UBTTcpLink_Channel@@QAEXAAUFFrame@@QAX@Z @ 1597
?execsfAckFriendList@UBTTcpLink_Channel@@QAEXAAUFFrame@@QAX@Z @ 1598
?execsfAckFriendListEnd@UBTTcpLink_Channel@@QAEXAAUFFrame@@QAX@Z @ 1599
?execsfAckFriendListStart@UBTTcpLink_Channel@@QAEXAAUFFrame@@QAX@Z @ 1600
?execsfAckFriendPosition@UBTTcpLink_Channel@@QAEXAAUFFrame@@QAX@Z @ 1601
?execsfAckFriendsList@UBTTcpLink_Login@@QAEXAAUFFrame@@QAX@Z @ 1602
?execsfAckFriendsListEnd@UBTTcpLink_Login@@QAEXAAUFFrame@@QAX@Z @ 1603
?execsfAckFriendsListStart@UBTTcpLink_Login@@QAEXAAUFFrame@@QAX@Z @ 1604
?execsfAckGMEnterRoom@UBTTcpLink_Channel@@QAEXAAUFFrame@@QAX@Z @ 1605
?execsfAckGMLeaveRoom@UBTTcpLink_Channel@@QAEXAAUFFrame@@QAX@Z @ 1606
?execsfAckGameGuardAuthData@UBTTcpLink_Channel@@QAEXAAUFFrame@@QAX@Z @ 1607
?execsfAckGameHostInfo@UBTTcpLink_Channel@@QAEXAAUFFrame@@QAX@Z @ 1608
?execsfAckGameMapData@UBTTcpLink_Channel@@QAEXAAUFFrame@@QAX@Z @ 1609
?execsfAckGameOver@UBTTcpLink_Channel@@QAEXAAUFFrame@@QAX@Z @ 1610
?execsfAckGameOverEnd@UBTTcpLink_Channel@@QAEXAAUFFrame@@QAX@Z @ 1611
?execsfAckGameRoomDestroy@UBTTcpLink_Channel@@QAEXAAUFFrame@@QAX@Z @ 1612
?execsfAckGameRoomInfo@UBTTcpLink_Channel@@QAEXAAUFFrame@@QAX@Z @ 1613
?execsfAckGetAttachedItemFromMemo@UBTTcpLink_Channel@@QAEXAAUFFrame@@QAX@Z @ 1614
?execsfAckGetBooty@UBTTcpLink_Channel@@QAEXAAUFFrame@@QAX@Z @ 1615
?execsfAckGetBootyChoose@UBTTcpLink_Channel@@QAEXAAUFFrame@@QAX@Z @ 1616
?execsfAckGetBotID@UBTTcpLink_Channel@@QAEXAAUFFrame@@QAX@Z @ 1617
?execsfAckGetCharBlockInfo@UBTTcpLink_Login@@QAEXAAUFFrame@@QAX@Z @ 1618
?execsfAckGetHolePunchingResult@UBTTcpLink_Channel@@QAEXAAUFFrame@@QAX@Z @ 1619
?execsfAckGetIsHostBlocking@UBTTcpLink_Channel@@QAEXAAUFFrame@@QAX@Z @ 1620
?execsfAckGetItemFromItemBox@UBTTcpLink_Channel@@QAEXAAUFFrame@@QAX@Z @ 1621
?execsfAckGetMyMailBoxState@UBTTcpLink_Channel@@QAEXAAUFFrame@@QAX@Z @ 1622
?execsfAckGetRankingInfoList@UBTTcpLink_Channel@@QAEXAAUFFrame@@QAX@Z @ 1623
?execsfAckGetRankingInfoListEnd@UBTTcpLink_Channel@@QAEXAAUFFrame@@QAX@Z @ 1624
?execsfAckGetRankingInfoListStart@UBTTcpLink_Channel@@QAEXAAUFFrame@@QAX@Z @ 1625
?execsfAckGetServerTime@UBTTcpLink_Channel@@QAEXAAUFFrame@@QAX@Z @ 1626
?execsfAckGetUserHostPriorityPoint@UBTTcpLink_Channel@@QAEXAAUFFrame@@QAX@Z @ 1627
?execsfAckGiftItemByWebzenCash@UBTTcpLink_Channel@@QAEXAAUFFrame@@QAX@Z @ 1628
?execsfAckGiveSkill@UBTTcpLink_Channel@@QAEXAAUFFrame@@QAX@Z @ 1629
?execsfAckHash@UBTTcpLink_Channel@@QAEXAAUFFrame@@QAX@Z @ 1630
?execsfAckHash@UBTTcpLink_Login@@QAEXAAUFFrame@@QAX@Z @ 1631
?execsfAckHash@UBTTcpLink_Process2Agent@@QAEXAAUFFrame@@QAX@Z @ 1632
?execsfAckHeadItemTypeList@UBTTcpLink_Login@@QAEXAAUFFrame@@QAX@Z @ 1633
?execsfAckHelmetItemTypeList@UBTTcpLink_Login@@QAEXAAUFFrame@@QAX@Z @ 1634
?execsfAckInviteClan@UBTTcpLink_Channel@@QAEXAAUFFrame@@QAX@Z @ 1635
?execsfAckInviteClanResult@UBTTcpLink_Channel@@QAEXAAUFFrame@@QAX@Z @ 1636
?execsfAckInviteGameRoom@UBTTcpLink_Channel@@QAEXAAUFFrame@@QAX@Z @ 1637
?execsfAckIsAvailClanURL@UBTTcpLink_Channel@@QAEXAAUFFrame@@QAX@Z @ 1638
?execsfAckIsGameRoomPlaying@UBTTcpLink_Channel@@QAEXAAUFFrame@@QAX@Z @ 1639
?execsfAckIsHostAvailable@UBTTcpLink_Channel@@QAEXAAUFFrame@@QAX@Z @ 1640
?execsfAckItemList@UBTTcpLink_Channel@@QAEXAAUFFrame@@QAX@Z @ 1641
?execsfAckItemListEnd@UBTTcpLink_Channel@@QAEXAAUFFrame@@QAX@Z @ 1642
?execsfAckItemListInItemBox@UBTTcpLink_Channel@@QAEXAAUFFrame@@QAX@Z @ 1643
?execsfAckItemListStart@UBTTcpLink_Channel@@QAEXAAUFFrame@@QAX@Z @ 1644
?execsfAckJoinClan@UBTTcpLink_Channel@@QAEXAAUFFrame@@QAX@Z @ 1645
?execsfAckJoinClanResult@UBTTcpLink_Channel@@QAEXAAUFFrame@@QAX@Z @ 1646
?execsfAckLeaveChannel@UBTTcpLink_Channel@@QAEXAAUFFrame@@QAX@Z @ 1647
?execsfAckLeaveRoom@UBTTcpLink_Channel@@QAEXAAUFFrame@@QAX@Z @ 1648
?execsfAckLimitedListInChannel@UBTTcpLink_Channel@@QAEXAAUFFrame@@QAX@Z @ 1649
?execsfAckLogOut@UBTTcpLink_Channel@@QAEXAAUFFrame@@QAX@Z @ 1650
?execsfAckLogOut@UBTTcpLink_Login@@QAEXAAUFFrame@@QAX@Z @ 1651
?execsfAckLogin2@UBTTcpLink_Channel@@QAEXAAUFFrame@@QAX@Z @ 1652
?execsfAckLogin@UBTTcpLink_Channel@@QAEXAAUFFrame@@QAX@Z @ 1653
?execsfAckLogin@UBTTcpLink_Login@@QAEXAAUFFrame@@QAX@Z @ 1654
?execsfAckLogin@UBTTcpLink_Process2Agent@@QAEXAAUFFrame@@QAX@Z @ 1655
?execsfAckLoginInHouseTest@UBTTcpLink_Login@@QAEXAAUFFrame@@QAX@Z @ 1656
?execsfAckLoginWithGlobal@UBTTcpLink_Login@@QAEXAAUFFrame@@QAX@Z @ 1657
?execsfAckLoginWithIndonesia@UBTTcpLink_Login@@QAEXAAUFFrame@@QAX@Z @ 1658
?execsfAckLoginWithTencentAuth@UBTTcpLink_Login@@QAEXAAUFFrame@@QAX@Z @ 1659
?execsfAckLoginWithThailand@UBTTcpLink_Login@@QAEXAAUFFrame@@QAX@Z @ 1660
?execsfAckLoginWithWZAuth@UBTTcpLink_Login@@QAEXAAUFFrame@@QAX@Z @ 1661
?execsfAckMaxUserExceed@UBTTcpLink_Login@@QAEXAAUFFrame@@QAX@Z @ 1662
?execsfAckMemoList@UBTTcpLink_Channel@@QAEXAAUFFrame@@QAX@Z @ 1663
?execsfAckModifyWeapon@UBTTcpLink_Channel@@QAEXAAUFFrame@@QAX@Z @ 1664
?execsfAckMoveToLobby@UBTTcpLink_Channel@@QAEXAAUFFrame@@QAX@Z @ 1665
?execsfAckMyEquipedItemList@UBTTcpLink_Channel@@QAEXAAUFFrame@@QAX@Z @ 1666
?execsfAckMyEquipedQSlotList@UBTTcpLink_Channel@@QAEXAAUFFrame@@QAX@Z @ 1667
?execsfAckMyEquipedSkillList@UBTTcpLink_Channel@@QAEXAAUFFrame@@QAX@Z @ 1668
?execsfAckMyMoney@UBTTcpLink_Channel@@QAEXAAUFFrame@@QAX@Z @ 1669
?execsfAckNotice_GM@UBTTcpLink_Channel@@QAEXAAUFFrame@@QAX@Z @ 1670
?execsfAckNotifyAdjustClanMemberGrade@UBTTcpLink_Channel@@QAEXAAUFFrame@@QAX@Z @ 1671
?execsfAckNotifyChangedItemState@UBTTcpLink_Channel@@QAEXAAUFFrame@@QAX@Z @ 1672
?execsfAckNotifyChangedSkillState@UBTTcpLink_Channel@@QAEXAAUFFrame@@QAX@Z @ 1673
?execsfAckNotifyClanSecession@UBTTcpLink_Channel@@QAEXAAUFFrame@@QAX@Z @ 1674
?execsfAckNotifyClientJoinTime@UBTTcpLink_Channel@@QAEXAAUFFrame@@QAX@Z @ 1675
?execsfAckNotifyEndTutorial@UBTTcpLink_Channel@@QAEXAAUFFrame@@QAX@Z @ 1676
?execsfAckNotifyExpiredItemIDs@UBTTcpLink_Channel@@QAEXAAUFFrame@@QAX@Z @ 1677
?execsfAckNotifyExpiredSkillIDs@UBTTcpLink_Channel@@QAEXAAUFFrame@@QAX@Z @ 1678
?execsfAckNotifyHostBlocking@UBTTcpLink_Channel@@QAEXAAUFFrame@@QAX@Z @ 1679
?execsfAckNotifyLoadingState@UBTTcpLink_Channel@@QAEXAAUFFrame@@QAX@Z @ 1680
?execsfAckNotifyMyCharInfoToRoomUser@UBTTcpLink_Channel@@QAEXAAUFFrame@@QAX@Z @ 1681
?execsfAckNotifyNewClanMember@UBTTcpLink_Channel@@QAEXAAUFFrame@@QAX@Z @ 1682
?execsfAckNotifyStartTutorial@UBTTcpLink_Channel@@QAEXAAUFFrame@@QAX@Z @ 1683
?execsfAckNotifyUpdateCharInfo_LevelMark@UBTTcpLink_Channel@@QAEXAAUFFrame@@QAX@Z @ 1684
?execsfAckNotifyUpdateCharInfo_TitleMark@UBTTcpLink_Channel@@QAEXAAUFFrame@@QAX@Z @ 1685
?execsfAckPCBangUserList@UBTTcpLink_Channel@@QAEXAAUFFrame@@QAX@Z @ 1686
?execsfAckPCBangUserList@UBTTcpLink_Login@@QAEXAAUFFrame@@QAX@Z @ 1687
?execsfAckPCBangUserListEnd@UBTTcpLink_Channel@@QAEXAAUFFrame@@QAX@Z @ 1688
?execsfAckPCBangUserListEnd@UBTTcpLink_Login@@QAEXAAUFFrame@@QAX@Z @ 1689
?execsfAckPCBangUserListStart@UBTTcpLink_Channel@@QAEXAAUFFrame@@QAX@Z @ 1690
?execsfAckPCBangUserListStart@UBTTcpLink_Login@@QAEXAAUFFrame@@QAX@Z @ 1691
?execsfAckPaidItem_BroadCast@UBTTcpLink_Channel@@QAEXAAUFFrame@@QAX@Z @ 1692
?execsfAckPaidItem_ChangeCharname@UBTTcpLink_Channel@@QAEXAAUFFrame@@QAX@Z @ 1693
?execsfAckPaidItem_ChangeClanMark@UBTTcpLink_Channel@@QAEXAAUFFrame@@QAX@Z @ 1694
?execsfAckPaidItem_ChangeClanname@UBTTcpLink_Channel@@QAEXAAUFFrame@@QAX@Z @ 1695
?execsfAckPaidItem_ClanMarkDupCheck@UBTTcpLink_Channel@@QAEXAAUFFrame@@QAX@Z @ 1696
?execsfAckPaidItem_EraseRecord@UBTTcpLink_Channel@@QAEXAAUFFrame@@QAX@Z @ 1697
?execsfAckPaidItem_NotifyChangeClanMark@UBTTcpLink_Channel@@QAEXAAUFFrame@@QAX@Z @ 1698
?execsfAckPaidItem_NotifyChangeClanname@UBTTcpLink_Channel@@QAEXAAUFFrame@@QAX@Z @ 1699
?execsfAckPaidItem_RelayBroadcast@UBTTcpLink_Channel@@QAEXAAUFFrame@@QAX@Z @ 1700
?execsfAckParamCheckSum@UBTTcpLink_Channel@@QAEXAAUFFrame@@QAX@Z @ 1701
?execsfAckPermanentRoomInfo@UBTTcpLink_Channel@@QAEXAAUFFrame@@QAX@Z @ 1702
?execsfAckPopUpMessage@UBTTcpLink_Channel@@QAEXAAUFFrame@@QAX@Z @ 1703
?execsfAckProcessExcuteCmd@UBTTcpLink_Process2Agent@@QAEXAAUFFrame@@QAX@Z @ 1704
?execsfAckProcessPreLoginUser@UBTTcpLink_Login@@QAEXAAUFFrame@@QAX@Z @ 1705
?execsfAckQSlotList@UBTTcpLink_Channel@@QAEXAAUFFrame@@QAX@Z @ 1706
?execsfAckQuestGetAvailableEventList@UBTTcpLink_Channel@@QAEXAAUFFrame@@QAX@Z @ 1707
?execsfAckQuestList@UBTTcpLink_Channel@@QAEXAAUFFrame@@QAX@Z @ 1708
?execsfAckQuestListEnd@UBTTcpLink_Channel@@QAEXAAUFFrame@@QAX@Z @ 1709
?execsfAckQuestListStart@UBTTcpLink_Channel@@QAEXAAUFFrame@@QAX@Z @ 1710
?execsfAckQuestUpdate@UBTTcpLink_Channel@@QAEXAAUFFrame@@QAX@Z @ 1711
?execsfAckQuitDedicateHost@UBTTcpLink_Process2Agent@@QAEXAAUFFrame@@QAX@Z @ 1712
?execsfAckRandomBox_Use@UBTTcpLink_Channel@@QAEXAAUFFrame@@QAX@Z @ 1713
?execsfAckReadMemo@UBTTcpLink_Channel@@QAEXAAUFFrame@@QAX@Z @ 1714
?execsfAckRecvClanInvite@UBTTcpLink_Channel@@QAEXAAUFFrame@@QAX@Z @ 1715
?execsfAckRecvClanInviteResult@UBTTcpLink_Channel@@QAEXAAUFFrame@@QAX@Z @ 1716
?execsfAckRecvInviteGameRoom@UBTTcpLink_Channel@@QAEXAAUFFrame@@QAX@Z @ 1717
?execsfAckRecvInviteGameRoomResult@UBTTcpLink_Channel@@QAEXAAUFFrame@@QAX@Z @ 1718
?execsfAckRecvJoinClan@UBTTcpLink_Channel@@QAEXAAUFFrame@@QAX@Z @ 1719
?execsfAckRecvJoinClanResult@UBTTcpLink_Channel@@QAEXAAUFFrame@@QAX@Z @ 1720
?execsfAckRecvSystemMsg@UBTTcpLink_Channel@@QAEXAAUFFrame@@QAX@Z @ 1721
?execsfAckRegisterMainPCBang@UBTTcpLink_Channel@@QAEXAAUFFrame@@QAX@Z @ 1722
?execsfAckRegisterMainPCBang@UBTTcpLink_Login@@QAEXAAUFFrame@@QAX@Z @ 1723
?execsfAckRegisterMyUdpInfo@UBTTcpLink_Channel@@QAEXAAUFFrame@@QAX@Z @ 1724
?execsfAckRegisterOtherUdpInfo@UBTTcpLink_Channel@@QAEXAAUFFrame@@QAX@Z @ 1725
?execsfAckRegisteredPCBangInfo@UBTTcpLink_Channel@@QAEXAAUFFrame@@QAX@Z @ 1726
?execsfAckRegisteredPCBangInfo@UBTTcpLink_Login@@QAEXAAUFFrame@@QAX@Z @ 1727
?execsfAckRemoveBlockUserList@UBTTcpLink_Channel@@QAEXAAUFFrame@@QAX@Z @ 1728
?execsfAckRepairCost@UBTTcpLink_Channel@@QAEXAAUFFrame@@QAX@Z @ 1729
?execsfAckRepairItem@UBTTcpLink_Channel@@QAEXAAUFFrame@@QAX@Z @ 1730
?execsfAckReturnBotID@UBTTcpLink_Channel@@QAEXAAUFFrame@@QAX@Z @ 1731
?execsfAckRoomList@UBTTcpLink_Channel@@QAEXAAUFFrame@@QAX@Z @ 1732
?execsfAckRoomListEnd@UBTTcpLink_Channel@@QAEXAAUFFrame@@QAX@Z @ 1733
?execsfAckRoomListStart@UBTTcpLink_Channel@@QAEXAAUFFrame@@QAX@Z @ 1734
?execsfAckRoomUserList@UBTTcpLink_Channel@@QAEXAAUFFrame@@QAX@Z @ 1735
?execsfAckRoomUserPingInfo@UBTTcpLink_Channel@@QAEXAAUFFrame@@QAX@Z @ 1736
?execsfAckSearchClan@UBTTcpLink_Channel@@QAEXAAUFFrame@@QAX@Z @ 1737
?execsfAckSelectMap@UBTTcpLink_Channel@@QAEXAAUFFrame@@QAX@Z @ 1738
?execsfAckSellShopItem@UBTTcpLink_Channel@@QAEXAAUFFrame@@QAX@Z @ 1739
?execsfAckSellShopItemInfo@UBTTcpLink_Channel@@QAEXAAUFFrame@@QAX@Z @ 1740
?execsfAckSendFriendInvite@UBTTcpLink_Channel@@QAEXAAUFFrame@@QAX@Z @ 1741
?execsfAckSendGift@UBTTcpLink_Channel@@QAEXAAUFFrame@@QAX@Z @ 1742
?execsfAckSendMemo@UBTTcpLink_Channel@@QAEXAAUFFrame@@QAX@Z @ 1743
?execsfAckSendSystemMsg@UBTTcpLink_Channel@@QAEXAAUFFrame@@QAX@Z @ 1744
?execsfAckServerList@UBTTcpLink_Login@@QAEXAAUFFrame@@QAX@Z @ 1745
?execsfAckServerShutdown@UBTTcpLink_Channel@@QAEXAAUFFrame@@QAX@Z @ 1746
?execsfAckServerTime@UBTTcpLink_Channel@@QAEXAAUFFrame@@QAX@Z @ 1747
?execsfAckServerTime@UBTTcpLink_Login@@QAEXAAUFFrame@@QAX@Z @ 1748
?execsfAckServerType@UBTTcpLink_Channel@@QAEXAAUFFrame@@QAX@Z @ 1749
?execsfAckSetCommunityOption@UBTTcpLink_Channel@@QAEXAAUFFrame@@QAX@Z @ 1750
?execsfAckSetLookForClan@UBTTcpLink_Channel@@QAEXAAUFFrame@@QAX@Z @ 1751
?execsfAckSetUserBootySeedValue@UBTTcpLink_Channel@@QAEXAAUFFrame@@QAX@Z @ 1752
?execsfAckShopItemData@UBTTcpLink_Channel@@QAEXAAUFFrame@@QAX@Z @ 1753
?execsfAckShopItemList@UBTTcpLink_Channel@@QAEXAAUFFrame@@QAX@Z @ 1754
?execsfAckShopItemListEnd@UBTTcpLink_Channel@@QAEXAAUFFrame@@QAX@Z @ 1755
?execsfAckShopItemListStart@UBTTcpLink_Channel@@QAEXAAUFFrame@@QAX@Z @ 1756
?execsfAckSpecificChannelUserInfo@UBTTcpLink_Channel@@QAEXAAUFFrame@@QAX@Z @ 1757
?execsfAckSpecificGameRoomInfo@UBTTcpLink_Channel@@QAEXAAUFFrame@@QAX@Z @ 1758
?execsfAckStartDedicateHost@UBTTcpLink_Process2Agent@@QAEXAAUFFrame@@QAX@Z @ 1759
?execsfAckStartGame@UBTTcpLink_Channel@@QAEXAAUFFrame@@QAX@Z @ 1760
?execsfAckStartHolePunching@UBTTcpLink_Channel@@QAEXAAUFFrame@@QAX@Z @ 1761
?execsfAckStartMemoList@UBTTcpLink_Channel@@QAEXAAUFFrame@@QAX@Z @ 1762
?execsfAckStartNatDiag@UBTTcpLink_Channel@@QAEXAAUFFrame@@QAX@Z @ 1763
?execsfAckSuccessStartGame@UBTTcpLink_Channel@@QAEXAAUFFrame@@QAX@Z @ 1764
?execsfAckTencent_AASInfo@UBTTcpLink_Channel@@QAEXAAUFFrame@@QAX@Z @ 1765
?execsfAckTencent_AASInfo@UBTTcpLink_Login@@QAEXAAUFFrame@@QAX@Z @ 1766
?execsfAckTencent_StartTenProtect@UBTTcpLink_Channel@@QAEXAAUFFrame@@QAX@Z @ 1767
?execsfAckTestDouble@UBTTcpLink_Channel@@QAEXAAUFFrame@@QAX@Z @ 1768
?execsfAckUpdateQSlot@UBTTcpLink_Channel@@QAEXAAUFFrame@@QAX@Z @ 1769
?execsfAckUpdateScore@UBTTcpLink_Channel@@QAEXAAUFFrame@@QAX@Z @ 1770
?execsfAckUpdateScoreResult@UBTTcpLink_Channel@@QAEXAAUFFrame@@QAX@Z @ 1771
?execsfAckUpdateWeaponDurability@UBTTcpLink_Channel@@QAEXAAUFFrame@@QAX@Z @ 1772
?execsfAckUserDetailInfo@UBTTcpLink_Login@@QAEXAAUFFrame@@QAX@Z @ 1773
?execsfAckUserSkillList@UBTTcpLink_Channel@@QAEXAAUFFrame@@QAX@Z @ 1774
?execsfAckUserSkillListEnd@UBTTcpLink_Channel@@QAEXAAUFFrame@@QAX@Z @ 1775
?execsfAckUserSkillListStart@UBTTcpLink_Channel@@QAEXAAUFFrame@@QAX@Z @ 1776
?execsfAckWebzenBillingStorageList@UBTTcpLink_Channel@@QAEXAAUFFrame@@QAX@Z @ 1777
?execsfAckWebzenBillingStorageListEnd@UBTTcpLink_Channel@@QAEXAAUFFrame@@QAX@Z @ 1778
?execsfAckWebzenBillingStorageListStart@UBTTcpLink_Channel@@QAEXAAUFFrame@@QAX@Z @ 1779
?execsfAckWebzenBillingUseStorageItem@UBTTcpLink_Channel@@QAEXAAUFFrame@@QAX@Z @ 1780
?execsfAckWebzenCash@UBTTcpLink_Channel@@QAEXAAUFFrame@@QAX@Z @ 1781
?execsfAckWebzenShopScriptVersion@UBTTcpLink_Channel@@QAEXAAUFFrame@@QAX@Z @ 1782
?execsfNotifyClanLevelup@UBTTcpLink_Channel@@QAEXAAUFFrame@@QAX@Z @ 1783
?execsfNotifyCouponUseError@UBTTcpLink_Channel@@QAEXAAUFFrame@@QAX@Z @ 1784
?execsfNotifyNewClanName@UBTTcpLink_Channel@@QAEXAAUFFrame@@QAX@Z @ 1785
?execsfNotifyNewNickName@UBTTcpLink_Channel@@QAEXAAUFFrame@@QAX@Z @ 1786
?execsfReqAccesItemTypeList@UBTTcpLink_Login@@QAEXAAUFFrame@@QAX@Z @ 1787
?execsfReqAddBlockUserList@UBTTcpLink_Channel@@QAEXAAUFFrame@@QAX@Z @ 1788
?execsfReqAdjustClanMemberGrade@UBTTcpLink_Channel@@QAEXAAUFFrame@@QAX@Z @ 1789
?execsfReqAdvertisement@UBTTcpLink_Login@@QAEXAAUFFrame@@QAX@Z @ 1790
?execsfReqAhnHsObject@UBTTcpLink_Channel@@QAEXAAUFFrame@@QAX@Z @ 1791
?execsfReqAhnNotifyDisconnct@UBTTcpLink_Channel@@QAEXAAUFFrame@@QAX@Z @ 1792
?execsfReqAuctionBidding@UBTTcpLink_Channel@@QAEXAAUFFrame@@QAX@Z @ 1793
?execsfReqAuctionInstantlyBuying@UBTTcpLink_Channel@@QAEXAAUFFrame@@QAX@Z @ 1794
?execsfReqAuctionItemList@UBTTcpLink_Channel@@QAEXAAUFFrame@@QAX@Z @ 1795
?execsfReqAuctionItemListCount@UBTTcpLink_Channel@@QAEXAAUFFrame@@QAX@Z @ 1796
?execsfReqAuctionMyItemCancel@UBTTcpLink_Channel@@QAEXAAUFFrame@@QAX@Z @ 1797
?execsfReqAuctionMyItemRegister@UBTTcpLink_Channel@@QAEXAAUFFrame@@QAX@Z @ 1798
?execsfReqAuctionTradeHistory@UBTTcpLink_Channel@@QAEXAAUFFrame@@QAX@Z @ 1799
?execsfReqBanUser@UBTTcpLink_Channel@@QAEXAAUFFrame@@QAX@Z @ 1800
?execsfReqBlockUserList@UBTTcpLink_Channel@@QAEXAAUFFrame@@QAX@Z @ 1801
?execsfReqBuyItemByWebzenCash@UBTTcpLink_Channel@@QAEXAAUFFrame@@QAX@Z @ 1802
?execsfReqBuyItemByWebzenCashGP20@UBTTcpLink_Channel@@QAEXAAUFFrame@@QAX@Z @ 1803
?execsfReqBuyShopItem@UBTTcpLink_Channel@@QAEXAAUFFrame@@QAX@Z @ 1804
?execsfReqChangeGameMode@UBTTcpLink_Channel@@QAEXAAUFFrame@@QAX@Z @ 1805
?execsfReqChangeRoomMaxNum@UBTTcpLink_Channel@@QAEXAAUFFrame@@QAX@Z @ 1806
?execsfReqChangeRoomOwner@UBTTcpLink_Channel@@QAEXAAUFFrame@@QAX@Z @ 1807
?execsfReqChangeRoomSetting@UBTTcpLink_Channel@@QAEXAAUFFrame@@QAX@Z @ 1808
?execsfReqChangeRoomTitle_GM@UBTTcpLink_Channel@@QAEXAAUFFrame@@QAX@Z @ 1809
?execsfReqChangeTeam@UBTTcpLink_Channel@@QAEXAAUFFrame@@QAX@Z @ 1810
?execsfReqChangeUserState@UBTTcpLink_Channel@@QAEXAAUFFrame@@QAX@Z @ 1811
?execsfReqChannelList@UBTTcpLink_Channel@@QAEXAAUFFrame@@QAX@Z @ 1812
?execsfReqChannelUserList@UBTTcpLink_Channel@@QAEXAAUFFrame@@QAX@Z @ 1813
?execsfReqChannelUserListInGameRoom@UBTTcpLink_Channel@@QAEXAAUFFrame@@QAX@Z @ 1814
?execsfReqCharBlockInfo@UBTTcpLink_Channel@@QAEXAAUFFrame@@QAX@Z @ 1815
?execsfReqCharDetailInfo@UBTTcpLink_Channel@@QAEXAAUFFrame@@QAX@Z @ 1816
?execsfReqCharInfo@UBTTcpLink_Channel@@QAEXAAUFFrame@@QAX@Z @ 1817
?execsfReqCharInfo@UBTTcpLink_Login@@QAEXAAUFFrame@@QAX@Z @ 1818
?execsfReqChatClan@UBTTcpLink_Channel@@QAEXAAUFFrame@@QAX@Z @ 1819
?execsfReqChatNormal@UBTTcpLink_Channel@@QAEXAAUFFrame@@QAX@Z @ 1820
?execsfReqChatWispher@UBTTcpLink_Channel@@QAEXAAUFFrame@@QAX@Z @ 1821
?execsfReqChatWispherMyCommunity@UBTTcpLink_Channel@@QAEXAAUFFrame@@QAX@Z @ 1822
?execsfReqCheckEquipedWeaponDurability@UBTTcpLink_Channel@@QAEXAAUFFrame@@QAX@Z @ 1823
?execsfReqClanChangeInfo@UBTTcpLink_Channel@@QAEXAAUFFrame@@QAX@Z @ 1824
?execsfReqClanCharPersonelIntro@UBTTcpLink_Channel@@QAEXAAUFFrame@@QAX@Z @ 1825
?execsfReqClanClose@UBTTcpLink_Channel@@QAEXAAUFFrame@@QAX@Z @ 1826
?execsfReqClanInfo@UBTTcpLink_Channel@@QAEXAAUFFrame@@QAX@Z @ 1827
?execsfReqClanMatchResultHistory@UBTTcpLink_Channel@@QAEXAAUFFrame@@QAX@Z @ 1828
?execsfReqClanMatch_ChangeLeader@UBTTcpLink_Channel@@QAEXAAUFFrame@@QAX@Z @ 1829
?execsfReqClanMatch_ChangeRoomSetting@UBTTcpLink_Channel@@QAEXAAUFFrame@@QAX@Z @ 1830
?execsfReqClanMatch_Chat@UBTTcpLink_Channel@@QAEXAAUFFrame@@QAX@Z @ 1831
?execsfReqClanMatch_FoundMatch@UBTTcpLink_Channel@@QAEXAAUFFrame@@QAX@Z @ 1832
?execsfReqClanMatch_GetClanWaittingRoomInfo@UBTTcpLink_Channel@@QAEXAAUFFrame@@QAX@Z @ 1833
?execsfReqClanMatch_GetPublicWaitRoomList@UBTTcpLink_Channel@@QAEXAAUFFrame@@QAX@Z @ 1834
?execsfReqClanMatch_GetReady@UBTTcpLink_Channel@@QAEXAAUFFrame@@QAX@Z @ 1835
?execsfReqClanMatch_InviteCrew@UBTTcpLink_Channel@@QAEXAAUFFrame@@QAX@Z @ 1836
?execsfReqClanMatch_InviteCrewResult@UBTTcpLink_Channel@@QAEXAAUFFrame@@QAX@Z @ 1837
?execsfReqClanMatch_Join@UBTTcpLink_Channel@@QAEXAAUFFrame@@QAX@Z @ 1838
?execsfReqClanMatch_Leave@UBTTcpLink_Channel@@QAEXAAUFFrame@@QAX@Z @ 1839
?execsfReqClanMatch_MemberList@UBTTcpLink_Channel@@QAEXAAUFFrame@@QAX@Z @ 1840
?execsfReqClanMatch_RecvInviteCrew@UBTTcpLink_Channel@@QAEXAAUFFrame@@QAX@Z @ 1841
?execsfReqClanMatch_SetWaitRoomPublic@UBTTcpLink_Channel@@QAEXAAUFFrame@@QAX@Z @ 1842
?execsfReqClanMatch_StartCombat@UBTTcpLink_Channel@@QAEXAAUFFrame@@QAX@Z @ 1843
?execsfReqClanMatch_StartSearching@UBTTcpLink_Channel@@QAEXAAUFFrame@@QAX@Z @ 1844
?execsfReqClanMatch_StopSearching@UBTTcpLink_Channel@@QAEXAAUFFrame@@QAX@Z @ 1845
?execsfReqClanMatch_WaittingTeamList@UBTTcpLink_Channel@@QAEXAAUFFrame@@QAX@Z @ 1846
?execsfReqClanMemberListFromClient@UBTTcpLink_Login@@QAEXAAUFFrame@@QAX@Z @ 1847
?execsfReqClanNews@UBTTcpLink_Channel@@QAEXAAUFFrame@@QAX@Z @ 1848
?execsfReqClanPersonelIntro@UBTTcpLink_Channel@@QAEXAAUFFrame@@QAX@Z @ 1849
?execsfReqClanSecession@UBTTcpLink_Channel@@QAEXAAUFFrame@@QAX@Z @ 1850
?execsfReqClanUserList@UBTTcpLink_Channel@@QAEXAAUFFrame@@QAX@Z @ 1851
?execsfReqClientChallenge@UBTTcpLink_Login@@QAEXAAUFFrame@@QAX@Z @ 1852
?execsfReqClientChecksum@UBTTcpLink_Login@@QAEXAAUFFrame@@QAX@Z @ 1853
?execsfReqClientUdpInfoList@UBTTcpLink_Channel@@QAEXAAUFFrame@@QAX@Z @ 1854
?execsfReqCommunityOptionList@UBTTcpLink_Channel@@QAEXAAUFFrame@@QAX@Z @ 1855
?execsfReqCompleteFriendInvite@UBTTcpLink_Channel@@QAEXAAUFFrame@@QAX@Z @ 1856
?execsfReqConfirmFriendInvite@UBTTcpLink_Channel@@QAEXAAUFFrame@@QAX@Z @ 1857
?execsfReqConfirmItemChanged@UBTTcpLink_Channel@@QAEXAAUFFrame@@QAX@Z @ 1858
?execsfReqConfirmSkillChanged@UBTTcpLink_Channel@@QAEXAAUFFrame@@QAX@Z @ 1859
?execsfReqConnectChannelServer@UBTTcpLink_Login@@QAEXAAUFFrame@@QAX@Z @ 1860
?execsfReqConnectGame@UBTTcpLink_Channel@@QAEXAAUFFrame@@QAX@Z @ 1861
?execsfReqCouponUse@UBTTcpLink_Channel@@QAEXAAUFFrame@@QAX@Z @ 1862
?execsfReqCreateChar@UBTTcpLink_Login@@QAEXAAUFFrame@@QAX@Z @ 1863
?execsfReqCreateClan@UBTTcpLink_Channel@@QAEXAAUFFrame@@QAX@Z @ 1864
?execsfReqCreateGameRoom@UBTTcpLink_Channel@@QAEXAAUFFrame@@QAX@Z @ 1865
?execsfReqDBCharInfo@UBTTcpLink_Channel@@QAEXAAUFFrame@@QAX@Z @ 1866
?execsfReqDailyQuestNewAvailable@UBTTcpLink_Channel@@QAEXAAUFFrame@@QAX@Z @ 1867
?execsfReqDedicateHost_Login@UBTTcpLink_Channel@@QAEXAAUFFrame@@QAX@Z @ 1868
?execsfReqDelMemo@UBTTcpLink_Channel@@QAEXAAUFFrame@@QAX@Z @ 1869
?execsfReqDeleteFriend@UBTTcpLink_Channel@@QAEXAAUFFrame@@QAX@Z @ 1870
?execsfReqDeleteMailAll@UBTTcpLink_Channel@@QAEXAAUFFrame@@QAX@Z @ 1871
?execsfReqDisconnectGame@UBTTcpLink_Channel@@QAEXAAUFFrame@@QAX@Z @ 1872
?execsfReqDummy@UBTTcpLink_Channel@@QAEXAAUFFrame@@QAX@Z @ 1873
?execsfReqDupCheckClanName@UBTTcpLink_Channel@@QAEXAAUFFrame@@QAX@Z @ 1874
?execsfReqEnterChannel@UBTTcpLink_Channel@@QAEXAAUFFrame@@QAX@Z @ 1875
?execsfReqEnterRoom@UBTTcpLink_Channel@@QAEXAAUFFrame@@QAX@Z @ 1876
?execsfReqEntryItemList@UBTTcpLink_Channel@@QAEXAAUFFrame@@QAX@Z @ 1877
?execsfReqEntryQSlotIDList@UBTTcpLink_Channel@@QAEXAAUFFrame@@QAX@Z @ 1878
?execsfReqEntryQSlotUniqueIDList@UBTTcpLink_Channel@@QAEXAAUFFrame@@QAX@Z @ 1879
?execsfReqEntrySkillList@UBTTcpLink_Channel@@QAEXAAUFFrame@@QAX@Z @ 1880
?execsfReqEquipItem@UBTTcpLink_Channel@@QAEXAAUFFrame@@QAX@Z @ 1881
?execsfReqEquipSkill@UBTTcpLink_Channel@@QAEXAAUFFrame@@QAX@Z @ 1882
?execsfReqErrorReportServerAddr@UBTTcpLink_Login@@QAEXAAUFFrame@@QAX@Z @ 1883
?execsfReqEventNotify@UBTTcpLink_Channel@@QAEXAAUFFrame@@QAX@Z @ 1884
?execsfReqEventNotify@UBTTcpLink_Login@@QAEXAAUFFrame@@QAX@Z @ 1885
?execsfReqExteriorRoomInfo@UBTTcpLink_Channel@@QAEXAAUFFrame@@QAX@Z @ 1886
?execsfReqExteriorRoomOwnerInfo@UBTTcpLink_Channel@@QAEXAAUFFrame@@QAX@Z @ 1887
?execsfReqExteriorRoomState@UBTTcpLink_Channel@@QAEXAAUFFrame@@QAX@Z @ 1888
?execsfReqExteriorRoomUserCount@UBTTcpLink_Channel@@QAEXAAUFFrame@@QAX@Z @ 1889
?execsfReqFailedStartGame@UBTTcpLink_Channel@@QAEXAAUFFrame@@QAX@Z @ 1890
?execsfReqForceDisconnectUDPFromHost@UBTTcpLink_Channel@@QAEXAAUFFrame@@QAX@Z @ 1891
?execsfReqForceDisconnectUser_GM@UBTTcpLink_Channel@@QAEXAAUFFrame@@QAX@Z @ 1892
?execsfReqForceFailedClientLoading@UBTTcpLink_Channel@@QAEXAAUFFrame@@QAX@Z @ 1893
?execsfReqForceGameOver@UBTTcpLink_Channel@@QAEXAAUFFrame@@QAX@Z @ 1894
?execsfReqForceLogoutByOwner@UBTTcpLink_Channel@@QAEXAAUFFrame@@QAX@Z @ 1895
?execsfReqForceLogoutByOwner@UBTTcpLink_Login@@QAEXAAUFFrame@@QAX@Z @ 1896
?execsfReqForceNatTypeSetting@UBTTcpLink_Channel@@QAEXAAUFFrame@@QAX@Z @ 1897
?execsfReqFriendList@UBTTcpLink_Channel@@QAEXAAUFFrame@@QAX@Z @ 1898
?execsfReqFriendPosition@UBTTcpLink_Channel@@QAEXAAUFFrame@@QAX@Z @ 1899
?execsfReqFriendsList@UBTTcpLink_Login@@QAEXAAUFFrame@@QAX@Z @ 1900
?execsfReqGameGuardAuthData@UBTTcpLink_Channel@@QAEXAAUFFrame@@QAX@Z @ 1901
?execsfReqGameHostInfo@UBTTcpLink_Channel@@QAEXAAUFFrame@@QAX@Z @ 1902
?execsfReqGameMapData@UBTTcpLink_Channel@@QAEXAAUFFrame@@QAX@Z @ 1903
?execsfReqGameOver@UBTTcpLink_Channel@@QAEXAAUFFrame@@QAX@Z @ 1904
?execsfReqGameOverEnd@UBTTcpLink_Channel@@QAEXAAUFFrame@@QAX@Z @ 1905
?execsfReqGamePlay_ChangeWeaponSet@UBTTcpLink_Channel@@QAEXAAUFFrame@@QAX@Z @ 1906
?execsfReqGamePlay_DefuseBomb@UBTTcpLink_Channel@@QAEXAAUFFrame@@QAX@Z @ 1907
?execsfReqGamePlay_GetChopper@UBTTcpLink_Channel@@QAEXAAUFFrame@@QAX@Z @ 1908
?execsfReqGamePlay_InstallBomb@UBTTcpLink_Channel@@QAEXAAUFFrame@@QAX@Z @ 1909
?execsfReqGamePlay_SetGameStartTime@UBTTcpLink_Channel@@QAEXAAUFFrame@@QAX@Z @ 1910
?execsfReqGamePlay_SetRoundStartTime@UBTTcpLink_Channel@@QAEXAAUFFrame@@QAX@Z @ 1911
?execsfReqGamePlay_TakeAPoint@UBTTcpLink_Channel@@QAEXAAUFFrame@@QAX@Z @ 1912
?execsfReqGamePlay_UpdateDomScore@UBTTcpLink_Channel@@QAEXAAUFFrame@@QAX@Z @ 1913
?execsfReqGameRoomInfo@UBTTcpLink_Channel@@QAEXAAUFFrame@@QAX@Z @ 1914
?execsfReqGetAttachedItemFromMemo@UBTTcpLink_Channel@@QAEXAAUFFrame@@QAX@Z @ 1915
?execsfReqGetBooty@UBTTcpLink_Channel@@QAEXAAUFFrame@@QAX@Z @ 1916
?execsfReqGetBotID@UBTTcpLink_Channel@@QAEXAAUFFrame@@QAX@Z @ 1917
?execsfReqGetCharBlockInfo@UBTTcpLink_Login@@QAEXAAUFFrame@@QAX@Z @ 1918
?execsfReqGetHolePunchingResult@UBTTcpLink_Channel@@QAEXAAUFFrame@@QAX@Z @ 1919
?execsfReqGetIsHostBlocking@UBTTcpLink_Channel@@QAEXAAUFFrame@@QAX@Z @ 1920
?execsfReqGetItemFromItemBox@UBTTcpLink_Channel@@QAEXAAUFFrame@@QAX@Z @ 1921
?execsfReqGetMyMailBoxState@UBTTcpLink_Channel@@QAEXAAUFFrame@@QAX@Z @ 1922
?execsfReqGetRankingInfoList@UBTTcpLink_Channel@@QAEXAAUFFrame@@QAX@Z @ 1923
?execsfReqGetServerTime@UBTTcpLink_Channel@@QAEXAAUFFrame@@QAX@Z @ 1924
?execsfReqGetUserHostPriorityPoint@UBTTcpLink_Channel@@QAEXAAUFFrame@@QAX@Z @ 1925
?execsfReqGiftItemByWebzenCash@UBTTcpLink_Channel@@QAEXAAUFFrame@@QAX@Z @ 1926
?execsfReqGiftItemByWebzenCashGP20@UBTTcpLink_Channel@@QAEXAAUFFrame@@QAX@Z @ 1927
?execsfReqGiveSkill@UBTTcpLink_Channel@@QAEXAAUFFrame@@QAX@Z @ 1928
?execsfReqHash@UBTTcpLink_Channel@@QAEXAAUFFrame@@QAX@Z @ 1929
?execsfReqHash@UBTTcpLink_Login@@QAEXAAUFFrame@@QAX@Z @ 1930
?execsfReqHash@UBTTcpLink_Process2Agent@@QAEXAAUFFrame@@QAX@Z @ 1931
?execsfReqHeadItemTypeList@UBTTcpLink_Login@@QAEXAAUFFrame@@QAX@Z @ 1932
?execsfReqHelmetItemTypeList@UBTTcpLink_Login@@QAEXAAUFFrame@@QAX@Z @ 1933
?execsfReqInGameRoomUserClanLevelChanged@UBTTcpLink_Channel@@QAEXAAUFFrame@@QAX@Z @ 1934
?execsfReqInGameRoomUserInfoChanged@UBTTcpLink_Channel@@QAEXAAUFFrame@@QAX@Z @ 1935
?execsfReqInviteClan@UBTTcpLink_Channel@@QAEXAAUFFrame@@QAX@Z @ 1936
?execsfReqInviteGameRoom@UBTTcpLink_Channel@@QAEXAAUFFrame@@QAX@Z @ 1937
?execsfReqIsAvailClanURL@UBTTcpLink_Channel@@QAEXAAUFFrame@@QAX@Z @ 1938
?execsfReqIsGameRoomPlaying@UBTTcpLink_Channel@@QAEXAAUFFrame@@QAX@Z @ 1939
?execsfReqIsHostAvailable@UBTTcpLink_Channel@@QAEXAAUFFrame@@QAX@Z @ 1940
?execsfReqIsPaidWebzenPCBang@UBTTcpLink_Channel@@QAEXAAUFFrame@@QAX@Z @ 1941
?execsfReqItemList@UBTTcpLink_Channel@@QAEXAAUFFrame@@QAX@Z @ 1942
?execsfReqItemListInItemBox@UBTTcpLink_Channel@@QAEXAAUFFrame@@QAX@Z @ 1943
?execsfReqJoinClan@UBTTcpLink_Channel@@QAEXAAUFFrame@@QAX@Z @ 1944
?execsfReqKeepAlive@UBTTcpLink_Login@@QAEXAAUFFrame@@QAX@Z @ 1945
?execsfReqLeaveChannel@UBTTcpLink_Channel@@QAEXAAUFFrame@@QAX@Z @ 1946
?execsfReqLeaveRoom@UBTTcpLink_Channel@@QAEXAAUFFrame@@QAX@Z @ 1947
?execsfReqLimitedListInChannel@UBTTcpLink_Channel@@QAEXAAUFFrame@@QAX@Z @ 1948
?execsfReqLogEndEachRound@UBTTcpLink_Channel@@QAEXAAUFFrame@@QAX@Z @ 1949
?execsfReqLogGetScore@UBTTcpLink_Channel@@QAEXAAUFFrame@@QAX@Z @ 1950
?execsfReqLogOut@UBTTcpLink_Channel@@QAEXAAUFFrame@@QAX@Z @ 1951
?execsfReqLogOut@UBTTcpLink_Login@@QAEXAAUFFrame@@QAX@Z @ 1952
?execsfReqLogin2@UBTTcpLink_Channel@@QAEXAAUFFrame@@QAX@Z @ 1953
?execsfReqLogin@UBTTcpLink_Channel@@QAEXAAUFFrame@@QAX@Z @ 1954
?execsfReqLogin@UBTTcpLink_Login@@QAEXAAUFFrame@@QAX@Z @ 1955
?execsfReqLogin@UBTTcpLink_Process2Agent@@QAEXAAUFFrame@@QAX@Z @ 1956
?execsfReqLoginInHouseTest@UBTTcpLink_Login@@QAEXAAUFFrame@@QAX@Z @ 1957
?execsfReqLoginWithGlobal@UBTTcpLink_Login@@QAEXAAUFFrame@@QAX@Z @ 1958
?execsfReqLoginWithIndonesia@UBTTcpLink_Login@@QAEXAAUFFrame@@QAX@Z @ 1959
?execsfReqLoginWithTencentAuth@UBTTcpLink_Login@@QAEXAAUFFrame@@QAX@Z @ 1960
?execsfReqLoginWithThailand@UBTTcpLink_Login@@QAEXAAUFFrame@@QAX@Z @ 1961
?execsfReqLoginWithWZAuth@UBTTcpLink_Login@@QAEXAAUFFrame@@QAX@Z @ 1962
?execsfReqMemoList@UBTTcpLink_Channel@@QAEXAAUFFrame@@QAX@Z @ 1963
?execsfReqModifyWeapon@UBTTcpLink_Channel@@QAEXAAUFFrame@@QAX@Z @ 1964
?execsfReqMyEquipedItemList@UBTTcpLink_Channel@@QAEXAAUFFrame@@QAX@Z @ 1965
?execsfReqMyEquipedQSlotList@UBTTcpLink_Channel@@QAEXAAUFFrame@@QAX@Z @ 1966
?execsfReqMyEquipedSkillList@UBTTcpLink_Channel@@QAEXAAUFFrame@@QAX@Z @ 1967
?execsfReqMyMoney@UBTTcpLink_Channel@@QAEXAAUFFrame@@QAX@Z @ 1968
?execsfReqNotice_GM@UBTTcpLink_Channel@@QAEXAAUFFrame@@QAX@Z @ 1969
?execsfReqNotifyChangeRoomState@UBTTcpLink_Channel@@QAEXAAUFFrame@@QAX@Z @ 1970
?execsfReqNotifyChangedItemState@UBTTcpLink_Channel@@QAEXAAUFFrame@@QAX@Z @ 1971
?execsfReqNotifyChangedSkillState@UBTTcpLink_Channel@@QAEXAAUFFrame@@QAX@Z @ 1972
?execsfReqNotifyClientJoinTime@UBTTcpLink_Channel@@QAEXAAUFFrame@@QAX@Z @ 1973
?execsfReqNotifyDisconnectHostInLoading@UBTTcpLink_Channel@@QAEXAAUFFrame@@QAX@Z @ 1974
?execsfReqNotifyDurabilityZeroItem@UBTTcpLink_Channel@@QAEXAAUFFrame@@QAX@Z @ 1975
?execsfReqNotifyEndTutorial@UBTTcpLink_Channel@@QAEXAAUFFrame@@QAX@Z @ 1976
?execsfReqNotifyExpiredItemIDs@UBTTcpLink_Channel@@QAEXAAUFFrame@@QAX@Z @ 1977
?execsfReqNotifyExpiredSkillIDs@UBTTcpLink_Channel@@QAEXAAUFFrame@@QAX@Z @ 1978
?execsfReqNotifyHostBlocking@UBTTcpLink_Channel@@QAEXAAUFFrame@@QAX@Z @ 1979
?execsfReqNotifyLevelUp@UBTTcpLink_Channel@@QAEXAAUFFrame@@QAX@Z @ 1980
?execsfReqNotifyLoadingState@UBTTcpLink_Channel@@QAEXAAUFFrame@@QAX@Z @ 1981
?execsfReqNotifyLoadingStatus@UBTTcpLink_Channel@@QAEXAAUFFrame@@QAX@Z @ 1982
?execsfReqNotifyMyCharInfoToRoomUser@UBTTcpLink_Channel@@QAEXAAUFFrame@@QAX@Z @ 1983
?execsfReqNotifyRecvDummyForHolePunching@UBTTcpLink_Channel@@QAEXAAUFFrame@@QAX@Z @ 1984
?execsfReqNotifyRelayServerAddr@UBTTcpLink_Channel@@QAEXAAUFFrame@@QAX@Z @ 1985
?execsfReqNotifyShopItemData@UBTTcpLink_Channel@@QAEXAAUFFrame@@QAX@Z @ 1986
?execsfReqNotifyShopItemDataEnd@UBTTcpLink_Channel@@QAEXAAUFFrame@@QAX@Z @ 1987
?execsfReqNotifyStartTutorial@UBTTcpLink_Channel@@QAEXAAUFFrame@@QAX@Z @ 1988
?execsfReqPCBangUserList@UBTTcpLink_Channel@@QAEXAAUFFrame@@QAX@Z @ 1989
?execsfReqPCBangUserList@UBTTcpLink_Login@@QAEXAAUFFrame@@QAX@Z @ 1990
?execsfReqPaidItem_BroadCast@UBTTcpLink_Channel@@QAEXAAUFFrame@@QAX@Z @ 1991
?execsfReqPaidItem_ChangeCharname@UBTTcpLink_Channel@@QAEXAAUFFrame@@QAX@Z @ 1992
?execsfReqPaidItem_ChangeClanMark@UBTTcpLink_Channel@@QAEXAAUFFrame@@QAX@Z @ 1993
?execsfReqPaidItem_ChangeClanname@UBTTcpLink_Channel@@QAEXAAUFFrame@@QAX@Z @ 1994
?execsfReqPaidItem_ClanMarkDupCheck@UBTTcpLink_Channel@@QAEXAAUFFrame@@QAX@Z @ 1995
?execsfReqPaidItem_EraseRecord@UBTTcpLink_Channel@@QAEXAAUFFrame@@QAX@Z @ 1996
?execsfReqParamCheckSum@UBTTcpLink_Channel@@QAEXAAUFFrame@@QAX@Z @ 1997
?execsfReqPermanentRoomInfo@UBTTcpLink_Channel@@QAEXAAUFFrame@@QAX@Z @ 1998
?execsfReqProcessExcuteCmd@UBTTcpLink_Process2Agent@@QAEXAAUFFrame@@QAX@Z @ 1999
?execsfReqProcessPreLoginUser@UBTTcpLink_Login@@QAEXAAUFFrame@@QAX@Z @ 2000
?execsfReqQSlotList@UBTTcpLink_Channel@@QAEXAAUFFrame@@QAX@Z @ 2001
?execsfReqQuestGetAvailableEventList@UBTTcpLink_Channel@@QAEXAAUFFrame@@QAX@Z @ 2002
?execsfReqQuestList@UBTTcpLink_Channel@@QAEXAAUFFrame@@QAX@Z @ 2003
?execsfReqQuestNewAvailable@UBTTcpLink_Channel@@QAEXAAUFFrame@@QAX@Z @ 2004
?execsfReqQuestUpdate@UBTTcpLink_Channel@@QAEXAAUFFrame@@QAX@Z @ 2005
?execsfReqQuitDedicateHost@UBTTcpLink_Process2Agent@@QAEXAAUFFrame@@QAX@Z @ 2006
?execsfReqRandomBox_Use@UBTTcpLink_Channel@@QAEXAAUFFrame@@QAX@Z @ 2007
?execsfReqReadMemo@UBTTcpLink_Channel@@QAEXAAUFFrame@@QAX@Z @ 2008
?execsfReqRecvChatWispher@UBTTcpLink_Channel@@QAEXAAUFFrame@@QAX@Z @ 2009
?execsfReqRecvClanInvite@UBTTcpLink_Channel@@QAEXAAUFFrame@@QAX@Z @ 2010
?execsfReqRecvDeleteFriend@UBTTcpLink_Channel@@QAEXAAUFFrame@@QAX@Z @ 2011
?execsfReqRecvForceDisconnectUDPFromHost@UBTTcpLink_Channel@@QAEXAAUFFrame@@QAX@Z @ 2012
?execsfReqRecvForceDisconnected_FromGM@UBTTcpLink_Channel@@QAEXAAUFFrame@@QAX@Z @ 2013
?execsfReqRecvForceFailedClientLoading@UBTTcpLink_Channel@@QAEXAAUFFrame@@QAX@Z @ 2014
?execsfReqRecvFriendInvite@UBTTcpLink_Channel@@QAEXAAUFFrame@@QAX@Z @ 2015
?execsfReqRecvInviteGameRoom@UBTTcpLink_Channel@@QAEXAAUFFrame@@QAX@Z @ 2016
?execsfReqRecvJoinClan@UBTTcpLink_Channel@@QAEXAAUFFrame@@QAX@Z @ 2017
?execsfReqRecvMemo@UBTTcpLink_Channel@@QAEXAAUFFrame@@QAX@Z @ 2018
?execsfReqRecvNotice_FromGM@UBTTcpLink_Channel@@QAEXAAUFFrame@@QAX@Z @ 2019
?execsfReqRegisterMainPCBang@UBTTcpLink_Channel@@QAEXAAUFFrame@@QAX@Z @ 2020
?execsfReqRegisterMainPCBang@UBTTcpLink_Login@@QAEXAAUFFrame@@QAX@Z @ 2021
?execsfReqRegisterMyUdpInfo@UBTTcpLink_Channel@@QAEXAAUFFrame@@QAX@Z @ 2022
?execsfReqRegisteredPCBangInfo@UBTTcpLink_Channel@@QAEXAAUFFrame@@QAX@Z @ 2023
?execsfReqRegisteredPCBangInfo@UBTTcpLink_Login@@QAEXAAUFFrame@@QAX@Z @ 2024
?execsfReqRelayServerOff@UBTTcpLink_Channel@@QAEXAAUFFrame@@QAX@Z @ 2025
?execsfReqRelayServerOn@UBTTcpLink_Channel@@QAEXAAUFFrame@@QAX@Z @ 2026
?execsfReqRemoveBlockUserList@UBTTcpLink_Channel@@QAEXAAUFFrame@@QAX@Z @ 2027
?execsfReqRemoveCheckTeamBalanceList@UBTTcpLink_Channel@@QAEXAAUFFrame@@QAX@Z @ 2028
?execsfReqRepairCost@UBTTcpLink_Channel@@QAEXAAUFFrame@@QAX@Z @ 2029
?execsfReqRepairItem@UBTTcpLink_Channel@@QAEXAAUFFrame@@QAX@Z @ 2030
?execsfReqReturnBotID@UBTTcpLink_Channel@@QAEXAAUFFrame@@QAX@Z @ 2031
?execsfReqRoomList@UBTTcpLink_Channel@@QAEXAAUFFrame@@QAX@Z @ 2032
?execsfReqRoomUserList@UBTTcpLink_Channel@@QAEXAAUFFrame@@QAX@Z @ 2033
?execsfReqRoomUserPingInfo@UBTTcpLink_Channel@@QAEXAAUFFrame@@QAX@Z @ 2034
?execsfReqSelectMap@UBTTcpLink_Channel@@QAEXAAUFFrame@@QAX@Z @ 2035
?execsfReqSellShopItem@UBTTcpLink_Channel@@QAEXAAUFFrame@@QAX@Z @ 2036
?execsfReqSellShopItemInfo@UBTTcpLink_Channel@@QAEXAAUFFrame@@QAX@Z @ 2037
?execsfReqSendFriendInvite@UBTTcpLink_Channel@@QAEXAAUFFrame@@QAX@Z @ 2038
?execsfReqSendGift@UBTTcpLink_Channel@@QAEXAAUFFrame@@QAX@Z @ 2039
?execsfReqSendMemo@UBTTcpLink_Channel@@QAEXAAUFFrame@@QAX@Z @ 2040
?execsfReqSendSystemMsg@UBTTcpLink_Channel@@QAEXAAUFFrame@@QAX@Z @ 2041
?execsfReqSerachClan@UBTTcpLink_Channel@@QAEXAAUFFrame@@QAX@Z @ 2042
?execsfReqServerList@UBTTcpLink_Login@@QAEXAAUFFrame@@QAX@Z @ 2043
?execsfReqServerShutdown@UBTTcpLink_Channel@@QAEXAAUFFrame@@QAX@Z @ 2044
?execsfReqServerTime@UBTTcpLink_Channel@@QAEXAAUFFrame@@QAX@Z @ 2045
?execsfReqServerTime@UBTTcpLink_Login@@QAEXAAUFFrame@@QAX@Z @ 2046
?execsfReqServerType@UBTTcpLink_Channel@@QAEXAAUFFrame@@QAX@Z @ 2047
?execsfReqSetClientVersion@UBTTcpLink_Channel@@QAEXAAUFFrame@@QAX@Z @ 2048
?execsfReqSetCommunityOption@UBTTcpLink_Channel@@QAEXAAUFFrame@@QAX@Z @ 2049
?execsfReqSetLookForClan@UBTTcpLink_Channel@@QAEXAAUFFrame@@QAX@Z @ 2050
?execsfReqSetUserBootySeedValue@UBTTcpLink_Channel@@QAEXAAUFFrame@@QAX@Z @ 2051
?execsfReqShopItemData@UBTTcpLink_Channel@@QAEXAAUFFrame@@QAX@Z @ 2052
?execsfReqShopItemList@UBTTcpLink_Channel@@QAEXAAUFFrame@@QAX@Z @ 2053
?execsfReqSpecificChannelUserInfo@UBTTcpLink_Channel@@QAEXAAUFFrame@@QAX@Z @ 2054
?execsfReqSpecificGameRoomInfo@UBTTcpLink_Channel@@QAEXAAUFFrame@@QAX@Z @ 2055
?execsfReqStartDedicateHost@UBTTcpLink_Process2Agent@@QAEXAAUFFrame@@QAX@Z @ 2056
?execsfReqStartGame@UBTTcpLink_Channel@@QAEXAAUFFrame@@QAX@Z @ 2057
?execsfReqStartHolePunching@UBTTcpLink_Channel@@QAEXAAUFFrame@@QAX@Z @ 2058
?execsfReqStartNatDiag@UBTTcpLink_Channel@@QAEXAAUFFrame@@QAX@Z @ 2059
?execsfReqSuccessStartGame@UBTTcpLink_Channel@@QAEXAAUFFrame@@QAX@Z @ 2060
?execsfReqTerminateDedicateHostProcess@UBTTcpLink_Process2Agent@@QAEXAAUFFrame@@QAX@Z @ 2061
?execsfReqTestDouble@UBTTcpLink_Channel@@QAEXAAUFFrame@@QAX@Z @ 2062
?execsfReqUpdateMyHostPriorityPoint@UBTTcpLink_Channel@@QAEXAAUFFrame@@QAX@Z @ 2063
?execsfReqUpdateProcessState@UBTTcpLink_Process2Agent@@QAEXAAUFFrame@@QAX@Z @ 2064
?execsfReqUpdateQSlot@UBTTcpLink_Channel@@QAEXAAUFFrame@@QAX@Z @ 2065
?execsfReqUpdateScore@UBTTcpLink_Channel@@QAEXAAUFFrame@@QAX@Z @ 2066
?execsfReqUpdateUserCount_ChannelServer@UBTTcpLink_Process2Agent@@QAEXAAUFFrame@@QAX@Z @ 2067
?execsfReqUpdateUserCount_DudeServer@UBTTcpLink_Process2Agent@@QAEXAAUFFrame@@QAX@Z @ 2068
?execsfReqUpdateUserCount_LoginServer@UBTTcpLink_Process2Agent@@QAEXAAUFFrame@@QAX@Z @ 2069
?execsfReqUpdateUserPerformenceInfo@UBTTcpLink_Channel@@QAEXAAUFFrame@@QAX@Z @ 2070
?execsfReqUpdateWeaponDurability@UBTTcpLink_Channel@@QAEXAAUFFrame@@QAX@Z @ 2071
?execsfReqUserDetailInfo@UBTTcpLink_Login@@QAEXAAUFFrame@@QAX@Z @ 2072
?execsfReqUserSkillList@UBTTcpLink_Channel@@QAEXAAUFFrame@@QAX@Z @ 2073
?execsfReqWebzenBillingStorageList@UBTTcpLink_Channel@@QAEXAAUFFrame@@QAX@Z @ 2074
?execsfReqWebzenBillingUseStorageItem@UBTTcpLink_Channel@@QAEXAAUFFrame@@QAX@Z @ 2075
?execsfReqWebzenCash@UBTTcpLink_Channel@@QAEXAAUFFrame@@QAX@Z @ 2076
?execsfReqWebzenShopScriptVersion@UBTTcpLink_Channel@@QAEXAAUFFrame@@QAX@Z @ 2077
?execsfReqWriteServerLog@UBTTcpLink_Channel@@QAEXAAUFFrame@@QAX@Z @ 2078
?execsfUpdateWebzenShopScriptVersion@UBTTcpLink_Channel@@QAEXAAUFFrame@@QAX@Z @ 2079
?mpSingleton@?$Singleton@VBTSocket_Channel@BatteryNetlib@@@BatteryNetlib@@1PAVBTSocket_Channel@2@A @ 2080
?mpSingleton@?$Singleton@VBTSocket_Login@BatteryNetlib@@@BatteryNetlib@@1PAVBTSocket_Login@2@A @ 2081
?mpSingleton@?$Singleton@VBTSocket_Process2Agent@BatteryNetlib@@@BatteryNetlib@@1PAVBTSocket_Process2Agent@2@A @ 2082
?rfAckAccesItemTypeList@BTSocket_Login@BatteryNetlib@@QAEHPAVBTPeer_Login@2@AAVBTBuffer@2@1@Z @ 2083
?rfAckAcquirePromotionItems@BTSocket_Channel@BatteryNetlib@@QAEHPAVBTPeer_Channel@2@KKPAGAAVBTBuffer@2@22@Z @ 2084
?rfAckAddBlockUserList@BTSocket_Channel@BatteryNetlib@@QAEHPAVBTPeer_Channel@2@KPAG@Z @ 2085
?rfAckAdjustClanMemberGrade@BTSocket_Channel@BatteryNetlib@@QAEHPAVBTPeer_Channel@2@KPAG11E@Z @ 2086
?rfAckAdvertisement@BTSocket_Login@BatteryNetlib@@QAEHPAVBTPeer_Login@2@KEPAG@Z @ 2087
?rfAckAhnHsObject@BTSocket_Channel@BatteryNetlib@@QAEHPAVBTPeer_Channel@2@AAVBTBuffer@2@K@Z @ 2088
?rfAckAuctionBidding@BTSocket_Channel@BatteryNetlib@@QAEHPAVBTPeer_Channel@2@KPAGK@Z @ 2089
?rfAckAuctionInstantlyBuying@BTSocket_Channel@BatteryNetlib@@QAEHPAVBTPeer_Channel@2@KPAGK@Z @ 2090
?rfAckAuctionItemList@BTSocket_Channel@BatteryNetlib@@QAEHPAVBTPeer_Channel@2@EAAVBTBuffer@2@111111111@Z @ 2091
?rfAckAuctionItemListCount@BTSocket_Channel@BatteryNetlib@@QAEHPAVBTPeer_Channel@2@KPAGEEKKK@Z @ 2092
?rfAckAuctionItemListEnd@BTSocket_Channel@BatteryNetlib@@QAEHPAVBTPeer_Channel@2@E@Z @ 2093
?rfAckAuctionItemListStart@BTSocket_Channel@BatteryNetlib@@QAEHPAVBTPeer_Channel@2@KPAGEKK@Z @ 2094
?rfAckAuctionMyItemCancel@BTSocket_Channel@BatteryNetlib@@QAEHPAVBTPeer_Channel@2@KPAG@Z @ 2095
?rfAckAuctionMyItemRegister@BTSocket_Channel@BatteryNetlib@@QAEHPAVBTPeer_Channel@2@KPAGKKKK@Z @ 2096
?rfAckAuctionTradeHistory@BTSocket_Channel@BatteryNetlib@@QAEHPAVBTPeer_Channel@2@KPAGKKAAVBTBuffer@2@22@Z @ 2097
?rfAckAutoChangedTeamUserList@BTSocket_Channel@BatteryNetlib@@QAEHPAVBTPeer_Channel@2@AAVBTBuffer@2@1@Z @ 2098
?rfAckBanUser@BTSocket_Channel@BatteryNetlib@@QAEHPAVBTPeer_Channel@2@GKKKPAG@Z @ 2099
?rfAckBlockUserList@BTSocket_Channel@BatteryNetlib@@QAEHPAVBTPeer_Channel@2@AAVBTBuffer@2@@Z @ 2100
?rfAckBlockUserListEnd@BTSocket_Channel@BatteryNetlib@@QAEHPAVBTPeer_Channel@2@@Z @ 2101
?rfAckBlockUserListStart@BTSocket_Channel@BatteryNetlib@@QAEHPAVBTPeer_Channel@2@KK@Z @ 2102
?rfAckBuyItemByWebzenCash@BTSocket_Channel@BatteryNetlib@@QAEHPAVBTPeer_Channel@2@KPAG@Z @ 2103
?rfAckBuyShopItem@BTSocket_Channel@BatteryNetlib@@QAEHPAVBTPeer_Channel@2@KAAVBTBuffer@2@11111KK@Z @ 2104
?rfAckChangeGameMode@BTSocket_Channel@BatteryNetlib@@QAEHPAVBTPeer_Channel@2@GKPAGEK1@Z @ 2105
?rfAckChangeHost@BTSocket_Channel@BatteryNetlib@@QAEHPAVBTPeer_Channel@2@E@Z @ 2106
?rfAckChangeNewGuest@BTSocket_Channel@BatteryNetlib@@QAEHPAVBTPeer_Channel@2@PAG@Z @ 2107
?rfAckChangeRoomMaxNum@BTSocket_Channel@BatteryNetlib@@QAEHPAVBTPeer_Channel@2@GGGKPAG@Z @ 2108
?rfAckChangeRoomOwner@BTSocket_Channel@BatteryNetlib@@QAEHPAVBTPeer_Channel@2@GKKKPAG@Z @ 2109
?rfAckChangeRoomSetting@BTSocket_Channel@BatteryNetlib@@QAEHPAVBTPeer_Channel@2@KPAGK111EEEEKKE1EEEEEEEEEEEE1EEEEEEE@Z @ 2110
?rfAckChangeRoomTitle_GM@BTSocket_Channel@BatteryNetlib@@QAEHPAVBTPeer_Channel@2@KGPAG@Z @ 2111
?rfAckChangeTeam@BTSocket_Channel@BatteryNetlib@@QAEHPAVBTPeer_Channel@2@GPAGKGK1@Z @ 2112
?rfAckChangeUserState@BTSocket_Channel@BatteryNetlib@@QAEHPAVBTPeer_Channel@2@KPAGAAVBTBuffer@2@2222@Z @ 2113
?rfAckChangedRoomTitle_FromGM@BTSocket_Channel@BatteryNetlib@@QAEHPAVBTPeer_Channel@2@KGPAG@Z @ 2114
?rfAckChannelList@BTSocket_Channel@BatteryNetlib@@QAEHPAVBTPeer_Channel@2@AAVBTBuffer@2@111@Z @ 2115
?rfAckChannelUserList@BTSocket_Channel@BatteryNetlib@@QAEHPAVBTPeer_Channel@2@KKKAAVBTBuffer@2@1111111111KPAG111111@Z @ 2116
?rfAckChannelUserListInGameRoom@BTSocket_Channel@BatteryNetlib@@QAEHPAVBTPeer_Channel@2@KKKKAAVBTBuffer@2@1111111111111@Z @ 2117
?rfAckCharBlockInfo@BTSocket_Channel@BatteryNetlib@@QAEHPAVBTPeer_Channel@2@KNNAAVBTBuffer@2@@Z @ 2118
?rfAckCharDetailInfo@BTSocket_Channel@BatteryNetlib@@QAEHPAVBTPeer_Channel@2@KKKKKKKKKKKKKKKKKKKKKKKKKKKKKKKKK@Z @ 2119
?rfAckCharInfo@BTSocket_Channel@BatteryNetlib@@QAEHPAVBTPeer_Channel@2@KPAGK11KKKGKKKKKKKKKKKKKKKKKKKKKKKKKKKKKEKKKKKKKKKKKKKKKKKEK@Z @ 2120
?rfAckCharInfo@BTSocket_Login@BatteryNetlib@@QAEHPAVBTPeer_Login@2@KPAGKK1@Z @ 2121
?rfAckChatClan@BTSocket_Channel@BatteryNetlib@@QAEHPAVBTPeer_Channel@2@PAG1K@Z @ 2122
?rfAckChatNormal@BTSocket_Channel@BatteryNetlib@@QAEHPAVBTPeer_Channel@2@GPAG1K@Z @ 2123
?rfAckChatWispher@BTSocket_Channel@BatteryNetlib@@QAEHPAVBTPeer_Channel@2@KPAG1@Z @ 2124
?rfAckChatWispherMyCommunity@BTSocket_Channel@BatteryNetlib@@QAEHPAVBTPeer_Channel@2@KPAG@Z @ 2125
?rfAckCheckEquipedWeaponDurability@BTSocket_Channel@BatteryNetlib@@QAEHPAVBTPeer_Channel@2@KAAVBTBuffer@2@1@Z @ 2126
?rfAckClanChangeInfo@BTSocket_Channel@BatteryNetlib@@QAEHPAVBTPeer_Channel@2@KPAG@Z @ 2127
?rfAckClanCharPersonelIntro@BTSocket_Channel@BatteryNetlib@@QAEHPAVBTPeer_Channel@2@KPAG1@Z @ 2128
?rfAckClanClose@BTSocket_Channel@BatteryNetlib@@QAEHPAVBTPeer_Channel@2@KPAG1@Z @ 2129
?rfAckClanInfo@BTSocket_Channel@BatteryNetlib@@QAEHPAVBTPeer_Channel@2@PAGKKKKKKKEKKE1111KKK1KKKKKKKKKK@Z @ 2130
?rfAckClanMatchResultHistory@BTSocket_Channel@BatteryNetlib@@QAEHPAVBTPeer_Channel@2@AAVBTBuffer@2@11@Z @ 2131
?rfAckClanMatch_ChangeLeader@BTSocket_Channel@BatteryNetlib@@QAEHPAVBTPeer_Channel@2@KPAGK1@Z @ 2132
?rfAckClanMatch_ChangeRoomSetting@BTSocket_Channel@BatteryNetlib@@QAEHPAVBTPeer_Channel@2@KKPAGAAVBTBuffer@2@KE@Z @ 2133
?rfAckClanMatch_Chat@BTSocket_Channel@BatteryNetlib@@QAEHPAVBTPeer_Channel@2@KPAG11@Z @ 2134
?rfAckClanMatch_EndPublicWaitRoomList@BTSocket_Channel@BatteryNetlib@@QAEHPAVBTPeer_Channel@2@@Z @ 2135
?rfAckClanMatch_FoundMatch@BTSocket_Channel@BatteryNetlib@@QAEHPAVBTPeer_Channel@2@@Z @ 2136
?rfAckClanMatch_GetClanWaittingRoomInfo@BTSocket_Channel@BatteryNetlib@@QAEHPAVBTPeer_Channel@2@KKPAGAAVBTBuffer@2@K1@Z @ 2137
?rfAckClanMatch_GetReady@BTSocket_Channel@BatteryNetlib@@QAEHPAVBTPeer_Channel@2@KPAGK@Z @ 2138
?rfAckClanMatch_InviteCrew@BTSocket_Channel@BatteryNetlib@@QAEHPAVBTPeer_Channel@2@KPAG@Z @ 2139
?rfAckClanMatch_Join@BTSocket_Channel@BatteryNetlib@@QAEHPAVBTPeer_Channel@2@KPAG@Z @ 2140
?rfAckClanMatch_JoinNotify@BTSocket_Channel@BatteryNetlib@@QAEHPAVBTPeer_Channel@2@EKKKKPAGKKK1KKKKKK@Z @ 2141
?rfAckClanMatch_Leave@BTSocket_Channel@BatteryNetlib@@QAEHPAVBTPeer_Channel@2@KPAG@Z @ 2142
?rfAckClanMatch_LeaveNotify@BTSocket_Channel@BatteryNetlib@@QAEHPAVBTPeer_Channel@2@PAG@Z @ 2143
?rfAckClanMatch_MemberList@BTSocket_Channel@BatteryNetlib@@QAEHPAVBTPeer_Channel@2@AAVBTBuffer@2@111111111111111@Z @ 2144
?rfAckClanMatch_NotifiyStartCombat@BTSocket_Channel@BatteryNetlib@@QAEHPAVBTPeer_Channel@2@AAVBTBuffer@2@K@Z @ 2145
?rfAckClanMatch_NotifyStartSearching@BTSocket_Channel@BatteryNetlib@@QAEHPAVBTPeer_Channel@2@K@Z @ 2146
?rfAckClanMatch_PublicWaitRoomChanged@BTSocket_Channel@BatteryNetlib@@QAEHPAVBTPeer_Channel@2@KPAGKKKEE@Z @ 2147
?rfAckClanMatch_PublicWaitRoomList@BTSocket_Channel@BatteryNetlib@@QAEHPAVBTPeer_Channel@2@AAVBTBuffer@2@111111@Z @ 2148
?rfAckClanMatch_RecvInviteCrew@BTSocket_Channel@BatteryNetlib@@QAEHPAVBTPeer_Channel@2@KPAG@Z @ 2149
?rfAckClanMatch_SetWaitRoomPublic@BTSocket_Channel@BatteryNetlib@@QAEHPAVBTPeer_Channel@2@KPAGE@Z @ 2150
?rfAckClanMatch_StartCombat@BTSocket_Channel@BatteryNetlib@@QAEHPAVBTPeer_Channel@2@KPAG@Z @ 2151
?rfAckClanMatch_StartPublicWaitRoomList@BTSocket_Channel@BatteryNetlib@@QAEHPAVBTPeer_Channel@2@KPAGK@Z @ 2152
?rfAckClanMatch_StartSearching@BTSocket_Channel@BatteryNetlib@@QAEHPAVBTPeer_Channel@2@KPAGK@Z @ 2153
?rfAckClanMatch_StopSearching@BTSocket_Channel@BatteryNetlib@@QAEHPAVBTPeer_Channel@2@@Z @ 2154
?rfAckClanMatch_WaittingTeamList@BTSocket_Channel@BatteryNetlib@@QAEHPAVBTPeer_Channel@2@KAAVBTBuffer@2@11@Z @ 2155
?rfAckClanMemberListFromClient@BTSocket_Login@BatteryNetlib@@QAEHPAVBTPeer_Login@2@KPAGAAVBTBuffer@2@2222222222@Z @ 2156
?rfAckClanMemberListFromClientEnd@BTSocket_Login@BatteryNetlib@@QAEHPAVBTPeer_Login@2@@Z @ 2157
?rfAckClanMemberListFromClientStart@BTSocket_Login@BatteryNetlib@@QAEHPAVBTPeer_Login@2@KK@Z @ 2158
?rfAckClanNews@BTSocket_Channel@BatteryNetlib@@QAEHPAVBTPeer_Channel@2@AAVBTBuffer@2@11@Z @ 2159
?rfAckClanPersonelIntro@BTSocket_Channel@BatteryNetlib@@QAEHPAVBTPeer_Channel@2@KPAG@Z @ 2160
?rfAckClanSecession@BTSocket_Channel@BatteryNetlib@@QAEHPAVBTPeer_Channel@2@KPAG@Z @ 2161
?rfAckClanUserList@BTSocket_Channel@BatteryNetlib@@QAEHPAVBTPeer_Channel@2@KPAGAAVBTBuffer@2@2222222@Z @ 2162
?rfAckClanUserListEnd@BTSocket_Channel@BatteryNetlib@@QAEHPAVBTPeer_Channel@2@@Z @ 2163
?rfAckClanUserListStart@BTSocket_Channel@BatteryNetlib@@QAEHPAVBTPeer_Channel@2@KK@Z @ 2164
?rfAckClientChallenge@BTSocket_Login@BatteryNetlib@@QAEHPAVBTPeer_Login@2@PAGN@Z @ 2165
?rfAckClientChecksum@BTSocket_Login@BatteryNetlib@@QAEHPAVBTPeer_Login@2@K@Z @ 2166
?rfAckClientUdpInfoList@BTSocket_Channel@BatteryNetlib@@QAEHPAVBTPeer_Channel@2@KPAGAAVBTBuffer@2@22@Z @ 2167
?rfAckCommunityOptionList@BTSocket_Channel@BatteryNetlib@@QAEHPAVBTPeer_Channel@2@GGGG@Z @ 2168
?rfAckConfirmFriendInvite@BTSocket_Channel@BatteryNetlib@@QAEHPAVBTPeer_Channel@2@KPAG@Z @ 2169
?rfAckConfirmItemChanged@BTSocket_Channel@BatteryNetlib@@QAEHPAVBTPeer_Channel@2@KPAG@Z @ 2170
?rfAckConfirmSkillChanged@BTSocket_Channel@BatteryNetlib@@QAEHPAVBTPeer_Channel@2@KPAG@Z @ 2171
?rfAckConnectChannelServer@BTSocket_Login@BatteryNetlib@@QAEHPAVBTPeer_Login@2@PAGK@Z @ 2172
?rfAckConnectGame@BTSocket_Channel@BatteryNetlib@@QAEHPAVBTPeer_Channel@2@KK@Z @ 2173
?rfAckCouponUse@BTSocket_Channel@BatteryNetlib@@QAEHPAVBTPeer_Channel@2@KPAG@Z @ 2174
?rfAckCreateChar@BTSocket_Login@BatteryNetlib@@QAEHPAVBTPeer_Login@2@KPAG@Z @ 2175
?rfAckCreateClan@BTSocket_Channel@BatteryNetlib@@QAEHPAVBTPeer_Channel@2@KPAGNK@Z @ 2176
?rfAckCreateGameRoom@BTSocket_Channel@BatteryNetlib@@QAEHPAVBTPeer_Channel@2@KPAGK1K111EEEEKKE1EEEEEEEEEEEE1EEEEEEE@Z @ 2177
?rfAckDBCharInfo@BTSocket_Channel@BatteryNetlib@@QAEHPAVBTPeer_Channel@2@KPAG11KKK1KKKKKKGKKKKKKKKKKKKKKKKKKKKKKKKKKKKKEKKKKKKKKKKKKKKKKKK@Z @ 2178
?rfAckDedicateHost_Login@BTSocket_Channel@BatteryNetlib@@QAEHPAVBTPeer_Channel@2@KKKK@Z @ 2179
?rfAckDelMemo@BTSocket_Channel@BatteryNetlib@@QAEHPAVBTPeer_Channel@2@KPAGAAVBTBuffer@2@@Z @ 2180
?rfAckDeleteFriend@BTSocket_Channel@BatteryNetlib@@QAEHPAVBTPeer_Channel@2@KAAVBTBuffer@2@@Z @ 2181
?rfAckDeleteMailAll@BTSocket_Channel@BatteryNetlib@@QAEHPAVBTPeer_Channel@2@KEK@Z @ 2182
?rfAckDisconnectGame@BTSocket_Channel@BatteryNetlib@@QAEHPAVBTPeer_Channel@2@KKPAG@Z @ 2183
?rfAckDummy@BTSocket_Channel@BatteryNetlib@@QAEHPAVBTPeer_Channel@2@K@Z @ 2184
?rfAckDupCheckClanName@BTSocket_Channel@BatteryNetlib@@QAEHPAVBTPeer_Channel@2@KPAG@Z @ 2185
?rfAckEndMemoList@BTSocket_Channel@BatteryNetlib@@QAEHPAVBTPeer_Channel@2@@Z @ 2186
?rfAckEnterChannel@BTSocket_Channel@BatteryNetlib@@QAEHPAVBTPeer_Channel@2@GKPAGK1KKKKKKEK1KKKKKK@Z @ 2187
?rfAckEnterRoom@BTSocket_Channel@BatteryNetlib@@QAEHPAVBTPeer_Channel@2@GKKPAGGG11KKKEK1KKKKKK@Z @ 2188
?rfAckEntryItemList@BTSocket_Channel@BatteryNetlib@@QAEHPAVBTPeer_Channel@2@AAVBTBuffer@2@11111KPAG@Z @ 2189
?rfAckEntryQSlotIDList@BTSocket_Channel@BatteryNetlib@@QAEHPAVBTPeer_Channel@2@KAAVBTBuffer@2@111111111111@Z @ 2190
?rfAckEntryQSlotUniqueIDList@BTSocket_Channel@BatteryNetlib@@QAEHPAVBTPeer_Channel@2@KAAVBTBuffer@2@1111@Z @ 2191
?rfAckEntrySkillList@BTSocket_Channel@BatteryNetlib@@QAEHPAVBTPeer_Channel@2@AAVBTBuffer@2@11KPAG@Z @ 2192
?rfAckEquipItem@BTSocket_Channel@BatteryNetlib@@QAEHPAVBTPeer_Channel@2@KNKKNKKPAG@Z @ 2193
?rfAckEquipSkill@BTSocket_Channel@BatteryNetlib@@QAEHPAVBTPeer_Channel@2@KKEKKEKPAG@Z @ 2194
?rfAckErrorReportServerAddr@BTSocket_Login@BatteryNetlib@@QAEHPAVBTPeer_Login@2@PAGK@Z @ 2195
?rfAckEventNotify@BTSocket_Channel@BatteryNetlib@@QAEHPAVBTPeer_Channel@2@K@Z @ 2196
?rfAckEventNotify@BTSocket_Login@BatteryNetlib@@QAEHPAVBTPeer_Login@2@K@Z @ 2197
?rfAckExceedMaxUser@BTSocket_Channel@BatteryNetlib@@QAEHPAVBTPeer_Channel@2@@Z @ 2198
?rfAckExceedMaxUser@BTSocket_Login@BatteryNetlib@@QAEHPAVBTPeer_Login@2@@Z @ 2199
?rfAckExteriorRoomInfo@BTSocket_Channel@BatteryNetlib@@QAEHPAVBTPeer_Channel@2@@Z @ 2200
?rfAckExteriorRoomOwnerInfo@BTSocket_Channel@BatteryNetlib@@QAEHPAVBTPeer_Channel@2@@Z @ 2201
?rfAckExteriorRoomState@BTSocket_Channel@BatteryNetlib@@QAEHPAVBTPeer_Channel@2@@Z @ 2202
?rfAckExteriorRoomUserCount@BTSocket_Channel@BatteryNetlib@@QAEHPAVBTPeer_Channel@2@@Z @ 2203
?rfAckFailedStartGame@BTSocket_Channel@BatteryNetlib@@QAEHPAVBTPeer_Channel@2@KPAGEKK@Z @ 2204
?rfAckForceDisconnectUDPFromHost@BTSocket_Channel@BatteryNetlib@@QAEHPAVBTPeer_Channel@2@K@Z @ 2205
?rfAckForceDisconnectUser_GM@BTSocket_Channel@BatteryNetlib@@QAEHPAVBTPeer_Channel@2@KPAG1@Z @ 2206
?rfAckForceFailedClientLoading@BTSocket_Channel@BatteryNetlib@@QAEHPAVBTPeer_Channel@2@KPAG@Z @ 2207
?rfAckForceGameOver@BTSocket_Channel@BatteryNetlib@@QAEHPAVBTPeer_Channel@2@KGKPAG@Z @ 2208
?rfAckFriendList@BTSocket_Channel@BatteryNetlib@@QAEHPAVBTPeer_Channel@2@AAVBTBuffer@2@111111111@Z @ 2209
?rfAckFriendListEnd@BTSocket_Channel@BatteryNetlib@@QAEHPAVBTPeer_Channel@2@@Z @ 2210
?rfAckFriendListStart@BTSocket_Channel@BatteryNetlib@@QAEHPAVBTPeer_Channel@2@KK@Z @ 2211
?rfAckFriendPosition@BTSocket_Channel@BatteryNetlib@@QAEHPAVBTPeer_Channel@2@KPAGE111KEEK1K@Z @ 2212
?rfAckFriendsList@BTSocket_Login@BatteryNetlib@@QAEHPAVBTPeer_Login@2@EAAVBTBuffer@2@111111@Z @ 2213
?rfAckFriendsListEnd@BTSocket_Login@BatteryNetlib@@QAEHPAVBTPeer_Login@2@@Z @ 2214
?rfAckFriendsListStart@BTSocket_Login@BatteryNetlib@@QAEHPAVBTPeer_Login@2@KK@Z @ 2215
?rfAckGMEnterRoom@BTSocket_Channel@BatteryNetlib@@QAEHPAVBTPeer_Channel@2@KGK@Z @ 2216
?rfAckGMLeaveRoom@BTSocket_Channel@BatteryNetlib@@QAEHPAVBTPeer_Channel@2@KGK@Z @ 2217
?rfAckGameGuardAuthData@BTSocket_Channel@BatteryNetlib@@QAEHPAVBTPeer_Channel@2@KKKK@Z @ 2218
?rfAckGameHostInfo@BTSocket_Channel@BatteryNetlib@@QAEHPAVBTPeer_Channel@2@GPAG1GK1@Z @ 2219
?rfAckGameMapData@BTSocket_Channel@BatteryNetlib@@QAEHPAVBTPeer_Channel@2@AAVBTBuffer@2@1111111111111111@Z @ 2220
?rfAckGameOver@BTSocket_Channel@BatteryNetlib@@QAEHPAVBTPeer_Channel@2@KGKPAG@Z @ 2221
?rfAckGameOverEnd@BTSocket_Channel@BatteryNetlib@@QAEHPAVBTPeer_Channel@2@KPAG@Z @ 2222
?rfAckGameRoomDestroy@BTSocket_Channel@BatteryNetlib@@QAEHPAVBTPeer_Channel@2@G@Z @ 2223
?rfAckGameRoomInfo@BTSocket_Channel@BatteryNetlib@@QAEHPAVBTPeer_Channel@2@KPAGK111EEEEKKE1EEEEEEEEEEEE1EEEEEEE@Z @ 2224
?rfAckGetAttachedItemFromMemo@BTSocket_Channel@BatteryNetlib@@QAEHPAVBTPeer_Channel@2@KPAGNK@Z @ 2225
?rfAckGetBooty@BTSocket_Channel@BatteryNetlib@@QAEHPAVBTPeer_Channel@2@KPAGAAVBTBuffer@2@22@Z @ 2226
?rfAckGetBootyChoose@BTSocket_Channel@BatteryNetlib@@QAEHPAVBTPeer_Channel@2@KPAGENKKENKK@Z @ 2227
?rfAckGetBotID@BTSocket_Channel@BatteryNetlib@@QAEHPAVBTPeer_Channel@2@KEEAAVBTBuffer@2@1@Z @ 2228
?rfAckGetCharBlockInfo@BTSocket_Login@BatteryNetlib@@QAEHPAVBTPeer_Login@2@KEENAAVBTBuffer@2@@Z @ 2229
?rfAckGetHolePunchingResult@BTSocket_Channel@BatteryNetlib@@QAEHPAVBTPeer_Channel@2@KEKEAAVBTBuffer@2@@Z @ 2230
?rfAckGetIsHostBlocking@BTSocket_Channel@BatteryNetlib@@QAEHPAVBTPeer_Channel@2@KE@Z @ 2231
?rfAckGetItemFromItemBox@BTSocket_Channel@BatteryNetlib@@QAEHPAVBTPeer_Channel@2@KPAGKKNKENNK@Z @ 2232
?rfAckGetMyMailBoxState@BTSocket_Channel@BatteryNetlib@@QAEHPAVBTPeer_Channel@2@KEG@Z @ 2233
?rfAckGetRankingInfoList@BTSocket_Channel@BatteryNetlib@@QAEHPAVBTPeer_Channel@2@KEEAAVBTBuffer@2@1111111111111@Z @ 2234
?rfAckGetRankingInfoListEnd@BTSocket_Channel@BatteryNetlib@@QAEHPAVBTPeer_Channel@2@@Z @ 2235
?rfAckGetRankingInfoListStart@BTSocket_Channel@BatteryNetlib@@QAEHPAVBTPeer_Channel@2@KEEK@Z @ 2236
?rfAckGetServerTime@BTSocket_Channel@BatteryNetlib@@QAEHPAVBTPeer_Channel@2@NPAG@Z @ 2237
?rfAckGetUserHostPriorityPoint@BTSocket_Channel@BatteryNetlib@@QAEHPAVBTPeer_Channel@2@KKK@Z @ 2238
?rfAckGiftItemByWebzenCash@BTSocket_Channel@BatteryNetlib@@QAEHPAVBTPeer_Channel@2@KPAGK@Z @ 2239
?rfAckGiveSkill@BTSocket_Channel@BatteryNetlib@@QAEHPAVBTPeer_Channel@2@KKPAG@Z @ 2240
?rfAckHash@BTSocket_Channel@BatteryNetlib@@QAEHPAVBTPeer_Channel@2@KPAG@Z @ 2241
?rfAckHash@BTSocket_Login@BatteryNetlib@@QAEHPAVBTPeer_Login@2@KPAG@Z @ 2242
?rfAckHash@BTSocket_Process2Agent@BatteryNetlib@@QAEHPAVBTPeer_Process2Agent@2@KPAG@Z @ 2243
?rfAckHeadItemTypeList@BTSocket_Login@BatteryNetlib@@QAEHPAVBTPeer_Login@2@AAVBTBuffer@2@@Z @ 2244
?rfAckHelmetItemTypeList@BTSocket_Login@BatteryNetlib@@QAEHPAVBTPeer_Login@2@AAVBTBuffer@2@1@Z @ 2245
?rfAckInviteClan@BTSocket_Channel@BatteryNetlib@@QAEHPAVBTPeer_Channel@2@KPAG@Z @ 2246
?rfAckInviteClanResult@BTSocket_Channel@BatteryNetlib@@QAEHPAVBTPeer_Channel@2@PAGE1@Z @ 2247
?rfAckInviteGameRoom@BTSocket_Channel@BatteryNetlib@@QAEHPAVBTPeer_Channel@2@KEPAG@Z @ 2248
?rfAckIsAvailClanURL@BTSocket_Channel@BatteryNetlib@@QAEHPAVBTPeer_Channel@2@PAGK1@Z @ 2249
?rfAckIsGameRoomPlaying@BTSocket_Channel@BatteryNetlib@@QAEHPAVBTPeer_Channel@2@GE@Z @ 2250
?rfAckIsHostAvailable@BTSocket_Channel@BatteryNetlib@@QAEHPAVBTPeer_Channel@2@K@Z @ 2251
?rfAckItemList@BTSocket_Channel@BatteryNetlib@@QAEHPAVBTPeer_Channel@2@AAVBTBuffer@2@11111111111@Z @ 2252
?rfAckItemListEnd@BTSocket_Channel@BatteryNetlib@@QAEHPAVBTPeer_Channel@2@@Z @ 2253
?rfAckItemListInItemBox@BTSocket_Channel@BatteryNetlib@@QAEHPAVBTPeer_Channel@2@KPAGNKAAVBTBuffer@2@2@Z @ 2254
?rfAckItemListStart@BTSocket_Channel@BatteryNetlib@@QAEHPAVBTPeer_Channel@2@KKPAG@Z @ 2255
?rfAckJoinClan@BTSocket_Channel@BatteryNetlib@@QAEHPAVBTPeer_Channel@2@KPAG11E@Z @ 2256
?rfAckJoinClanResult@BTSocket_Channel@BatteryNetlib@@QAEHPAVBTPeer_Channel@2@PAGE1@Z @ 2257
?rfAckLeaveChannel@BTSocket_Channel@BatteryNetlib@@QAEHPAVBTPeer_Channel@2@KPAGK@Z @ 2258
?rfAckLeaveRoom@BTSocket_Channel@BatteryNetlib@@QAEHPAVBTPeer_Channel@2@GKPAGK1@Z @ 2259
?rfAckLimitedListInChannel@BTSocket_Channel@BatteryNetlib@@QAEHPAVBTPeer_Channel@2@KAAVBTBuffer@2@1@Z @ 2260
?rfAckLogOut@BTSocket_Channel@BatteryNetlib@@QAEHPAVBTPeer_Channel@2@EE@Z @ 2261
?rfAckLogOut@BTSocket_Login@BatteryNetlib@@QAEHPAVBTPeer_Login@2@EE@Z @ 2262
?rfAckLogin2@BTSocket_Channel@BatteryNetlib@@QAEHPAVBTPeer_Channel@2@KPAGK1NKE@Z @ 2263
?rfAckLogin@BTSocket_Channel@BatteryNetlib@@QAEHPAVBTPeer_Channel@2@KPAGK11GKKKKKKKKKKKKKKKKKKKKKKKKKKKKKEKKKKKKKKKKKKKKKKK@Z @ 2264
?rfAckLogin@BTSocket_Login@BatteryNetlib@@QAEHPAVBTPeer_Login@2@EPAGKKKKKKE1@Z @ 2265
?rfAckLogin@BTSocket_Process2Agent@BatteryNetlib@@QAEHPAVBTPeer_Process2Agent@2@K@Z @ 2266
?rfAckLoginInHouseTest@BTSocket_Login@BatteryNetlib@@QAEHPAVBTPeer_Login@2@EPAGKKKKKKE11EN@Z @ 2267
?rfAckLoginWithGlobal@BTSocket_Login@BatteryNetlib@@QAEHPAVBTPeer_Login@2@K@Z @ 2268
?rfAckLoginWithIndonesia@BTSocket_Login@BatteryNetlib@@QAEHPAVBTPeer_Login@2@K@Z @ 2269
?rfAckLoginWithTencentAuth@BTSocket_Login@BatteryNetlib@@QAEHPAVBTPeer_Login@2@KEE@Z @ 2270
?rfAckLoginWithThailand@BTSocket_Login@BatteryNetlib@@QAEHPAVBTPeer_Login@2@K@Z @ 2271
?rfAckLoginWithWZAuth@BTSocket_Login@BatteryNetlib@@QAEHPAVBTPeer_Login@2@KEEEE@Z @ 2272
?rfAckMaxUserExceed@BTSocket_Login@BatteryNetlib@@QAEHPAVBTPeer_Login@2@@Z @ 2273
?rfAckMemoList@BTSocket_Channel@BatteryNetlib@@QAEHPAVBTPeer_Channel@2@AAVBTBuffer@2@111111111@Z @ 2274
?rfAckModifyWeapon@BTSocket_Channel@BatteryNetlib@@QAEHPAVBTPeer_Channel@2@KPAGNKKKK@Z @ 2275
?rfAckMoveToLobby@BTSocket_Channel@BatteryNetlib@@QAEHPAVBTPeer_Channel@2@E@Z @ 2276
?rfAckMyEquipedItemList@BTSocket_Channel@BatteryNetlib@@QAEHPAVBTPeer_Channel@2@AAVBTBuffer@2@1111K@Z @ 2277
?rfAckMyEquipedQSlotList@BTSocket_Channel@BatteryNetlib@@QAEHPAVBTPeer_Channel@2@AAVBTBuffer@2@1111111111111111K@Z @ 2278
?rfAckMyEquipedSkillList@BTSocket_Channel@BatteryNetlib@@QAEHPAVBTPeer_Channel@2@AAVBTBuffer@2@1K@Z @ 2279
?rfAckMyMoney@BTSocket_Channel@BatteryNetlib@@QAEHPAVBTPeer_Channel@2@KPAGKK@Z @ 2280
?rfAckNotice_GM@BTSocket_Channel@BatteryNetlib@@QAEHPAVBTPeer_Channel@2@KPAGEKGG1@Z @ 2281
?rfAckNotifyAdjustClanMemberGrade@BTSocket_Channel@BatteryNetlib@@QAEHPAVBTPeer_Channel@2@PAG1E@Z @ 2282
?rfAckNotifyChangedItemState@BTSocket_Channel@BatteryNetlib@@QAEHPAVBTPeer_Channel@2@KAAVBTBuffer@2@1KPAG@Z @ 2283
?rfAckNotifyChangedSkillState@BTSocket_Channel@BatteryNetlib@@QAEHPAVBTPeer_Channel@2@KAAVBTBuffer@2@1KPAG@Z @ 2284
?rfAckNotifyClanSecession@BTSocket_Channel@BatteryNetlib@@QAEHPAVBTPeer_Channel@2@PAG1@Z @ 2285
?rfAckNotifyClientJoinTime@BTSocket_Channel@BatteryNetlib@@QAEHPAVBTPeer_Channel@2@KPAG@Z @ 2286
?rfAckNotifyEndTutorial@BTSocket_Channel@BatteryNetlib@@QAEHPAVBTPeer_Channel@2@KPAGK1KKKKKKEKKKKKKK@Z @ 2287
?rfAckNotifyExpiredItemIDs@BTSocket_Channel@BatteryNetlib@@QAEHPAVBTPeer_Channel@2@KAAVBTBuffer@2@111KPAG@Z @ 2288
?rfAckNotifyExpiredSkillIDs@BTSocket_Channel@BatteryNetlib@@QAEHPAVBTPeer_Channel@2@KAAVBTBuffer@2@1KPAG1@Z @ 2289
?rfAckNotifyHostBlocking@BTSocket_Channel@BatteryNetlib@@QAEHPAVBTPeer_Channel@2@KE@Z @ 2290
?rfAckNotifyLoadingState@BTSocket_Channel@BatteryNetlib@@QAEHPAVBTPeer_Channel@2@KKE@Z @ 2291
?rfAckNotifyMyCharInfoToRoomUser@BTSocket_Channel@BatteryNetlib@@QAEHPAVBTPeer_Channel@2@KPAGK1KKEE11KKKE@Z @ 2292
?rfAckNotifyNewClanMember@BTSocket_Channel@BatteryNetlib@@QAEHPAVBTPeer_Channel@2@PAG1@Z @ 2293
?rfAckNotifyStartTutorial@BTSocket_Channel@BatteryNetlib@@QAEHPAVBTPeer_Channel@2@KK@Z @ 2294
?rfAckNotifyUpdateCharInfo_LevelMark@BTSocket_Channel@BatteryNetlib@@QAEHPAVBTPeer_Channel@2@PAGK@Z @ 2295
?rfAckNotifyUpdateCharInfo_TitleMark@BTSocket_Channel@BatteryNetlib@@QAEHPAVBTPeer_Channel@2@PAGK@Z @ 2296
?rfAckPCBangUserList@BTSocket_Channel@BatteryNetlib@@QAEHPAVBTPeer_Channel@2@AAVBTBuffer@2@1111111111111111@Z @ 2297
?rfAckPCBangUserList@BTSocket_Login@BatteryNetlib@@QAEHPAVBTPeer_Login@2@AAVBTBuffer@2@111111111@Z @ 2298
?rfAckPCBangUserListEnd@BTSocket_Channel@BatteryNetlib@@QAEHPAVBTPeer_Channel@2@@Z @ 2299
?rfAckPCBangUserListEnd@BTSocket_Login@BatteryNetlib@@QAEHPAVBTPeer_Login@2@@Z @ 2300
?rfAckPCBangUserListStart@BTSocket_Channel@BatteryNetlib@@QAEHPAVBTPeer_Channel@2@KK@Z @ 2301
?rfAckPCBangUserListStart@BTSocket_Login@BatteryNetlib@@QAEHPAVBTPeer_Login@2@KK@Z @ 2302
?rfAckPaidItem_BroadCast@BTSocket_Channel@BatteryNetlib@@QAEHPAVBTPeer_Channel@2@KPAGNK@Z @ 2303
?rfAckPaidItem_ChangeCharname@BTSocket_Channel@BatteryNetlib@@QAEHPAVBTPeer_Channel@2@KPAGNK1@Z @ 2304
?rfAckPaidItem_ChangeClanMark@BTSocket_Channel@BatteryNetlib@@QAEHPAVBTPeer_Channel@2@KPAGNK@Z @ 2305
?rfAckPaidItem_ChangeClanname@BTSocket_Channel@BatteryNetlib@@QAEHPAVBTPeer_Channel@2@KPAGNK1@Z @ 2306
?rfAckPaidItem_ClanMarkDupCheck@BTSocket_Channel@BatteryNetlib@@QAEHPAVBTPeer_Channel@2@KPAG@Z @ 2307
?rfAckPaidItem_EraseRecord@BTSocket_Channel@BatteryNetlib@@QAEHPAVBTPeer_Channel@2@KPAGNKK@Z @ 2308
?rfAckPaidItem_NotifyChangeClanMark@BTSocket_Channel@BatteryNetlib@@QAEHPAVBTPeer_Channel@2@PAGKKK@Z @ 2309
?rfAckPaidItem_NotifyChangeClanname@BTSocket_Channel@BatteryNetlib@@QAEHPAVBTPeer_Channel@2@PAG@Z @ 2310
?rfAckPaidItem_RelayBroadcast@BTSocket_Channel@BatteryNetlib@@QAEHPAVBTPeer_Channel@2@PAG1@Z @ 2311
?rfAckParamCheckSum@BTSocket_Channel@BatteryNetlib@@QAEHPAVBTPeer_Channel@2@K@Z @ 2312
?rfAckPermanentRoomInfo@BTSocket_Channel@BatteryNetlib@@QAEHPAVBTPeer_Channel@2@KKEE@Z @ 2313
?rfAckPopUpMessage@BTSocket_Channel@BatteryNetlib@@QAEHPAVBTPeer_Channel@2@K@Z @ 2314
?rfAckProcessExcuteCmd@BTSocket_Process2Agent@BatteryNetlib@@QAEHPAVBTPeer_Process2Agent@2@KKKPAG@Z @ 2315
?rfAckProcessPreLoginUser@BTSocket_Login@BatteryNetlib@@QAEHPAVBTPeer_Login@2@KPAG@Z @ 2316
?rfAckQSlotList@BTSocket_Channel@BatteryNetlib@@QAEHPAVBTPeer_Channel@2@KPAGAAVBTBuffer@2@2222222222@Z @ 2317
?rfAckQuestGetAvailableEventList@BTSocket_Channel@BatteryNetlib@@QAEHPAVBTPeer_Channel@2@KPAGAAVBTBuffer@2@@Z @ 2318
?rfAckQuestList@BTSocket_Channel@BatteryNetlib@@QAEHPAVBTPeer_Channel@2@AAVBTBuffer@2@11@Z @ 2319
?rfAckQuestListEnd@BTSocket_Channel@BatteryNetlib@@QAEHPAVBTPeer_Channel@2@@Z @ 2320
?rfAckQuestListStart@BTSocket_Channel@BatteryNetlib@@QAEHPAVBTPeer_Channel@2@KPAG@Z @ 2321
?rfAckQuestUpdate@BTSocket_Channel@BatteryNetlib@@QAEHPAVBTPeer_Channel@2@KPAG@Z @ 2322
?rfAckQuitDedicateHost@BTSocket_Process2Agent@BatteryNetlib@@QAEHPAVBTPeer_Process2Agent@2@KKKKK@Z @ 2323
?rfAckRandomBox_Use@BTSocket_Channel@BatteryNetlib@@QAEHPAVBTPeer_Channel@2@KPAGNKAAVBTBuffer@2@2222222@Z @ 2324
?rfAckReadMemo@BTSocket_Channel@BatteryNetlib@@QAEHPAVBTPeer_Channel@2@PAG11N@Z @ 2325
?rfAckRecvClanInvite@BTSocket_Channel@BatteryNetlib@@QAEHPAVBTPeer_Channel@2@KPAG11E@Z @ 2326
?rfAckRecvClanInviteResult@BTSocket_Channel@BatteryNetlib@@QAEHPAVBTPeer_Channel@2@KPAG@Z @ 2327
?rfAckRecvInviteGameRoom@BTSocket_Channel@BatteryNetlib@@QAEHPAVBTPeer_Channel@2@PAGGE1@Z @ 2328
?rfAckRecvInviteGameRoomResult@BTSocket_Channel@BatteryNetlib@@QAEHPAVBTPeer_Channel@2@K@Z @ 2329
?rfAckRecvJoinClan@BTSocket_Channel@BatteryNetlib@@QAEHPAVBTPeer_Channel@2@KPAG1E@Z @ 2330
?rfAckRecvJoinClanResult@BTSocket_Channel@BatteryNetlib@@QAEHPAVBTPeer_Channel@2@KPAG@Z @ 2331
?rfAckRecvSystemMsg@BTSocket_Channel@BatteryNetlib@@QAEHPAVBTPeer_Channel@2@EKPAGGGGKK@Z @ 2332
?rfAckRegisterMainPCBang@BTSocket_Channel@BatteryNetlib@@QAEHPAVBTPeer_Channel@2@KPAG@Z @ 2333
?rfAckRegisterMainPCBang@BTSocket_Login@BatteryNetlib@@QAEHPAVBTPeer_Login@2@KPAG@Z @ 2334
?rfAckRegisterMyUdpInfo@BTSocket_Channel@BatteryNetlib@@QAEHPAVBTPeer_Channel@2@KPAG@Z @ 2335
?rfAckRegisterOtherUdpInfo@BTSocket_Channel@BatteryNetlib@@QAEHPAVBTPeer_Channel@2@KPAGKEE1K@Z @ 2336
?rfAckRegisteredPCBangInfo@BTSocket_Channel@BatteryNetlib@@QAEHPAVBTPeer_Channel@2@KPAGEE1@Z @ 2337
?rfAckRegisteredPCBangInfo@BTSocket_Login@BatteryNetlib@@QAEHPAVBTPeer_Login@2@KPAGEE1@Z @ 2338
?rfAckRemoveBlockUserList@BTSocket_Channel@BatteryNetlib@@QAEHPAVBTPeer_Channel@2@KPAG@Z @ 2339
?rfAckRepairCost@BTSocket_Channel@BatteryNetlib@@QAEHPAVBTPeer_Channel@2@KPAGAAVBTBuffer@2@2@Z @ 2340
?rfAckRepairItem@BTSocket_Channel@BatteryNetlib@@QAEHPAVBTPeer_Channel@2@KPAGAAVBTBuffer@2@K2@Z @ 2341
?rfAckReturnBotID@BTSocket_Channel@BatteryNetlib@@QAEHPAVBTPeer_Channel@2@K@Z @ 2342
?rfAckRoomList@BTSocket_Channel@BatteryNetlib@@QAEHPAVBTPeer_Channel@2@AAVBTBuffer@2@11111111111111111@Z @ 2343
?rfAckRoomListEnd@BTSocket_Channel@BatteryNetlib@@QAEHPAVBTPeer_Channel@2@@Z @ 2344
?rfAckRoomListStart@BTSocket_Channel@BatteryNetlib@@QAEHPAVBTPeer_Channel@2@KKKK@Z @ 2345
?rfAckRoomUserList@BTSocket_Channel@BatteryNetlib@@QAEHPAVBTPeer_Channel@2@AAVBTBuffer@2@111111111111111111@Z @ 2346
?rfAckRoomUserPingInfo@BTSocket_Channel@BatteryNetlib@@QAEHPAVBTPeer_Channel@2@AAVBTBuffer@2@1K@Z @ 2347
?rfAckSearchClan@BTSocket_Channel@BatteryNetlib@@QAEHPAVBTPeer_Channel@2@KPAGGAAVBTBuffer@2@2222222222222@Z @ 2348
?rfAckSelectMap@BTSocket_Channel@BatteryNetlib@@QAEHPAVBTPeer_Channel@2@GKPAGK1@Z @ 2349
?rfAckSellShopItem@BTSocket_Channel@BatteryNetlib@@QAEHPAVBTPeer_Channel@2@KPAGKKK@Z @ 2350
?rfAckSellShopItemInfo@BTSocket_Channel@BatteryNetlib@@QAEHPAVBTPeer_Channel@2@KPAGNKKK@Z @ 2351
?rfAckSendFriendInvite@BTSocket_Channel@BatteryNetlib@@QAEHPAVBTPeer_Channel@2@KPAG@Z @ 2352
?rfAckSendGift@BTSocket_Channel@BatteryNetlib@@QAEHPAVBTPeer_Channel@2@KPAGKK@Z @ 2353
?rfAckSendMemo@BTSocket_Channel@BatteryNetlib@@QAEHPAVBTPeer_Channel@2@AAVBTBuffer@2@1@Z @ 2354
?rfAckSendSystemMsg@BTSocket_Channel@BatteryNetlib@@QAEHPAVBTPeer_Channel@2@K@Z @ 2355
?rfAckServerList@BTSocket_Login@BatteryNetlib@@QAEHPAVBTPeer_Login@2@AAVBTBuffer@2@11111111111111111111111@Z @ 2356
?rfAckServerShutdown@BTSocket_Channel@BatteryNetlib@@QAEHPAVBTPeer_Channel@2@KPAG@Z @ 2357
?rfAckServerTime@BTSocket_Channel@BatteryNetlib@@QAEHPAVBTPeer_Channel@2@K@Z @ 2358
?rfAckServerTime@BTSocket_Login@BatteryNetlib@@QAEHPAVBTPeer_Login@2@K@Z @ 2359
?rfAckServerType@BTSocket_Channel@BatteryNetlib@@QAEHPAVBTPeer_Channel@2@E@Z @ 2360
?rfAckSetCommunityOption@BTSocket_Channel@BatteryNetlib@@QAEHPAVBTPeer_Channel@2@KPAG@Z @ 2361
?rfAckSetLookForClan@BTSocket_Channel@BatteryNetlib@@QAEHPAVBTPeer_Channel@2@KPAGE@Z @ 2362
?rfAckSetUserBootySeedValue@BTSocket_Channel@BatteryNetlib@@QAEHPAVBTPeer_Channel@2@KKPAG@Z @ 2363
?rfAckShopItemData@BTSocket_Channel@BatteryNetlib@@QAEHPAVBTPeer_Channel@2@@Z @ 2364
?rfAckShopItemList@BTSocket_Channel@BatteryNetlib@@QAEHPAVBTPeer_Channel@2@AAVBTBuffer@2@@Z @ 2365
?rfAckShopItemListEnd@BTSocket_Channel@BatteryNetlib@@QAEHPAVBTPeer_Channel@2@@Z @ 2366
?rfAckShopItemListStart@BTSocket_Channel@BatteryNetlib@@QAEHPAVBTPeer_Channel@2@K@Z @ 2367
?rfAckSpecificChannelUserInfo@BTSocket_Channel@BatteryNetlib@@QAEHPAVBTPeer_Channel@2@KPAGK1KKKK1KKKKK@Z @ 2368
?rfAckSpecificGameRoomInfo@BTSocket_Channel@BatteryNetlib@@QAEHPAVBTPeer_Channel@2@KKPAG1KEE1KEEE1K1EE@Z @ 2369
?rfAckStartDedicateHost@BTSocket_Process2Agent@BatteryNetlib@@QAEHPAVBTPeer_Process2Agent@2@KKKKK@Z @ 2370
?rfAckStartGame@BTSocket_Channel@BatteryNetlib@@QAEHPAVBTPeer_Channel@2@GGKKPAG@Z @ 2371
?rfAckStartHolePunching@BTSocket_Channel@BatteryNetlib@@QAEHPAVBTPeer_Channel@2@KPAGKK@Z @ 2372
?rfAckStartMemoList@BTSocket_Channel@BatteryNetlib@@QAEHPAVBTPeer_Channel@2@KPAGEK@Z @ 2373
?rfAckStartNatDiag@BTSocket_Channel@BatteryNetlib@@QAEHPAVBTPeer_Channel@2@K@Z @ 2374
?rfAckSuccessStartGame@BTSocket_Channel@BatteryNetlib@@QAEHPAVBTPeer_Channel@2@KPAGE1KK@Z @ 2375
?rfAckTencent_AASInfo@BTSocket_Channel@BatteryNetlib@@QAEHPAVBTPeer_Channel@2@KEEK@Z @ 2376
?rfAckTencent_AASInfo@BTSocket_Login@BatteryNetlib@@QAEHPAVBTPeer_Login@2@KEEK@Z @ 2377
?rfAckTencent_StartTenProtect@BTSocket_Channel@BatteryNetlib@@QAEHPAVBTPeer_Channel@2@K@Z @ 2378
?rfAckTestDouble@BTSocket_Channel@BatteryNetlib@@QAEHPAVBTPeer_Channel@2@NAAVBTBuffer@2@@Z @ 2379
?rfAckUpdateQSlot@BTSocket_Channel@BatteryNetlib@@QAEHPAVBTPeer_Channel@2@KPAG@Z @ 2380
?rfAckUpdateScore@BTSocket_Channel@BatteryNetlib@@QAEHPAVBTPeer_Channel@2@AAVBTBuffer@2@1111111111111@Z @ 2381
?rfAckUpdateScoreResult@BTSocket_Channel@BatteryNetlib@@QAEHPAVBTPeer_Channel@2@KPAG@Z @ 2382
?rfAckUpdateWeaponDurability@BTSocket_Channel@BatteryNetlib@@QAEHPAVBTPeer_Channel@2@KPAGAAVBTBuffer@2@222@Z @ 2383
?rfAckUserDetailInfo@BTSocket_Login@BatteryNetlib@@QAEHPAVBTPeer_Login@2@KPAG1KKKKKKKKKK@Z @ 2384
?rfAckUserSkillList@BTSocket_Channel@BatteryNetlib@@QAEHPAVBTPeer_Channel@2@AAVBTBuffer@2@111@Z @ 2385
?rfAckUserSkillListEnd@BTSocket_Channel@BatteryNetlib@@QAEHPAVBTPeer_Channel@2@@Z @ 2386
?rfAckUserSkillListStart@BTSocket_Channel@BatteryNetlib@@QAEHPAVBTPeer_Channel@2@KKPAG@Z @ 2387
?rfAckWebzenBillingStorageList@BTSocket_Channel@BatteryNetlib@@QAEHPAVBTPeer_Channel@2@AAVBTBuffer@2@111111111111@Z @ 2388
?rfAckWebzenBillingStorageListEnd@BTSocket_Channel@BatteryNetlib@@QAEHPAVBTPeer_Channel@2@@Z @ 2389
?rfAckWebzenBillingStorageListStart@BTSocket_Channel@BatteryNetlib@@QAEHPAVBTPeer_Channel@2@KPAGKKK@Z @ 2390
?rfAckWebzenBillingUseStorageItem@BTSocket_Channel@BatteryNetlib@@QAEHPAVBTPeer_Channel@2@KPAGNKN@Z @ 2391
?rfAckWebzenCash@BTSocket_Channel@BatteryNetlib@@QAEHPAVBTPeer_Channel@2@KPAGNN@Z @ 2392
?rfAckWebzenShopScriptVersion@BTSocket_Channel@BatteryNetlib@@QAEHPAVBTPeer_Channel@2@KKK@Z @ 2393
?rfNotifyClanLevelup@BTSocket_Channel@BatteryNetlib@@QAEHPAVBTPeer_Channel@2@PAGK@Z @ 2394
?rfNotifyCouponUseError@BTSocket_Channel@BatteryNetlib@@QAEHPAVBTPeer_Channel@2@K@Z @ 2395
?rfNotifyNewClanName@BTSocket_Channel@BatteryNetlib@@QAEHPAVBTPeer_Channel@2@PAG@Z @ 2396
?rfNotifyNewNickName@BTSocket_Channel@BatteryNetlib@@QAEHPAVBTPeer_Channel@2@KPAG1@Z @ 2397
?rfReqAccesItemTypeList@BTSocket_Login@BatteryNetlib@@QAEHPAVBTPeer_Login@2@@Z @ 2398
?rfReqAddBlockUserList@BTSocket_Channel@BatteryNetlib@@QAEHPAVBTPeer_Channel@2@PAG@Z @ 2399
?rfReqAdjustClanMemberGrade@BTSocket_Channel@BatteryNetlib@@QAEHPAVBTPeer_Channel@2@PAG1E@Z @ 2400
?rfReqAdvertisement@BTSocket_Login@BatteryNetlib@@QAEHPAVBTPeer_Login@2@@Z @ 2401
?rfReqAhnHsObject@BTSocket_Channel@BatteryNetlib@@QAEHPAVBTPeer_Channel@2@AAVBTBuffer@2@K@Z @ 2402
?rfReqAhnNotifyDisconnct@BTSocket_Channel@BatteryNetlib@@QAEHPAVBTPeer_Channel@2@K@Z @ 2403
?rfReqAuctionBidding@BTSocket_Channel@BatteryNetlib@@QAEHPAVBTPeer_Channel@2@KK@Z @ 2404
?rfReqAuctionInstantlyBuying@BTSocket_Channel@BatteryNetlib@@QAEHPAVBTPeer_Channel@2@K@Z @ 2405
?rfReqAuctionItemList@BTSocket_Channel@BatteryNetlib@@QAEHPAVBTPeer_Channel@2@EPAGKEEKKK@Z @ 2406
?rfReqAuctionItemListCount@BTSocket_Channel@BatteryNetlib@@QAEHPAVBTPeer_Channel@2@EEKK@Z @ 2407
?rfReqAuctionMyItemCancel@BTSocket_Channel@BatteryNetlib@@QAEHPAVBTPeer_Channel@2@K@Z @ 2408
?rfReqAuctionMyItemRegister@BTSocket_Channel@BatteryNetlib@@QAEHPAVBTPeer_Channel@2@NKKKK@Z @ 2409
?rfReqAuctionTradeHistory@BTSocket_Channel@BatteryNetlib@@QAEHPAVBTPeer_Channel@2@KK@Z @ 2410
?rfReqBanUser@BTSocket_Channel@BatteryNetlib@@QAEHPAVBTPeer_Channel@2@GKK@Z @ 2411
?rfReqBlockUserList@BTSocket_Channel@BatteryNetlib@@QAEHPAVBTPeer_Channel@2@@Z @ 2412
?rfReqBuyItemByWebzenCash@BTSocket_Channel@BatteryNetlib@@QAEHPAVBTPeer_Channel@2@KKKAAVBTBuffer@2@NEE@Z @ 2413
?rfReqBuyItemByWebzenCashGP20@BTSocket_Channel@BatteryNetlib@@QAEHPAVBTPeer_Channel@2@KEN@Z @ 2414
?rfReqBuyShopItem@BTSocket_Channel@BatteryNetlib@@QAEHPAVBTPeer_Channel@2@KNEE@Z @ 2415
?rfReqChangeGameMode@BTSocket_Channel@BatteryNetlib@@QAEHPAVBTPeer_Channel@2@GKPAGE@Z @ 2416
?rfReqChangeRoomMaxNum@BTSocket_Channel@BatteryNetlib@@QAEHPAVBTPeer_Channel@2@GKGG@Z @ 2417
?rfReqChangeRoomOwner@BTSocket_Channel@BatteryNetlib@@QAEHPAVBTPeer_Channel@2@GKK@Z @ 2418
?rfReqChangeRoomSetting@BTSocket_Channel@BatteryNetlib@@QAEHPAVBTPeer_Channel@2@KPAG11EEEEKKE1EEEEEEEEEEEE1EEEEEEE@Z @ 2419
?rfReqChangeRoomTitle_GM@BTSocket_Channel@BatteryNetlib@@QAEHPAVBTPeer_Channel@2@GPAG@Z @ 2420
?rfReqChangeTeam@BTSocket_Channel@BatteryNetlib@@QAEHPAVBTPeer_Channel@2@G@Z @ 2421
?rfReqChangeUserState@BTSocket_Channel@BatteryNetlib@@QAEHPAVBTPeer_Channel@2@EE@Z @ 2422
?rfReqChannelList@BTSocket_Channel@BatteryNetlib@@QAEHPAVBTPeer_Channel@2@G@Z @ 2423
?rfReqChannelUserList@BTSocket_Channel@BatteryNetlib@@QAEHPAVBTPeer_Channel@2@GGG@Z @ 2424
?rfReqChannelUserListInGameRoom@BTSocket_Channel@BatteryNetlib@@QAEHPAVBTPeer_Channel@2@GGG@Z @ 2425
?rfReqCharBlockInfo@BTSocket_Channel@BatteryNetlib@@QAEHPAVBTPeer_Channel@2@@Z @ 2426
?rfReqCharDetailInfo@BTSocket_Channel@BatteryNetlib@@QAEHPAVBTPeer_Channel@2@@Z @ 2427
?rfReqCharInfo@BTSocket_Channel@BatteryNetlib@@QAEHPAVBTPeer_Channel@2@@Z @ 2428
?rfReqCharInfo@BTSocket_Login@BatteryNetlib@@QAEHPAVBTPeer_Login@2@PAG@Z @ 2429
?rfReqChatClan@BTSocket_Channel@BatteryNetlib@@QAEHPAVBTPeer_Channel@2@PAG@Z @ 2430
?rfReqChatNormal@BTSocket_Channel@BatteryNetlib@@QAEHPAVBTPeer_Channel@2@PAG@Z @ 2431
?rfReqChatWispher@BTSocket_Channel@BatteryNetlib@@QAEHPAVBTPeer_Channel@2@PAG1@Z @ 2432
?rfReqChatWispherMyCommunity@BTSocket_Channel@BatteryNetlib@@QAEHPAVBTPeer_Channel@2@PAG11@Z @ 2433
?rfReqCheckEquipedWeaponDurability@BTSocket_Channel@BatteryNetlib@@QAEHPAVBTPeer_Channel@2@@Z @ 2434
?rfReqClanChangeInfo@BTSocket_Channel@BatteryNetlib@@QAEHPAVBTPeer_Channel@2@PAGEE111@Z @ 2435
?rfReqClanCharPersonelIntro@BTSocket_Channel@BatteryNetlib@@QAEHPAVBTPeer_Channel@2@PAG1@Z @ 2436
?rfReqClanClose@BTSocket_Channel@BatteryNetlib@@QAEHPAVBTPeer_Channel@2@PAG@Z @ 2437
?rfReqClanInfo@BTSocket_Channel@BatteryNetlib@@QAEHPAVBTPeer_Channel@2@PAG@Z @ 2438
?rfReqClanMatchResultHistory@BTSocket_Channel@BatteryNetlib@@QAEHPAVBTPeer_Channel@2@PAG@Z @ 2439
?rfReqClanMatch_ChangeLeader@BTSocket_Channel@BatteryNetlib@@QAEHPAVBTPeer_Channel@2@KKPAG@Z @ 2440
?rfReqClanMatch_ChangeRoomSetting@BTSocket_Channel@BatteryNetlib@@QAEHPAVBTPeer_Channel@2@KAAVBTBuffer@2@KE@Z @ 2441
?rfReqClanMatch_Chat@BTSocket_Channel@BatteryNetlib@@QAEHPAVBTPeer_Channel@2@PAG@Z @ 2442
?rfReqClanMatch_FoundMatch@BTSocket_Channel@BatteryNetlib@@QAEHPAVBTPeer_Channel@2@KK@Z @ 2443
?rfReqClanMatch_GetClanWaittingRoomInfo@BTSocket_Channel@BatteryNetlib@@QAEHPAVBTPeer_Channel@2@@Z @ 2444
?rfReqClanMatch_GetPublicWaitRoomList@BTSocket_Channel@BatteryNetlib@@QAEHPAVBTPeer_Channel@2@@Z @ 2445
?rfReqClanMatch_GetReady@BTSocket_Channel@BatteryNetlib@@QAEHPAVBTPeer_Channel@2@@Z @ 2446
?rfReqClanMatch_InviteCrew@BTSocket_Channel@BatteryNetlib@@QAEHPAVBTPeer_Channel@2@PAG@Z @ 2447
?rfReqClanMatch_InviteCrewResult@BTSocket_Channel@BatteryNetlib@@QAEHPAVBTPeer_Channel@2@PAGK@Z @ 2448
?rfReqClanMatch_Join@BTSocket_Channel@BatteryNetlib@@QAEHPAVBTPeer_Channel@2@K@Z @ 2449
?rfReqClanMatch_Leave@BTSocket_Channel@BatteryNetlib@@QAEHPAVBTPeer_Channel@2@K@Z @ 2450
?rfReqClanMatch_MemberList@BTSocket_Channel@BatteryNetlib@@QAEHPAVBTPeer_Channel@2@@Z @ 2451
?rfReqClanMatch_RecvInviteCrew@BTSocket_Channel@BatteryNetlib@@QAEHPAVBTPeer_Channel@2@PAG1KK1KK11@Z @ 2452
?rfReqClanMatch_SetWaitRoomPublic@BTSocket_Channel@BatteryNetlib@@QAEHPAVBTPeer_Channel@2@E@Z @ 2453
?rfReqClanMatch_StartCombat@BTSocket_Channel@BatteryNetlib@@QAEHPAVBTPeer_Channel@2@AAVBTBuffer@2@K@Z @ 2454
?rfReqClanMatch_StartSearching@BTSocket_Channel@BatteryNetlib@@QAEHPAVBTPeer_Channel@2@K@Z @ 2455
?rfReqClanMatch_StopSearching@BTSocket_Channel@BatteryNetlib@@QAEHPAVBTPeer_Channel@2@@Z @ 2456
?rfReqClanMatch_WaittingTeamList@BTSocket_Channel@BatteryNetlib@@QAEHPAVBTPeer_Channel@2@KK@Z @ 2457
?rfReqClanMemberListFromClient@BTSocket_Login@BatteryNetlib@@QAEHPAVBTPeer_Login@2@@Z @ 2458
?rfReqClanNews@BTSocket_Channel@BatteryNetlib@@QAEHPAVBTPeer_Channel@2@PAG@Z @ 2459
?rfReqClanPersonelIntro@BTSocket_Channel@BatteryNetlib@@QAEHPAVBTPeer_Channel@2@PAG11@Z @ 2460
?rfReqClanSecession@BTSocket_Channel@BatteryNetlib@@QAEHPAVBTPeer_Channel@2@PAG@Z @ 2461
?rfReqClanUserList@BTSocket_Channel@BatteryNetlib@@QAEHPAVBTPeer_Channel@2@PAG@Z @ 2462
?rfReqClientChallenge@BTSocket_Login@BatteryNetlib@@QAEHPAVBTPeer_Login@2@@Z @ 2463
?rfReqClientChecksum@BTSocket_Login@BatteryNetlib@@QAEHPAVBTPeer_Login@2@PAGN@Z @ 2464
?rfReqClientUdpInfoList@BTSocket_Channel@BatteryNetlib@@QAEHPAVBTPeer_Channel@2@G@Z @ 2465
?rfReqCommunityOptionList@BTSocket_Channel@BatteryNetlib@@QAEHPAVBTPeer_Channel@2@@Z @ 2466
?rfReqCompleteFriendInvite@BTSocket_Channel@BatteryNetlib@@QAEHPAVBTPeer_Channel@2@PAGE@Z @ 2467
?rfReqConfirmFriendInvite@BTSocket_Channel@BatteryNetlib@@QAEHPAVBTPeer_Channel@2@KPAGE@Z @ 2468
?rfReqConfirmItemChanged@BTSocket_Channel@BatteryNetlib@@QAEHPAVBTPeer_Channel@2@@Z @ 2469
?rfReqConfirmSkillChanged@BTSocket_Channel@BatteryNetlib@@QAEHPAVBTPeer_Channel@2@@Z @ 2470
?rfReqConnectChannelServer@BTSocket_Login@BatteryNetlib@@QAEHPAVBTPeer_Login@2@PAGK@Z @ 2471
?rfReqConnectGame@BTSocket_Channel@BatteryNetlib@@QAEHPAVBTPeer_Channel@2@@Z @ 2472
?rfReqCouponUse@BTSocket_Channel@BatteryNetlib@@QAEHPAVBTPeer_Channel@2@PAG@Z @ 2473
?rfReqCreateChar@BTSocket_Login@BatteryNetlib@@QAEHPAVBTPeer_Login@2@PAGKKK@Z @ 2474
?rfReqCreateClan@BTSocket_Channel@BatteryNetlib@@QAEHPAVBTPeer_Channel@2@PAG111E@Z @ 2475
?rfReqCreateGameRoom@BTSocket_Channel@BatteryNetlib@@QAEHPAVBTPeer_Channel@2@KPAG11EEEEKKE1EEEEEEEEEEEE1EEEEEEE@Z @ 2476
?rfReqDBCharInfo@BTSocket_Channel@BatteryNetlib@@QAEHPAVBTPeer_Channel@2@PAG@Z @ 2477
?rfReqDailyQuestNewAvailable@BTSocket_Channel@BatteryNetlib@@QAEHPAVBTPeer_Channel@2@AAVBTBuffer@2@1@Z @ 2478
?rfReqDedicateHost_Login@BTSocket_Channel@BatteryNetlib@@QAEHPAVBTPeer_Channel@2@KKK@Z @ 2479
?rfReqDelMemo@BTSocket_Channel@BatteryNetlib@@QAEHPAVBTPeer_Channel@2@AAVBTBuffer@2@E@Z @ 2480
?rfReqDeleteFriend@BTSocket_Channel@BatteryNetlib@@QAEHPAVBTPeer_Channel@2@AAVBTBuffer@2@@Z @ 2481
?rfReqDeleteMailAll@BTSocket_Channel@BatteryNetlib@@QAEHPAVBTPeer_Channel@2@E@Z @ 2482
?rfReqDisconnectGame@BTSocket_Channel@BatteryNetlib@@QAEHPAVBTPeer_Channel@2@@Z @ 2483
?rfReqDummy@BTSocket_Channel@BatteryNetlib@@QAEHPAVBTPeer_Channel@2@K@Z @ 2484
?rfReqDupCheckClanName@BTSocket_Channel@BatteryNetlib@@QAEHPAVBTPeer_Channel@2@PAG@Z @ 2485
?rfReqEnterChannel@BTSocket_Channel@BatteryNetlib@@QAEHPAVBTPeer_Channel@2@G@Z @ 2486
?rfReqEnterRoom@BTSocket_Channel@BatteryNetlib@@QAEHPAVBTPeer_Channel@2@GPAGE@Z @ 2487
?rfReqEntryItemList@BTSocket_Channel@BatteryNetlib@@QAEHPAVBTPeer_Channel@2@K@Z @ 2488
?rfReqEntryQSlotIDList@BTSocket_Channel@BatteryNetlib@@QAEHPAVBTPeer_Channel@2@K@Z @ 2489
?rfReqEntryQSlotUniqueIDList@BTSocket_Channel@BatteryNetlib@@QAEHPAVBTPeer_Channel@2@K@Z @ 2490
?rfReqEntrySkillList@BTSocket_Channel@BatteryNetlib@@QAEHPAVBTPeer_Channel@2@K@Z @ 2491
?rfReqEquipItem@BTSocket_Channel@BatteryNetlib@@QAEHPAVBTPeer_Channel@2@KNK@Z @ 2492
?rfReqEquipSkill@BTSocket_Channel@BatteryNetlib@@QAEHPAVBTPeer_Channel@2@KKE@Z @ 2493
?rfReqErrorReportServerAddr@BTSocket_Login@BatteryNetlib@@QAEHPAVBTPeer_Login@2@@Z @ 2494
?rfReqEventNotify@BTSocket_Channel@BatteryNetlib@@QAEHPAVBTPeer_Channel@2@@Z @ 2495
?rfReqEventNotify@BTSocket_Login@BatteryNetlib@@QAEHPAVBTPeer_Login@2@@Z @ 2496
?rfReqExteriorRoomInfo@BTSocket_Channel@BatteryNetlib@@QAEHPAVBTPeer_Channel@2@GKEPAG11KKEGGEEEE@Z @ 2497
?rfReqExteriorRoomOwnerInfo@BTSocket_Channel@BatteryNetlib@@QAEHPAVBTPeer_Channel@2@GPAG1@Z @ 2498
?rfReqExteriorRoomState@BTSocket_Channel@BatteryNetlib@@QAEHPAVBTPeer_Channel@2@KE@Z @ 2499
?rfReqExteriorRoomUserCount@BTSocket_Channel@BatteryNetlib@@QAEHPAVBTPeer_Channel@2@KG@Z @ 2500
?rfReqFailedStartGame@BTSocket_Channel@BatteryNetlib@@QAEHPAVBTPeer_Channel@2@K@Z @ 2501
?rfReqForceDisconnectUDPFromHost@BTSocket_Channel@BatteryNetlib@@QAEHPAVBTPeer_Channel@2@K@Z @ 2502
?rfReqForceDisconnectUser_GM@BTSocket_Channel@BatteryNetlib@@QAEHPAVBTPeer_Channel@2@PAG@Z @ 2503
?rfReqForceFailedClientLoading@BTSocket_Channel@BatteryNetlib@@QAEHPAVBTPeer_Channel@2@KK@Z @ 2504
?rfReqForceGameOver@BTSocket_Channel@BatteryNetlib@@QAEHPAVBTPeer_Channel@2@@Z @ 2505
?rfReqForceLogoutByOwner@BTSocket_Channel@BatteryNetlib@@QAEHPAVBTPeer_Channel@2@@Z @ 2506
?rfReqForceLogoutByOwner@BTSocket_Login@BatteryNetlib@@QAEHPAVBTPeer_Login@2@@Z @ 2507
?rfReqForceNatTypeSetting@BTSocket_Channel@BatteryNetlib@@QAEHPAVBTPeer_Channel@2@K@Z @ 2508
?rfReqFriendList@BTSocket_Channel@BatteryNetlib@@QAEHPAVBTPeer_Channel@2@@Z @ 2509
?rfReqFriendPosition@BTSocket_Channel@BatteryNetlib@@QAEHPAVBTPeer_Channel@2@PAGE@Z @ 2510
?rfReqFriendsList@BTSocket_Login@BatteryNetlib@@QAEHPAVBTPeer_Login@2@@Z @ 2511
?rfReqGameGuardAuthData@BTSocket_Channel@BatteryNetlib@@QAEHPAVBTPeer_Channel@2@KKKK@Z @ 2512
?rfReqGameHostInfo@BTSocket_Channel@BatteryNetlib@@QAEHPAVBTPeer_Channel@2@G@Z @ 2513
?rfReqGameMapData@BTSocket_Channel@BatteryNetlib@@QAEHPAVBTPeer_Channel@2@@Z @ 2514
?rfReqGameOver@BTSocket_Channel@BatteryNetlib@@QAEHPAVBTPeer_Channel@2@KG@Z @ 2515
?rfReqGameOverEnd@BTSocket_Channel@BatteryNetlib@@QAEHPAVBTPeer_Channel@2@@Z @ 2516
?rfReqGamePlay_ChangeWeaponSet@BTSocket_Channel@BatteryNetlib@@QAEHPAVBTPeer_Channel@2@KK@Z @ 2517
?rfReqGamePlay_DefuseBomb@BTSocket_Channel@BatteryNetlib@@QAEHPAVBTPeer_Channel@2@KEMMMKKKK@Z @ 2518
?rfReqGamePlay_GetChopper@BTSocket_Channel@BatteryNetlib@@QAEHPAVBTPeer_Channel@2@KAAVBTBuffer@2@MMMKKKKKKPAGMMM@Z @ 2519
?rfReqGamePlay_InstallBomb@BTSocket_Channel@BatteryNetlib@@QAEHPAVBTPeer_Channel@2@KEMMMKKKK@Z @ 2520
?rfReqGamePlay_SetGameStartTime@BTSocket_Channel@BatteryNetlib@@QAEHPAVBTPeer_Channel@2@AAVBTBuffer@2@@Z @ 2521
?rfReqGamePlay_SetRoundStartTime@BTSocket_Channel@BatteryNetlib@@QAEHPAVBTPeer_Channel@2@AAVBTBuffer@2@@Z @ 2522
?rfReqGamePlay_TakeAPoint@BTSocket_Channel@BatteryNetlib@@QAEHPAVBTPeer_Channel@2@AAVBTBuffer@2@E1111111@Z @ 2523
?rfReqGamePlay_UpdateDomScore@BTSocket_Channel@BatteryNetlib@@QAEHPAVBTPeer_Channel@2@KK@Z @ 2524
?rfReqGameRoomInfo@BTSocket_Channel@BatteryNetlib@@QAEHPAVBTPeer_Channel@2@GK@Z @ 2525
?rfReqGetAttachedItemFromMemo@BTSocket_Channel@BatteryNetlib@@QAEHPAVBTPeer_Channel@2@KKK@Z @ 2526
?rfReqGetBooty@BTSocket_Channel@BatteryNetlib@@QAEHPAVBTPeer_Channel@2@G@Z @ 2527
?rfReqGetBotID@BTSocket_Channel@BatteryNetlib@@QAEHPAVBTPeer_Channel@2@EE@Z @ 2528
?rfReqGetCharBlockInfo@BTSocket_Login@BatteryNetlib@@QAEHPAVBTPeer_Login@2@@Z @ 2529
?rfReqGetHolePunchingResult@BTSocket_Channel@BatteryNetlib@@QAEHPAVBTPeer_Channel@2@@Z @ 2530
?rfReqGetIsHostBlocking@BTSocket_Channel@BatteryNetlib@@QAEHPAVBTPeer_Channel@2@@Z @ 2531
?rfReqGetItemFromItemBox@BTSocket_Channel@BatteryNetlib@@QAEHPAVBTPeer_Channel@2@NKKK@Z @ 2532
?rfReqGetMyMailBoxState@BTSocket_Channel@BatteryNetlib@@QAEHPAVBTPeer_Channel@2@@Z @ 2533
?rfReqGetRankingInfoList@BTSocket_Channel@BatteryNetlib@@QAEHPAVBTPeer_Channel@2@EE@Z @ 2534
?rfReqGetServerTime@BTSocket_Channel@BatteryNetlib@@QAEHPAVBTPeer_Channel@2@@Z @ 2535
?rfReqGetUserHostPriorityPoint@BTSocket_Channel@BatteryNetlib@@QAEHPAVBTPeer_Channel@2@K@Z @ 2536
?rfReqGiftItemByWebzenCash@BTSocket_Channel@BatteryNetlib@@QAEHPAVBTPeer_Channel@2@PAG1KKK@Z @ 2537
?rfReqGiftItemByWebzenCashGP20@BTSocket_Channel@BatteryNetlib@@QAEHPAVBTPeer_Channel@2@PAG1KE@Z @ 2538
?rfReqGiveSkill@BTSocket_Channel@BatteryNetlib@@QAEHPAVBTPeer_Channel@2@@Z @ 2539
?rfReqHash@BTSocket_Channel@BatteryNetlib@@QAEHPAVBTPeer_Channel@2@KKKK@Z @ 2540
?rfReqHash@BTSocket_Login@BatteryNetlib@@QAEHPAVBTPeer_Login@2@KKKK@Z @ 2541
?rfReqHash@BTSocket_Process2Agent@BatteryNetlib@@QAEHPAVBTPeer_Process2Agent@2@KKKK@Z @ 2542
?rfReqHeadItemTypeList@BTSocket_Login@BatteryNetlib@@QAEHPAVBTPeer_Login@2@@Z @ 2543
?rfReqHelmetItemTypeList@BTSocket_Login@BatteryNetlib@@QAEHPAVBTPeer_Login@2@@Z @ 2544
?rfReqInGameRoomUserClanLevelChanged@BTSocket_Channel@BatteryNetlib@@QAEHPAVBTPeer_Channel@2@KK@Z @ 2545
?rfReqInGameRoomUserInfoChanged@BTSocket_Channel@BatteryNetlib@@QAEHPAVBTPeer_Channel@2@@Z @ 2546
?rfReqInviteClan@BTSocket_Channel@BatteryNetlib@@QAEHPAVBTPeer_Channel@2@PAG1@Z @ 2547
?rfReqInviteGameRoom@BTSocket_Channel@BatteryNetlib@@QAEHPAVBTPeer_Channel@2@PAG@Z @ 2548
?rfReqIsAvailClanURL@BTSocket_Channel@BatteryNetlib@@QAEHPAVBTPeer_Channel@2@PAG@Z @ 2549
?rfReqIsGameRoomPlaying@BTSocket_Channel@BatteryNetlib@@QAEHPAVBTPeer_Channel@2@G@Z @ 2550
?rfReqIsHostAvailable@BTSocket_Channel@BatteryNetlib@@QAEHPAVBTPeer_Channel@2@PAGGGGG@Z @ 2551
?rfReqIsPaidWebzenPCBang@BTSocket_Channel@BatteryNetlib@@QAEHPAVBTPeer_Channel@2@E@Z @ 2552
?rfReqItemList@BTSocket_Channel@BatteryNetlib@@QAEHPAVBTPeer_Channel@2@K@Z @ 2553
?rfReqItemListInItemBox@BTSocket_Channel@BatteryNetlib@@QAEHPAVBTPeer_Channel@2@NK@Z @ 2554
?rfReqJoinClan@BTSocket_Channel@BatteryNetlib@@QAEHPAVBTPeer_Channel@2@PAG11@Z @ 2555
?rfReqKeepAlive@BTSocket_Login@BatteryNetlib@@QAEHPAVBTPeer_Login@2@@Z @ 2556
?rfReqLeaveChannel@BTSocket_Channel@BatteryNetlib@@QAEHPAVBTPeer_Channel@2@G@Z @ 2557
?rfReqLeaveRoom@BTSocket_Channel@BatteryNetlib@@QAEHPAVBTPeer_Channel@2@G@Z @ 2558
?rfReqLimitedListInChannel@BTSocket_Channel@BatteryNetlib@@QAEHPAVBTPeer_Channel@2@@Z @ 2559
?rfReqLogEndEachRound@BTSocket_Channel@BatteryNetlib@@QAEHPAVBTPeer_Channel@2@KKKKEEKKK@Z @ 2560
?rfReqLogGetScore@BTSocket_Channel@BatteryNetlib@@QAEHPAVBTPeer_Channel@2@KMMMKKKKKEEKMMMKKKEKAAVBTBuffer@2@1@Z @ 2561
?rfReqLogOut@BTSocket_Channel@BatteryNetlib@@QAEHPAVBTPeer_Channel@2@E@Z @ 2562
?rfReqLogOut@BTSocket_Login@BatteryNetlib@@QAEHPAVBTPeer_Login@2@E@Z @ 2563
?rfReqLogin2@BTSocket_Channel@BatteryNetlib@@QAEHPAVBTPeer_Channel@2@PAGKKKKKK1K@Z @ 2564
?rfReqLogin@BTSocket_Channel@BatteryNetlib@@QAEHPAVBTPeer_Channel@2@PAG@Z @ 2565
?rfReqLogin@BTSocket_Login@BatteryNetlib@@QAEHPAVBTPeer_Login@2@PAG@Z @ 2566
?rfReqLogin@BTSocket_Process2Agent@BatteryNetlib@@QAEHPAVBTPeer_Process2Agent@2@KKAAVBTBuffer@2@111@Z @ 2567
?rfReqLoginInHouseTest@BTSocket_Login@BatteryNetlib@@QAEHPAVBTPeer_Login@2@PAG11@Z @ 2568
?rfReqLoginWithGlobal@BTSocket_Login@BatteryNetlib@@QAEHPAVBTPeer_Login@2@PAG11K@Z @ 2569
?rfReqLoginWithIndonesia@BTSocket_Login@BatteryNetlib@@QAEHPAVBTPeer_Login@2@PAG@Z @ 2570
?rfReqLoginWithTencentAuth@BTSocket_Login@BatteryNetlib@@QAEHPAVBTPeer_Login@2@PAGAAVBTBuffer@2@@Z @ 2571
?rfReqLoginWithThailand@BTSocket_Login@BatteryNetlib@@QAEHPAVBTPeer_Login@2@PAGKK11E@Z @ 2572
?rfReqLoginWithWZAuth@BTSocket_Login@BatteryNetlib@@QAEHPAVBTPeer_Login@2@PAG11@Z @ 2573
?rfReqMemoList@BTSocket_Channel@BatteryNetlib@@QAEHPAVBTPeer_Channel@2@EE@Z @ 2574
?rfReqModifyWeapon@BTSocket_Channel@BatteryNetlib@@QAEHPAVBTPeer_Channel@2@NKK@Z @ 2575
?rfReqMyEquipedItemList@BTSocket_Channel@BatteryNetlib@@QAEHPAVBTPeer_Channel@2@@Z @ 2576
?rfReqMyEquipedQSlotList@BTSocket_Channel@BatteryNetlib@@QAEHPAVBTPeer_Channel@2@@Z @ 2577
?rfReqMyEquipedSkillList@BTSocket_Channel@BatteryNetlib@@QAEHPAVBTPeer_Channel@2@@Z @ 2578
?rfReqMyMoney@BTSocket_Channel@BatteryNetlib@@QAEHPAVBTPeer_Channel@2@@Z @ 2579
?rfReqNotice_GM@BTSocket_Channel@BatteryNetlib@@QAEHPAVBTPeer_Channel@2@EKGGPAG@Z @ 2580
?rfReqNotifyChangeRoomState@BTSocket_Channel@BatteryNetlib@@QAEHPAVBTPeer_Channel@2@E@Z @ 2581
?rfReqNotifyChangedItemState@BTSocket_Channel@BatteryNetlib@@QAEHPAVBTPeer_Channel@2@@Z @ 2582
?rfReqNotifyChangedSkillState@BTSocket_Channel@BatteryNetlib@@QAEHPAVBTPeer_Channel@2@@Z @ 2583
?rfReqNotifyClientJoinTime@BTSocket_Channel@BatteryNetlib@@QAEHPAVBTPeer_Channel@2@K@Z @ 2584
?rfReqNotifyDisconnectHostInLoading@BTSocket_Channel@BatteryNetlib@@QAEHPAVBTPeer_Channel@2@KPAGK@Z @ 2585
?rfReqNotifyDurabilityZeroItem@BTSocket_Channel@BatteryNetlib@@QAEHPAVBTPeer_Channel@2@KPAGKAAVBTBuffer@2@222@Z @ 2586
?rfReqNotifyEndTutorial@BTSocket_Channel@BatteryNetlib@@QAEHPAVBTPeer_Channel@2@K@Z @ 2587
?rfReqNotifyExpiredItemIDs@BTSocket_Channel@BatteryNetlib@@QAEHPAVBTPeer_Channel@2@@Z @ 2588
?rfReqNotifyExpiredSkillIDs@BTSocket_Channel@BatteryNetlib@@QAEHPAVBTPeer_Channel@2@@Z @ 2589
?rfReqNotifyHostBlocking@BTSocket_Channel@BatteryNetlib@@QAEHPAVBTPeer_Channel@2@E@Z @ 2590
?rfReqNotifyLevelUp@BTSocket_Channel@BatteryNetlib@@QAEHPAVBTPeer_Channel@2@KKKAAVBTBuffer@2@1@Z @ 2591
?rfReqNotifyLoadingState@BTSocket_Channel@BatteryNetlib@@QAEHPAVBTPeer_Channel@2@E@Z @ 2592
?rfReqNotifyLoadingStatus@BTSocket_Channel@BatteryNetlib@@QAEHPAVBTPeer_Channel@2@K@Z @ 2593
?rfReqNotifyMyCharInfoToRoomUser@BTSocket_Channel@BatteryNetlib@@QAEHPAVBTPeer_Channel@2@@Z @ 2594
?rfReqNotifyRecvDummyForHolePunching@BTSocket_Channel@BatteryNetlib@@QAEHPAVBTPeer_Channel@2@KE@Z @ 2595
?rfReqNotifyRelayServerAddr@BTSocket_Channel@BatteryNetlib@@QAEHPAVBTPeer_Channel@2@PAGK@Z @ 2596
?rfReqNotifyShopItemData@BTSocket_Channel@BatteryNetlib@@QAEHPAVBTPeer_Channel@2@AAVBTBuffer@2@1111111111111111111111111111@Z @ 2597
?rfReqNotifyShopItemDataEnd@BTSocket_Channel@BatteryNetlib@@QAEHPAVBTPeer_Channel@2@K@Z @ 2598
?rfReqNotifyStartTutorial@BTSocket_Channel@BatteryNetlib@@QAEHPAVBTPeer_Channel@2@@Z @ 2599
?rfReqPCBangUserList@BTSocket_Channel@BatteryNetlib@@QAEHPAVBTPeer_Channel@2@@Z @ 2600
?rfReqPCBangUserList@BTSocket_Login@BatteryNetlib@@QAEHPAVBTPeer_Login@2@@Z @ 2601
?rfReqPaidItem_BroadCast@BTSocket_Channel@BatteryNetlib@@QAEHPAVBTPeer_Channel@2@NKPAG@Z @ 2602
?rfReqPaidItem_ChangeCharname@BTSocket_Channel@BatteryNetlib@@QAEHPAVBTPeer_Channel@2@NPAG@Z @ 2603
?rfReqPaidItem_ChangeClanMark@BTSocket_Channel@BatteryNetlib@@QAEHPAVBTPeer_Channel@2@NEKKK@Z @ 2604
?rfReqPaidItem_ChangeClanname@BTSocket_Channel@BatteryNetlib@@QAEHPAVBTPeer_Channel@2@NPAG@Z @ 2605
?rfReqPaidItem_ClanMarkDupCheck@BTSocket_Channel@BatteryNetlib@@QAEHPAVBTPeer_Channel@2@EKKK@Z @ 2606
?rfReqPaidItem_EraseRecord@BTSocket_Channel@BatteryNetlib@@QAEHPAVBTPeer_Channel@2@NK@Z @ 2607
?rfReqParamCheckSum@BTSocket_Channel@BatteryNetlib@@QAEHPAVBTPeer_Channel@2@PAG1@Z @ 2608
?rfReqPermanentRoomInfo@BTSocket_Channel@BatteryNetlib@@QAEHPAVBTPeer_Channel@2@K@Z @ 2609
?rfReqProcessExcuteCmd@BTSocket_Process2Agent@BatteryNetlib@@QAEHPAVBTPeer_Process2Agent@2@KKPAG@Z @ 2610
?rfReqProcessPreLoginUser@BTSocket_Login@BatteryNetlib@@QAEHPAVBTPeer_Login@2@PAGE@Z @ 2611
?rfReqQSlotList@BTSocket_Channel@BatteryNetlib@@QAEHPAVBTPeer_Channel@2@@Z @ 2612
?rfReqQuestGetAvailableEventList@BTSocket_Channel@BatteryNetlib@@QAEHPAVBTPeer_Channel@2@@Z @ 2613
?rfReqQuestList@BTSocket_Channel@BatteryNetlib@@QAEHPAVBTPeer_Channel@2@@Z @ 2614
?rfReqQuestNewAvailable@BTSocket_Channel@BatteryNetlib@@QAEHPAVBTPeer_Channel@2@AAVBTBuffer@2@111@Z @ 2615
?rfReqQuestUpdate@BTSocket_Channel@BatteryNetlib@@QAEHPAVBTPeer_Channel@2@KKAAVBTBuffer@2@1@Z @ 2616
?rfReqQuitDedicateHost@BTSocket_Process2Agent@BatteryNetlib@@QAEHPAVBTPeer_Process2Agent@2@KKK@Z @ 2617
?rfReqRandomBox_Use@BTSocket_Channel@BatteryNetlib@@QAEHPAVBTPeer_Channel@2@N@Z @ 2618
?rfReqReadMemo@BTSocket_Channel@BatteryNetlib@@QAEHPAVBTPeer_Channel@2@K@Z @ 2619
?rfReqRecvChatWispher@BTSocket_Channel@BatteryNetlib@@QAEHPAVBTPeer_Channel@2@PAG1@Z @ 2620
?rfReqRecvClanInvite@BTSocket_Channel@BatteryNetlib@@QAEHPAVBTPeer_Channel@2@KPAG11@Z @ 2621
?rfReqRecvDeleteFriend@BTSocket_Channel@BatteryNetlib@@QAEHPAVBTPeer_Channel@2@KPAG@Z @ 2622
?rfReqRecvForceDisconnectUDPFromHost@BTSocket_Channel@BatteryNetlib@@QAEHPAVBTPeer_Channel@2@K@Z @ 2623
?rfReqRecvForceDisconnected_FromGM@BTSocket_Channel@BatteryNetlib@@QAEHPAVBTPeer_Channel@2@KPAG@Z @ 2624
?rfReqRecvForceFailedClientLoading@BTSocket_Channel@BatteryNetlib@@QAEHPAVBTPeer_Channel@2@K@Z @ 2625
?rfReqRecvFriendInvite@BTSocket_Channel@BatteryNetlib@@QAEHPAVBTPeer_Channel@2@KPAG1@Z @ 2626
?rfReqRecvInviteGameRoom@BTSocket_Channel@BatteryNetlib@@QAEHPAVBTPeer_Channel@2@PAGKG1G1E11EEE11@Z @ 2627
?rfReqRecvJoinClan@BTSocket_Channel@BatteryNetlib@@QAEHPAVBTPeer_Channel@2@KPAG1@Z @ 2628
?rfReqRecvMemo@BTSocket_Channel@BatteryNetlib@@QAEHPAVBTPeer_Channel@2@PAGE@Z @ 2629
?rfReqRecvNotice_FromGM@BTSocket_Channel@BatteryNetlib@@QAEHPAVBTPeer_Channel@2@KPAGAAVBTBuffer@2@E@Z @ 2630
?rfReqRegisterMainPCBang@BTSocket_Channel@BatteryNetlib@@QAEHPAVBTPeer_Channel@2@@Z @ 2631
?rfReqRegisterMainPCBang@BTSocket_Login@BatteryNetlib@@QAEHPAVBTPeer_Login@2@@Z @ 2632
?rfReqRegisterMyUdpInfo@BTSocket_Channel@BatteryNetlib@@QAEHPAVBTPeer_Channel@2@EPAGKE1K@Z @ 2633
?rfReqRegisteredPCBangInfo@BTSocket_Channel@BatteryNetlib@@QAEHPAVBTPeer_Channel@2@@Z @ 2634
?rfReqRegisteredPCBangInfo@BTSocket_Login@BatteryNetlib@@QAEHPAVBTPeer_Login@2@@Z @ 2635
?rfReqRelayServerOff@BTSocket_Channel@BatteryNetlib@@QAEHPAVBTPeer_Channel@2@@Z @ 2636
?rfReqRelayServerOn@BTSocket_Channel@BatteryNetlib@@QAEHPAVBTPeer_Channel@2@PAGK@Z @ 2637
?rfReqRemoveBlockUserList@BTSocket_Channel@BatteryNetlib@@QAEHPAVBTPeer_Channel@2@PAG@Z @ 2638
?rfReqRemoveCheckTeamBalanceList@BTSocket_Channel@BatteryNetlib@@QAEHPAVBTPeer_Channel@2@@Z @ 2639
?rfReqRepairCost@BTSocket_Channel@BatteryNetlib@@QAEHPAVBTPeer_Channel@2@AAVBTBuffer@2@@Z @ 2640
?rfReqRepairItem@BTSocket_Channel@BatteryNetlib@@QAEHPAVBTPeer_Channel@2@AAVBTBuffer@2@@Z @ 2641
?rfReqReturnBotID@BTSocket_Channel@BatteryNetlib@@QAEHPAVBTPeer_Channel@2@AAVBTBuffer@2@@Z @ 2642
?rfReqRoomList@BTSocket_Channel@BatteryNetlib@@QAEHPAVBTPeer_Channel@2@GKG@Z @ 2643
?rfReqRoomUserList@BTSocket_Channel@BatteryNetlib@@QAEHPAVBTPeer_Channel@2@G@Z @ 2644
?rfReqRoomUserPingInfo@BTSocket_Channel@BatteryNetlib@@QAEHPAVBTPeer_Channel@2@AAVBTBuffer@2@1K@Z @ 2645
?rfReqSelectMap@BTSocket_Channel@BatteryNetlib@@QAEHPAVBTPeer_Channel@2@GKPAG@Z @ 2646
?rfReqSellShopItem@BTSocket_Channel@BatteryNetlib@@QAEHPAVBTPeer_Channel@2@NK@Z @ 2647
?rfReqSellShopItemInfo@BTSocket_Channel@BatteryNetlib@@QAEHPAVBTPeer_Channel@2@NK@Z @ 2648
?rfReqSendFriendInvite@BTSocket_Channel@BatteryNetlib@@QAEHPAVBTPeer_Channel@2@KPAG1@Z @ 2649
?rfReqSendGift@BTSocket_Channel@BatteryNetlib@@QAEHPAVBTPeer_Channel@2@KPAG1EE@Z @ 2650
?rfReqSendMemo@BTSocket_Channel@BatteryNetlib@@QAEHPAVBTPeer_Channel@2@AAVBTBuffer@2@PAGK@Z @ 2651
?rfReqSendSystemMsg@BTSocket_Channel@BatteryNetlib@@QAEHPAVBTPeer_Channel@2@EPAG1K1GGGKK@Z @ 2652
?rfReqSerachClan@BTSocket_Channel@BatteryNetlib@@QAEHPAVBTPeer_Channel@2@EPAGEEG@Z @ 2653
?rfReqServerList@BTSocket_Login@BatteryNetlib@@QAEHPAVBTPeer_Login@2@@Z @ 2654
?rfReqServerShutdown@BTSocket_Channel@BatteryNetlib@@QAEHPAVBTPeer_Channel@2@PAGKN@Z @ 2655
?rfReqServerTime@BTSocket_Channel@BatteryNetlib@@QAEHPAVBTPeer_Channel@2@@Z @ 2656
?rfReqServerTime@BTSocket_Login@BatteryNetlib@@QAEHPAVBTPeer_Login@2@@Z @ 2657
?rfReqServerType@BTSocket_Channel@BatteryNetlib@@QAEHPAVBTPeer_Channel@2@@Z @ 2658
?rfReqSetClientVersion@BTSocket_Channel@BatteryNetlib@@QAEHPAVBTPeer_Channel@2@K@Z @ 2659
?rfReqSetCommunityOption@BTSocket_Channel@BatteryNetlib@@QAEHPAVBTPeer_Channel@2@GGGG@Z @ 2660
?rfReqSetLookForClan@BTSocket_Channel@BatteryNetlib@@QAEHPAVBTPeer_Channel@2@E@Z @ 2661
?rfReqSetUserBootySeedValue@BTSocket_Channel@BatteryNetlib@@QAEHPAVBTPeer_Channel@2@KK@Z @ 2662
?rfReqShopItemData@BTSocket_Channel@BatteryNetlib@@QAEHPAVBTPeer_Channel@2@K@Z @ 2663
?rfReqShopItemList@BTSocket_Channel@BatteryNetlib@@QAEHPAVBTPeer_Channel@2@@Z @ 2664
?rfReqSpecificChannelUserInfo@BTSocket_Channel@BatteryNetlib@@QAEHPAVBTPeer_Channel@2@K@Z @ 2665
?rfReqSpecificGameRoomInfo@BTSocket_Channel@BatteryNetlib@@QAEHPAVBTPeer_Channel@2@K@Z @ 2666
?rfReqStartDedicateHost@BTSocket_Process2Agent@BatteryNetlib@@QAEHPAVBTPeer_Process2Agent@2@KPAGKKK@Z @ 2667
?rfReqStartGame@BTSocket_Channel@BatteryNetlib@@QAEHPAVBTPeer_Channel@2@G@Z @ 2668
?rfReqStartHolePunching@BTSocket_Channel@BatteryNetlib@@QAEHPAVBTPeer_Channel@2@KK@Z @ 2669
?rfReqStartNatDiag@BTSocket_Channel@BatteryNetlib@@QAEHPAVBTPeer_Channel@2@PAGK1K@Z @ 2670
?rfReqSuccessStartGame@BTSocket_Channel@BatteryNetlib@@QAEHPAVBTPeer_Channel@2@K@Z @ 2671
?rfReqTerminateDedicateHostProcess@BTSocket_Process2Agent@BatteryNetlib@@QAEHPAVBTPeer_Process2Agent@2@@Z @ 2672
?rfReqTestDouble@BTSocket_Channel@BatteryNetlib@@QAEHPAVBTPeer_Channel@2@NAAVBTBuffer@2@@Z @ 2673
?rfReqUpdateMyHostPriorityPoint@BTSocket_Channel@BatteryNetlib@@QAEHPAVBTPeer_Channel@2@K@Z @ 2674
?rfReqUpdateProcessState@BTSocket_Process2Agent@BatteryNetlib@@QAEHPAVBTPeer_Process2Agent@2@K@Z @ 2675
?rfReqUpdateQSlot@BTSocket_Channel@BatteryNetlib@@QAEHPAVBTPeer_Channel@2@KPAGNNNNKKKK@Z @ 2676
?rfReqUpdateScore@BTSocket_Channel@BatteryNetlib@@QAEHPAVBTPeer_Channel@2@KAAVBTBuffer@2@111111111KE1@Z @ 2677
?rfReqUpdateUserCount_ChannelServer@BTSocket_Process2Agent@BatteryNetlib@@QAEHPAVBTPeer_Process2Agent@2@KKAAVBTBuffer@2@1111@Z @ 2678
?rfReqUpdateUserCount_DudeServer@BTSocket_Process2Agent@BatteryNetlib@@QAEHPAVBTPeer_Process2Agent@2@KKK@Z @ 2679
?rfReqUpdateUserCount_LoginServer@BTSocket_Process2Agent@BatteryNetlib@@QAEHPAVBTPeer_Process2Agent@2@KKK@Z @ 2680
?rfReqUpdateUserPerformenceInfo@BTSocket_Channel@BatteryNetlib@@QAEHPAVBTPeer_Channel@2@KKKKKKK@Z @ 2681
?rfReqUpdateWeaponDurability@BTSocket_Channel@BatteryNetlib@@QAEHPAVBTPeer_Channel@2@KAAVBTBuffer@2@1111@Z @ 2682
?rfReqUserDetailInfo@BTSocket_Login@BatteryNetlib@@QAEHPAVBTPeer_Login@2@KPAG@Z @ 2683
?rfReqUserSkillList@BTSocket_Channel@BatteryNetlib@@QAEHPAVBTPeer_Channel@2@K@Z @ 2684
?rfReqWebzenBillingStorageList@BTSocket_Channel@BatteryNetlib@@QAEHPAVBTPeer_Channel@2@KKE@Z @ 2685
?rfReqWebzenBillingUseStorageItem@BTSocket_Channel@BatteryNetlib@@QAEHPAVBTPeer_Channel@2@KKE@Z @ 2686
?rfReqWebzenCash@BTSocket_Channel@BatteryNetlib@@QAEHPAVBTPeer_Channel@2@@Z @ 2687
?rfReqWebzenShopScriptVersion@BTSocket_Channel@BatteryNetlib@@QAEHPAVBTPeer_Channel@2@@Z @ 2688
?rfReqWriteServerLog@BTSocket_Channel@BatteryNetlib@@QAEHPAVBTPeer_Channel@2@EPAG@Z @ 2689
?rfUpdateWebzenShopScriptVersion@BTSocket_Channel@BatteryNetlib@@QAEHPAVBTPeer_Channel@2@KKK@Z @ 2690
?sfAckAccesItemTypeList@BTSocket_Login@BatteryNetlib@@QAEHAAVBTBuffer@2@0@Z @ 2691
?sfAckAcquirePromotionItems@BTSocket_Channel@BatteryNetlib@@QAEHKKPAGAAVBTBuffer@2@11@Z @ 2692
?sfAckAddBlockUserList@BTSocket_Channel@BatteryNetlib@@QAEHKPAG@Z @ 2693
?sfAckAdjustClanMemberGrade@BTSocket_Channel@BatteryNetlib@@QAEHKPAG00E@Z @ 2694
?sfAckAdvertisement@BTSocket_Login@BatteryNetlib@@QAEHKEPAG@Z @ 2695
?sfAckAhnHsObject@BTSocket_Channel@BatteryNetlib@@QAEHAAVBTBuffer@2@K@Z @ 2696
?sfAckAuctionBidding@BTSocket_Channel@BatteryNetlib@@QAEHKPAGK@Z @ 2697
?sfAckAuctionInstantlyBuying@BTSocket_Channel@BatteryNetlib@@QAEHKPAGK@Z @ 2698
?sfAckAuctionItemList@BTSocket_Channel@BatteryNetlib@@QAEHEAAVBTBuffer@2@000000000@Z @ 2699
?sfAckAuctionItemListCount@BTSocket_Channel@BatteryNetlib@@QAEHKPAGEEKKK@Z @ 2700
?sfAckAuctionItemListEnd@BTSocket_Channel@BatteryNetlib@@QAEHE@Z @ 2701
?sfAckAuctionItemListStart@BTSocket_Channel@BatteryNetlib@@QAEHKPAGEKK@Z @ 2702
?sfAckAuctionMyItemCancel@BTSocket_Channel@BatteryNetlib@@QAEHKPAG@Z @ 2703
?sfAckAuctionMyItemRegister@BTSocket_Channel@BatteryNetlib@@QAEHKPAGKKKK@Z @ 2704
?sfAckAuctionTradeHistory@BTSocket_Channel@BatteryNetlib@@QAEHKPAGKKAAVBTBuffer@2@11@Z @ 2705
?sfAckAutoChangedTeamUserList@BTSocket_Channel@BatteryNetlib@@QAEHAAVBTBuffer@2@0@Z @ 2706
?sfAckBanUser@BTSocket_Channel@BatteryNetlib@@QAEHGKKKPAG@Z @ 2707
?sfAckBlockUserList@BTSocket_Channel@BatteryNetlib@@QAEHAAVBTBuffer@2@@Z @ 2708
?sfAckBlockUserListEnd@BTSocket_Channel@BatteryNetlib@@QAEHXZ @ 2709
?sfAckBlockUserListStart@BTSocket_Channel@BatteryNetlib@@QAEHKK@Z @ 2710
?sfAckBuyItemByWebzenCash@BTSocket_Channel@BatteryNetlib@@QAEHKPAG@Z @ 2711
?sfAckBuyShopItem@BTSocket_Channel@BatteryNetlib@@QAEHKAAVBTBuffer@2@00000KK@Z @ 2712
?sfAckChangeGameMode@BTSocket_Channel@BatteryNetlib@@QAEHGKPAGEK0@Z @ 2713
?sfAckChangeHost@BTSocket_Channel@BatteryNetlib@@QAEHE@Z @ 2714
?sfAckChangeNewGuest@BTSocket_Channel@BatteryNetlib@@QAEHPAG@Z @ 2715
?sfAckChangeRoomMaxNum@BTSocket_Channel@BatteryNetlib@@QAEHGGGKPAG@Z @ 2716
?sfAckChangeRoomOwner@BTSocket_Channel@BatteryNetlib@@QAEHGKKKPAG@Z @ 2717
?sfAckChangeRoomSetting@BTSocket_Channel@BatteryNetlib@@QAEHKPAGK000EEEEKKE0EEEEEEEEEEEE0EEEEEEE@Z @ 2718
?sfAckChangeRoomTitle_GM@BTSocket_Channel@BatteryNetlib@@QAEHKGPAG@Z @ 2719
?sfAckChangeTeam@BTSocket_Channel@BatteryNetlib@@QAEHGPAGKGK0@Z @ 2720
?sfAckChangeUserState@BTSocket_Channel@BatteryNetlib@@QAEHKPAGAAVBTBuffer@2@1111@Z @ 2721
?sfAckChangedRoomTitle_FromGM@BTSocket_Channel@BatteryNetlib@@QAEHKGPAG@Z @ 2722
?sfAckChannelList@BTSocket_Channel@BatteryNetlib@@QAEHAAVBTBuffer@2@000@Z @ 2723
?sfAckChannelUserList@BTSocket_Channel@BatteryNetlib@@QAEHKKKAAVBTBuffer@2@0000000000KPAG000000@Z @ 2724
?sfAckChannelUserListInGameRoom@BTSocket_Channel@BatteryNetlib@@QAEHKKKKAAVBTBuffer@2@0000000000000@Z @ 2725
?sfAckCharBlockInfo@BTSocket_Channel@BatteryNetlib@@QAEHKNNAAVBTBuffer@2@@Z @ 2726
?sfAckCharDetailInfo@BTSocket_Channel@BatteryNetlib@@QAEHKKKKKKKKKKKKKKKKKKKKKKKKKKKKKKKKK@Z @ 2727
?sfAckCharInfo@BTSocket_Channel@BatteryNetlib@@QAEHKPAGK00KKKGKKKKKKKKKKKKKKKKKKKKKKKKKKKKKEKKKKKKKKKKKKKKKKKEK@Z @ 2728
?sfAckCharInfo@BTSocket_Login@BatteryNetlib@@QAEHKPAGKK0@Z @ 2729
?sfAckChatClan@BTSocket_Channel@BatteryNetlib@@QAEHPAG0K@Z @ 2730
?sfAckChatNormal@BTSocket_Channel@BatteryNetlib@@QAEHGPAG0K@Z @ 2731
?sfAckChatWispher@BTSocket_Channel@BatteryNetlib@@QAEHKPAG0@Z @ 2732
?sfAckChatWispherMyCommunity@BTSocket_Channel@BatteryNetlib@@QAEHKPAG@Z @ 2733
?sfAckCheckEquipedWeaponDurability@BTSocket_Channel@BatteryNetlib@@QAEHKAAVBTBuffer@2@0@Z @ 2734
?sfAckClanChangeInfo@BTSocket_Channel@BatteryNetlib@@QAEHKPAG@Z @ 2735
?sfAckClanCharPersonelIntro@BTSocket_Channel@BatteryNetlib@@QAEHKPAG0@Z @ 2736
?sfAckClanClose@BTSocket_Channel@BatteryNetlib@@QAEHKPAG0@Z @ 2737
?sfAckClanInfo@BTSocket_Channel@BatteryNetlib@@QAEHPAGKKKKKKKEKKE0000KKK0KKKKKKKKKK@Z @ 2738
?sfAckClanMatchResultHistory@BTSocket_Channel@BatteryNetlib@@QAEHAAVBTBuffer@2@00@Z @ 2739
?sfAckClanMatch_ChangeLeader@BTSocket_Channel@BatteryNetlib@@QAEHKPAGK0@Z @ 2740
?sfAckClanMatch_ChangeRoomSetting@BTSocket_Channel@BatteryNetlib@@QAEHKKPAGAAVBTBuffer@2@KE@Z @ 2741
?sfAckClanMatch_Chat@BTSocket_Channel@BatteryNetlib@@QAEHKPAG00@Z @ 2742
?sfAckClanMatch_EndPublicWaitRoomList@BTSocket_Channel@BatteryNetlib@@QAEHXZ @ 2743
?sfAckClanMatch_FoundMatch@BTSocket_Channel@BatteryNetlib@@QAEHXZ @ 2744
?sfAckClanMatch_GetClanWaittingRoomInfo@BTSocket_Channel@BatteryNetlib@@QAEHKKPAGAAVBTBuffer@2@K0@Z @ 2745
?sfAckClanMatch_GetReady@BTSocket_Channel@BatteryNetlib@@QAEHKPAGK@Z @ 2746
?sfAckClanMatch_InviteCrew@BTSocket_Channel@BatteryNetlib@@QAEHKPAG@Z @ 2747
?sfAckClanMatch_Join@BTSocket_Channel@BatteryNetlib@@QAEHKPAG@Z @ 2748
?sfAckClanMatch_JoinNotify@BTSocket_Channel@BatteryNetlib@@QAEHEKKKKPAGKKK0KKKKKK@Z @ 2749
?sfAckClanMatch_Leave@BTSocket_Channel@BatteryNetlib@@QAEHKPAG@Z @ 2750
?sfAckClanMatch_LeaveNotify@BTSocket_Channel@BatteryNetlib@@QAEHPAG@Z @ 2751
?sfAckClanMatch_MemberList@BTSocket_Channel@BatteryNetlib@@QAEHAAVBTBuffer@2@000000000000000@Z @ 2752
?sfAckClanMatch_NotifiyStartCombat@BTSocket_Channel@BatteryNetlib@@QAEHAAVBTBuffer@2@K@Z @ 2753
?sfAckClanMatch_NotifyStartSearching@BTSocket_Channel@BatteryNetlib@@QAEHK@Z @ 2754
?sfAckClanMatch_PublicWaitRoomChanged@BTSocket_Channel@BatteryNetlib@@QAEHKPAGKKKEE@Z @ 2755
?sfAckClanMatch_PublicWaitRoomList@BTSocket_Channel@BatteryNetlib@@QAEHAAVBTBuffer@2@000000@Z @ 2756
?sfAckClanMatch_RecvInviteCrew@BTSocket_Channel@BatteryNetlib@@QAEHKPAG@Z @ 2757
?sfAckClanMatch_SetWaitRoomPublic@BTSocket_Channel@BatteryNetlib@@QAEHKPAGE@Z @ 2758
?sfAckClanMatch_StartCombat@BTSocket_Channel@BatteryNetlib@@QAEHKPAG@Z @ 2759
?sfAckClanMatch_StartPublicWaitRoomList@BTSocket_Channel@BatteryNetlib@@QAEHKPAGK@Z @ 2760
?sfAckClanMatch_StartSearching@BTSocket_Channel@BatteryNetlib@@QAEHKPAGK@Z @ 2761
?sfAckClanMatch_StopSearching@BTSocket_Channel@BatteryNetlib@@QAEHXZ @ 2762
?sfAckClanMatch_WaittingTeamList@BTSocket_Channel@BatteryNetlib@@QAEHKAAVBTBuffer@2@00@Z @ 2763
?sfAckClanMemberListFromClient@BTSocket_Login@BatteryNetlib@@QAEHKPAGAAVBTBuffer@2@1111111111@Z @ 2764
?sfAckClanMemberListFromClientEnd@BTSocket_Login@BatteryNetlib@@QAEHXZ @ 2765
?sfAckClanMemberListFromClientStart@BTSocket_Login@BatteryNetlib@@QAEHKK@Z @ 2766
?sfAckClanNews@BTSocket_Channel@BatteryNetlib@@QAEHAAVBTBuffer@2@00@Z @ 2767
?sfAckClanPersonelIntro@BTSocket_Channel@BatteryNetlib@@QAEHKPAG@Z @ 2768
?sfAckClanSecession@BTSocket_Channel@BatteryNetlib@@QAEHKPAG@Z @ 2769
?sfAckClanUserList@BTSocket_Channel@BatteryNetlib@@QAEHKPAGAAVBTBuffer@2@1111111@Z @ 2770
?sfAckClanUserListEnd@BTSocket_Channel@BatteryNetlib@@QAEHXZ @ 2771
?sfAckClanUserListStart@BTSocket_Channel@BatteryNetlib@@QAEHKK@Z @ 2772
?sfAckClientChallenge@BTSocket_Login@BatteryNetlib@@QAEHPAGN@Z @ 2773
?sfAckClientChecksum@BTSocket_Login@BatteryNetlib@@QAEHK@Z @ 2774
?sfAckClientUdpInfoList@BTSocket_Channel@BatteryNetlib@@QAEHKPAGAAVBTBuffer@2@11@Z @ 2775
?sfAckCommunityOptionList@BTSocket_Channel@BatteryNetlib@@QAEHGGGG@Z @ 2776
?sfAckConfirmFriendInvite@BTSocket_Channel@BatteryNetlib@@QAEHKPAG@Z @ 2777
?sfAckConfirmItemChanged@BTSocket_Channel@BatteryNetlib@@QAEHKPAG@Z @ 2778
?sfAckConfirmSkillChanged@BTSocket_Channel@BatteryNetlib@@QAEHKPAG@Z @ 2779
?sfAckConnectChannelServer@BTSocket_Login@BatteryNetlib@@QAEHPAGK@Z @ 2780
?sfAckConnectGame@BTSocket_Channel@BatteryNetlib@@QAEHKK@Z @ 2781
?sfAckCouponUse@BTSocket_Channel@BatteryNetlib@@QAEHKPAG@Z @ 2782
?sfAckCreateChar@BTSocket_Login@BatteryNetlib@@QAEHKPAG@Z @ 2783
?sfAckCreateClan@BTSocket_Channel@BatteryNetlib@@QAEHKPAGNK@Z @ 2784
?sfAckCreateGameRoom@BTSocket_Channel@BatteryNetlib@@QAEHKPAGK0K000EEEEKKE0EEEEEEEEEEEE0EEEEEEE@Z @ 2785
?sfAckDBCharInfo@BTSocket_Channel@BatteryNetlib@@QAEHKPAG00KKK0KKKKKKGKKKKKKKKKKKKKKKKKKKKKKKKKKKKKEKKKKKKKKKKKKKKKKKK@Z @ 2786
?sfAckDedicateHost_Login@BTSocket_Channel@BatteryNetlib@@QAEHKKKK@Z @ 2787
?sfAckDelMemo@BTSocket_Channel@BatteryNetlib@@QAEHKPAGAAVBTBuffer@2@@Z @ 2788
?sfAckDeleteFriend@BTSocket_Channel@BatteryNetlib@@QAEHKAAVBTBuffer@2@@Z @ 2789
?sfAckDeleteMailAll@BTSocket_Channel@BatteryNetlib@@QAEHKEK@Z @ 2790
?sfAckDisconnectGame@BTSocket_Channel@BatteryNetlib@@QAEHKKPAG@Z @ 2791
?sfAckDummy@BTSocket_Channel@BatteryNetlib@@QAEHK@Z @ 2792
?sfAckDupCheckClanName@BTSocket_Channel@BatteryNetlib@@QAEHKPAG@Z @ 2793
?sfAckEndMemoList@BTSocket_Channel@BatteryNetlib@@QAEHXZ @ 2794
?sfAckEnterChannel@BTSocket_Channel@BatteryNetlib@@QAEHGKPAGK0KKKKKKEK0KKKKKK@Z @ 2795
?sfAckEnterRoom@BTSocket_Channel@BatteryNetlib@@QAEHGKKPAGGG00KKKEK0KKKKKK@Z @ 2796
?sfAckEntryItemList@BTSocket_Channel@BatteryNetlib@@QAEHAAVBTBuffer@2@00000KPAG@Z @ 2797
?sfAckEntryQSlotIDList@BTSocket_Channel@BatteryNetlib@@QAEHKAAVBTBuffer@2@000000000000@Z @ 2798
?sfAckEntryQSlotUniqueIDList@BTSocket_Channel@BatteryNetlib@@QAEHKAAVBTBuffer@2@0000@Z @ 2799
?sfAckEntrySkillList@BTSocket_Channel@BatteryNetlib@@QAEHAAVBTBuffer@2@00KPAG@Z @ 2800
?sfAckEquipItem@BTSocket_Channel@BatteryNetlib@@QAEHKNKKNKKPAG@Z @ 2801
?sfAckEquipSkill@BTSocket_Channel@BatteryNetlib@@QAEHKKEKKEKPAG@Z @ 2802
?sfAckErrorReportServerAddr@BTSocket_Login@BatteryNetlib@@QAEHPAGK@Z @ 2803
?sfAckEventNotify@BTSocket_Channel@BatteryNetlib@@QAEHK@Z @ 2804
?sfAckEventNotify@BTSocket_Login@BatteryNetlib@@QAEHK@Z @ 2805
?sfAckExceedMaxUser@BTSocket_Channel@BatteryNetlib@@QAEHXZ @ 2806
?sfAckExceedMaxUser@BTSocket_Login@BatteryNetlib@@QAEHXZ @ 2807
?sfAckExteriorRoomInfo@BTSocket_Channel@BatteryNetlib@@QAEHXZ @ 2808
?sfAckExteriorRoomOwnerInfo@BTSocket_Channel@BatteryNetlib@@QAEHXZ @ 2809
?sfAckExteriorRoomState@BTSocket_Channel@BatteryNetlib@@QAEHXZ @ 2810
?sfAckExteriorRoomUserCount@BTSocket_Channel@BatteryNetlib@@QAEHXZ @ 2811
?sfAckFailedStartGame@BTSocket_Channel@BatteryNetlib@@QAEHKPAGEKK@Z @ 2812
?sfAckForceDisconnectUDPFromHost@BTSocket_Channel@BatteryNetlib@@QAEHK@Z @ 2813
?sfAckForceDisconnectUser_GM@BTSocket_Channel@BatteryNetlib@@QAEHKPAG0@Z @ 2814
?sfAckForceFailedClientLoading@BTSocket_Channel@BatteryNetlib@@QAEHKPAG@Z @ 2815
?sfAckForceGameOver@BTSocket_Channel@BatteryNetlib@@QAEHKGKPAG@Z @ 2816
?sfAckFriendList@BTSocket_Channel@BatteryNetlib@@QAEHAAVBTBuffer@2@000000000@Z @ 2817
?sfAckFriendListEnd@BTSocket_Channel@BatteryNetlib@@QAEHXZ @ 2818
?sfAckFriendListStart@BTSocket_Channel@BatteryNetlib@@QAEHKK@Z @ 2819
?sfAckFriendPosition@BTSocket_Channel@BatteryNetlib@@QAEHKPAGE000KEEK0K@Z @ 2820
?sfAckFriendsList@BTSocket_Login@BatteryNetlib@@QAEHEAAVBTBuffer@2@000000@Z @ 2821
?sfAckFriendsListEnd@BTSocket_Login@BatteryNetlib@@QAEHXZ @ 2822
?sfAckFriendsListStart@BTSocket_Login@BatteryNetlib@@QAEHKK@Z @ 2823
?sfAckGMEnterRoom@BTSocket_Channel@BatteryNetlib@@QAEHKGK@Z @ 2824
?sfAckGMLeaveRoom@BTSocket_Channel@BatteryNetlib@@QAEHKGK@Z @ 2825
?sfAckGameGuardAuthData@BTSocket_Channel@BatteryNetlib@@QAEHKKKK@Z @ 2826
?sfAckGameHostInfo@BTSocket_Channel@BatteryNetlib@@QAEHGPAG0GK0@Z @ 2827
?sfAckGameMapData@BTSocket_Channel@BatteryNetlib@@QAEHAAVBTBuffer@2@0000000000000000@Z @ 2828
?sfAckGameOver@BTSocket_Channel@BatteryNetlib@@QAEHKGKPAG@Z @ 2829
?sfAckGameOverEnd@BTSocket_Channel@BatteryNetlib@@QAEHKPAG@Z @ 2830
?sfAckGameRoomDestroy@BTSocket_Channel@BatteryNetlib@@QAEHG@Z @ 2831
?sfAckGameRoomInfo@BTSocket_Channel@BatteryNetlib@@QAEHKPAGK000EEEEKKE0EEEEEEEEEEEE0EEEEEEE@Z @ 2832
?sfAckGetAttachedItemFromMemo@BTSocket_Channel@BatteryNetlib@@QAEHKPAGNK@Z @ 2833
?sfAckGetBooty@BTSocket_Channel@BatteryNetlib@@QAEHKPAGAAVBTBuffer@2@11@Z @ 2834
?sfAckGetBootyChoose@BTSocket_Channel@BatteryNetlib@@QAEHKPAGENKKENKK@Z @ 2835
?sfAckGetBotID@BTSocket_Channel@BatteryNetlib@@QAEHKEEAAVBTBuffer@2@0@Z @ 2836
?sfAckGetCharBlockInfo@BTSocket_Login@BatteryNetlib@@QAEHKEENAAVBTBuffer@2@@Z @ 2837
?sfAckGetHolePunchingResult@BTSocket_Channel@BatteryNetlib@@QAEHKEKEAAVBTBuffer@2@@Z @ 2838
?sfAckGetIsHostBlocking@BTSocket_Channel@BatteryNetlib@@QAEHKE@Z @ 2839
?sfAckGetItemFromItemBox@BTSocket_Channel@BatteryNetlib@@QAEHKPAGKKNKENNK@Z @ 2840
?sfAckGetMyMailBoxState@BTSocket_Channel@BatteryNetlib@@QAEHKEG@Z @ 2841
?sfAckGetRankingInfoList@BTSocket_Channel@BatteryNetlib@@QAEHKEEAAVBTBuffer@2@0000000000000@Z @ 2842
?sfAckGetRankingInfoListEnd@BTSocket_Channel@BatteryNetlib@@QAEHXZ @ 2843
?sfAckGetRankingInfoListStart@BTSocket_Channel@BatteryNetlib@@QAEHKEEK@Z @ 2844
?sfAckGetServerTime@BTSocket_Channel@BatteryNetlib@@QAEHNPAG@Z @ 2845
?sfAckGetUserHostPriorityPoint@BTSocket_Channel@BatteryNetlib@@QAEHKKK@Z @ 2846
?sfAckGiftItemByWebzenCash@BTSocket_Channel@BatteryNetlib@@QAEHKPAGK@Z @ 2847
?sfAckGiveSkill@BTSocket_Channel@BatteryNetlib@@QAEHKKPAG@Z @ 2848
?sfAckHash@BTSocket_Channel@BatteryNetlib@@QAEHKPAG@Z @ 2849
?sfAckHash@BTSocket_Login@BatteryNetlib@@QAEHKPAG@Z @ 2850
?sfAckHash@BTSocket_Process2Agent@BatteryNetlib@@QAEHKPAG@Z @ 2851
?sfAckHeadItemTypeList@BTSocket_Login@BatteryNetlib@@QAEHAAVBTBuffer@2@@Z @ 2852
?sfAckHelmetItemTypeList@BTSocket_Login@BatteryNetlib@@QAEHAAVBTBuffer@2@0@Z @ 2853
?sfAckInviteClan@BTSocket_Channel@BatteryNetlib@@QAEHKPAG@Z @ 2854
?sfAckInviteClanResult@BTSocket_Channel@BatteryNetlib@@QAEHPAGE0@Z @ 2855
?sfAckInviteGameRoom@BTSocket_Channel@BatteryNetlib@@QAEHKEPAG@Z @ 2856
?sfAckIsAvailClanURL@BTSocket_Channel@BatteryNetlib@@QAEHPAGK0@Z @ 2857
?sfAckIsGameRoomPlaying@BTSocket_Channel@BatteryNetlib@@QAEHGE@Z @ 2858
?sfAckIsHostAvailable@BTSocket_Channel@BatteryNetlib@@QAEHK@Z @ 2859
?sfAckItemList@BTSocket_Channel@BatteryNetlib@@QAEHAAVBTBuffer@2@00000000000@Z @ 2860
?sfAckItemListEnd@BTSocket_Channel@BatteryNetlib@@QAEHXZ @ 2861
?sfAckItemListInItemBox@BTSocket_Channel@BatteryNetlib@@QAEHKPAGNKAAVBTBuffer@2@1@Z @ 2862
?sfAckItemListStart@BTSocket_Channel@BatteryNetlib@@QAEHKKPAG@Z @ 2863
?sfAckJoinClan@BTSocket_Channel@BatteryNetlib@@QAEHKPAG00E@Z @ 2864
?sfAckJoinClanResult@BTSocket_Channel@BatteryNetlib@@QAEHPAGE0@Z @ 2865
?sfAckLeaveChannel@BTSocket_Channel@BatteryNetlib@@QAEHKPAGK@Z @ 2866
?sfAckLeaveRoom@BTSocket_Channel@BatteryNetlib@@QAEHGKPAGK0@Z @ 2867
?sfAckLimitedListInChannel@BTSocket_Channel@BatteryNetlib@@QAEHKAAVBTBuffer@2@0@Z @ 2868
?sfAckLogOut@BTSocket_Channel@BatteryNetlib@@QAEHEE@Z @ 2869
?sfAckLogOut@BTSocket_Login@BatteryNetlib@@QAEHEE@Z @ 2870
?sfAckLogin2@BTSocket_Channel@BatteryNetlib@@QAEHKPAGK0NKE@Z @ 2871
?sfAckLogin@BTSocket_Channel@BatteryNetlib@@QAEHKPAGK00GKKKKKKKKKKKKKKKKKKKKKKKKKKKKKEKKKKKKKKKKKKKKKKK@Z @ 2872
?sfAckLogin@BTSocket_Login@BatteryNetlib@@QAEHEPAGKKKKKKE0@Z @ 2873
?sfAckLogin@BTSocket_Process2Agent@BatteryNetlib@@QAEHK@Z @ 2874
?sfAckLoginInHouseTest@BTSocket_Login@BatteryNetlib@@QAEHEPAGKKKKKKE00EN@Z @ 2875
?sfAckLoginWithGlobal@BTSocket_Login@BatteryNetlib@@QAEHK@Z @ 2876
?sfAckLoginWithIndonesia@BTSocket_Login@BatteryNetlib@@QAEHK@Z @ 2877
?sfAckLoginWithTencentAuth@BTSocket_Login@BatteryNetlib@@QAEHKEE@Z @ 2878
?sfAckLoginWithThailand@BTSocket_Login@BatteryNetlib@@QAEHK@Z @ 2879
?sfAckLoginWithWZAuth@BTSocket_Login@BatteryNetlib@@QAEHKEEEE@Z @ 2880
?sfAckMaxUserExceed@BTSocket_Login@BatteryNetlib@@QAEHXZ @ 2881
?sfAckMemoList@BTSocket_Channel@BatteryNetlib@@QAEHAAVBTBuffer@2@000000000@Z @ 2882
?sfAckModifyWeapon@BTSocket_Channel@BatteryNetlib@@QAEHKPAGNKKKK@Z @ 2883
?sfAckMoveToLobby@BTSocket_Channel@BatteryNetlib@@QAEHE@Z @ 2884
?sfAckMyEquipedItemList@BTSocket_Channel@BatteryNetlib@@QAEHAAVBTBuffer@2@0000K@Z @ 2885
?sfAckMyEquipedQSlotList@BTSocket_Channel@BatteryNetlib@@QAEHAAVBTBuffer@2@0000000000000000K@Z @ 2886
?sfAckMyEquipedSkillList@BTSocket_Channel@BatteryNetlib@@QAEHAAVBTBuffer@2@0K@Z @ 2887
?sfAckMyMoney@BTSocket_Channel@BatteryNetlib@@QAEHKPAGKK@Z @ 2888
?sfAckNotice_GM@BTSocket_Channel@BatteryNetlib@@QAEHKPAGEKGG0@Z @ 2889
?sfAckNotifyAdjustClanMemberGrade@BTSocket_Channel@BatteryNetlib@@QAEHPAG0E@Z @ 2890
?sfAckNotifyChangedItemState@BTSocket_Channel@BatteryNetlib@@QAEHKAAVBTBuffer@2@0KPAG@Z @ 2891
?sfAckNotifyChangedSkillState@BTSocket_Channel@BatteryNetlib@@QAEHKAAVBTBuffer@2@0KPAG@Z @ 2892
?sfAckNotifyClanSecession@BTSocket_Channel@BatteryNetlib@@QAEHPAG0@Z @ 2893
?sfAckNotifyClientJoinTime@BTSocket_Channel@BatteryNetlib@@QAEHKPAG@Z @ 2894
?sfAckNotifyEndTutorial@BTSocket_Channel@BatteryNetlib@@QAEHKPAGK0KKKKKKEKKKKKKK@Z @ 2895
?sfAckNotifyExpiredItemIDs@BTSocket_Channel@BatteryNetlib@@QAEHKAAVBTBuffer@2@000KPAG@Z @ 2896
?sfAckNotifyExpiredSkillIDs@BTSocket_Channel@BatteryNetlib@@QAEHKAAVBTBuffer@2@0KPAG0@Z @ 2897
?sfAckNotifyHostBlocking@BTSocket_Channel@BatteryNetlib@@QAEHKE@Z @ 2898
?sfAckNotifyLoadingState@BTSocket_Channel@BatteryNetlib@@QAEHKKE@Z @ 2899
?sfAckNotifyMyCharInfoToRoomUser@BTSocket_Channel@BatteryNetlib@@QAEHKPAGK0KKEE00KKKE@Z @ 2900
?sfAckNotifyNewClanMember@BTSocket_Channel@BatteryNetlib@@QAEHPAG0@Z @ 2901
?sfAckNotifyStartTutorial@BTSocket_Channel@BatteryNetlib@@QAEHKK@Z @ 2902
?sfAckNotifyUpdateCharInfo_LevelMark@BTSocket_Channel@BatteryNetlib@@QAEHPAGK@Z @ 2903
?sfAckNotifyUpdateCharInfo_TitleMark@BTSocket_Channel@BatteryNetlib@@QAEHPAGK@Z @ 2904
?sfAckPCBangUserList@BTSocket_Channel@BatteryNetlib@@QAEHAAVBTBuffer@2@0000000000000000@Z @ 2905
?sfAckPCBangUserList@BTSocket_Login@BatteryNetlib@@QAEHAAVBTBuffer@2@000000000@Z @ 2906
?sfAckPCBangUserListEnd@BTSocket_Channel@BatteryNetlib@@QAEHXZ @ 2907
?sfAckPCBangUserListEnd@BTSocket_Login@BatteryNetlib@@QAEHXZ @ 2908
?sfAckPCBangUserListStart@BTSocket_Channel@BatteryNetlib@@QAEHKK@Z @ 2909
?sfAckPCBangUserListStart@BTSocket_Login@BatteryNetlib@@QAEHKK@Z @ 2910
?sfAckPaidItem_BroadCast@BTSocket_Channel@BatteryNetlib@@QAEHKPAGNK@Z @ 2911
?sfAckPaidItem_ChangeCharname@BTSocket_Channel@BatteryNetlib@@QAEHKPAGNK0@Z @ 2912
?sfAckPaidItem_ChangeClanMark@BTSocket_Channel@BatteryNetlib@@QAEHKPAGNK@Z @ 2913
?sfAckPaidItem_ChangeClanname@BTSocket_Channel@BatteryNetlib@@QAEHKPAGNK0@Z @ 2914
?sfAckPaidItem_ClanMarkDupCheck@BTSocket_Channel@BatteryNetlib@@QAEHKPAG@Z @ 2915
?sfAckPaidItem_EraseRecord@BTSocket_Channel@BatteryNetlib@@QAEHKPAGNKK@Z @ 2916
?sfAckPaidItem_NotifyChangeClanMark@BTSocket_Channel@BatteryNetlib@@QAEHPAGKKK@Z @ 2917
?sfAckPaidItem_NotifyChangeClanname@BTSocket_Channel@BatteryNetlib@@QAEHPAG@Z @ 2918
?sfAckPaidItem_RelayBroadcast@BTSocket_Channel@BatteryNetlib@@QAEHPAG0@Z @ 2919
?sfAckParamCheckSum@BTSocket_Channel@BatteryNetlib@@QAEHK@Z @ 2920
?sfAckPermanentRoomInfo@BTSocket_Channel@BatteryNetlib@@QAEHKKEE@Z @ 2921
?sfAckPopUpMessage@BTSocket_Channel@BatteryNetlib@@QAEHK@Z @ 2922
?sfAckProcessExcuteCmd@BTSocket_Process2Agent@BatteryNetlib@@QAEHKKKPAG@Z @ 2923
?sfAckProcessPreLoginUser@BTSocket_Login@BatteryNetlib@@QAEHKPAG@Z @ 2924
?sfAckQSlotList@BTSocket_Channel@BatteryNetlib@@QAEHKPAGAAVBTBuffer@2@1111111111@Z @ 2925
?sfAckQuestGetAvailableEventList@BTSocket_Channel@BatteryNetlib@@QAEHKPAGAAVBTBuffer@2@@Z @ 2926
?sfAckQuestList@BTSocket_Channel@BatteryNetlib@@QAEHAAVBTBuffer@2@00@Z @ 2927
?sfAckQuestListEnd@BTSocket_Channel@BatteryNetlib@@QAEHXZ @ 2928
?sfAckQuestListStart@BTSocket_Channel@BatteryNetlib@@QAEHKPAG@Z @ 2929
?sfAckQuestUpdate@BTSocket_Channel@BatteryNetlib@@QAEHKPAG@Z @ 2930
?sfAckQuitDedicateHost@BTSocket_Process2Agent@BatteryNetlib@@QAEHKKKKK@Z @ 2931
?sfAckRandomBox_Use@BTSocket_Channel@BatteryNetlib@@QAEHKPAGNKAAVBTBuffer@2@1111111@Z @ 2932
?sfAckReadMemo@BTSocket_Channel@BatteryNetlib@@QAEHPAG00N@Z @ 2933
?sfAckRecvClanInvite@BTSocket_Channel@BatteryNetlib@@QAEHKPAG00E@Z @ 2934
?sfAckRecvClanInviteResult@BTSocket_Channel@BatteryNetlib@@QAEHKPAG@Z @ 2935
?sfAckRecvInviteGameRoom@BTSocket_Channel@BatteryNetlib@@QAEHPAGGE0@Z @ 2936
?sfAckRecvInviteGameRoomResult@BTSocket_Channel@BatteryNetlib@@QAEHK@Z @ 2937
?sfAckRecvJoinClan@BTSocket_Channel@BatteryNetlib@@QAEHKPAG0E@Z @ 2938
?sfAckRecvJoinClanResult@BTSocket_Channel@BatteryNetlib@@QAEHKPAG@Z @ 2939
?sfAckRecvSystemMsg@BTSocket_Channel@BatteryNetlib@@QAEHEKPAGGGGKK@Z @ 2940
?sfAckRegisterMainPCBang@BTSocket_Channel@BatteryNetlib@@QAEHKPAG@Z @ 2941
?sfAckRegisterMainPCBang@BTSocket_Login@BatteryNetlib@@QAEHKPAG@Z @ 2942
?sfAckRegisterMyUdpInfo@BTSocket_Channel@BatteryNetlib@@QAEHKPAG@Z @ 2943
?sfAckRegisterOtherUdpInfo@BTSocket_Channel@BatteryNetlib@@QAEHKPAGKEE0K@Z @ 2944
?sfAckRegisteredPCBangInfo@BTSocket_Channel@BatteryNetlib@@QAEHKPAGEE0@Z @ 2945
?sfAckRegisteredPCBangInfo@BTSocket_Login@BatteryNetlib@@QAEHKPAGEE0@Z @ 2946
?sfAckRemoveBlockUserList@BTSocket_Channel@BatteryNetlib@@QAEHKPAG@Z @ 2947
?sfAckRepairCost@BTSocket_Channel@BatteryNetlib@@QAEHKPAGAAVBTBuffer@2@1@Z @ 2948
?sfAckRepairItem@BTSocket_Channel@BatteryNetlib@@QAEHKPAGAAVBTBuffer@2@K1@Z @ 2949
?sfAckReturnBotID@BTSocket_Channel@BatteryNetlib@@QAEHK@Z @ 2950
?sfAckRoomList@BTSocket_Channel@BatteryNetlib@@QAEHAAVBTBuffer@2@00000000000000000@Z @ 2951
?sfAckRoomListEnd@BTSocket_Channel@BatteryNetlib@@QAEHXZ @ 2952
?sfAckRoomListStart@BTSocket_Channel@BatteryNetlib@@QAEHKKKK@Z @ 2953
?sfAckRoomUserList@BTSocket_Channel@BatteryNetlib@@QAEHAAVBTBuffer@2@000000000000000000@Z @ 2954
?sfAckRoomUserPingInfo@BTSocket_Channel@BatteryNetlib@@QAEHAAVBTBuffer@2@0K@Z @ 2955
?sfAckSearchClan@BTSocket_Channel@BatteryNetlib@@QAEHKPAGGAAVBTBuffer@2@1111111111111@Z @ 2956
?sfAckSelectMap@BTSocket_Channel@BatteryNetlib@@QAEHGKPAGK0@Z @ 2957
?sfAckSellShopItem@BTSocket_Channel@BatteryNetlib@@QAEHKPAGKKK@Z @ 2958
?sfAckSellShopItemInfo@BTSocket_Channel@BatteryNetlib@@QAEHKPAGNKKK@Z @ 2959
?sfAckSendFriendInvite@BTSocket_Channel@BatteryNetlib@@QAEHKPAG@Z @ 2960
?sfAckSendGift@BTSocket_Channel@BatteryNetlib@@QAEHKPAGKK@Z @ 2961
?sfAckSendMemo@BTSocket_Channel@BatteryNetlib@@QAEHAAVBTBuffer@2@0@Z @ 2962
?sfAckSendSystemMsg@BTSocket_Channel@BatteryNetlib@@QAEHK@Z @ 2963
?sfAckServerList@BTSocket_Login@BatteryNetlib@@QAEHAAVBTBuffer@2@00000000000000000000000@Z @ 2964
?sfAckServerShutdown@BTSocket_Channel@BatteryNetlib@@QAEHKPAG@Z @ 2965
?sfAckServerTime@BTSocket_Channel@BatteryNetlib@@QAEHK@Z @ 2966
?sfAckServerTime@BTSocket_Login@BatteryNetlib@@QAEHK@Z @ 2967
?sfAckServerType@BTSocket_Channel@BatteryNetlib@@QAEHE@Z @ 2968
?sfAckSetCommunityOption@BTSocket_Channel@BatteryNetlib@@QAEHKPAG@Z @ 2969
?sfAckSetLookForClan@BTSocket_Channel@BatteryNetlib@@QAEHKPAGE@Z @ 2970
?sfAckSetUserBootySeedValue@BTSocket_Channel@BatteryNetlib@@QAEHKKPAG@Z @ 2971
?sfAckShopItemData@BTSocket_Channel@BatteryNetlib@@QAEHXZ @ 2972
?sfAckShopItemList@BTSocket_Channel@BatteryNetlib@@QAEHAAVBTBuffer@2@@Z @ 2973
?sfAckShopItemListEnd@BTSocket_Channel@BatteryNetlib@@QAEHXZ @ 2974
?sfAckShopItemListStart@BTSocket_Channel@BatteryNetlib@@QAEHK@Z @ 2975
?sfAckSpecificChannelUserInfo@BTSocket_Channel@BatteryNetlib@@QAEHKPAGK0KKKK0KKKKK@Z @ 2976
?sfAckSpecificGameRoomInfo@BTSocket_Channel@BatteryNetlib@@QAEHKKPAG0KEE0KEEE0K0EE@Z @ 2977
?sfAckStartDedicateHost@BTSocket_Process2Agent@BatteryNetlib@@QAEHKKKKK@Z @ 2978
?sfAckStartGame@BTSocket_Channel@BatteryNetlib@@QAEHGGKKPAG@Z @ 2979
?sfAckStartHolePunching@BTSocket_Channel@BatteryNetlib@@QAEHKPAGKK@Z @ 2980
?sfAckStartMemoList@BTSocket_Channel@BatteryNetlib@@QAEHKPAGEK@Z @ 2981
?sfAckStartNatDiag@BTSocket_Channel@BatteryNetlib@@QAEHK@Z @ 2982
?sfAckSuccessStartGame@BTSocket_Channel@BatteryNetlib@@QAEHKPAGE0KK@Z @ 2983
?sfAckTencent_AASInfo@BTSocket_Channel@BatteryNetlib@@QAEHKEEK@Z @ 2984
?sfAckTencent_AASInfo@BTSocket_Login@BatteryNetlib@@QAEHKEEK@Z @ 2985
?sfAckTencent_StartTenProtect@BTSocket_Channel@BatteryNetlib@@QAEHK@Z @ 2986
?sfAckTestDouble@BTSocket_Channel@BatteryNetlib@@QAEHNAAVBTBuffer@2@@Z @ 2987
?sfAckUpdateQSlot@BTSocket_Channel@BatteryNetlib@@QAEHKPAG@Z @ 2988
?sfAckUpdateScore@BTSocket_Channel@BatteryNetlib@@QAEHAAVBTBuffer@2@0000000000000@Z @ 2989
?sfAckUpdateScoreResult@BTSocket_Channel@BatteryNetlib@@QAEHKPAG@Z @ 2990
?sfAckUpdateWeaponDurability@BTSocket_Channel@BatteryNetlib@@QAEHKPAGAAVBTBuffer@2@111@Z @ 2991
?sfAckUserDetailInfo@BTSocket_Login@BatteryNetlib@@QAEHKPAG0KKKKKKKKKK@Z @ 2992
?sfAckUserSkillList@BTSocket_Channel@BatteryNetlib@@QAEHAAVBTBuffer@2@000@Z @ 2993
?sfAckUserSkillListEnd@BTSocket_Channel@BatteryNetlib@@QAEHXZ @ 2994
?sfAckUserSkillListStart@BTSocket_Channel@BatteryNetlib@@QAEHKKPAG@Z @ 2995
?sfAckWebzenBillingStorageList@BTSocket_Channel@BatteryNetlib@@QAEHAAVBTBuffer@2@000000000000@Z @ 2996
?sfAckWebzenBillingStorageListEnd@BTSocket_Channel@BatteryNetlib@@QAEHXZ @ 2997
?sfAckWebzenBillingStorageListStart@BTSocket_Channel@BatteryNetlib@@QAEHKPAGKKK@Z @ 2998
?sfAckWebzenBillingUseStorageItem@BTSocket_Channel@BatteryNetlib@@QAEHKPAGNKN@Z @ 2999
?sfAckWebzenCash@BTSocket_Channel@BatteryNetlib@@QAEHKPAGNN@Z @ 3000
?sfAckWebzenShopScriptVersion@BTSocket_Channel@BatteryNetlib@@QAEHKKK@Z @ 3001
?sfNotifyClanLevelup@BTSocket_Channel@BatteryNetlib@@QAEHPAGK@Z @ 3002
?sfNotifyCouponUseError@BTSocket_Channel@BatteryNetlib@@QAEHK@Z @ 3003
?sfNotifyNewClanName@BTSocket_Channel@BatteryNetlib@@QAEHPAG@Z @ 3004
?sfNotifyNewNickName@BTSocket_Channel@BatteryNetlib@@QAEHKPAG0@Z @ 3005
?sfReqAccesItemTypeList@BTSocket_Login@BatteryNetlib@@QAEHXZ @ 3006
?sfReqAddBlockUserList@BTSocket_Channel@BatteryNetlib@@QAEHPAG@Z @ 3007
?sfReqAdjustClanMemberGrade@BTSocket_Channel@BatteryNetlib@@QAEHPAG0E@Z @ 3008
?sfReqAdvertisement@BTSocket_Login@BatteryNetlib@@QAEHXZ @ 3009
?sfReqAhnHsObject@BTSocket_Channel@BatteryNetlib@@QAEHAAVBTBuffer@2@K@Z @ 3010
?sfReqAhnNotifyDisconnct@BTSocket_Channel@BatteryNetlib@@QAEHK@Z @ 3011
?sfReqAuctionBidding@BTSocket_Channel@BatteryNetlib@@QAEHKK@Z @ 3012
?sfReqAuctionInstantlyBuying@BTSocket_Channel@BatteryNetlib@@QAEHK@Z @ 3013
?sfReqAuctionItemList@BTSocket_Channel@BatteryNetlib@@QAEHEPAGKEEKKK@Z @ 3014
?sfReqAuctionItemListCount@BTSocket_Channel@BatteryNetlib@@QAEHEEKK@Z @ 3015
?sfReqAuctionMyItemCancel@BTSocket_Channel@BatteryNetlib@@QAEHK@Z @ 3016
?sfReqAuctionMyItemRegister@BTSocket_Channel@BatteryNetlib@@QAEHNKKKK@Z @ 3017
?sfReqAuctionTradeHistory@BTSocket_Channel@BatteryNetlib@@QAEHKK@Z @ 3018
?sfReqBanUser@BTSocket_Channel@BatteryNetlib@@QAEHGKK@Z @ 3019
?sfReqBlockUserList@BTSocket_Channel@BatteryNetlib@@QAEHXZ @ 3020
?sfReqBuyItemByWebzenCash@BTSocket_Channel@BatteryNetlib@@QAEHKKKAAVBTBuffer@2@NEE@Z @ 3021
?sfReqBuyItemByWebzenCashGP20@BTSocket_Channel@BatteryNetlib@@QAEHKEN@Z @ 3022
?sfReqBuyShopItem@BTSocket_Channel@BatteryNetlib@@QAEHKNEE@Z @ 3023
?sfReqChangeGameMode@BTSocket_Channel@BatteryNetlib@@QAEHGKPAGE@Z @ 3024
?sfReqChangeRoomMaxNum@BTSocket_Channel@BatteryNetlib@@QAEHGKGG@Z @ 3025
?sfReqChangeRoomOwner@BTSocket_Channel@BatteryNetlib@@QAEHGKK@Z @ 3026
?sfReqChangeRoomSetting@BTSocket_Channel@BatteryNetlib@@QAEHKPAG00EEEEKKE0EEEEEEEEEEEE0EEEEEEE@Z @ 3027
?sfReqChangeRoomTitle_GM@BTSocket_Channel@BatteryNetlib@@QAEHGPAG@Z @ 3028
?sfReqChangeTeam@BTSocket_Channel@BatteryNetlib@@QAEHG@Z @ 3029
?sfReqChangeUserState@BTSocket_Channel@BatteryNetlib@@QAEHEE@Z @ 3030
?sfReqChannelList@BTSocket_Channel@BatteryNetlib@@QAEHG@Z @ 3031
?sfReqChannelUserList@BTSocket_Channel@BatteryNetlib@@QAEHGGG@Z @ 3032
?sfReqChannelUserListInGameRoom@BTSocket_Channel@BatteryNetlib@@QAEHGGG@Z @ 3033
?sfReqCharBlockInfo@BTSocket_Channel@BatteryNetlib@@QAEHXZ @ 3034
?sfReqCharDetailInfo@BTSocket_Channel@BatteryNetlib@@QAEHXZ @ 3035
?sfReqCharInfo@BTSocket_Channel@BatteryNetlib@@QAEHXZ @ 3036
?sfReqCharInfo@BTSocket_Login@BatteryNetlib@@QAEHPAG@Z @ 3037
?sfReqChatClan@BTSocket_Channel@BatteryNetlib@@QAEHPAG@Z @ 3038
?sfReqChatNormal@BTSocket_Channel@BatteryNetlib@@QAEHPAG@Z @ 3039
?sfReqChatWispher@BTSocket_Channel@BatteryNetlib@@QAEHPAG0@Z @ 3040
?sfReqChatWispherMyCommunity@BTSocket_Channel@BatteryNetlib@@QAEHPAG00@Z @ 3041
?sfReqCheckEquipedWeaponDurability@BTSocket_Channel@BatteryNetlib@@QAEHXZ @ 3042
?sfReqClanChangeInfo@BTSocket_Channel@BatteryNetlib@@QAEHPAGEE000@Z @ 3043
?sfReqClanCharPersonelIntro@BTSocket_Channel@BatteryNetlib@@QAEHPAG0@Z @ 3044
?sfReqClanClose@BTSocket_Channel@BatteryNetlib@@QAEHPAG@Z @ 3045
?sfReqClanInfo@BTSocket_Channel@BatteryNetlib@@QAEHPAG@Z @ 3046
?sfReqClanMatchResultHistory@BTSocket_Channel@BatteryNetlib@@QAEHPAG@Z @ 3047
?sfReqClanMatch_ChangeLeader@BTSocket_Channel@BatteryNetlib@@QAEHKKPAG@Z @ 3048
?sfReqClanMatch_ChangeRoomSetting@BTSocket_Channel@BatteryNetlib@@QAEHKAAVBTBuffer@2@KE@Z @ 3049
?sfReqClanMatch_Chat@BTSocket_Channel@BatteryNetlib@@QAEHPAG@Z @ 3050
?sfReqClanMatch_FoundMatch@BTSocket_Channel@BatteryNetlib@@QAEHKK@Z @ 3051
?sfReqClanMatch_GetClanWaittingRoomInfo@BTSocket_Channel@BatteryNetlib@@QAEHXZ @ 3052
?sfReqClanMatch_GetPublicWaitRoomList@BTSocket_Channel@BatteryNetlib@@QAEHXZ @ 3053
?sfReqClanMatch_GetReady@BTSocket_Channel@BatteryNetlib@@QAEHXZ @ 3054
?sfReqClanMatch_InviteCrew@BTSocket_Channel@BatteryNetlib@@QAEHPAG@Z @ 3055
?sfReqClanMatch_InviteCrewResult@BTSocket_Channel@BatteryNetlib@@QAEHPAGK@Z @ 3056
?sfReqClanMatch_Join@BTSocket_Channel@BatteryNetlib@@QAEHK@Z @ 3057
?sfReqClanMatch_Leave@BTSocket_Channel@BatteryNetlib@@QAEHK@Z @ 3058
?sfReqClanMatch_MemberList@BTSocket_Channel@BatteryNetlib@@QAEHXZ @ 3059
?sfReqClanMatch_RecvInviteCrew@BTSocket_Channel@BatteryNetlib@@QAEHPAG0KK0KK00@Z @ 3060
?sfReqClanMatch_SetWaitRoomPublic@BTSocket_Channel@BatteryNetlib@@QAEHE@Z @ 3061
?sfReqClanMatch_StartCombat@BTSocket_Channel@BatteryNetlib@@QAEHAAVBTBuffer@2@K@Z @ 3062
?sfReqClanMatch_StartSearching@BTSocket_Channel@BatteryNetlib@@QAEHK@Z @ 3063
?sfReqClanMatch_StopSearching@BTSocket_Channel@BatteryNetlib@@QAEHXZ @ 3064
?sfReqClanMatch_WaittingTeamList@BTSocket_Channel@BatteryNetlib@@QAEHKK@Z @ 3065
?sfReqClanMemberListFromClient@BTSocket_Login@BatteryNetlib@@QAEHXZ @ 3066
?sfReqClanNews@BTSocket_Channel@BatteryNetlib@@QAEHPAG@Z @ 3067
?sfReqClanPersonelIntro@BTSocket_Channel@BatteryNetlib@@QAEHPAG00@Z @ 3068
?sfReqClanSecession@BTSocket_Channel@BatteryNetlib@@QAEHPAG@Z @ 3069
?sfReqClanUserList@BTSocket_Channel@BatteryNetlib@@QAEHPAG@Z @ 3070
?sfReqClientChallenge@BTSocket_Login@BatteryNetlib@@QAEHXZ @ 3071
?sfReqClientChecksum@BTSocket_Login@BatteryNetlib@@QAEHPAGN@Z @ 3072
?sfReqClientUdpInfoList@BTSocket_Channel@BatteryNetlib@@QAEHG@Z @ 3073
?sfReqCommunityOptionList@BTSocket_Channel@BatteryNetlib@@QAEHXZ @ 3074
?sfReqCompleteFriendInvite@BTSocket_Channel@BatteryNetlib@@QAEHPAGE@Z @ 3075
?sfReqConfirmFriendInvite@BTSocket_Channel@BatteryNetlib@@QAEHKPAGE@Z @ 3076
?sfReqConfirmItemChanged@BTSocket_Channel@BatteryNetlib@@QAEHXZ @ 3077
?sfReqConfirmSkillChanged@BTSocket_Channel@BatteryNetlib@@QAEHXZ @ 3078
?sfReqConnectChannelServer@BTSocket_Login@BatteryNetlib@@QAEHPAGK@Z @ 3079
?sfReqConnectGame@BTSocket_Channel@BatteryNetlib@@QAEHXZ @ 3080
?sfReqCouponUse@BTSocket_Channel@BatteryNetlib@@QAEHPAG@Z @ 3081
?sfReqCreateChar@BTSocket_Login@BatteryNetlib@@QAEHPAGKKK@Z @ 3082
?sfReqCreateClan@BTSocket_Channel@BatteryNetlib@@QAEHPAG000E@Z @ 3083
?sfReqCreateGameRoom@BTSocket_Channel@BatteryNetlib@@QAEHKPAG00EEEEKKE0EEEEEEEEEEEE0EEEEEEE@Z @ 3084
?sfReqDBCharInfo@BTSocket_Channel@BatteryNetlib@@QAEHPAG@Z @ 3085
?sfReqDailyQuestNewAvailable@BTSocket_Channel@BatteryNetlib@@QAEHAAVBTBuffer@2@0@Z @ 3086
?sfReqDedicateHost_Login@BTSocket_Channel@BatteryNetlib@@QAEHKKK@Z @ 3087
?sfReqDelMemo@BTSocket_Channel@BatteryNetlib@@QAEHAAVBTBuffer@2@E@Z @ 3088
?sfReqDeleteFriend@BTSocket_Channel@BatteryNetlib@@QAEHAAVBTBuffer@2@@Z @ 3089
?sfReqDeleteMailAll@BTSocket_Channel@BatteryNetlib@@QAEHE@Z @ 3090
?sfReqDisconnectGame@BTSocket_Channel@BatteryNetlib@@QAEHXZ @ 3091
?sfReqDummy@BTSocket_Channel@BatteryNetlib@@QAEHK@Z @ 3092
?sfReqDupCheckClanName@BTSocket_Channel@BatteryNetlib@@QAEHPAG@Z @ 3093
?sfReqEnterChannel@BTSocket_Channel@BatteryNetlib@@QAEHG@Z @ 3094
?sfReqEnterRoom@BTSocket_Channel@BatteryNetlib@@QAEHGPAGE@Z @ 3095
?sfReqEntryItemList@BTSocket_Channel@BatteryNetlib@@QAEHK@Z @ 3096
?sfReqEntryQSlotIDList@BTSocket_Channel@BatteryNetlib@@QAEHK@Z @ 3097
?sfReqEntryQSlotUniqueIDList@BTSocket_Channel@BatteryNetlib@@QAEHK@Z @ 3098
?sfReqEntrySkillList@BTSocket_Channel@BatteryNetlib@@QAEHK@Z @ 3099
?sfReqEquipItem@BTSocket_Channel@BatteryNetlib@@QAEHKNK@Z @ 3100
?sfReqEquipSkill@BTSocket_Channel@BatteryNetlib@@QAEHKKE@Z @ 3101
?sfReqErrorReportServerAddr@BTSocket_Login@BatteryNetlib@@QAEHXZ @ 3102
?sfReqEventNotify@BTSocket_Channel@BatteryNetlib@@QAEHXZ @ 3103
?sfReqEventNotify@BTSocket_Login@BatteryNetlib@@QAEHXZ @ 3104
?sfReqExteriorRoomInfo@BTSocket_Channel@BatteryNetlib@@QAEHGKEPAG00KKEGGEEEE@Z @ 3105
?sfReqExteriorRoomOwnerInfo@BTSocket_Channel@BatteryNetlib@@QAEHGPAG0@Z @ 3106
?sfReqExteriorRoomState@BTSocket_Channel@BatteryNetlib@@QAEHKE@Z @ 3107
?sfReqExteriorRoomUserCount@BTSocket_Channel@BatteryNetlib@@QAEHKG@Z @ 3108
?sfReqFailedStartGame@BTSocket_Channel@BatteryNetlib@@QAEHK@Z @ 3109
?sfReqForceDisconnectUDPFromHost@BTSocket_Channel@BatteryNetlib@@QAEHK@Z @ 3110
?sfReqForceDisconnectUser_GM@BTSocket_Channel@BatteryNetlib@@QAEHPAG@Z @ 3111
?sfReqForceFailedClientLoading@BTSocket_Channel@BatteryNetlib@@QAEHKK@Z @ 3112
?sfReqForceGameOver@BTSocket_Channel@BatteryNetlib@@QAEHXZ @ 3113
?sfReqForceLogoutByOwner@BTSocket_Channel@BatteryNetlib@@QAEHXZ @ 3114
?sfReqForceLogoutByOwner@BTSocket_Login@BatteryNetlib@@QAEHXZ @ 3115
?sfReqForceNatTypeSetting@BTSocket_Channel@BatteryNetlib@@QAEHK@Z @ 3116
?sfReqFriendList@BTSocket_Channel@BatteryNetlib@@QAEHXZ @ 3117
?sfReqFriendPosition@BTSocket_Channel@BatteryNetlib@@QAEHPAGE@Z @ 3118
?sfReqFriendsList@BTSocket_Login@BatteryNetlib@@QAEHXZ @ 3119
?sfReqGameGuardAuthData@BTSocket_Channel@BatteryNetlib@@QAEHKKKK@Z @ 3120
?sfReqGameHostInfo@BTSocket_Channel@BatteryNetlib@@QAEHG@Z @ 3121
?sfReqGameMapData@BTSocket_Channel@BatteryNetlib@@QAEHXZ @ 3122
?sfReqGameOver@BTSocket_Channel@BatteryNetlib@@QAEHKG@Z @ 3123
?sfReqGameOverEnd@BTSocket_Channel@BatteryNetlib@@QAEHXZ @ 3124
?sfReqGamePlay_ChangeWeaponSet@BTSocket_Channel@BatteryNetlib@@QAEHKK@Z @ 3125
?sfReqGamePlay_DefuseBomb@BTSocket_Channel@BatteryNetlib@@QAEHKEMMMKKKK@Z @ 3126
?sfReqGamePlay_GetChopper@BTSocket_Channel@BatteryNetlib@@QAEHKAAVBTBuffer@2@MMMKKKKKKPAGMMM@Z @ 3127
?sfReqGamePlay_InstallBomb@BTSocket_Channel@BatteryNetlib@@QAEHKEMMMKKKK@Z @ 3128
?sfReqGamePlay_SetGameStartTime@BTSocket_Channel@BatteryNetlib@@QAEHAAVBTBuffer@2@@Z @ 3129
?sfReqGamePlay_SetRoundStartTime@BTSocket_Channel@BatteryNetlib@@QAEHAAVBTBuffer@2@@Z @ 3130
?sfReqGamePlay_TakeAPoint@BTSocket_Channel@BatteryNetlib@@QAEHAAVBTBuffer@2@E0000000@Z @ 3131
?sfReqGamePlay_UpdateDomScore@BTSocket_Channel@BatteryNetlib@@QAEHKK@Z @ 3132
?sfReqGameRoomInfo@BTSocket_Channel@BatteryNetlib@@QAEHGK@Z @ 3133
?sfReqGetAttachedItemFromMemo@BTSocket_Channel@BatteryNetlib@@QAEHKKK@Z @ 3134
?sfReqGetBooty@BTSocket_Channel@BatteryNetlib@@QAEHG@Z @ 3135
?sfReqGetBotID@BTSocket_Channel@BatteryNetlib@@QAEHEE@Z @ 3136
?sfReqGetCharBlockInfo@BTSocket_Login@BatteryNetlib@@QAEHXZ @ 3137
?sfReqGetHolePunchingResult@BTSocket_Channel@BatteryNetlib@@QAEHXZ @ 3138
?sfReqGetIsHostBlocking@BTSocket_Channel@BatteryNetlib@@QAEHXZ @ 3139
?sfReqGetItemFromItemBox@BTSocket_Channel@BatteryNetlib@@QAEHNKKK@Z @ 3140
?sfReqGetMyMailBoxState@BTSocket_Channel@BatteryNetlib@@QAEHXZ @ 3141
?sfReqGetRankingInfoList@BTSocket_Channel@BatteryNetlib@@QAEHEE@Z @ 3142
?sfReqGetServerTime@BTSocket_Channel@BatteryNetlib@@QAEHXZ @ 3143
?sfReqGetUserHostPriorityPoint@BTSocket_Channel@BatteryNetlib@@QAEHK@Z @ 3144
?sfReqGiftItemByWebzenCash@BTSocket_Channel@BatteryNetlib@@QAEHPAG0KKK@Z @ 3145
?sfReqGiftItemByWebzenCashGP20@BTSocket_Channel@BatteryNetlib@@QAEHPAG0KE@Z @ 3146
?sfReqGiveSkill@BTSocket_Channel@BatteryNetlib@@QAEHXZ @ 3147
?sfReqHash@BTSocket_Channel@BatteryNetlib@@QAEHKKKK@Z @ 3148
?sfReqHash@BTSocket_Login@BatteryNetlib@@QAEHKKKK@Z @ 3149
?sfReqHash@BTSocket_Process2Agent@BatteryNetlib@@QAEHKKKK@Z @ 3150
?sfReqHeadItemTypeList@BTSocket_Login@BatteryNetlib@@QAEHXZ @ 3151
?sfReqHelmetItemTypeList@BTSocket_Login@BatteryNetlib@@QAEHXZ @ 3152
?sfReqInGameRoomUserClanLevelChanged@BTSocket_Channel@BatteryNetlib@@QAEHKK@Z @ 3153
?sfReqInGameRoomUserInfoChanged@BTSocket_Channel@BatteryNetlib@@QAEHXZ @ 3154
?sfReqInviteClan@BTSocket_Channel@BatteryNetlib@@QAEHPAG0@Z @ 3155
?sfReqInviteGameRoom@BTSocket_Channel@BatteryNetlib@@QAEHPAG@Z @ 3156
?sfReqIsAvailClanURL@BTSocket_Channel@BatteryNetlib@@QAEHPAG@Z @ 3157
?sfReqIsGameRoomPlaying@BTSocket_Channel@BatteryNetlib@@QAEHG@Z @ 3158
?sfReqIsHostAvailable@BTSocket_Channel@BatteryNetlib@@QAEHPAGGGGG@Z @ 3159
?sfReqIsPaidWebzenPCBang@BTSocket_Channel@BatteryNetlib@@QAEHE@Z @ 3160
?sfReqItemList@BTSocket_Channel@BatteryNetlib@@QAEHK@Z @ 3161
?sfReqItemListInItemBox@BTSocket_Channel@BatteryNetlib@@QAEHNK@Z @ 3162
?sfReqJoinClan@BTSocket_Channel@BatteryNetlib@@QAEHPAG00@Z @ 3163
?sfReqKeepAlive@BTSocket_Login@BatteryNetlib@@QAEHXZ @ 3164
?sfReqLeaveChannel@BTSocket_Channel@BatteryNetlib@@QAEHG@Z @ 3165
?sfReqLeaveRoom@BTSocket_Channel@BatteryNetlib@@QAEHG@Z @ 3166
?sfReqLimitedListInChannel@BTSocket_Channel@BatteryNetlib@@QAEHXZ @ 3167
?sfReqLogEndEachRound@BTSocket_Channel@BatteryNetlib@@QAEHKKKKEEKKK@Z @ 3168
?sfReqLogGetScore@BTSocket_Channel@BatteryNetlib@@QAEHKMMMKKKKKEEKMMMKKKEKAAVBTBuffer@2@0@Z @ 3169
?sfReqLogOut@BTSocket_Channel@BatteryNetlib@@QAEHE@Z @ 3170
?sfReqLogOut@BTSocket_Login@BatteryNetlib@@QAEHE@Z @ 3171
?sfReqLogin2@BTSocket_Channel@BatteryNetlib@@QAEHPAGKKKKKK0K@Z @ 3172
?sfReqLogin@BTSocket_Channel@BatteryNetlib@@QAEHPAG@Z @ 3173
?sfReqLogin@BTSocket_Login@BatteryNetlib@@QAEHPAG@Z @ 3174
?sfReqLogin@BTSocket_Process2Agent@BatteryNetlib@@QAEHKKAAVBTBuffer@2@000@Z @ 3175
?sfReqLoginInHouseTest@BTSocket_Login@BatteryNetlib@@QAEHPAG00@Z @ 3176
?sfReqLoginWithGlobal@BTSocket_Login@BatteryNetlib@@QAEHPAG00K@Z @ 3177
?sfReqLoginWithIndonesia@BTSocket_Login@BatteryNetlib@@QAEHPAG@Z @ 3178
?sfReqLoginWithTencentAuth@BTSocket_Login@BatteryNetlib@@QAEHPAGAAVBTBuffer@2@@Z @ 3179
?sfReqLoginWithThailand@BTSocket_Login@BatteryNetlib@@QAEHPAGKK00E@Z @ 3180
?sfReqLoginWithWZAuth@BTSocket_Login@BatteryNetlib@@QAEHPAG00@Z @ 3181
?sfReqMemoList@BTSocket_Channel@BatteryNetlib@@QAEHEE@Z @ 3182
?sfReqModifyWeapon@BTSocket_Channel@BatteryNetlib@@QAEHNKK@Z @ 3183
?sfReqMyEquipedItemList@BTSocket_Channel@BatteryNetlib@@QAEHXZ @ 3184
?sfReqMyEquipedQSlotList@BTSocket_Channel@BatteryNetlib@@QAEHXZ @ 3185
?sfReqMyEquipedSkillList@BTSocket_Channel@BatteryNetlib@@QAEHXZ @ 3186
?sfReqMyMoney@BTSocket_Channel@BatteryNetlib@@QAEHXZ @ 3187
?sfReqNotice_GM@BTSocket_Channel@BatteryNetlib@@QAEHEKGGPAG@Z @ 3188
?sfReqNotifyChangeRoomState@BTSocket_Channel@BatteryNetlib@@QAEHE@Z @ 3189
?sfReqNotifyChangedItemState@BTSocket_Channel@BatteryNetlib@@QAEHXZ @ 3190
?sfReqNotifyChangedSkillState@BTSocket_Channel@BatteryNetlib@@QAEHXZ @ 3191
?sfReqNotifyClientJoinTime@BTSocket_Channel@BatteryNetlib@@QAEHK@Z @ 3192
?sfReqNotifyDisconnectHostInLoading@BTSocket_Channel@BatteryNetlib@@QAEHKPAGK@Z @ 3193
?sfReqNotifyDurabilityZeroItem@BTSocket_Channel@BatteryNetlib@@QAEHKPAGKAAVBTBuffer@2@111@Z @ 3194
?sfReqNotifyEndTutorial@BTSocket_Channel@BatteryNetlib@@QAEHK@Z @ 3195
?sfReqNotifyExpiredItemIDs@BTSocket_Channel@BatteryNetlib@@QAEHXZ @ 3196
?sfReqNotifyExpiredSkillIDs@BTSocket_Channel@BatteryNetlib@@QAEHXZ @ 3197
?sfReqNotifyHostBlocking@BTSocket_Channel@BatteryNetlib@@QAEHE@Z @ 3198
?sfReqNotifyLevelUp@BTSocket_Channel@BatteryNetlib@@QAEHKKKAAVBTBuffer@2@0@Z @ 3199
?sfReqNotifyLoadingState@BTSocket_Channel@BatteryNetlib@@QAEHE@Z @ 3200
?sfReqNotifyLoadingStatus@BTSocket_Channel@BatteryNetlib@@QAEHK@Z @ 3201
?sfReqNotifyMyCharInfoToRoomUser@BTSocket_Channel@BatteryNetlib@@QAEHXZ @ 3202
?sfReqNotifyRecvDummyForHolePunching@BTSocket_Channel@BatteryNetlib@@QAEHKE@Z @ 3203
?sfReqNotifyRelayServerAddr@BTSocket_Channel@BatteryNetlib@@QAEHPAGK@Z @ 3204
?sfReqNotifyShopItemData@BTSocket_Channel@BatteryNetlib@@QAEHAAVBTBuffer@2@0000000000000000000000000000@Z @ 3205
?sfReqNotifyShopItemDataEnd@BTSocket_Channel@BatteryNetlib@@QAEHK@Z @ 3206
?sfReqNotifyStartTutorial@BTSocket_Channel@BatteryNetlib@@QAEHXZ @ 3207
?sfReqPCBangUserList@BTSocket_Channel@BatteryNetlib@@QAEHXZ @ 3208
?sfReqPCBangUserList@BTSocket_Login@BatteryNetlib@@QAEHXZ @ 3209
?sfReqPaidItem_BroadCast@BTSocket_Channel@BatteryNetlib@@QAEHNKPAG@Z @ 3210
?sfReqPaidItem_ChangeCharname@BTSocket_Channel@BatteryNetlib@@QAEHNPAG@Z @ 3211
?sfReqPaidItem_ChangeClanMark@BTSocket_Channel@BatteryNetlib@@QAEHNEKKK@Z @ 3212
?sfReqPaidItem_ChangeClanname@BTSocket_Channel@BatteryNetlib@@QAEHNPAG@Z @ 3213
?sfReqPaidItem_ClanMarkDupCheck@BTSocket_Channel@BatteryNetlib@@QAEHEKKK@Z @ 3214
?sfReqPaidItem_EraseRecord@BTSocket_Channel@BatteryNetlib@@QAEHNK@Z @ 3215
?sfReqParamCheckSum@BTSocket_Channel@BatteryNetlib@@QAEHPAG0@Z @ 3216
?sfReqPermanentRoomInfo@BTSocket_Channel@BatteryNetlib@@QAEHK@Z @ 3217
?sfReqProcessExcuteCmd@BTSocket_Process2Agent@BatteryNetlib@@QAEHKKPAG@Z @ 3218
?sfReqProcessPreLoginUser@BTSocket_Login@BatteryNetlib@@QAEHPAGE@Z @ 3219
?sfReqQSlotList@BTSocket_Channel@BatteryNetlib@@QAEHXZ @ 3220
?sfReqQuestGetAvailableEventList@BTSocket_Channel@BatteryNetlib@@QAEHXZ @ 3221
?sfReqQuestList@BTSocket_Channel@BatteryNetlib@@QAEHXZ @ 3222
?sfReqQuestNewAvailable@BTSocket_Channel@BatteryNetlib@@QAEHAAVBTBuffer@2@000@Z @ 3223
?sfReqQuestUpdate@BTSocket_Channel@BatteryNetlib@@QAEHKKAAVBTBuffer@2@0@Z @ 3224
?sfReqQuitDedicateHost@BTSocket_Process2Agent@BatteryNetlib@@QAEHKKK@Z @ 3225
?sfReqRandomBox_Use@BTSocket_Channel@BatteryNetlib@@QAEHN@Z @ 3226
?sfReqReadMemo@BTSocket_Channel@BatteryNetlib@@QAEHK@Z @ 3227
?sfReqRecvChatWispher@BTSocket_Channel@BatteryNetlib@@QAEHPAG0@Z @ 3228
?sfReqRecvClanInvite@BTSocket_Channel@BatteryNetlib@@QAEHKPAG00@Z @ 3229
?sfReqRecvDeleteFriend@BTSocket_Channel@BatteryNetlib@@QAEHKPAG@Z @ 3230
?sfReqRecvForceDisconnectUDPFromHost@BTSocket_Channel@BatteryNetlib@@QAEHK@Z @ 3231
?sfReqRecvForceDisconnected_FromGM@BTSocket_Channel@BatteryNetlib@@QAEHKPAG@Z @ 3232
?sfReqRecvForceFailedClientLoading@BTSocket_Channel@BatteryNetlib@@QAEHK@Z @ 3233
?sfReqRecvFriendInvite@BTSocket_Channel@BatteryNetlib@@QAEHKPAG0@Z @ 3234
?sfReqRecvInviteGameRoom@BTSocket_Channel@BatteryNetlib@@QAEHPAGKG0G0E00EEE00@Z @ 3235
?sfReqRecvJoinClan@BTSocket_Channel@BatteryNetlib@@QAEHKPAG0@Z @ 3236
?sfReqRecvMemo@BTSocket_Channel@BatteryNetlib@@QAEHPAGE@Z @ 3237
?sfReqRecvNotice_FromGM@BTSocket_Channel@BatteryNetlib@@QAEHKPAGAAVBTBuffer@2@E@Z @ 3238
?sfReqRegisterMainPCBang@BTSocket_Channel@BatteryNetlib@@QAEHXZ @ 3239
?sfReqRegisterMainPCBang@BTSocket_Login@BatteryNetlib@@QAEHXZ @ 3240
?sfReqRegisterMyUdpInfo@BTSocket_Channel@BatteryNetlib@@QAEHEPAGKE0K@Z @ 3241
?sfReqRegisteredPCBangInfo@BTSocket_Channel@BatteryNetlib@@QAEHXZ @ 3242
?sfReqRegisteredPCBangInfo@BTSocket_Login@BatteryNetlib@@QAEHXZ @ 3243
?sfReqRelayServerOff@BTSocket_Channel@BatteryNetlib@@QAEHXZ @ 3244
?sfReqRelayServerOn@BTSocket_Channel@BatteryNetlib@@QAEHPAGK@Z @ 3245
?sfReqRemoveBlockUserList@BTSocket_Channel@BatteryNetlib@@QAEHPAG@Z @ 3246
?sfReqRemoveCheckTeamBalanceList@BTSocket_Channel@BatteryNetlib@@QAEHXZ @ 3247
?sfReqRepairCost@BTSocket_Channel@BatteryNetlib@@QAEHAAVBTBuffer@2@@Z @ 3248
?sfReqRepairItem@BTSocket_Channel@BatteryNetlib@@QAEHAAVBTBuffer@2@@Z @ 3249
?sfReqReturnBotID@BTSocket_Channel@BatteryNetlib@@QAEHAAVBTBuffer@2@@Z @ 3250
?sfReqRoomList@BTSocket_Channel@BatteryNetlib@@QAEHGKG@Z @ 3251
?sfReqRoomUserList@BTSocket_Channel@BatteryNetlib@@QAEHG@Z @ 3252
?sfReqRoomUserPingInfo@BTSocket_Channel@BatteryNetlib@@QAEHAAVBTBuffer@2@0K@Z @ 3253
?sfReqSelectMap@BTSocket_Channel@BatteryNetlib@@QAEHGKPAG@Z @ 3254
?sfReqSellShopItem@BTSocket_Channel@BatteryNetlib@@QAEHNK@Z @ 3255
?sfReqSellShopItemInfo@BTSocket_Channel@BatteryNetlib@@QAEHNK@Z @ 3256
?sfReqSendFriendInvite@BTSocket_Channel@BatteryNetlib@@QAEHKPAG0@Z @ 3257
?sfReqSendGift@BTSocket_Channel@BatteryNetlib@@QAEHKPAG0EE@Z @ 3258
?sfReqSendMemo@BTSocket_Channel@BatteryNetlib@@QAEHAAVBTBuffer@2@PAGK@Z @ 3259
?sfReqSendSystemMsg@BTSocket_Channel@BatteryNetlib@@QAEHEPAG0K0GGGKK@Z @ 3260
?sfReqSerachClan@BTSocket_Channel@BatteryNetlib@@QAEHEPAGEEG@Z @ 3261
?sfReqServerList@BTSocket_Login@BatteryNetlib@@QAEHXZ @ 3262
?sfReqServerShutdown@BTSocket_Channel@BatteryNetlib@@QAEHPAGKN@Z @ 3263
?sfReqServerTime@BTSocket_Channel@BatteryNetlib@@QAEHXZ @ 3264
?sfReqServerTime@BTSocket_Login@BatteryNetlib@@QAEHXZ @ 3265
?sfReqServerType@BTSocket_Channel@BatteryNetlib@@QAEHXZ @ 3266
?sfReqSetClientVersion@BTSocket_Channel@BatteryNetlib@@QAEHK@Z @ 3267
?sfReqSetCommunityOption@BTSocket_Channel@BatteryNetlib@@QAEHGGGG@Z @ 3268
?sfReqSetLookForClan@BTSocket_Channel@BatteryNetlib@@QAEHE@Z @ 3269
?sfReqSetUserBootySeedValue@BTSocket_Channel@BatteryNetlib@@QAEHKK@Z @ 3270
?sfReqShopItemData@BTSocket_Channel@BatteryNetlib@@QAEHK@Z @ 3271
?sfReqShopItemList@BTSocket_Channel@BatteryNetlib@@QAEHXZ @ 3272
?sfReqSpecificChannelUserInfo@BTSocket_Channel@BatteryNetlib@@QAEHK@Z @ 3273
?sfReqSpecificGameRoomInfo@BTSocket_Channel@BatteryNetlib@@QAEHK@Z @ 3274
?sfReqStartDedicateHost@BTSocket_Process2Agent@BatteryNetlib@@QAEHKPAGKKK@Z @ 3275
?sfReqStartGame@BTSocket_Channel@BatteryNetlib@@QAEHG@Z @ 3276
?sfReqStartHolePunching@BTSocket_Channel@BatteryNetlib@@QAEHKK@Z @ 3277
?sfReqStartNatDiag@BTSocket_Channel@BatteryNetlib@@QAEHPAGK0K@Z @ 3278
?sfReqSuccessStartGame@BTSocket_Channel@BatteryNetlib@@QAEHK@Z @ 3279
?sfReqTerminateDedicateHostProcess@BTSocket_Process2Agent@BatteryNetlib@@QAEHXZ @ 3280
?sfReqTestDouble@BTSocket_Channel@BatteryNetlib@@QAEHNAAVBTBuffer@2@@Z @ 3281
?sfReqUpdateMyHostPriorityPoint@BTSocket_Channel@BatteryNetlib@@QAEHK@Z @ 3282
?sfReqUpdateProcessState@BTSocket_Process2Agent@BatteryNetlib@@QAEHK@Z @ 3283
?sfReqUpdateQSlot@BTSocket_Channel@BatteryNetlib@@QAEHKPAGNNNNKKKK@Z @ 3284
?sfReqUpdateScore@BTSocket_Channel@BatteryNetlib@@QAEHKAAVBTBuffer@2@000000000KE0@Z @ 3285
?sfReqUpdateUserCount_ChannelServer@BTSocket_Process2Agent@BatteryNetlib@@QAEHKKAAVBTBuffer@2@0000@Z @ 3286
?sfReqUpdateUserCount_DudeServer@BTSocket_Process2Agent@BatteryNetlib@@QAEHKKK@Z @ 3287
?sfReqUpdateUserCount_LoginServer@BTSocket_Process2Agent@BatteryNetlib@@QAEHKKK@Z @ 3288
?sfReqUpdateUserPerformenceInfo@BTSocket_Channel@BatteryNetlib@@QAEHKKKKKKK@Z @ 3289
?sfReqUpdateWeaponDurability@BTSocket_Channel@BatteryNetlib@@QAEHKAAVBTBuffer@2@0000@Z @ 3290
?sfReqUserDetailInfo@BTSocket_Login@BatteryNetlib@@QAEHKPAG@Z @ 3291
?sfReqUserSkillList@BTSocket_Channel@BatteryNetlib@@QAEHK@Z @ 3292
?sfReqWebzenBillingStorageList@BTSocket_Channel@BatteryNetlib@@QAEHKKE@Z @ 3293
?sfReqWebzenBillingUseStorageItem@BTSocket_Channel@BatteryNetlib@@QAEHKKE@Z @ 3294
?sfReqWebzenCash@BTSocket_Channel@BatteryNetlib@@QAEHXZ @ 3295
?sfReqWebzenShopScriptVersion@BTSocket_Channel@BatteryNetlib@@QAEHXZ @ 3296
?sfReqWriteServerLog@BTSocket_Channel@BatteryNetlib@@QAEHEPAG@Z @ 3297
?sfUpdateWebzenShopScriptVersion@BTSocket_Channel@BatteryNetlib@@QAEHKKK@Z @ 3298
GPackage @ 3300
_DllMain@12 @ 3299
autoclassUBTDataTransferClientLink @ 3301
autoclassUBTNatDiag @ 3302
autoclassUBTNetInterfaceTcp @ 3303
autoclassUBTSteamMapping @ 3304
autoclassUBTTcpHandler_DS @ 3305
autoclassUBTTcpHandler_DS_Script_Interface @ 3306
autoclassUBTTcpHandler_DStoDP @ 3307
autoclassUBTTcpHandler_DStoDP_Script_Interface @ 3308
autoclassUBTTcpLink_Channel @ 3309
autoclassUBTTcpLink_Login @ 3310
autoclassUBTTcpLink_Process2Agent @ 3311
intUBTDataTransferClientLinkexecClose @ 3312
intUBTDataTransferClientLinkexecInitNetwork @ 3313
intUBTDataTransferClientLinkexecRequestData @ 3314
intUBTNatDiagexecCheckPhrase1 @ 3315
intUBTNatDiagexecCheckPhrase2 @ 3316
intUBTNatDiagexecGetNatType @ 3317
intUBTNatDiagexecInitNatSocket @ 3318
intUBTNatDiagexecSetNatServerIp @ 3319
intUBTNatDiagexecSetPrimaryServer @ 3320
intUBTNatDiagexecSetSecondServer @ 3321
intUBTNatDiagexecStartNatCheck @ 3322
intUBTSteamMappingexecGetPayURL @ 3323
intUBTTcpLink_ChannelexecClose @ 3324
intUBTTcpLink_ChannelexecConnect @ 3325
intUBTTcpLink_ChannelexecInitNetwork @ 3326
intUBTTcpLink_ChannelexecsfAckAcquirePromotionItems @ 3327
intUBTTcpLink_ChannelexecsfAckAddBlockUserList @ 3328
intUBTTcpLink_ChannelexecsfAckAdjustClanMemberGrade @ 3329
intUBTTcpLink_ChannelexecsfAckAhnHsObject @ 3330
intUBTTcpLink_ChannelexecsfAckAuctionBidding @ 3331
intUBTTcpLink_ChannelexecsfAckAuctionInstantlyBuying @ 3332
intUBTTcpLink_ChannelexecsfAckAuctionItemList @ 3333
intUBTTcpLink_ChannelexecsfAckAuctionItemListCount @ 3334
intUBTTcpLink_ChannelexecsfAckAuctionItemListEnd @ 3335
intUBTTcpLink_ChannelexecsfAckAuctionItemListStart @ 3336
intUBTTcpLink_ChannelexecsfAckAuctionMyItemCancel @ 3337
intUBTTcpLink_ChannelexecsfAckAuctionMyItemRegister @ 3338
intUBTTcpLink_ChannelexecsfAckAuctionTradeHistory @ 3339
intUBTTcpLink_ChannelexecsfAckAutoChangedTeamUserList @ 3340
intUBTTcpLink_ChannelexecsfAckBanUser @ 3341
intUBTTcpLink_ChannelexecsfAckBlockUserList @ 3342
intUBTTcpLink_ChannelexecsfAckBlockUserListEnd @ 3343
intUBTTcpLink_ChannelexecsfAckBlockUserListStart @ 3344
intUBTTcpLink_ChannelexecsfAckBuyItemByWebzenCash @ 3345
intUBTTcpLink_ChannelexecsfAckBuyShopItem @ 3346
intUBTTcpLink_ChannelexecsfAckChangeGameMode @ 3347
intUBTTcpLink_ChannelexecsfAckChangeHost @ 3348
intUBTTcpLink_ChannelexecsfAckChangeNewGuest @ 3349
intUBTTcpLink_ChannelexecsfAckChangeRoomMaxNum @ 3350
intUBTTcpLink_ChannelexecsfAckChangeRoomOwner @ 3351
intUBTTcpLink_ChannelexecsfAckChangeRoomSetting @ 3352
intUBTTcpLink_ChannelexecsfAckChangeRoomTitle_GM @ 3353
intUBTTcpLink_ChannelexecsfAckChangeTeam @ 3354
intUBTTcpLink_ChannelexecsfAckChangeUserState @ 3355
intUBTTcpLink_ChannelexecsfAckChangedRoomTitle_FromGM @ 3356
intUBTTcpLink_ChannelexecsfAckChannelList @ 3357
intUBTTcpLink_ChannelexecsfAckChannelUserList @ 3358
intUBTTcpLink_ChannelexecsfAckChannelUserListInGameRoom @ 3359
intUBTTcpLink_ChannelexecsfAckCharBlockInfo @ 3360
intUBTTcpLink_ChannelexecsfAckCharDetailInfo @ 3361
intUBTTcpLink_ChannelexecsfAckCharInfo @ 3362
intUBTTcpLink_ChannelexecsfAckChatClan @ 3363
intUBTTcpLink_ChannelexecsfAckChatNormal @ 3364
intUBTTcpLink_ChannelexecsfAckChatWispher @ 3365
intUBTTcpLink_ChannelexecsfAckChatWispherMyCommunity @ 3366
intUBTTcpLink_ChannelexecsfAckCheckEquipedWeaponDurability @ 3367
intUBTTcpLink_ChannelexecsfAckClanChangeInfo @ 3368
intUBTTcpLink_ChannelexecsfAckClanCharPersonelIntro @ 3369
intUBTTcpLink_ChannelexecsfAckClanClose @ 3370
intUBTTcpLink_ChannelexecsfAckClanInfo @ 3371
intUBTTcpLink_ChannelexecsfAckClanMatchResultHistory @ 3372
intUBTTcpLink_ChannelexecsfAckClanMatch_ChangeLeader @ 3373
intUBTTcpLink_ChannelexecsfAckClanMatch_ChangeRoomSetting @ 3374
intUBTTcpLink_ChannelexecsfAckClanMatch_Chat @ 3375
intUBTTcpLink_ChannelexecsfAckClanMatch_EndPublicWaitRoomList @ 3376
intUBTTcpLink_ChannelexecsfAckClanMatch_FoundMatch @ 3377
intUBTTcpLink_ChannelexecsfAckClanMatch_GetClanWaittingRoomInfo @ 3378
intUBTTcpLink_ChannelexecsfAckClanMatch_GetReady @ 3379
intUBTTcpLink_ChannelexecsfAckClanMatch_InviteCrew @ 3380
intUBTTcpLink_ChannelexecsfAckClanMatch_Join @ 3381
intUBTTcpLink_ChannelexecsfAckClanMatch_JoinNotify @ 3382
intUBTTcpLink_ChannelexecsfAckClanMatch_Leave @ 3383
intUBTTcpLink_ChannelexecsfAckClanMatch_LeaveNotify @ 3384
intUBTTcpLink_ChannelexecsfAckClanMatch_MemberList @ 3385
intUBTTcpLink_ChannelexecsfAckClanMatch_NotifiyStartCombat @ 3386
intUBTTcpLink_ChannelexecsfAckClanMatch_NotifyStartSearching @ 3387
intUBTTcpLink_ChannelexecsfAckClanMatch_PublicWaitRoomChanged @ 3388
intUBTTcpLink_ChannelexecsfAckClanMatch_PublicWaitRoomList @ 3389
intUBTTcpLink_ChannelexecsfAckClanMatch_RecvInviteCrew @ 3390
intUBTTcpLink_ChannelexecsfAckClanMatch_SetWaitRoomPublic @ 3391
intUBTTcpLink_ChannelexecsfAckClanMatch_StartCombat @ 3392
intUBTTcpLink_ChannelexecsfAckClanMatch_StartPublicWaitRoomList @ 3393
intUBTTcpLink_ChannelexecsfAckClanMatch_StartSearching @ 3394
intUBTTcpLink_ChannelexecsfAckClanMatch_StopSearching @ 3395
intUBTTcpLink_ChannelexecsfAckClanMatch_WaittingTeamList @ 3396
intUBTTcpLink_ChannelexecsfAckClanNews @ 3397
intUBTTcpLink_ChannelexecsfAckClanPersonelIntro @ 3398
intUBTTcpLink_ChannelexecsfAckClanSecession @ 3399
intUBTTcpLink_ChannelexecsfAckClanUserList @ 3400
intUBTTcpLink_ChannelexecsfAckClanUserListEnd @ 3401
intUBTTcpLink_ChannelexecsfAckClanUserListStart @ 3402
intUBTTcpLink_ChannelexecsfAckClientUdpInfoList @ 3403
intUBTTcpLink_ChannelexecsfAckCommunityOptionList @ 3404
intUBTTcpLink_ChannelexecsfAckConfirmFriendInvite @ 3405
intUBTTcpLink_ChannelexecsfAckConfirmItemChanged @ 3406
intUBTTcpLink_ChannelexecsfAckConfirmSkillChanged @ 3407
intUBTTcpLink_ChannelexecsfAckConnectGame @ 3408
intUBTTcpLink_ChannelexecsfAckCouponUse @ 3409
intUBTTcpLink_ChannelexecsfAckCreateClan @ 3410
intUBTTcpLink_ChannelexecsfAckCreateGameRoom @ 3411
intUBTTcpLink_ChannelexecsfAckDBCharInfo @ 3412
intUBTTcpLink_ChannelexecsfAckDedicateHost_Login @ 3413
intUBTTcpLink_ChannelexecsfAckDelMemo @ 3414
intUBTTcpLink_ChannelexecsfAckDeleteFriend @ 3415
intUBTTcpLink_ChannelexecsfAckDeleteMailAll @ 3416
intUBTTcpLink_ChannelexecsfAckDisconnectGame @ 3417
intUBTTcpLink_ChannelexecsfAckDummy @ 3418
intUBTTcpLink_ChannelexecsfAckDupCheckClanName @ 3419
intUBTTcpLink_ChannelexecsfAckEndMemoList @ 3420
intUBTTcpLink_ChannelexecsfAckEnterChannel @ 3421
intUBTTcpLink_ChannelexecsfAckEnterRoom @ 3422
intUBTTcpLink_ChannelexecsfAckEntryItemList @ 3423
intUBTTcpLink_ChannelexecsfAckEntryQSlotIDList @ 3424
intUBTTcpLink_ChannelexecsfAckEntryQSlotUniqueIDList @ 3425
intUBTTcpLink_ChannelexecsfAckEntrySkillList @ 3426
intUBTTcpLink_ChannelexecsfAckEquipItem @ 3427
intUBTTcpLink_ChannelexecsfAckEquipSkill @ 3428
intUBTTcpLink_ChannelexecsfAckEventNotify @ 3429
intUBTTcpLink_ChannelexecsfAckExceedMaxUser @ 3430
intUBTTcpLink_ChannelexecsfAckExteriorRoomInfo @ 3431
intUBTTcpLink_ChannelexecsfAckExteriorRoomOwnerInfo @ 3432
intUBTTcpLink_ChannelexecsfAckExteriorRoomState @ 3433
intUBTTcpLink_ChannelexecsfAckExteriorRoomUserCount @ 3434
intUBTTcpLink_ChannelexecsfAckFailedStartGame @ 3435
intUBTTcpLink_ChannelexecsfAckForceDisconnectUDPFromHost @ 3436
intUBTTcpLink_ChannelexecsfAckForceDisconnectUser_GM @ 3437
intUBTTcpLink_ChannelexecsfAckForceFailedClientLoading @ 3438
intUBTTcpLink_ChannelexecsfAckForceGameOver @ 3439
intUBTTcpLink_ChannelexecsfAckFriendList @ 3440
intUBTTcpLink_ChannelexecsfAckFriendListEnd @ 3441
intUBTTcpLink_ChannelexecsfAckFriendListStart @ 3442
intUBTTcpLink_ChannelexecsfAckFriendPosition @ 3443
intUBTTcpLink_ChannelexecsfAckGMEnterRoom @ 3444
intUBTTcpLink_ChannelexecsfAckGMLeaveRoom @ 3445
intUBTTcpLink_ChannelexecsfAckGameGuardAuthData @ 3446
intUBTTcpLink_ChannelexecsfAckGameHostInfo @ 3447
intUBTTcpLink_ChannelexecsfAckGameMapData @ 3448
intUBTTcpLink_ChannelexecsfAckGameOver @ 3449
intUBTTcpLink_ChannelexecsfAckGameOverEnd @ 3450
intUBTTcpLink_ChannelexecsfAckGameRoomDestroy @ 3451
intUBTTcpLink_ChannelexecsfAckGameRoomInfo @ 3452
intUBTTcpLink_ChannelexecsfAckGetAttachedItemFromMemo @ 3453
intUBTTcpLink_ChannelexecsfAckGetBooty @ 3454
intUBTTcpLink_ChannelexecsfAckGetBootyChoose @ 3455
intUBTTcpLink_ChannelexecsfAckGetBotID @ 3456
intUBTTcpLink_ChannelexecsfAckGetHolePunchingResult @ 3457
intUBTTcpLink_ChannelexecsfAckGetIsHostBlocking @ 3458
intUBTTcpLink_ChannelexecsfAckGetItemFromItemBox @ 3459
intUBTTcpLink_ChannelexecsfAckGetMyMailBoxState @ 3460
intUBTTcpLink_ChannelexecsfAckGetRankingInfoList @ 3461
intUBTTcpLink_ChannelexecsfAckGetRankingInfoListEnd @ 3462
intUBTTcpLink_ChannelexecsfAckGetRankingInfoListStart @ 3463
intUBTTcpLink_ChannelexecsfAckGetServerTime @ 3464
intUBTTcpLink_ChannelexecsfAckGetUserHostPriorityPoint @ 3465
intUBTTcpLink_ChannelexecsfAckGiftItemByWebzenCash @ 3466
intUBTTcpLink_ChannelexecsfAckGiveSkill @ 3467
intUBTTcpLink_ChannelexecsfAckHash @ 3468
intUBTTcpLink_ChannelexecsfAckInviteClan @ 3469
intUBTTcpLink_ChannelexecsfAckInviteClanResult @ 3470
intUBTTcpLink_ChannelexecsfAckInviteGameRoom @ 3471
intUBTTcpLink_ChannelexecsfAckIsAvailClanURL @ 3472
intUBTTcpLink_ChannelexecsfAckIsGameRoomPlaying @ 3473
intUBTTcpLink_ChannelexecsfAckIsHostAvailable @ 3474
intUBTTcpLink_ChannelexecsfAckItemList @ 3475
intUBTTcpLink_ChannelexecsfAckItemListEnd @ 3476
intUBTTcpLink_ChannelexecsfAckItemListInItemBox @ 3477
intUBTTcpLink_ChannelexecsfAckItemListStart @ 3478
intUBTTcpLink_ChannelexecsfAckJoinClan @ 3479
intUBTTcpLink_ChannelexecsfAckJoinClanResult @ 3480
intUBTTcpLink_ChannelexecsfAckLeaveChannel @ 3481
intUBTTcpLink_ChannelexecsfAckLeaveRoom @ 3482
intUBTTcpLink_ChannelexecsfAckLimitedListInChannel @ 3483
intUBTTcpLink_ChannelexecsfAckLogOut @ 3484
intUBTTcpLink_ChannelexecsfAckLogin @ 3485
intUBTTcpLink_ChannelexecsfAckLogin2 @ 3486
intUBTTcpLink_ChannelexecsfAckMemoList @ 3487
intUBTTcpLink_ChannelexecsfAckModifyWeapon @ 3488
intUBTTcpLink_ChannelexecsfAckMoveToLobby @ 3489
intUBTTcpLink_ChannelexecsfAckMyEquipedItemList @ 3490
intUBTTcpLink_ChannelexecsfAckMyEquipedQSlotList @ 3491
intUBTTcpLink_ChannelexecsfAckMyEquipedSkillList @ 3492
intUBTTcpLink_ChannelexecsfAckMyMoney @ 3493
intUBTTcpLink_ChannelexecsfAckNotice_GM @ 3494
intUBTTcpLink_ChannelexecsfAckNotifyAdjustClanMemberGrade @ 3495
intUBTTcpLink_ChannelexecsfAckNotifyChangedItemState @ 3496
intUBTTcpLink_ChannelexecsfAckNotifyChangedSkillState @ 3497
intUBTTcpLink_ChannelexecsfAckNotifyClanSecession @ 3498
intUBTTcpLink_ChannelexecsfAckNotifyClientJoinTime @ 3499
intUBTTcpLink_ChannelexecsfAckNotifyEndTutorial @ 3500
intUBTTcpLink_ChannelexecsfAckNotifyExpiredItemIDs @ 3501
intUBTTcpLink_ChannelexecsfAckNotifyExpiredSkillIDs @ 3502
intUBTTcpLink_ChannelexecsfAckNotifyHostBlocking @ 3503
intUBTTcpLink_ChannelexecsfAckNotifyLoadingState @ 3504
intUBTTcpLink_ChannelexecsfAckNotifyMyCharInfoToRoomUser @ 3505
intUBTTcpLink_ChannelexecsfAckNotifyNewClanMember @ 3506
intUBTTcpLink_ChannelexecsfAckNotifyStartTutorial @ 3507
intUBTTcpLink_ChannelexecsfAckNotifyUpdateCharInfo_LevelMark @ 3508
intUBTTcpLink_ChannelexecsfAckNotifyUpdateCharInfo_TitleMark @ 3509
intUBTTcpLink_ChannelexecsfAckPCBangUserList @ 3510
intUBTTcpLink_ChannelexecsfAckPCBangUserListEnd @ 3511
intUBTTcpLink_ChannelexecsfAckPCBangUserListStart @ 3512
intUBTTcpLink_ChannelexecsfAckPaidItem_BroadCast @ 3513
intUBTTcpLink_ChannelexecsfAckPaidItem_ChangeCharname @ 3514
intUBTTcpLink_ChannelexecsfAckPaidItem_ChangeClanMark @ 3515
intUBTTcpLink_ChannelexecsfAckPaidItem_ChangeClanname @ 3516
intUBTTcpLink_ChannelexecsfAckPaidItem_ClanMarkDupCheck @ 3517
intUBTTcpLink_ChannelexecsfAckPaidItem_EraseRecord @ 3518
intUBTTcpLink_ChannelexecsfAckPaidItem_NotifyChangeClanMark @ 3519
intUBTTcpLink_ChannelexecsfAckPaidItem_NotifyChangeClanname @ 3520
intUBTTcpLink_ChannelexecsfAckPaidItem_RelayBroadcast @ 3521
intUBTTcpLink_ChannelexecsfAckParamCheckSum @ 3522
intUBTTcpLink_ChannelexecsfAckPermanentRoomInfo @ 3523
intUBTTcpLink_ChannelexecsfAckPopUpMessage @ 3524
intUBTTcpLink_ChannelexecsfAckQSlotList @ 3525
intUBTTcpLink_ChannelexecsfAckQuestGetAvailableEventList @ 3526
intUBTTcpLink_ChannelexecsfAckQuestList @ 3527
intUBTTcpLink_ChannelexecsfAckQuestListEnd @ 3528
intUBTTcpLink_ChannelexecsfAckQuestListStart @ 3529
intUBTTcpLink_ChannelexecsfAckQuestUpdate @ 3530
intUBTTcpLink_ChannelexecsfAckRandomBox_Use @ 3531
intUBTTcpLink_ChannelexecsfAckReadMemo @ 3532
intUBTTcpLink_ChannelexecsfAckRecvClanInvite @ 3533
intUBTTcpLink_ChannelexecsfAckRecvClanInviteResult @ 3534
intUBTTcpLink_ChannelexecsfAckRecvInviteGameRoom @ 3535
intUBTTcpLink_ChannelexecsfAckRecvInviteGameRoomResult @ 3536
intUBTTcpLink_ChannelexecsfAckRecvJoinClan @ 3537
intUBTTcpLink_ChannelexecsfAckRecvJoinClanResult @ 3538
intUBTTcpLink_ChannelexecsfAckRecvSystemMsg @ 3539
intUBTTcpLink_ChannelexecsfAckRegisterMainPCBang @ 3540
intUBTTcpLink_ChannelexecsfAckRegisterMyUdpInfo @ 3541
intUBTTcpLink_ChannelexecsfAckRegisterOtherUdpInfo @ 3542
intUBTTcpLink_ChannelexecsfAckRegisteredPCBangInfo @ 3543
intUBTTcpLink_ChannelexecsfAckRemoveBlockUserList @ 3544
intUBTTcpLink_ChannelexecsfAckRepairCost @ 3545
intUBTTcpLink_ChannelexecsfAckRepairItem @ 3546
intUBTTcpLink_ChannelexecsfAckReturnBotID @ 3547
intUBTTcpLink_ChannelexecsfAckRoomList @ 3548
intUBTTcpLink_ChannelexecsfAckRoomListEnd @ 3549
intUBTTcpLink_ChannelexecsfAckRoomListStart @ 3550
intUBTTcpLink_ChannelexecsfAckRoomUserList @ 3551
intUBTTcpLink_ChannelexecsfAckRoomUserPingInfo @ 3552
intUBTTcpLink_ChannelexecsfAckSearchClan @ 3553
intUBTTcpLink_ChannelexecsfAckSelectMap @ 3554
intUBTTcpLink_ChannelexecsfAckSellShopItem @ 3555
intUBTTcpLink_ChannelexecsfAckSellShopItemInfo @ 3556
intUBTTcpLink_ChannelexecsfAckSendFriendInvite @ 3557
intUBTTcpLink_ChannelexecsfAckSendGift @ 3558
intUBTTcpLink_ChannelexecsfAckSendMemo @ 3559
intUBTTcpLink_ChannelexecsfAckSendSystemMsg @ 3560
intUBTTcpLink_ChannelexecsfAckServerShutdown @ 3561
intUBTTcpLink_ChannelexecsfAckServerTime @ 3562
intUBTTcpLink_ChannelexecsfAckServerType @ 3563
intUBTTcpLink_ChannelexecsfAckSetCommunityOption @ 3564
intUBTTcpLink_ChannelexecsfAckSetLookForClan @ 3565
intUBTTcpLink_ChannelexecsfAckSetUserBootySeedValue @ 3566
intUBTTcpLink_ChannelexecsfAckShopItemData @ 3567
intUBTTcpLink_ChannelexecsfAckShopItemList @ 3568
intUBTTcpLink_ChannelexecsfAckShopItemListEnd @ 3569
intUBTTcpLink_ChannelexecsfAckShopItemListStart @ 3570
intUBTTcpLink_ChannelexecsfAckSpecificChannelUserInfo @ 3571
intUBTTcpLink_ChannelexecsfAckSpecificGameRoomInfo @ 3572
intUBTTcpLink_ChannelexecsfAckStartGame @ 3573
intUBTTcpLink_ChannelexecsfAckStartHolePunching @ 3574
intUBTTcpLink_ChannelexecsfAckStartMemoList @ 3575
intUBTTcpLink_ChannelexecsfAckStartNatDiag @ 3576
intUBTTcpLink_ChannelexecsfAckSuccessStartGame @ 3577
intUBTTcpLink_ChannelexecsfAckTencent_AASInfo @ 3578
intUBTTcpLink_ChannelexecsfAckTencent_StartTenProtect @ 3579
intUBTTcpLink_ChannelexecsfAckTestDouble @ 3580
intUBTTcpLink_ChannelexecsfAckUpdateQSlot @ 3581
intUBTTcpLink_ChannelexecsfAckUpdateScore @ 3582
intUBTTcpLink_ChannelexecsfAckUpdateScoreResult @ 3583
intUBTTcpLink_ChannelexecsfAckUpdateWeaponDurability @ 3584
intUBTTcpLink_ChannelexecsfAckUserSkillList @ 3585
intUBTTcpLink_ChannelexecsfAckUserSkillListEnd @ 3586
intUBTTcpLink_ChannelexecsfAckUserSkillListStart @ 3587
intUBTTcpLink_ChannelexecsfAckWebzenBillingStorageList @ 3588
intUBTTcpLink_ChannelexecsfAckWebzenBillingStorageListEnd @ 3589
intUBTTcpLink_ChannelexecsfAckWebzenBillingStorageListStart @ 3590
intUBTTcpLink_ChannelexecsfAckWebzenBillingUseStorageItem @ 3591
intUBTTcpLink_ChannelexecsfAckWebzenCash @ 3592
intUBTTcpLink_ChannelexecsfAckWebzenShopScriptVersion @ 3593
intUBTTcpLink_ChannelexecsfNotifyClanLevelup @ 3594
intUBTTcpLink_ChannelexecsfNotifyCouponUseError @ 3595
intUBTTcpLink_ChannelexecsfNotifyNewClanName @ 3596
intUBTTcpLink_ChannelexecsfNotifyNewNickName @ 3597
intUBTTcpLink_ChannelexecsfReqAddBlockUserList @ 3598
intUBTTcpLink_ChannelexecsfReqAdjustClanMemberGrade @ 3599
intUBTTcpLink_ChannelexecsfReqAhnHsObject @ 3600
intUBTTcpLink_ChannelexecsfReqAhnNotifyDisconnct @ 3601
intUBTTcpLink_ChannelexecsfReqAuctionBidding @ 3602
intUBTTcpLink_ChannelexecsfReqAuctionInstantlyBuying @ 3603
intUBTTcpLink_ChannelexecsfReqAuctionItemList @ 3604
intUBTTcpLink_ChannelexecsfReqAuctionItemListCount @ 3605
intUBTTcpLink_ChannelexecsfReqAuctionMyItemCancel @ 3606
intUBTTcpLink_ChannelexecsfReqAuctionMyItemRegister @ 3607
intUBTTcpLink_ChannelexecsfReqAuctionTradeHistory @ 3608
intUBTTcpLink_ChannelexecsfReqBanUser @ 3609
intUBTTcpLink_ChannelexecsfReqBlockUserList @ 3610
intUBTTcpLink_ChannelexecsfReqBuyItemByWebzenCash @ 3611
intUBTTcpLink_ChannelexecsfReqBuyItemByWebzenCashGP20 @ 3612
intUBTTcpLink_ChannelexecsfReqBuyShopItem @ 3613
intUBTTcpLink_ChannelexecsfReqChangeGameMode @ 3614
intUBTTcpLink_ChannelexecsfReqChangeRoomMaxNum @ 3615
intUBTTcpLink_ChannelexecsfReqChangeRoomOwner @ 3616
intUBTTcpLink_ChannelexecsfReqChangeRoomSetting @ 3617
intUBTTcpLink_ChannelexecsfReqChangeRoomTitle_GM @ 3618
intUBTTcpLink_ChannelexecsfReqChangeTeam @ 3619
intUBTTcpLink_ChannelexecsfReqChangeUserState @ 3620
intUBTTcpLink_ChannelexecsfReqChannelList @ 3621
intUBTTcpLink_ChannelexecsfReqChannelUserList @ 3622
intUBTTcpLink_ChannelexecsfReqChannelUserListInGameRoom @ 3623
intUBTTcpLink_ChannelexecsfReqCharBlockInfo @ 3624
intUBTTcpLink_ChannelexecsfReqCharDetailInfo @ 3625
intUBTTcpLink_ChannelexecsfReqCharInfo @ 3626
intUBTTcpLink_ChannelexecsfReqChatClan @ 3627
intUBTTcpLink_ChannelexecsfReqChatNormal @ 3628
intUBTTcpLink_ChannelexecsfReqChatWispher @ 3629
intUBTTcpLink_ChannelexecsfReqChatWispherMyCommunity @ 3630
intUBTTcpLink_ChannelexecsfReqCheckEquipedWeaponDurability @ 3631
intUBTTcpLink_ChannelexecsfReqClanChangeInfo @ 3632
intUBTTcpLink_ChannelexecsfReqClanCharPersonelIntro @ 3633
intUBTTcpLink_ChannelexecsfReqClanClose @ 3634
intUBTTcpLink_ChannelexecsfReqClanInfo @ 3635
intUBTTcpLink_ChannelexecsfReqClanMatchResultHistory @ 3636
intUBTTcpLink_ChannelexecsfReqClanMatch_ChangeLeader @ 3637
intUBTTcpLink_ChannelexecsfReqClanMatch_ChangeRoomSetting @ 3638
intUBTTcpLink_ChannelexecsfReqClanMatch_Chat @ 3639
intUBTTcpLink_ChannelexecsfReqClanMatch_FoundMatch @ 3640
intUBTTcpLink_ChannelexecsfReqClanMatch_GetClanWaittingRoomInfo @ 3641
intUBTTcpLink_ChannelexecsfReqClanMatch_GetPublicWaitRoomList @ 3642
intUBTTcpLink_ChannelexecsfReqClanMatch_GetReady @ 3643
intUBTTcpLink_ChannelexecsfReqClanMatch_InviteCrew @ 3644
intUBTTcpLink_ChannelexecsfReqClanMatch_InviteCrewResult @ 3645
intUBTTcpLink_ChannelexecsfReqClanMatch_Join @ 3646
intUBTTcpLink_ChannelexecsfReqClanMatch_Leave @ 3647
intUBTTcpLink_ChannelexecsfReqClanMatch_MemberList @ 3648
intUBTTcpLink_ChannelexecsfReqClanMatch_RecvInviteCrew @ 3649
intUBTTcpLink_ChannelexecsfReqClanMatch_SetWaitRoomPublic @ 3650
intUBTTcpLink_ChannelexecsfReqClanMatch_StartCombat @ 3651
intUBTTcpLink_ChannelexecsfReqClanMatch_StartSearching @ 3652
intUBTTcpLink_ChannelexecsfReqClanMatch_StopSearching @ 3653
intUBTTcpLink_ChannelexecsfReqClanMatch_WaittingTeamList @ 3654
intUBTTcpLink_ChannelexecsfReqClanNews @ 3655
intUBTTcpLink_ChannelexecsfReqClanPersonelIntro @ 3656
intUBTTcpLink_ChannelexecsfReqClanSecession @ 3657
intUBTTcpLink_ChannelexecsfReqClanUserList @ 3658
intUBTTcpLink_ChannelexecsfReqClientUdpInfoList @ 3659
intUBTTcpLink_ChannelexecsfReqCommunityOptionList @ 3660
intUBTTcpLink_ChannelexecsfReqCompleteFriendInvite @ 3661
intUBTTcpLink_ChannelexecsfReqConfirmFriendInvite @ 3662
intUBTTcpLink_ChannelexecsfReqConfirmItemChanged @ 3663
intUBTTcpLink_ChannelexecsfReqConfirmSkillChanged @ 3664
intUBTTcpLink_ChannelexecsfReqConnectGame @ 3665
intUBTTcpLink_ChannelexecsfReqCouponUse @ 3666
intUBTTcpLink_ChannelexecsfReqCreateClan @ 3667
intUBTTcpLink_ChannelexecsfReqCreateGameRoom @ 3668
intUBTTcpLink_ChannelexecsfReqDBCharInfo @ 3669
intUBTTcpLink_ChannelexecsfReqDailyQuestNewAvailable @ 3670
intUBTTcpLink_ChannelexecsfReqDedicateHost_Login @ 3671
intUBTTcpLink_ChannelexecsfReqDelMemo @ 3672
intUBTTcpLink_ChannelexecsfReqDeleteFriend @ 3673
intUBTTcpLink_ChannelexecsfReqDeleteMailAll @ 3674
intUBTTcpLink_ChannelexecsfReqDisconnectGame @ 3675
intUBTTcpLink_ChannelexecsfReqDummy @ 3676
intUBTTcpLink_ChannelexecsfReqDupCheckClanName @ 3677
intUBTTcpLink_ChannelexecsfReqEnterChannel @ 3678
intUBTTcpLink_ChannelexecsfReqEnterRoom @ 3679
intUBTTcpLink_ChannelexecsfReqEntryItemList @ 3680
intUBTTcpLink_ChannelexecsfReqEntryQSlotIDList @ 3681
intUBTTcpLink_ChannelexecsfReqEntryQSlotUniqueIDList @ 3682
intUBTTcpLink_ChannelexecsfReqEntrySkillList @ 3683
intUBTTcpLink_ChannelexecsfReqEquipItem @ 3684
intUBTTcpLink_ChannelexecsfReqEquipSkill @ 3685
intUBTTcpLink_ChannelexecsfReqEventNotify @ 3686
intUBTTcpLink_ChannelexecsfReqExteriorRoomInfo @ 3687
intUBTTcpLink_ChannelexecsfReqExteriorRoomOwnerInfo @ 3688
intUBTTcpLink_ChannelexecsfReqExteriorRoomState @ 3689
intUBTTcpLink_ChannelexecsfReqExteriorRoomUserCount @ 3690
intUBTTcpLink_ChannelexecsfReqFailedStartGame @ 3691
intUBTTcpLink_ChannelexecsfReqForceDisconnectUDPFromHost @ 3692
intUBTTcpLink_ChannelexecsfReqForceDisconnectUser_GM @ 3693
intUBTTcpLink_ChannelexecsfReqForceFailedClientLoading @ 3694
intUBTTcpLink_ChannelexecsfReqForceGameOver @ 3695
intUBTTcpLink_ChannelexecsfReqForceLogoutByOwner @ 3696
intUBTTcpLink_ChannelexecsfReqForceNatTypeSetting @ 3697
intUBTTcpLink_ChannelexecsfReqFriendList @ 3698
intUBTTcpLink_ChannelexecsfReqFriendPosition @ 3699
intUBTTcpLink_ChannelexecsfReqGameGuardAuthData @ 3700
intUBTTcpLink_ChannelexecsfReqGameHostInfo @ 3701
intUBTTcpLink_ChannelexecsfReqGameMapData @ 3702
intUBTTcpLink_ChannelexecsfReqGameOver @ 3703
intUBTTcpLink_ChannelexecsfReqGameOverEnd @ 3704
intUBTTcpLink_ChannelexecsfReqGamePlay_ChangeWeaponSet @ 3705
intUBTTcpLink_ChannelexecsfReqGamePlay_DefuseBomb @ 3706
intUBTTcpLink_ChannelexecsfReqGamePlay_GetChopper @ 3707
intUBTTcpLink_ChannelexecsfReqGamePlay_InstallBomb @ 3708
intUBTTcpLink_ChannelexecsfReqGamePlay_SetGameStartTime @ 3709
intUBTTcpLink_ChannelexecsfReqGamePlay_SetRoundStartTime @ 3710
intUBTTcpLink_ChannelexecsfReqGamePlay_TakeAPoint @ 3711
intUBTTcpLink_ChannelexecsfReqGamePlay_UpdateDomScore @ 3712
intUBTTcpLink_ChannelexecsfReqGameRoomInfo @ 3713
intUBTTcpLink_ChannelexecsfReqGetAttachedItemFromMemo @ 3714
intUBTTcpLink_ChannelexecsfReqGetBooty @ 3715
intUBTTcpLink_ChannelexecsfReqGetBotID @ 3716
intUBTTcpLink_ChannelexecsfReqGetHolePunchingResult @ 3717
intUBTTcpLink_ChannelexecsfReqGetIsHostBlocking @ 3718
intUBTTcpLink_ChannelexecsfReqGetItemFromItemBox @ 3719
intUBTTcpLink_ChannelexecsfReqGetMyMailBoxState @ 3720
intUBTTcpLink_ChannelexecsfReqGetRankingInfoList @ 3721
intUBTTcpLink_ChannelexecsfReqGetServerTime @ 3722
intUBTTcpLink_ChannelexecsfReqGetUserHostPriorityPoint @ 3723
intUBTTcpLink_ChannelexecsfReqGiftItemByWebzenCash @ 3724
intUBTTcpLink_ChannelexecsfReqGiftItemByWebzenCashGP20 @ 3725
intUBTTcpLink_ChannelexecsfReqGiveSkill @ 3726
intUBTTcpLink_ChannelexecsfReqHash @ 3727
intUBTTcpLink_ChannelexecsfReqInGameRoomUserClanLevelChanged @ 3728
intUBTTcpLink_ChannelexecsfReqInGameRoomUserInfoChanged @ 3729
intUBTTcpLink_ChannelexecsfReqInviteClan @ 3730
intUBTTcpLink_ChannelexecsfReqInviteGameRoom @ 3731
intUBTTcpLink_ChannelexecsfReqIsAvailClanURL @ 3732
intUBTTcpLink_ChannelexecsfReqIsGameRoomPlaying @ 3733
intUBTTcpLink_ChannelexecsfReqIsHostAvailable @ 3734
intUBTTcpLink_ChannelexecsfReqIsPaidWebzenPCBang @ 3735
intUBTTcpLink_ChannelexecsfReqItemList @ 3736
intUBTTcpLink_ChannelexecsfReqItemListInItemBox @ 3737
intUBTTcpLink_ChannelexecsfReqJoinClan @ 3738
intUBTTcpLink_ChannelexecsfReqLeaveChannel @ 3739
intUBTTcpLink_ChannelexecsfReqLeaveRoom @ 3740
intUBTTcpLink_ChannelexecsfReqLimitedListInChannel @ 3741
intUBTTcpLink_ChannelexecsfReqLogEndEachRound @ 3742
intUBTTcpLink_ChannelexecsfReqLogGetScore @ 3743
intUBTTcpLink_ChannelexecsfReqLogOut @ 3744
intUBTTcpLink_ChannelexecsfReqLogin @ 3745
intUBTTcpLink_ChannelexecsfReqLogin2 @ 3746
intUBTTcpLink_ChannelexecsfReqMemoList @ 3747
intUBTTcpLink_ChannelexecsfReqModifyWeapon @ 3748
intUBTTcpLink_ChannelexecsfReqMyEquipedItemList @ 3749
intUBTTcpLink_ChannelexecsfReqMyEquipedQSlotList @ 3750
intUBTTcpLink_ChannelexecsfReqMyEquipedSkillList @ 3751
intUBTTcpLink_ChannelexecsfReqMyMoney @ 3752
intUBTTcpLink_ChannelexecsfReqNotice_GM @ 3753
intUBTTcpLink_ChannelexecsfReqNotifyChangeRoomState @ 3754
intUBTTcpLink_ChannelexecsfReqNotifyChangedItemState @ 3755
intUBTTcpLink_ChannelexecsfReqNotifyChangedSkillState @ 3756
intUBTTcpLink_ChannelexecsfReqNotifyClientJoinTime @ 3757
intUBTTcpLink_ChannelexecsfReqNotifyDisconnectHostInLoading @ 3758
intUBTTcpLink_ChannelexecsfReqNotifyDurabilityZeroItem @ 3759
intUBTTcpLink_ChannelexecsfReqNotifyEndTutorial @ 3760
intUBTTcpLink_ChannelexecsfReqNotifyExpiredItemIDs @ 3761
intUBTTcpLink_ChannelexecsfReqNotifyExpiredSkillIDs @ 3762
intUBTTcpLink_ChannelexecsfReqNotifyHostBlocking @ 3763
intUBTTcpLink_ChannelexecsfReqNotifyLevelUp @ 3764
intUBTTcpLink_ChannelexecsfReqNotifyLoadingState @ 3765
intUBTTcpLink_ChannelexecsfReqNotifyLoadingStatus @ 3766
intUBTTcpLink_ChannelexecsfReqNotifyMyCharInfoToRoomUser @ 3767
intUBTTcpLink_ChannelexecsfReqNotifyRecvDummyForHolePunching @ 3768
intUBTTcpLink_ChannelexecsfReqNotifyRelayServerAddr @ 3769
intUBTTcpLink_ChannelexecsfReqNotifyShopItemData @ 3770
intUBTTcpLink_ChannelexecsfReqNotifyShopItemDataEnd @ 3771
intUBTTcpLink_ChannelexecsfReqNotifyStartTutorial @ 3772
intUBTTcpLink_ChannelexecsfReqPCBangUserList @ 3773
intUBTTcpLink_ChannelexecsfReqPaidItem_BroadCast @ 3774
intUBTTcpLink_ChannelexecsfReqPaidItem_ChangeCharname @ 3775
intUBTTcpLink_ChannelexecsfReqPaidItem_ChangeClanMark @ 3776
intUBTTcpLink_ChannelexecsfReqPaidItem_ChangeClanname @ 3777
intUBTTcpLink_ChannelexecsfReqPaidItem_ClanMarkDupCheck @ 3778
intUBTTcpLink_ChannelexecsfReqPaidItem_EraseRecord @ 3779
intUBTTcpLink_ChannelexecsfReqParamCheckSum @ 3780
intUBTTcpLink_ChannelexecsfReqPermanentRoomInfo @ 3781
intUBTTcpLink_ChannelexecsfReqQSlotList @ 3782
intUBTTcpLink_ChannelexecsfReqQuestGetAvailableEventList @ 3783
intUBTTcpLink_ChannelexecsfReqQuestList @ 3784
intUBTTcpLink_ChannelexecsfReqQuestNewAvailable @ 3785
intUBTTcpLink_ChannelexecsfReqQuestUpdate @ 3786
intUBTTcpLink_ChannelexecsfReqRandomBox_Use @ 3787
intUBTTcpLink_ChannelexecsfReqReadMemo @ 3788
intUBTTcpLink_ChannelexecsfReqRecvChatWispher @ 3789
intUBTTcpLink_ChannelexecsfReqRecvClanInvite @ 3790
intUBTTcpLink_ChannelexecsfReqRecvDeleteFriend @ 3791
intUBTTcpLink_ChannelexecsfReqRecvForceDisconnectUDPFromHost @ 3792
intUBTTcpLink_ChannelexecsfReqRecvForceDisconnected_FromGM @ 3793
intUBTTcpLink_ChannelexecsfReqRecvForceFailedClientLoading @ 3794
intUBTTcpLink_ChannelexecsfReqRecvFriendInvite @ 3795
intUBTTcpLink_ChannelexecsfReqRecvInviteGameRoom @ 3796
intUBTTcpLink_ChannelexecsfReqRecvJoinClan @ 3797
intUBTTcpLink_ChannelexecsfReqRecvMemo @ 3798
intUBTTcpLink_ChannelexecsfReqRecvNotice_FromGM @ 3799
intUBTTcpLink_ChannelexecsfReqRegisterMainPCBang @ 3800
intUBTTcpLink_ChannelexecsfReqRegisterMyUdpInfo @ 3801
intUBTTcpLink_ChannelexecsfReqRegisteredPCBangInfo @ 3802
intUBTTcpLink_ChannelexecsfReqRelayServerOff @ 3803
intUBTTcpLink_ChannelexecsfReqRelayServerOn @ 3804
intUBTTcpLink_ChannelexecsfReqRemoveBlockUserList @ 3805
intUBTTcpLink_ChannelexecsfReqRemoveCheckTeamBalanceList @ 3806
intUBTTcpLink_ChannelexecsfReqRepairCost @ 3807
intUBTTcpLink_ChannelexecsfReqRepairItem @ 3808
intUBTTcpLink_ChannelexecsfReqReturnBotID @ 3809
intUBTTcpLink_ChannelexecsfReqRoomList @ 3810
intUBTTcpLink_ChannelexecsfReqRoomUserList @ 3811
intUBTTcpLink_ChannelexecsfReqRoomUserPingInfo @ 3812
intUBTTcpLink_ChannelexecsfReqSelectMap @ 3813
intUBTTcpLink_ChannelexecsfReqSellShopItem @ 3814
intUBTTcpLink_ChannelexecsfReqSellShopItemInfo @ 3815
intUBTTcpLink_ChannelexecsfReqSendFriendInvite @ 3816
intUBTTcpLink_ChannelexecsfReqSendGift @ 3817
intUBTTcpLink_ChannelexecsfReqSendMemo @ 3818
intUBTTcpLink_ChannelexecsfReqSendSystemMsg @ 3819
intUBTTcpLink_ChannelexecsfReqSerachClan @ 3820
intUBTTcpLink_ChannelexecsfReqServerShutdown @ 3821
intUBTTcpLink_ChannelexecsfReqServerTime @ 3822
intUBTTcpLink_ChannelexecsfReqServerType @ 3823
intUBTTcpLink_ChannelexecsfReqSetClientVersion @ 3824
intUBTTcpLink_ChannelexecsfReqSetCommunityOption @ 3825
intUBTTcpLink_ChannelexecsfReqSetLookForClan @ 3826
intUBTTcpLink_ChannelexecsfReqSetUserBootySeedValue @ 3827
intUBTTcpLink_ChannelexecsfReqShopItemData @ 3828
intUBTTcpLink_ChannelexecsfReqShopItemList @ 3829
intUBTTcpLink_ChannelexecsfReqSpecificChannelUserInfo @ 3830
intUBTTcpLink_ChannelexecsfReqSpecificGameRoomInfo @ 3831
intUBTTcpLink_ChannelexecsfReqStartGame @ 3832
intUBTTcpLink_ChannelexecsfReqStartHolePunching @ 3833
intUBTTcpLink_ChannelexecsfReqStartNatDiag @ 3834
intUBTTcpLink_ChannelexecsfReqSuccessStartGame @ 3835
intUBTTcpLink_ChannelexecsfReqTestDouble @ 3836
intUBTTcpLink_ChannelexecsfReqUpdateMyHostPriorityPoint @ 3837
intUBTTcpLink_ChannelexecsfReqUpdateQSlot @ 3838
intUBTTcpLink_ChannelexecsfReqUpdateScore @ 3839
intUBTTcpLink_ChannelexecsfReqUpdateUserPerformenceInfo @ 3840
intUBTTcpLink_ChannelexecsfReqUpdateWeaponDurability @ 3841
intUBTTcpLink_ChannelexecsfReqUserSkillList @ 3842
intUBTTcpLink_ChannelexecsfReqWebzenBillingStorageList @ 3843
intUBTTcpLink_ChannelexecsfReqWebzenBillingUseStorageItem @ 3844
intUBTTcpLink_ChannelexecsfReqWebzenCash @ 3845
intUBTTcpLink_ChannelexecsfReqWebzenShopScriptVersion @ 3846
intUBTTcpLink_ChannelexecsfReqWriteServerLog @ 3847
intUBTTcpLink_ChannelexecsfUpdateWebzenShopScriptVersion @ 3848
intUBTTcpLink_LoginexecClose @ 3849
intUBTTcpLink_LoginexecConnect @ 3850
intUBTTcpLink_LoginexecInitNetwork @ 3851
intUBTTcpLink_LoginexecsfAckAccesItemTypeList @ 3852
intUBTTcpLink_LoginexecsfAckAdvertisement @ 3853
intUBTTcpLink_LoginexecsfAckCharInfo @ 3854
intUBTTcpLink_LoginexecsfAckClanMemberListFromClient @ 3855
intUBTTcpLink_LoginexecsfAckClanMemberListFromClientEnd @ 3856
intUBTTcpLink_LoginexecsfAckClanMemberListFromClientStart @ 3857
intUBTTcpLink_LoginexecsfAckClientChallenge @ 3858
intUBTTcpLink_LoginexecsfAckClientChecksum @ 3859
intUBTTcpLink_LoginexecsfAckConnectChannelServer @ 3860
intUBTTcpLink_LoginexecsfAckCreateChar @ 3861
intUBTTcpLink_LoginexecsfAckErrorReportServerAddr @ 3862
intUBTTcpLink_LoginexecsfAckEventNotify @ 3863
intUBTTcpLink_LoginexecsfAckExceedMaxUser @ 3864
intUBTTcpLink_LoginexecsfAckFriendsList @ 3865
intUBTTcpLink_LoginexecsfAckFriendsListEnd @ 3866
intUBTTcpLink_LoginexecsfAckFriendsListStart @ 3867
intUBTTcpLink_LoginexecsfAckGetCharBlockInfo @ 3868
intUBTTcpLink_LoginexecsfAckHash @ 3869
intUBTTcpLink_LoginexecsfAckHeadItemTypeList @ 3870
intUBTTcpLink_LoginexecsfAckHelmetItemTypeList @ 3871
intUBTTcpLink_LoginexecsfAckLogOut @ 3872
intUBTTcpLink_LoginexecsfAckLogin @ 3873
intUBTTcpLink_LoginexecsfAckLoginInHouseTest @ 3874
intUBTTcpLink_LoginexecsfAckLoginWithGlobal @ 3875
intUBTTcpLink_LoginexecsfAckLoginWithIndonesia @ 3876
intUBTTcpLink_LoginexecsfAckLoginWithTencentAuth @ 3877
intUBTTcpLink_LoginexecsfAckLoginWithThailand @ 3878
intUBTTcpLink_LoginexecsfAckLoginWithWZAuth @ 3879
intUBTTcpLink_LoginexecsfAckMaxUserExceed @ 3880
intUBTTcpLink_LoginexecsfAckPCBangUserList @ 3881
intUBTTcpLink_LoginexecsfAckPCBangUserListEnd @ 3882
intUBTTcpLink_LoginexecsfAckPCBangUserListStart @ 3883
intUBTTcpLink_LoginexecsfAckProcessPreLoginUser @ 3884
intUBTTcpLink_LoginexecsfAckRegisterMainPCBang @ 3885
intUBTTcpLink_LoginexecsfAckRegisteredPCBangInfo @ 3886
intUBTTcpLink_LoginexecsfAckServerList @ 3887
intUBTTcpLink_LoginexecsfAckServerTime @ 3888
intUBTTcpLink_LoginexecsfAckTencent_AASInfo @ 3889
intUBTTcpLink_LoginexecsfAckUserDetailInfo @ 3890
intUBTTcpLink_LoginexecsfReqAccesItemTypeList @ 3891
intUBTTcpLink_LoginexecsfReqAdvertisement @ 3892
intUBTTcpLink_LoginexecsfReqCharInfo @ 3893
intUBTTcpLink_LoginexecsfReqClanMemberListFromClient @ 3894
intUBTTcpLink_LoginexecsfReqClientChallenge @ 3895
intUBTTcpLink_LoginexecsfReqClientChecksum @ 3896
intUBTTcpLink_LoginexecsfReqConnectChannelServer @ 3897
intUBTTcpLink_LoginexecsfReqCreateChar @ 3898
intUBTTcpLink_LoginexecsfReqErrorReportServerAddr @ 3899
intUBTTcpLink_LoginexecsfReqEventNotify @ 3900
intUBTTcpLink_LoginexecsfReqForceLogoutByOwner @ 3901
intUBTTcpLink_LoginexecsfReqFriendsList @ 3902
intUBTTcpLink_LoginexecsfReqGetCharBlockInfo @ 3903
intUBTTcpLink_LoginexecsfReqHash @ 3904
intUBTTcpLink_LoginexecsfReqHeadItemTypeList @ 3905
intUBTTcpLink_LoginexecsfReqHelmetItemTypeList @ 3906
intUBTTcpLink_LoginexecsfReqKeepAlive @ 3907
intUBTTcpLink_LoginexecsfReqLogOut @ 3908
intUBTTcpLink_LoginexecsfReqLogin @ 3909
intUBTTcpLink_LoginexecsfReqLoginInHouseTest @ 3910
intUBTTcpLink_LoginexecsfReqLoginWithGlobal @ 3911
intUBTTcpLink_LoginexecsfReqLoginWithIndonesia @ 3912
intUBTTcpLink_LoginexecsfReqLoginWithTencentAuth @ 3913
intUBTTcpLink_LoginexecsfReqLoginWithThailand @ 3914
intUBTTcpLink_LoginexecsfReqLoginWithWZAuth @ 3915
intUBTTcpLink_LoginexecsfReqPCBangUserList @ 3916
intUBTTcpLink_LoginexecsfReqProcessPreLoginUser @ 3917
intUBTTcpLink_LoginexecsfReqRegisterMainPCBang @ 3918
intUBTTcpLink_LoginexecsfReqRegisteredPCBangInfo @ 3919
intUBTTcpLink_LoginexecsfReqServerList @ 3920
intUBTTcpLink_LoginexecsfReqServerTime @ 3921
intUBTTcpLink_LoginexecsfReqUserDetailInfo @ 3922
intUBTTcpLink_Process2AgentexecClose @ 3923
intUBTTcpLink_Process2AgentexecConnect @ 3924
intUBTTcpLink_Process2AgentexecInitNetwork @ 3925
intUBTTcpLink_Process2AgentexecsfAckHash @ 3926
intUBTTcpLink_Process2AgentexecsfAckLogin @ 3927
intUBTTcpLink_Process2AgentexecsfAckProcessExcuteCmd @ 3928
intUBTTcpLink_Process2AgentexecsfAckQuitDedicateHost @ 3929
intUBTTcpLink_Process2AgentexecsfAckStartDedicateHost @ 3930
intUBTTcpLink_Process2AgentexecsfReqHash @ 3931
intUBTTcpLink_Process2AgentexecsfReqLogin @ 3932
intUBTTcpLink_Process2AgentexecsfReqProcessExcuteCmd @ 3933
intUBTTcpLink_Process2AgentexecsfReqQuitDedicateHost @ 3934
intUBTTcpLink_Process2AgentexecsfReqStartDedicateHost @ 3935
intUBTTcpLink_Process2AgentexecsfReqTerminateDedicateHostProcess @ 3936
intUBTTcpLink_Process2AgentexecsfReqUpdateProcessState @ 3937
intUBTTcpLink_Process2AgentexecsfReqUpdateUserCount_ChannelServer @ 3938
intUBTTcpLink_Process2AgentexecsfReqUpdateUserCount_DudeServer @ 3939
intUBTTcpLink_Process2AgentexecsfReqUpdateUserCount_LoginServer @ 3940
