LIBRARY BatteryUI.dll

EXPORTS
??0Btr2DSize@@QAE@JJ@Z @ 1
??0Btr2DSize@@QAE@XZ @ 2
??0BtrByteColor@@QAE@EEEE@Z @ 3
??0BtrByteColor@@QAE@XZ @ 4
??0BtrColor@@QAE@MMMM@Z @ 5
??0BtrColor@@QAE@XZ @ 6
??0BtrFontData@@QAE@AAV0@@Z @ 7
??0BtrFontData@@QAE@VBtrRect@@VBtrByteColor@@1VBtrColor@@HPBG_NEE@Z @ 8
??0BtrFontData@@QAE@XZ @ 9
??0BtrFontDataIterator@@QAE@PAVBtrFontDataRefCollection@@@Z @ 10
??0BtrFontDataRefCollection@@QAE@ABV0@@Z @ 11
??0BtrFontDataRefCollection@@QAE@XZ @ 12
??0BtrRect@@QAE@HHHH@Z @ 13
??0BtrRect@@QAE@XZ @ 14
??0UBtrFont@@QAE@ABV0@@Z @ 15
??0UBtrFont@@QAE@XZ @ 16
??0UBtrMaterial@@QAE@ABV0@@Z @ 17
??0UBtrMaterial@@QAE@XZ @ 18
??0UBtrTexture@@QAE@ABV0@@Z @ 19
??0UBtrTexture@@QAE@XZ @ 20
??1BtrFontData@@QAE@XZ @ 21
??1BtrFontDataIterator@@QAE@XZ @ 22
??1BtrFontDataRefCollection@@QAE@XZ @ 23
??1UBtrFont@@UAE@XZ @ 24
??1UBtrMaterial@@UAE@XZ @ 25
??1UBtrTexture@@UAE@XZ @ 26
??2UBtrFont@@SAPAXIPAVUObject@@PAGK@Z @ 27
??2UBtrFont@@SAPAXIPAVUObject@@PBGK@Z @ 28
??2UBtrFont@@SAPAXIPAVUObject@@VFName@@K@Z @ 29
??2UBtrFont@@SAPAXIPAW4EInternal@@@Z @ 30
??2UBtrMaterial@@SAPAXIPAVUObject@@PAGK@Z @ 31
??2UBtrMaterial@@SAPAXIPAVUObject@@PBGK@Z @ 32
??2UBtrMaterial@@SAPAXIPAVUObject@@VFName@@K@Z @ 33
??2UBtrMaterial@@SAPAXIPAW4EInternal@@@Z @ 34
??2UBtrTexture@@SAPAXIPAVUObject@@PAGK@Z @ 35
??2UBtrTexture@@SAPAXIPAVUObject@@PBGK@Z @ 36
??2UBtrTexture@@SAPAXIPAVUObject@@VFName@@K@Z @ 37
??2UBtrTexture@@SAPAXIPAW4EInternal@@@Z @ 38
??4Btr2DSize@@QAEAAV0@ABV0@@Z @ 39
??4BtrByteColor@@QAEAAV0@ABV0@@Z @ 40
??4BtrColor@@QAEAAV0@ABV0@@Z @ 41
??4BtrFontData@@QAEAAV0@AAV0@@Z @ 42
??4BtrFontDataIterator@@QAEAAV0@ABV0@@Z @ 43
??4BtrFontDataRefCollection@@QAEAAV0@ABV0@@Z @ 44
??4BtrRect@@QAEAAV0@ABV0@@Z @ 45
??4UBtrFont@@QAEAAV0@ABV0@@Z @ 46
??4UBtrMaterial@@QAEAAV0@ABV0@@Z @ 47
??4UBtrTexture@@QAEAAV0@ABV0@@Z @ 48
??8BtrRect@@QBE_NABV0@@Z @ 49
??_7UBtrFont@@6B@ @ 50
??_7UBtrMaterial@@6B@ @ 51
??_7UBtrTexture@@6B@ @ 52
?Destroy@UBtrMaterial@@UAEXXZ @ 53
?PrivateStaticClass@UBtrFont@@0VUClass@@A @ 54
?PrivateStaticClass@UBtrMaterial@@0VUClass@@A @ 55
?PrivateStaticClass@UBtrTexture@@0VUClass@@A @ 56
?StaticClass@UBtrFont@@SAPAVUClass@@XZ @ 57
?StaticClass@UBtrMaterial@@SAPAVUClass@@XZ @ 58
?StaticClass@UBtrTexture@@SAPAVUClass@@XZ @ 59
?clearCollection@BtrFontDataRefCollection@@QAEXXZ @ 60
?empty@BtrFontDataRefCollection@@QAE_NXZ @ 61
?getBackColor@BtrFontData@@QAE?AVBtrByteColor@@XZ @ 62
?getBegin@BtrFontDataRefCollection@@QAE?AV?$_Deque_iterator@PAVBtrFontData@@V?$allocator@PAVBtrFontData@@@std@@$00@std@@XZ @ 63
?getColor@BtrFontData@@QAE?AVBtrByteColor@@XZ @ 64
?getFontScaleX@BtrFontData@@QAEMXZ @ 65
?getFontScaleY@BtrFontData@@QAEMXZ @ 66
?getFontSize@BtrFontData@@QAEHXZ @ 67
?getIterator@BtrFontDataRefCollection@@QAE?AVBtrFontDataIterator@@XZ @ 68
?getModulateColor@BtrFontData@@QAE?AVBtrColor@@XZ @ 69
?getRect@BtrFontData@@QAE?AVBtrRect@@XZ @ 70
?getSize@BtrFontDataRefCollection@@QAEHXZ @ 71
?getText@BtrFontData@@QAEPBGXZ @ 72
?getUseD3DFont@BtrFontData@@QAE_NXZ @ 73
?hasNext@BtrFontDataIterator@@QAE_NXZ @ 74
?next@BtrFontDataIterator@@QAEPAVBtrFontData@@XZ @ 75
?pushBackFontDataRef@BtrFontDataRefCollection@@QAEXVBtrRect@@VBtrByteColor@@1VBtrColor@@HPBGMM_NEE@Z @ 76
?setBackColor@BtrFontData@@QAEXEEEE@Z @ 77
?setBackColor@BtrFontData@@QAEXVBtrByteColor@@@Z @ 78
?setColor@BtrFontData@@QAEXEEEE@Z @ 79
?setColor@BtrFontData@@QAEXVBtrByteColor@@@Z @ 80
?setFontScale@BtrFontData@@QAEXMM@Z @ 81
?setFontSize@BtrFontData@@QAEXH@Z @ 82
?setModulateColor@BtrFontData@@QAEXMMMM@Z @ 83
?setModulateColor@BtrFontData@@QAEXVBtrColor@@@Z @ 84
?setRect@BtrFontData@@QAEXHHHH@Z @ 85
?setRect@BtrFontData@@QAEXVBtrRect@@@Z @ 86
?setText@BtrFontData@@QAEXPBG@Z @ 87
?setUseD3DFont@BtrFontData@@QAEX_N@Z @ 88
GPackage @ 90
_DllMain@12 @ 89
autoclassUBtrFont @ 91
autoclassUBtrMaterial @ 92
autoclassUBtrTexture @ 93
