LIBRARY BTData.dll

EXPORTS
??0FBT_GameMapInfo@@QAE@ABU0@@Z @ 1
??0FBT_GameMapInfo@@QAE@XZ @ 2
??0FBT_ItemShopInfo@@QAE@ABU0@@Z @ 3
??0FBT_ItemShopInfo@@QAE@XZ @ 4
??0FBT_LevelInfo@@QAE@ABU0@@Z @ 5
??0FBT_LevelInfo@@QAE@XZ @ 6
??0FBT_PaintGroup@@QAE@ABU0@@Z @ 7
??0FBT_PaintGroup@@QAE@XZ @ 8
??0FBT_PartsGroup@@QAE@ABU0@@Z @ 9
??0FBT_PartsGroup@@QAE@XZ @ 10
??0FBT_Promotion@@QAE@ABU0@@Z @ 11
??0FBT_Promotion@@QAE@XZ @ 12
??0FBT_Skill@@QAE@ABU0@@Z @ 13
??0FBT_Skill@@QAE@XZ @ 14
??0UBTNetExcelData@@IAE@XZ @ 15
??0UBTNetExcelData@@QAE@ABV0@@Z @ 16
??0UBTNetGameData@@IAE@XZ @ 17
??0UBTNetGameData@@QAE@ABV0@@Z @ 18
??0UBTNetMapData@@IAE@XZ @ 19
??0UBTNetMapData@@QAE@ABV0@@Z @ 20
??0UBTNetPlayerData@@IAE@XZ @ 21
??0UBTNetPlayerData@@QAE@ABV0@@Z @ 22
??1FBT_GameMapInfo@@QAE@XZ @ 23
??1FBT_ItemShopInfo@@QAE@XZ @ 24
??1FBT_LevelInfo@@QAE@XZ @ 25
??1FBT_PaintGroup@@QAE@XZ @ 26
??1FBT_PartsGroup@@QAE@XZ @ 27
??1FBT_Promotion@@QAE@XZ @ 28
??1FBT_Skill@@QAE@XZ @ 29
??1UBTNetExcelData@@UAE@XZ @ 30
??1UBTNetGameData@@UAE@XZ @ 31
??1UBTNetMapData@@UAE@XZ @ 32
??1UBTNetPlayerData@@UAE@XZ @ 33
??2UBTNetExcelData@@SAPAXIPAVUObject@@PAGK@Z @ 34
??2UBTNetExcelData@@SAPAXIPAVUObject@@PBGK@Z @ 35
??2UBTNetExcelData@@SAPAXIPAVUObject@@VFName@@K@Z @ 36
??2UBTNetExcelData@@SAPAXIPAW4EInternal@@@Z @ 37
??2UBTNetGameData@@SAPAXIPAVUObject@@PAGK@Z @ 38
??2UBTNetGameData@@SAPAXIPAVUObject@@PBGK@Z @ 39
??2UBTNetGameData@@SAPAXIPAVUObject@@VFName@@K@Z @ 40
??2UBTNetGameData@@SAPAXIPAW4EInternal@@@Z @ 41
??2UBTNetMapData@@SAPAXIPAVUObject@@PAGK@Z @ 42
??2UBTNetMapData@@SAPAXIPAVUObject@@PBGK@Z @ 43
??2UBTNetMapData@@SAPAXIPAVUObject@@VFName@@K@Z @ 44
??2UBTNetMapData@@SAPAXIPAW4EInternal@@@Z @ 45
??2UBTNetPlayerData@@SAPAXIPAVUObject@@PAGK@Z @ 46
??2UBTNetPlayerData@@SAPAXIPAVUObject@@PBGK@Z @ 47
??2UBTNetPlayerData@@SAPAXIPAVUObject@@VFName@@K@Z @ 48
??2UBTNetPlayerData@@SAPAXIPAW4EInternal@@@Z @ 49
??4FBT_GameMapInfo@@QAEAAU0@ABU0@@Z @ 50
??4FBT_ItemBox@@QAEAAU0@ABU0@@Z @ 51
??4FBT_ItemShopInfo@@QAEAAU0@ABU0@@Z @ 52
??4FBT_ItemShop_PriceInfo@@QAEAAU0@ABU0@@Z @ 53
??4FBT_LevelInfo@@QAEAAU0@ABU0@@Z @ 54
??4FBT_PaintGroup@@QAEAAU0@ABU0@@Z @ 55
??4FBT_PartsGroup@@QAEAAU0@ABU0@@Z @ 56
??4FBT_Promotion@@QAEAAU0@ABU0@@Z @ 57
??4FBT_Skill@@QAEAAU0@ABU0@@Z @ 58
??4FBT_WeaponInfo@@QAEAAU0@ABU0@@Z @ 59
??4UBTNetExcelData@@QAEAAV0@ABV0@@Z @ 60
??4UBTNetGameData@@QAEAAV0@ABV0@@Z @ 61
??4UBTNetMapData@@QAEAAV0@ABV0@@Z @ 62
??4UBTNetPlayerData@@QAEAAV0@ABV0@@Z @ 63
??6@YAAAVFArchive@@AAV0@AAUFBT_GameMapInfo@@@Z @ 64
??6@YAAAVFArchive@@AAV0@AAUFBT_ItemBox@@@Z @ 65
??6@YAAAVFArchive@@AAV0@AAUFBT_ItemShopInfo@@@Z @ 66
??6@YAAAVFArchive@@AAV0@AAUFBT_ItemShop_PriceInfo@@@Z @ 67
??6@YAAAVFArchive@@AAV0@AAUFBT_LevelInfo@@@Z @ 68
??6@YAAAVFArchive@@AAV0@AAUFBT_PaintGroup@@@Z @ 69
??6@YAAAVFArchive@@AAV0@AAUFBT_PartsGroup@@@Z @ 70
??6@YAAAVFArchive@@AAV0@AAUFBT_Promotion@@@Z @ 71
??6@YAAAVFArchive@@AAV0@AAUFBT_Skill@@@Z @ 72
??6@YAAAVFArchive@@AAV0@AAUFBT_WeaponInfo@@@Z @ 73
??_7UBTNetExcelData@@6B@ @ 74
??_7UBTNetGameData@@6B@ @ 75
??_7UBTNetMapData@@6B@ @ 76
??_7UBTNetPlayerData@@6B@ @ 77
?InternalConstructor@UBTNetExcelData@@SAXPAX@Z @ 78
?InternalConstructor@UBTNetGameData@@SAXPAX@Z @ 79
?InternalConstructor@UBTNetMapData@@SAXPAX@Z @ 80
?InternalConstructor@UBTNetPlayerData@@SAXPAX@Z @ 81
?PrivateStaticClass@UBTNetExcelData@@0VUClass@@A @ 82
?PrivateStaticClass@UBTNetGameData@@0VUClass@@A @ 83
?PrivateStaticClass@UBTNetMapData@@0VUClass@@A @ 84
?PrivateStaticClass@UBTNetPlayerData@@0VUClass@@A @ 85
?StaticClass@UBTNetExcelData@@SAPAVUClass@@XZ @ 86
?StaticClass@UBTNetGameData@@SAPAVUClass@@XZ @ 87
?StaticClass@UBTNetMapData@@SAPAVUClass@@XZ @ 88
?StaticClass@UBTNetPlayerData@@SAPAVUClass@@XZ @ 89
?execLoadAddPaintGroupParams@UBTNetGameData@@QAEXAAUFFrame@@QAX@Z @ 90
?execLoadAddPartsGroupParams@UBTNetGameData@@QAEXAAUFFrame@@QAX@Z @ 91
?execLoadAllData@UBTNetGameData@@QAEXAAUFFrame@@QAX@Z @ 92
?execLoadClanLevelInfoParams@UBTNetGameData@@QAEXAAUFFrame@@QAX@Z @ 93
?execLoadClanMarkParams@UBTNetGameData@@QAEXAAUFFrame@@QAX@Z @ 94
?execLoadDailyQuestParams@UBTNetGameData@@QAEXAAUFFrame@@QAX@Z @ 95
?execLoadExcelData@UBTNetExcelData@@QAEXAAUFFrame@@QAX@Z @ 96
?execLoadItemBoxParams@UBTNetGameData@@QAEXAAUFFrame@@QAX@Z @ 97
?execLoadItemParams@UBTNetGameData@@QAEXAAUFFrame@@QAX@Z @ 98
?execLoadItemResourceParams@UBTNetGameData@@QAEXAAUFFrame@@QAX@Z @ 99
?execLoadLevelInfoParams@UBTNetGameData@@QAEXAAUFFrame@@QAX@Z @ 100
?execLoadMapData@UBTNetMapData@@QAEXAAUFFrame@@QAX@Z @ 101
?execLoadModeDOAParams@UBTNetGameData@@QAEXAAUFFrame@@QAX@Z @ 102
?execLoadPaintGroupParams@UBTNetGameData@@QAEXAAUFFrame@@QAX@Z @ 103
?execLoadPlayerAnimationData@UBTNetPlayerData@@QAEXAAUFFrame@@QAX@Z @ 104
?execLoadPlayerMoveParams@UBTNetPlayerData@@QAEXAAUFFrame@@QAX@Z @ 105
?execLoadPlayerPartsData@UBTNetPlayerData@@QAEXAAUFFrame@@QAX@Z @ 106
?execLoadPromotionParams@UBTNetGameData@@QAEXAAUFFrame@@QAX@Z @ 107
?execLoadQuestParams@UBTNetGameData@@QAEXAAUFFrame@@QAX@Z @ 108
?execLoadRandBoxParams@UBTNetGameData@@QAEXAAUFFrame@@QAX@Z @ 109
?execLoadSkillParams@UBTNetGameData@@QAEXAAUFFrame@@QAX@Z @ 110
?execLoadSupplyRandomTable@UBTNetGameData@@QAEXAAUFFrame@@QAX@Z @ 111
?execLoadWeaponParams@UBTNetGameData@@QAEXAAUFFrame@@QAX@Z @ 112
?execLoadWeaponRecoilParams@UBTNetGameData@@QAEXAAUFFrame@@QAX@Z @ 113
?execLoadWeaponRes@UBTNetGameData@@QAEXAAUFFrame@@QAX@Z @ 114
?execgetData@UBTNetExcelData@@QAEXAAUFFrame@@QAX@Z @ 115
?execgetData@UBTNetGameData@@QAEXAAUFFrame@@QAX@Z @ 116
?execgetData@UBTNetMapData@@QAEXAAUFFrame@@QAX@Z @ 117
?execgetData@UBTNetPlayerData@@QAEXAAUFFrame@@QAX@Z @ 118
?execgetNameData@UBTNetPlayerData@@QAEXAAUFFrame@@QAX@Z @ 119
GPackage @ 121
_DllMain@12 @ 120
autoclassUBTNetExcelData @ 122
autoclassUBTNetGameData @ 123
autoclassUBTNetMapData @ 124
autoclassUBTNetPlayerData @ 125
intUBTNetExcelDataexecLoadExcelData @ 126
intUBTNetExcelDataexecgetData @ 127
intUBTNetGameDataexecLoadAddPaintGroupParams @ 128
intUBTNetGameDataexecLoadAddPartsGroupParams @ 129
intUBTNetGameDataexecLoadAllData @ 130
intUBTNetGameDataexecLoadClanLevelInfoParams @ 131
intUBTNetGameDataexecLoadClanMarkParams @ 132
intUBTNetGameDataexecLoadDailyQuestParams @ 133
intUBTNetGameDataexecLoadItemBoxParams @ 134
intUBTNetGameDataexecLoadItemParams @ 135
intUBTNetGameDataexecLoadItemResourceParams @ 136
intUBTNetGameDataexecLoadLevelInfoParams @ 137
intUBTNetGameDataexecLoadModeDOAParams @ 138
intUBTNetGameDataexecLoadPaintGroupParams @ 139
intUBTNetGameDataexecLoadPromotionParams @ 140
intUBTNetGameDataexecLoadQuestParams @ 141
intUBTNetGameDataexecLoadRandBoxParams @ 142
intUBTNetGameDataexecLoadSkillParams @ 143
intUBTNetGameDataexecLoadSupplyRandomTable @ 144
intUBTNetGameDataexecLoadWeaponParams @ 145
intUBTNetGameDataexecLoadWeaponRecoilParams @ 146
intUBTNetGameDataexecLoadWeaponRes @ 147
intUBTNetGameDataexecgetData @ 148
intUBTNetMapDataexecLoadMapData @ 149
intUBTNetMapDataexecgetData @ 150
intUBTNetPlayerDataexecLoadPlayerAnimationData @ 151
intUBTNetPlayerDataexecLoadPlayerMoveParams @ 152
intUBTNetPlayerDataexecLoadPlayerPartsData @ 153
intUBTNetPlayerDataexecgetData @ 154
intUBTNetPlayerDataexecgetNameData @ 155
