LIBRARY Core.dll

EXPORTS
??0?$TArray@G@@QAE@ABV0@@Z @ 1
??0?$TArray@G@@QAE@H@Z @ 2
??0?$TArray@G@@QAE@W4ENoInit@@@Z @ 3
??0?$TArray@G@@QAE@XZ @ 4
??0FArchive@@QAE@ABV0@@Z @ 5
??0FArchive@@QAE@XZ @ 6
??0FArchiveCountMem@@QAE@ABV0@@Z @ 7
??0FArchiveCountMem@@QAE@PAVUObject@@@Z @ 8
??0FArchiveDummySave@@QAE@ABV0@@Z @ 9
??0FArchiveDummySave@@QAE@XZ @ 10
??0FArray@@IAE@HH@Z @ 11
??0FArray@@QAE@W4ENoInit@@@Z @ 12
??0FArray@@QAE@XZ @ 13
??0FBitReader@@QAE@ABU0@@Z @ 14
??0FBitReader@@QAE@PAEH@Z @ 15
??0FBitWriter@@QAE@ABU0@@Z @ 16
??0FBitWriter@@QAE@H@Z @ 17
??0FBitWriterMark@@QAE@AAUFBitWriter@@@Z @ 18
??0FBitWriterMark@@QAE@XZ @ 19
??0FBox@@QAE@ABVFVector@@0@Z @ 20
??0FBox@@QAE@H@Z @ 21
??0FBox@@QAE@PBVFVector@@H@Z @ 22
??0FBox@@QAE@XZ @ 23
??0FBtrDouble@@QAE@ABV0@@Z @ 24
??0FBtrDouble@@QAE@H@Z @ 25
??0FBtrDouble@@QAE@N@Z @ 26
??0FBtrDouble@@QAE@XZ @ 27
??0FBufferReader@@QAE@ABV0@@Z @ 28
??0FBufferReader@@QAE@ABV?$TArray@E@@@Z @ 29
??0FClassNetCache@@QAE@ABV0@@Z @ 30
??0FClassNetCache@@QAE@PAVUClass@@@Z @ 31
??0FClassNetCache@@QAE@XZ @ 32
??0FCombatSituationOut@@QAE@ABV0@@Z @ 33
??0FCombatSituationOut@@QAE@XZ @ 34
??0FCoords@@QAE@ABVFVector@@000@Z @ 35
??0FCoords@@QAE@ABVFVector@@@Z @ 36
??0FCoords@@QAE@XZ @ 37
??0FCrashLogOutError@@QAE@ABV0@@Z @ 38
??0FCrashLogOutError@@QAE@XZ @ 39
??0FCriticalSection@@QAE@XZ @ 40
??0FDependency@@QAE@PAVUClass@@H@Z @ 41
??0FDependency@@QAE@XZ @ 42
??0FEdLoadError@@QAE@ABV0@@Z @ 43
??0FEdLoadError@@QAE@HPAG@Z @ 44
??0FEdLoadError@@QAE@XZ @ 45
??0FEdge@@QAE@VFVector@@0@Z @ 46
??0FEdge@@QAE@XZ @ 47
??0FErrorOutError@@QAE@ABV0@@Z @ 48
??0FErrorOutError@@QAE@XZ @ 49
??0FExec@@QAE@ABV0@@Z @ 50
??0FExec@@QAE@XZ @ 51
??0FFeedbackContext@@QAE@ABV0@@Z @ 52
??0FFeedbackContext@@QAE@XZ @ 53
??0FFieldNetCache@@QAE@PAVUField@@HH@Z @ 54
??0FFieldNetCache@@QAE@XZ @ 55
??0FFileManager@@QAE@ABV0@@Z @ 56
??0FFileManager@@QAE@XZ @ 57
??0FFrame@@QAE@ABU0@@Z @ 58
??0FFrame@@QAE@PAVUObject@@@Z @ 59
??0FFrame@@QAE@PAVUObject@@PAVUStruct@@HPAX@Z @ 60
??0FGenerationInfo@@QAE@HH@Z @ 61
??0FGlobalMath@@QAE@XZ @ 62
??0FGuid@@QAE@KKKK@Z @ 63
??0FGuid@@QAE@XZ @ 64
??0FInterpCurve@@QAE@ABV0@@Z @ 65
??0FInterpCurve@@QAE@XZ @ 66
??0FInterpCurveInit@@QAE@ABV0@@Z @ 67
??0FInterpCurveInit@@QAE@XZ @ 68
??0FInterpCurvePoint@@QAE@MM@Z @ 69
??0FInterpCurvePoint@@QAE@XZ @ 70
??0FLabelEntry@@QAE@VFName@@H@Z @ 71
??0FLogOutError@@QAE@ABV0@@Z @ 72
??0FLogOutError@@QAE@XZ @ 73
??0FMalloc@@QAE@ABV0@@Z @ 74
??0FMalloc@@QAE@XZ @ 75
??0FMatrix@@QAE@VFPlane@@000@Z @ 76
??0FMatrix@@QAE@XZ @ 77
??0FMemCache@@QAE@XZ @ 78
??0FMemMark@@QAE@AAVFMemStack@@@Z @ 79
??0FMemStack@@QAE@HHH@Z @ 80
??0FModelCoords@@QAE@ABVFCoords@@0@Z @ 81
??0FModelCoords@@QAE@XZ @ 82
??0FName@@QAE@PBGW4EFindName@@@Z @ 83
??0FName@@QAE@W4EName@@@Z @ 84
??0FName@@QAE@XZ @ 85
??0FNameEntry@@QAE@XZ @ 86
??0FNotifyHook@@QAE@ABV0@@Z @ 87
??0FNotifyHook@@QAE@XZ @ 88
??0FNullOutError@@QAE@ABV0@@Z @ 89
??0FNullOutError@@QAE@XZ @ 90
??0FObjectExport@@QAE@PAVUObject@@@Z @ 91
??0FObjectExport@@QAE@XZ @ 92
??0FObjectImport@@QAE@PAVUObject@@@Z @ 93
??0FObjectImport@@QAE@XZ @ 94
??0FOutputDevice@@QAE@ABV0@@Z @ 95
??0FOutputDevice@@QAE@XZ @ 96
??0FOutputDeviceError@@QAE@ABV0@@Z @ 97
??0FOutputDeviceError@@QAE@XZ @ 98
??0FPackageFileSummary@@QAE@ABU0@@Z @ 99
??0FPackageFileSummary@@QAE@XZ @ 100
??0FPackageInfo@@QAE@ABV0@@Z @ 101
??0FPackageInfo@@QAE@PAVULinkerLoad@@@Z @ 102
??0FPlane@@QAE@ABV0@@Z @ 103
??0FPlane@@QAE@ABVFVector@@@Z @ 104
??0FPlane@@QAE@MMMM@Z @ 105
??0FPlane@@QAE@VFVector@@00@Z @ 106
??0FPlane@@QAE@VFVector@@ABV1@@Z @ 107
??0FPlane@@QAE@VFVector@@M@Z @ 108
??0FPlane@@QAE@XZ @ 109
??0FPosition@@QAE@VFVector@@VFCoords@@@Z @ 110
??0FPosition@@QAE@XZ @ 111
??0FPreferencesInfo@@QAE@ABV0@@Z @ 112
??0FPreferencesInfo@@QAE@XZ @ 113
??0FQuat@@QAE@MMMM@Z @ 114
??0FQuat@@QAE@XZ @ 115
??0FRainbowPtr@@QAE@PAX@Z @ 116
??0FRainbowPtr@@QAE@XZ @ 117
??0FRange@@QAE@M@Z @ 118
??0FRange@@QAE@MM@Z @ 119
??0FRange@@QAE@XZ @ 120
??0FRangeVector@@QAE@VFRange@@00@Z @ 121
??0FRangeVector@@QAE@VFVector@@@Z @ 122
??0FRangeVector@@QAE@XZ @ 123
??0FRegistryObjectInfo@@QAE@ABV0@@Z @ 124
??0FRegistryObjectInfo@@QAE@XZ @ 125
??0FRotator@@QAE@HHH@Z @ 126
??0FRotator@@QAE@XZ @ 127
??0FScale@@QAE@ABVFVector@@MW4ESheerAxis@@@Z @ 128
??0FScale@@QAE@XZ @ 129
??0FScopeCriticalSection@@QAE@PAVFCriticalSection@@@Z @ 130
??0FScriptCallGraph@@QAE@ABU0@@Z @ 131
??0FScriptCallGraph@@QAE@K@Z @ 132
??0FScriptDelegate@@QAE@XZ @ 133
??0FSphere@@QAE@ABV0@@Z @ 134
??0FSphere@@QAE@H@Z @ 135
??0FSphere@@QAE@PBVFVector@@H@Z @ 136
??0FSphere@@QAE@VFVector@@M@Z @ 137
??0FSphere@@QAE@XZ @ 138
??0FStateFrame@@QAE@ABU0@@Z @ 139
??0FStateFrame@@QAE@PAVUObject@@@Z @ 140
??0FString@@AAE@HPBG@Z @ 141
??0FString@@QAE@ABV0@@Z @ 142
??0FString@@QAE@CH@Z @ 143
??0FString@@QAE@EH@Z @ 144
??0FString@@QAE@FH@Z @ 145
??0FString@@QAE@GH@Z @ 146
??0FString@@QAE@HH@Z @ 147
??0FString@@QAE@KH@Z @ 148
??0FString@@QAE@MHHH@Z @ 149
??0FString@@QAE@NHHH@Z @ 150
??0FString@@QAE@PBD@Z @ 151
??0FString@@QAE@PBG@Z @ 152
??0FString@@QAE@W4ENoInit@@@Z @ 153
??0FString@@QAE@XZ @ 154
??0FStringNoInit@@QAE@ABU0@@Z @ 155
??0FStringNoInit@@QAE@XZ @ 156
??0FThrowOut@@QAE@ABV0@@Z @ 157
??0FThrowOut@@QAE@XZ @ 158
??0FTransactionBase@@QAE@ABV0@@Z @ 159
??0FTransactionBase@@QAE@XZ @ 160
??0FUnknown@@QAE@ABV0@@Z @ 161
??0FUnknown@@QAE@XZ @ 162
??0FVector@@QAE@MMM@Z @ 163
??0FVector@@QAE@XZ @ 164
??0FVertexHit@@QAE@PAVABrush@@HH@Z @ 165
??0FVertexHit@@QAE@XZ @ 166
??0UArrayProperty@@QAE@ABV0@@Z @ 167
??0UArrayProperty@@QAE@W4ECppProperty@@HPBGK@Z @ 168
??0UArrayProperty@@QAE@XZ @ 169
??0UBoolProperty@@QAE@ABV0@@Z @ 170
??0UBoolProperty@@QAE@W4ECppProperty@@HPBGK@Z @ 171
??0UBoolProperty@@QAE@XZ @ 172
??0UByteProperty@@QAE@ABV0@@Z @ 173
??0UByteProperty@@QAE@W4ECppProperty@@HPBGKPAVUEnum@@@Z @ 174
??0UByteProperty@@QAE@XZ @ 175
??0UClass@@QAE@ABV0@@Z @ 176
??0UClass@@QAE@PAV0@@Z @ 177
??0UClass@@QAE@W4ENativeConstructor@@KKPAV0@1VFGuid@@PBG33KP6AXPAX@ZP8UObject@@AEXXZ@Z @ 178
??0UClass@@QAE@W4EStaticConstructor@@KKVFGuid@@PBG22KP6AXPAX@ZP8UObject@@AEXXZ@Z @ 179
??0UClass@@QAE@XZ @ 180
??0UClassProperty@@QAE@ABV0@@Z @ 181
??0UClassProperty@@QAE@W4ECppProperty@@HPBGKPAVUClass@@@Z @ 182
??0UClassProperty@@QAE@XZ @ 183
??0UCommandlet@@QAE@ABV0@@Z @ 184
??0UCommandlet@@QAE@XZ @ 185
??0UConst@@IAE@XZ @ 186
??0UConst@@QAE@ABV0@@Z @ 187
??0UConst@@QAE@PAV0@PBG@Z @ 188
??0UDelegateProperty@@QAE@ABV0@@Z @ 189
??0UDelegateProperty@@QAE@W4ECppProperty@@HPBGK@Z @ 190
??0UDelegateProperty@@QAE@XZ @ 191
??0UEnum@@IAE@XZ @ 192
??0UEnum@@QAE@ABV0@@Z @ 193
??0UEnum@@QAE@PAV0@@Z @ 194
??0UExporter@@QAE@ABV0@@Z @ 195
??0UExporter@@QAE@XZ @ 196
??0UFactory@@QAE@ABV0@@Z @ 197
??0UFactory@@QAE@XZ @ 198
??0UField@@IAE@XZ @ 199
??0UField@@QAE@ABV0@@Z @ 200
??0UField@@QAE@PAV0@@Z @ 201
??0UField@@QAE@W4ENativeConstructor@@PAVUClass@@PBG2KPAV0@@Z @ 202
??0UField@@QAE@W4EStaticConstructor@@PBG1K@Z @ 203
??0UFixedArrayProperty@@QAE@ABV0@@Z @ 204
??0UFixedArrayProperty@@QAE@W4ECppProperty@@HPBGK@Z @ 205
??0UFixedArrayProperty@@QAE@XZ @ 206
??0UFloatProperty@@QAE@ABV0@@Z @ 207
??0UFloatProperty@@QAE@W4ECppProperty@@HPBGK@Z @ 208
??0UFloatProperty@@QAE@XZ @ 209
??0UFunction@@IAE@XZ @ 210
??0UFunction@@QAE@ABV0@@Z @ 211
??0UFunction@@QAE@PAV0@@Z @ 212
??0UIntProperty@@QAE@ABV0@@Z @ 213
??0UIntProperty@@QAE@W4ECppProperty@@HPBGK@Z @ 214
??0UIntProperty@@QAE@XZ @ 215
??0ULanguage@@IAE@XZ @ 216
??0ULanguage@@QAE@ABV0@@Z @ 217
??0ULinker@@IAE@XZ @ 218
??0ULinker@@QAE@ABV0@@Z @ 219
??0ULinker@@QAE@PAVUObject@@PBG@Z @ 220
??0UMapProperty@@QAE@ABV0@@Z @ 221
??0UMapProperty@@QAE@W4ECppProperty@@HPBGK@Z @ 222
??0UMapProperty@@QAE@XZ @ 223
??0UNameProperty@@QAE@ABV0@@Z @ 224
??0UNameProperty@@QAE@W4ECppProperty@@HPBGK@Z @ 225
??0UNameProperty@@QAE@XZ @ 226
??0UObject@@QAE@ABV0@@Z @ 227
??0UObject@@QAE@W4EInPlaceConstructor@@PAVUClass@@PAV0@VFName@@K@Z @ 228
??0UObject@@QAE@W4ENativeConstructor@@PAVUClass@@PBG2K@Z @ 229
??0UObject@@QAE@W4EStaticConstructor@@PBG1K@Z @ 230
??0UObject@@QAE@XZ @ 231
??0UObjectExporterT3D@@QAE@ABV0@@Z @ 232
??0UObjectExporterT3D@@QAE@XZ @ 233
??0UObjectProperty@@QAE@ABV0@@Z @ 234
??0UObjectProperty@@QAE@W4ECppProperty@@HPBGKPAVUClass@@@Z @ 235
??0UObjectProperty@@QAE@XZ @ 236
??0UPackage@@QAE@ABV0@@Z @ 237
??0UPackage@@QAE@XZ @ 238
??0UPackageMap@@QAE@ABV0@@Z @ 239
??0UPackageMap@@QAE@XZ @ 240
??0UPointerProperty@@QAE@ABV0@@Z @ 241
??0UPointerProperty@@QAE@W4ECppProperty@@HPBGK@Z @ 242
??0UPointerProperty@@QAE@XZ @ 243
??0UProperty@@QAE@ABV0@@Z @ 244
??0UProperty@@QAE@W4ECppProperty@@HPBGK@Z @ 245
??0UProperty@@QAE@XZ @ 246
??0UState@@IAE@XZ @ 247
??0UState@@QAE@ABV0@@Z @ 248
??0UState@@QAE@PAV0@@Z @ 249
??0UState@@QAE@W4ENativeConstructor@@HPBG1KPAV0@@Z @ 250
??0UState@@QAE@W4EStaticConstructor@@HPBG1K@Z @ 251
??0UStrProperty@@QAE@ABV0@@Z @ 252
??0UStrProperty@@QAE@W4ECppProperty@@HPBGK@Z @ 253
??0UStrProperty@@QAE@XZ @ 254
??0UStruct@@IAE@XZ @ 255
??0UStruct@@QAE@ABV0@@Z @ 256
??0UStruct@@QAE@PAV0@@Z @ 257
??0UStruct@@QAE@W4ENativeConstructor@@HPBG1KPAV0@@Z @ 258
??0UStruct@@QAE@W4EStaticConstructor@@HPBG1K@Z @ 259
??0UStructProperty@@QAE@ABV0@@Z @ 260
??0UStructProperty@@QAE@W4ECppProperty@@HPBGKPAVUStruct@@@Z @ 261
??0UStructProperty@@QAE@XZ @ 262
??0USubsystem@@IAE@XZ @ 263
??0USubsystem@@QAE@ABV0@@Z @ 264
??0USystem@@QAE@ABV0@@Z @ 265
??0USystem@@QAE@XZ @ 266
??0UTextBuffer@@QAE@ABV0@@Z @ 267
??0UTextBuffer@@QAE@PBG@Z @ 268
??0UTextBufferFactory@@QAE@ABV0@@Z @ 269
??0UTextBufferFactory@@QAE@XZ @ 270
??1?$TArray@G@@QAE@XZ @ 271
??1FArchive@@UAE@XZ @ 272
??1FArchiveCountMem@@UAE@XZ @ 273
??1FArchiveDummySave@@UAE@XZ @ 274
??1FArray@@QAE@XZ @ 275
??1FBitReader@@UAE@XZ @ 276
??1FBitWriter@@UAE@XZ @ 277
??1FBufferReader@@UAE@XZ @ 278
??1FClassNetCache@@QAE@XZ @ 279
??1FCriticalSection@@QAE@XZ @ 280
??1FEdLoadError@@QAE@XZ @ 281
??1FInterpCurve@@QAE@XZ @ 282
??1FInterpCurveInit@@QAE@XZ @ 283
??1FMatrix@@QAE@XZ @ 284
??1FMemMark@@QAE@XZ @ 285
??1FMemStack@@QAE@XZ @ 286
??1FPackageFileSummary@@QAE@XZ @ 287
??1FPackageInfo@@QAE@XZ @ 288
??1FPreferencesInfo@@QAE@XZ @ 289
??1FRegistryObjectInfo@@QAE@XZ @ 290
??1FScopeCriticalSection@@QAE@XZ @ 291
??1FScriptCallGraph@@QAE@XZ @ 292
??1FString@@QAE@XZ @ 293
??1FStringNoInit@@QAE@XZ @ 294
??1UArrayProperty@@UAE@XZ @ 295
??1UBoolProperty@@UAE@XZ @ 296
??1UByteProperty@@UAE@XZ @ 297
??1UClass@@UAE@XZ @ 298
??1UClassProperty@@UAE@XZ @ 299
??1UCommandlet@@UAE@XZ @ 300
??1UConst@@UAE@XZ @ 301
??1UDelegateProperty@@UAE@XZ @ 302
??1UEnum@@UAE@XZ @ 303
??1UExporter@@UAE@XZ @ 304
??1UFactory@@UAE@XZ @ 305
??1UField@@UAE@XZ @ 306
??1UFixedArrayProperty@@UAE@XZ @ 307
??1UFloatProperty@@UAE@XZ @ 308
??1UFunction@@UAE@XZ @ 309
??1UIntProperty@@UAE@XZ @ 310
??1ULanguage@@UAE@XZ @ 311
??1ULinker@@UAE@XZ @ 312
??1UMapProperty@@UAE@XZ @ 313
??1UNameProperty@@UAE@XZ @ 314
??1UObject@@UAE@XZ @ 315
??1UObjectExporterT3D@@UAE@XZ @ 316
??1UObjectProperty@@UAE@XZ @ 317
??1UPackage@@UAE@XZ @ 318
??1UPackageMap@@UAE@XZ @ 319
??1UPointerProperty@@UAE@XZ @ 320
??1UProperty@@UAE@XZ @ 321
??1UState@@UAE@XZ @ 322
??1UStrProperty@@UAE@XZ @ 323
??1UStruct@@UAE@XZ @ 324
??1UStructProperty@@UAE@XZ @ 325
??1USubsystem@@UAE@XZ @ 326
??1USystem@@UAE@XZ @ 327
??1UTextBuffer@@UAE@XZ @ 328
??1UTextBufferFactory@@UAE@XZ @ 329
??2UArrayProperty@@SAPAXIPAVUObject@@PAGK@Z @ 330
??2UArrayProperty@@SAPAXIPAVUObject@@PBGK@Z @ 331
??2UArrayProperty@@SAPAXIPAVUObject@@VFName@@K@Z @ 332
??2UArrayProperty@@SAPAXIPAW4EInternal@@@Z @ 333
??2UBoolProperty@@SAPAXIPAVUObject@@PAGK@Z @ 334
??2UBoolProperty@@SAPAXIPAVUObject@@PBGK@Z @ 335
??2UBoolProperty@@SAPAXIPAVUObject@@VFName@@K@Z @ 336
??2UBoolProperty@@SAPAXIPAW4EInternal@@@Z @ 337
??2UByteProperty@@SAPAXIPAVUObject@@PAGK@Z @ 338
??2UByteProperty@@SAPAXIPAVUObject@@PBGK@Z @ 339
??2UByteProperty@@SAPAXIPAVUObject@@VFName@@K@Z @ 340
??2UByteProperty@@SAPAXIPAW4EInternal@@@Z @ 341
??2UClass@@SAPAXIPAVUObject@@PAGK@Z @ 342
??2UClass@@SAPAXIPAVUObject@@PBGK@Z @ 343
??2UClass@@SAPAXIPAVUObject@@VFName@@K@Z @ 344
??2UClass@@SAPAXIPAW4EInternal@@@Z @ 345
??2UClassProperty@@SAPAXIPAVUObject@@PAGK@Z @ 346
??2UClassProperty@@SAPAXIPAVUObject@@PBGK@Z @ 347
??2UClassProperty@@SAPAXIPAVUObject@@VFName@@K@Z @ 348
??2UClassProperty@@SAPAXIPAW4EInternal@@@Z @ 349
??2UCommandlet@@SAPAXIPAVUObject@@PAGK@Z @ 350
??2UCommandlet@@SAPAXIPAVUObject@@PBGK@Z @ 351
??2UCommandlet@@SAPAXIPAVUObject@@VFName@@K@Z @ 352
??2UCommandlet@@SAPAXIPAW4EInternal@@@Z @ 353
??2UConst@@SAPAXIPAVUObject@@PAGK@Z @ 354
??2UConst@@SAPAXIPAVUObject@@PBGK@Z @ 355
??2UConst@@SAPAXIPAVUObject@@VFName@@K@Z @ 356
??2UConst@@SAPAXIPAW4EInternal@@@Z @ 357
??2UDelegateProperty@@SAPAXIPAVUObject@@PAGK@Z @ 358
??2UDelegateProperty@@SAPAXIPAVUObject@@PBGK@Z @ 359
??2UDelegateProperty@@SAPAXIPAVUObject@@VFName@@K@Z @ 360
??2UDelegateProperty@@SAPAXIPAW4EInternal@@@Z @ 361
??2UEnum@@SAPAXIPAVUObject@@PAGK@Z @ 362
??2UEnum@@SAPAXIPAVUObject@@PBGK@Z @ 363
??2UEnum@@SAPAXIPAVUObject@@VFName@@K@Z @ 364
??2UEnum@@SAPAXIPAW4EInternal@@@Z @ 365
??2UExporter@@SAPAXIPAVUObject@@PAGK@Z @ 366
??2UExporter@@SAPAXIPAVUObject@@PBGK@Z @ 367
??2UExporter@@SAPAXIPAVUObject@@VFName@@K@Z @ 368
??2UExporter@@SAPAXIPAW4EInternal@@@Z @ 369
??2UFactory@@SAPAXIPAVUObject@@PAGK@Z @ 370
??2UFactory@@SAPAXIPAVUObject@@PBGK@Z @ 371
??2UFactory@@SAPAXIPAVUObject@@VFName@@K@Z @ 372
??2UFactory@@SAPAXIPAW4EInternal@@@Z @ 373
??2UField@@SAPAXIPAVUObject@@PAGK@Z @ 374
??2UField@@SAPAXIPAVUObject@@PBGK@Z @ 375
??2UField@@SAPAXIPAVUObject@@VFName@@K@Z @ 376
??2UField@@SAPAXIPAW4EInternal@@@Z @ 377
??2UFixedArrayProperty@@SAPAXIPAVUObject@@PAGK@Z @ 378
??2UFixedArrayProperty@@SAPAXIPAVUObject@@PBGK@Z @ 379
??2UFixedArrayProperty@@SAPAXIPAVUObject@@VFName@@K@Z @ 380
??2UFixedArrayProperty@@SAPAXIPAW4EInternal@@@Z @ 381
??2UFloatProperty@@SAPAXIPAVUObject@@PAGK@Z @ 382
??2UFloatProperty@@SAPAXIPAVUObject@@PBGK@Z @ 383
??2UFloatProperty@@SAPAXIPAVUObject@@VFName@@K@Z @ 384
??2UFloatProperty@@SAPAXIPAW4EInternal@@@Z @ 385
??2UFunction@@SAPAXIPAVUObject@@PAGK@Z @ 386
??2UFunction@@SAPAXIPAVUObject@@PBGK@Z @ 387
??2UFunction@@SAPAXIPAVUObject@@VFName@@K@Z @ 388
??2UFunction@@SAPAXIPAW4EInternal@@@Z @ 389
??2UIntProperty@@SAPAXIPAVUObject@@PAGK@Z @ 390
??2UIntProperty@@SAPAXIPAVUObject@@PBGK@Z @ 391
??2UIntProperty@@SAPAXIPAVUObject@@VFName@@K@Z @ 392
??2UIntProperty@@SAPAXIPAW4EInternal@@@Z @ 393
??2ULanguage@@SAPAXIPAVUObject@@PAGK@Z @ 394
??2ULanguage@@SAPAXIPAVUObject@@PBGK@Z @ 395
??2ULanguage@@SAPAXIPAVUObject@@VFName@@K@Z @ 396
??2ULanguage@@SAPAXIPAW4EInternal@@@Z @ 397
??2ULinker@@SAPAXIPAVUObject@@PAGK@Z @ 398
??2ULinker@@SAPAXIPAVUObject@@PBGK@Z @ 399
??2ULinker@@SAPAXIPAVUObject@@VFName@@K@Z @ 400
??2ULinker@@SAPAXIPAW4EInternal@@@Z @ 401
??2UMapProperty@@SAPAXIPAVUObject@@PAGK@Z @ 402
??2UMapProperty@@SAPAXIPAVUObject@@PBGK@Z @ 403
??2UMapProperty@@SAPAXIPAVUObject@@VFName@@K@Z @ 404
??2UMapProperty@@SAPAXIPAW4EInternal@@@Z @ 405
??2UNameProperty@@SAPAXIPAVUObject@@PAGK@Z @ 406
??2UNameProperty@@SAPAXIPAVUObject@@PBGK@Z @ 407
??2UNameProperty@@SAPAXIPAVUObject@@VFName@@K@Z @ 408
??2UNameProperty@@SAPAXIPAW4EInternal@@@Z @ 409
??2UObject@@SAPAXIPAV0@PAGK@Z @ 410
??2UObject@@SAPAXIPAV0@PBGK@Z @ 411
??2UObject@@SAPAXIPAV0@VFName@@K@Z @ 412
??2UObject@@SAPAXIPAW4EInternal@@@Z @ 413
??2UObjectExporterT3D@@SAPAXIPAVUObject@@PAGK@Z @ 414
??2UObjectExporterT3D@@SAPAXIPAVUObject@@PBGK@Z @ 415
??2UObjectExporterT3D@@SAPAXIPAVUObject@@VFName@@K@Z @ 416
??2UObjectExporterT3D@@SAPAXIPAW4EInternal@@@Z @ 417
??2UObjectProperty@@SAPAXIPAVUObject@@PAGK@Z @ 418
??2UObjectProperty@@SAPAXIPAVUObject@@PBGK@Z @ 419
??2UObjectProperty@@SAPAXIPAVUObject@@VFName@@K@Z @ 420
??2UObjectProperty@@SAPAXIPAW4EInternal@@@Z @ 421
??2UPackage@@SAPAXIPAVUObject@@PAGK@Z @ 422
??2UPackage@@SAPAXIPAVUObject@@PBGK@Z @ 423
??2UPackage@@SAPAXIPAVUObject@@VFName@@K@Z @ 424
??2UPackage@@SAPAXIPAW4EInternal@@@Z @ 425
??2UPackageMap@@SAPAXIPAVUObject@@PAGK@Z @ 426
??2UPackageMap@@SAPAXIPAVUObject@@PBGK@Z @ 427
??2UPackageMap@@SAPAXIPAVUObject@@VFName@@K@Z @ 428
??2UPackageMap@@SAPAXIPAW4EInternal@@@Z @ 429
??2UPointerProperty@@SAPAXIPAVUObject@@PAGK@Z @ 430
??2UPointerProperty@@SAPAXIPAVUObject@@PBGK@Z @ 431
??2UPointerProperty@@SAPAXIPAVUObject@@VFName@@K@Z @ 432
??2UPointerProperty@@SAPAXIPAW4EInternal@@@Z @ 433
??2UProperty@@SAPAXIPAVUObject@@PAGK@Z @ 434
??2UProperty@@SAPAXIPAVUObject@@PBGK@Z @ 435
??2UProperty@@SAPAXIPAVUObject@@VFName@@K@Z @ 436
??2UProperty@@SAPAXIPAW4EInternal@@@Z @ 437
??2UState@@SAPAXIPAVUObject@@PAGK@Z @ 438
??2UState@@SAPAXIPAVUObject@@PBGK@Z @ 439
??2UState@@SAPAXIPAVUObject@@VFName@@K@Z @ 440
??2UState@@SAPAXIPAW4EInternal@@@Z @ 441
??2UStrProperty@@SAPAXIPAVUObject@@PAGK@Z @ 442
??2UStrProperty@@SAPAXIPAVUObject@@PBGK@Z @ 443
??2UStrProperty@@SAPAXIPAVUObject@@VFName@@K@Z @ 444
??2UStrProperty@@SAPAXIPAW4EInternal@@@Z @ 445
??2UStruct@@SAPAXIPAVUObject@@PAGK@Z @ 446
??2UStruct@@SAPAXIPAVUObject@@PBGK@Z @ 447
??2UStruct@@SAPAXIPAVUObject@@VFName@@K@Z @ 448
??2UStruct@@SAPAXIPAW4EInternal@@@Z @ 449
??2UStructProperty@@SAPAXIPAVUObject@@PAGK@Z @ 450
??2UStructProperty@@SAPAXIPAVUObject@@PBGK@Z @ 451
??2UStructProperty@@SAPAXIPAVUObject@@VFName@@K@Z @ 452
??2UStructProperty@@SAPAXIPAW4EInternal@@@Z @ 453
??2USubsystem@@SAPAXIPAVUObject@@PAGK@Z @ 454
??2USubsystem@@SAPAXIPAVUObject@@PBGK@Z @ 455
??2USubsystem@@SAPAXIPAVUObject@@VFName@@K@Z @ 456
??2USubsystem@@SAPAXIPAW4EInternal@@@Z @ 457
??2USystem@@SAPAXIPAVUObject@@PAGK@Z @ 458
??2USystem@@SAPAXIPAVUObject@@PBGK@Z @ 459
??2USystem@@SAPAXIPAVUObject@@VFName@@K@Z @ 460
??2USystem@@SAPAXIPAW4EInternal@@@Z @ 461
??2UTextBuffer@@SAPAXIPAVUObject@@PAGK@Z @ 462
??2UTextBuffer@@SAPAXIPAVUObject@@PBGK@Z @ 463
??2UTextBuffer@@SAPAXIPAVUObject@@VFName@@K@Z @ 464
??2UTextBuffer@@SAPAXIPAW4EInternal@@@Z @ 465
??2UTextBufferFactory@@SAPAXIPAVUObject@@PAGK@Z @ 466
??2UTextBufferFactory@@SAPAXIPAVUObject@@PBGK@Z @ 467
??2UTextBufferFactory@@SAPAXIPAVUObject@@VFName@@K@Z @ 468
??2UTextBufferFactory@@SAPAXIPAW4EInternal@@@Z @ 469
??3UObject@@SAXPAXI@Z @ 470
??4?$TArray@G@@QAEAAV0@ABV0@@Z @ 471
??4FArchive@@QAEAAV0@ABV0@@Z @ 472
??4FArchiveCountMem@@QAEAAV0@ABV0@@Z @ 473
??4FArchiveDummySave@@QAEAAV0@ABV0@@Z @ 474
??4FArray@@QAEAAV0@ABV0@@Z @ 475
??4FBitReader@@QAEAAU0@ABU0@@Z @ 476
??4FBitWriter@@QAEAAU0@ABU0@@Z @ 477
??4FBitWriterMark@@QAEAAU0@ABU0@@Z @ 478
??4FBox@@QAEAAV0@ABV0@@Z @ 479
??4FBtrDouble@@QAEAAV0@ABV0@@Z @ 480
??4FBtrDouble@@QAEAAV0@H@Z @ 481
??4FBtrDouble@@QAEAAV0@N@Z @ 482
??4FBtrTime@@QAEAAV0@ABV0@@Z @ 483
??4FCacheItem@FMemCache@@QAEAAV01@ABV01@@Z @ 484
??4FClassNetCache@@QAEAAV0@ABV0@@Z @ 485
??4FCombatSituationOut@@QAEAAV0@ABV0@@Z @ 486
??4FCompactIndex@@QAEAAV0@ABV0@@Z @ 487
??4FCoords@@QAEAAV0@ABV0@@Z @ 488
??4FCrashLogOutError@@QAEAAV0@ABV0@@Z @ 489
??4FCriticalSection@@QAEAAV0@ABV0@@Z @ 490
??4FDependency@@QAEAAV0@ABV0@@Z @ 491
??4FEdLoadError@@QAEAAV0@V0@@Z @ 492
??4FEdge@@QAEAAV0@ABV0@@Z @ 493
??4FErrorOutError@@QAEAAV0@ABV0@@Z @ 494
??4FExec@@QAEAAV0@ABV0@@Z @ 495
??4FFeedbackContext@@QAEAAV0@ABV0@@Z @ 496
??4FFieldNetCache@@QAEAAV0@ABV0@@Z @ 497
??4FFileManager@@QAEAAV0@ABV0@@Z @ 498
??4FFrame@@QAEAAU0@ABU0@@Z @ 499
??4FGenerationInfo@@QAEAAU0@ABU0@@Z @ 500
??4FGuid@@QAEAAV0@ABV0@@Z @ 501
??4FInterpCurve@@QAEXABV0@@Z @ 502
??4FInterpCurveInit@@QAEAAV0@ABV0@@Z @ 503
??4FInterpCurvePoint@@QAEAAV0@ABV0@@Z @ 504
??4FLabelEntry@@QAEAAU0@ABU0@@Z @ 505
??4FLogOutError@@QAEAAV0@ABV0@@Z @ 506
??4FMalloc@@QAEAAV0@ABV0@@Z @ 507
??4FMatrix@@QAEAAV0@ABV0@@Z @ 508
??4FMemCache@@QAEAAV0@ABV0@@Z @ 509
??4FMemStack@@QAEAAV0@ABV0@@Z @ 510
??4FModelCoords@@QAEAAV0@ABV0@@Z @ 511
??4FName@@QAEAAV0@ABV0@@Z @ 512
??4FNameEntry@@QAEAAU0@ABU0@@Z @ 513
??4FNotifyHook@@QAEAAV0@ABV0@@Z @ 514
??4FNullOutError@@QAEAAV0@ABV0@@Z @ 515
??4FObjectExport@@QAEAAU0@ABU0@@Z @ 516
??4FObjectImport@@QAEAAU0@ABU0@@Z @ 517
??4FOutputDevice@@QAEAAV0@ABV0@@Z @ 518
??4FOutputDeviceError@@QAEAAV0@ABV0@@Z @ 519
??4FPackageFileSummary@@QAEAAU0@ABU0@@Z @ 520
??4FPackageInfo@@QAEAAV0@ABV0@@Z @ 521
??4FPlane@@QAEAAV0@ABV0@@Z @ 522
??4FPosition@@QAEAAV0@ABV0@@Z @ 523
??4FPreferencesInfo@@QAEAAV0@ABV0@@Z @ 524
??4FQuat@@QAEAAV0@ABV0@@Z @ 525
??4FRainbowPtr@@QAEAAT0@ABT0@@Z @ 526
??4FRange@@QAEAAV0@ABV0@@Z @ 527
??4FRangeVector@@QAEAAV0@ABV0@@Z @ 528
??4FRegistryObjectInfo@@QAEAAV0@ABV0@@Z @ 529
??4FRotator@@QAEAAV0@ABV0@@Z @ 530
??4FScale@@QAEAAV0@ABV0@@Z @ 531
??4FScopeCriticalSection@@QAEAAV0@ABV0@@Z @ 532
??4FScriptCallGraph@@QAEAAU0@ABU0@@Z @ 533
??4FScriptDelegate@@QAEAAU0@ABU0@@Z @ 534
??4FSphere@@QAEAAV0@ABV0@@Z @ 535
??4FStateFrame@@QAEAAU0@ABU0@@Z @ 536
??4FString@@QAEAAV0@ABV0@@Z @ 537
??4FString@@QAEAAV0@PBG@Z @ 538
??4FStringNoInit@@QAEAAU0@ABU0@@Z @ 539
??4FStringNoInit@@QAEAAU0@ABVFString@@@Z @ 540
??4FStringNoInit@@QAEAAU0@PBG@Z @ 541
??4FThrowOut@@QAEAAV0@ABV0@@Z @ 542
??4FTransactionBase@@QAEAAV0@ABV0@@Z @ 543
??4FUnknown@@QAEAAV0@ABV0@@Z @ 544
??4FVector@@QAEAAV0@ABV0@@Z @ 545
??4FVertexHit@@QAEAAV0@ABV0@@Z @ 546
??4UArrayProperty@@QAEAAV0@ABV0@@Z @ 547
??4UBoolProperty@@QAEAAV0@ABV0@@Z @ 548
??4UByteProperty@@QAEAAV0@ABV0@@Z @ 549
??4UClass@@QAEAAV0@ABV0@@Z @ 550
??4UClassProperty@@QAEAAV0@ABV0@@Z @ 551
??4UCommandlet@@QAEAAV0@ABV0@@Z @ 552
??4UConst@@QAEAAV0@ABV0@@Z @ 553
??4UDelegateProperty@@QAEAAV0@ABV0@@Z @ 554
??4UEnum@@QAEAAV0@ABV0@@Z @ 555
??4UExporter@@QAEAAV0@ABV0@@Z @ 556
??4UFactory@@QAEAAV0@ABV0@@Z @ 557
??4UField@@QAEAAV0@ABV0@@Z @ 558
??4UFixedArrayProperty@@QAEAAV0@ABV0@@Z @ 559
??4UFloatProperty@@QAEAAV0@ABV0@@Z @ 560
??4UFunction@@QAEAAV0@ABV0@@Z @ 561
??4UIntProperty@@QAEAAV0@ABV0@@Z @ 562
??4ULanguage@@QAEAAV0@ABV0@@Z @ 563
??4ULinker@@QAEAAV0@ABV0@@Z @ 564
??4UMapProperty@@QAEAAV0@ABV0@@Z @ 565
??4UNameProperty@@QAEAAV0@ABV0@@Z @ 566
??4UObject@@QAEAAV0@ABV0@@Z @ 567
??4UObjectExporterT3D@@QAEAAV0@ABV0@@Z @ 568
??4UObjectProperty@@QAEAAV0@ABV0@@Z @ 569
??4UPackage@@QAEAAV0@ABV0@@Z @ 570
??4UPackageMap@@QAEAAV0@ABV0@@Z @ 571
??4UPointerProperty@@QAEAAV0@ABV0@@Z @ 572
??4UProperty@@QAEAAV0@ABV0@@Z @ 573
??4UState@@QAEAAV0@ABV0@@Z @ 574
??4UStrProperty@@QAEAAV0@ABV0@@Z @ 575
??4UStruct@@QAEAAV0@ABV0@@Z @ 576
??4UStructProperty@@QAEAAV0@ABV0@@Z @ 577
??4USubsystem@@QAEAAV0@ABV0@@Z @ 578
??4USystem@@QAEAAV0@ABV0@@Z @ 579
??4UTextBuffer@@QAEAAV0@ABV0@@Z @ 580
??4UTextBufferFactory@@QAEAAV0@ABV0@@Z @ 581
??6@YAAAVFArchive@@AAV0@AAC@Z @ 582
??6@YAAAVFArchive@@AAV0@AAD@Z @ 583
??6@YAAAVFArchive@@AAV0@AAE@Z @ 584
??6@YAAAVFArchive@@AAV0@AAF@Z @ 585
??6@YAAAVFArchive@@AAV0@AAG@Z @ 586
??6@YAAAVFArchive@@AAV0@AAH@Z @ 587
??6@YAAAVFArchive@@AAV0@AAK@Z @ 588
??6@YAAAVFArchive@@AAV0@AAM@Z @ 589
??6@YAAAVFArchive@@AAV0@AAN@Z @ 590
??6@YAAAVFArchive@@AAV0@AAUFLabelEntry@@@Z @ 591
??6@YAAAVFArchive@@AAV0@AAUFNameEntry@@@Z @ 592
??6@YAAAVFArchive@@AAV0@AAUFObjectExport@@@Z @ 593
??6@YAAAVFArchive@@AAV0@AAUFObjectImport@@@Z @ 594
??6@YAAAVFArchive@@AAV0@AAUFPackageFileSummary@@@Z @ 595
??6@YAAAVFArchive@@AAV0@AAVFClassNetCache@@@Z @ 596
??6@YAAAVFArchive@@AAV0@AAVFCompactIndex@@@Z @ 597
??6@YAAAVFArchive@@AAV0@AAVFDependency@@@Z @ 598
??6@YAAAVFArchive@@AAV0@AAVFFieldNetCache@@@Z @ 599
??6@YAAAVFArchive@@AAV0@AAVFPackageInfo@@@Z @ 600
??6@YAAAVFArchive@@AAV0@AAVFString@@@Z @ 601
??6@YAAAVFArchive@@AAV0@AA_J@Z @ 602
??6@YAAAVFArchive@@AAV0@AA_K@Z @ 603
??6FArchive@@UAEAAV0@AAPAVUObject@@@Z @ 604
??6FArchive@@UAEAAV0@AAVFName@@@Z @ 605
??8FBtrDouble@@QBEHABV0@@Z @ 606
??8FEdLoadError@@QBEHABV0@@Z @ 607
??8FEdge@@QBEHABV0@@Z @ 608
??8FInterpCurvePoint@@QAEHABV0@@Z @ 609
??8FMatrix@@QBEHABV0@@Z @ 610
??8FName@@QBEHABV0@@Z @ 611
??8FPlane@@QBEHABV0@@Z @ 612
??8FRange@@QBEHABV0@@Z @ 613
??8FRangeVector@@QBEHABV0@@Z @ 614
??8FRotator@@QBEHABV0@@Z @ 615
??8FScale@@QBEHABV0@@Z @ 616
??8FString@@QBEHABV0@@Z @ 617
??8FString@@QBEHPBG@Z @ 618
??8FVector@@QBEHABV0@@Z @ 619
??8FVertexHit@@QBEHABV0@@Z @ 620
??9FBtrDouble@@QBEHABV0@@Z @ 621
??9FMatrix@@QBEHABV0@@Z @ 622
??9FName@@QBEHABV0@@Z @ 623
??9FPlane@@QBEHABV0@@Z @ 624
??9FQuat@@QBEHABV0@@Z @ 625
??9FRange@@QBEHABV0@@Z @ 626
??9FRangeVector@@QBEHABV0@@Z @ 627
??9FRotator@@QBEHABV0@@Z @ 628
??9FString@@QBEHABV0@@Z @ 629
??9FString@@QBEHPBG@Z @ 630
??9FVector@@QBEHABV0@@Z @ 631
??9FVertexHit@@QBEHABV0@@Z @ 632
??AFBox@@QAEAAVFVector@@H@Z @ 633
??AFString@@QAEAAGH@Z @ 634
??AFString@@QBEABGH@Z @ 635
??AFVector@@QAEAAMH@Z @ 636
??BFString@@QBEHXZ @ 637
??DFBtrDouble@@QBE?AV0@ABV0@@Z @ 638
??DFCoords@@QBE?AV0@ABV0@@Z @ 639
??DFCoords@@QBE?AV0@ABVFRotator@@@Z @ 640
??DFCoords@@QBE?AV0@ABVFScale@@@Z @ 641
??DFCoords@@QBE?AV0@ABVFVector@@@Z @ 642
??DFMatrix@@QBE?AV0@ABV0@@Z @ 643
??DFName@@QBEPBGXZ @ 644
??DFPlane@@QAE?AV0@ABV0@@Z @ 645
??DFPlane@@QBE?AV0@M@Z @ 646
??DFQuat@@QBE?AV0@ABM@Z @ 647
??DFQuat@@QBE?AV0@ABV0@@Z @ 648
??DFRange@@QBE?AV0@ABV0@@Z @ 649
??DFRange@@QBE?AV0@M@Z @ 650
??DFRangeVector@@QBE?AV0@ABV0@@Z @ 651
??DFRangeVector@@QBE?AV0@M@Z @ 652
??DFRotator@@QBE?AV0@M@Z @ 653
??DFString@@QBE?AV0@ABV0@@Z @ 654
??DFString@@QBE?AV0@PBG@Z @ 655
??DFString@@QBEPBGXZ @ 656
??DFVector@@QBE?AV0@ABV0@@Z @ 657
??DFVector@@QBE?AV0@M@Z @ 658
??GFBtrDouble@@QBE?AV0@ABV0@@Z @ 659
??GFPlane@@QBE?AV0@ABV0@@Z @ 660
??GFQuat@@QBE?AV0@ABV0@@Z @ 661
??GFQuat@@QBE?AV0@XZ @ 662
??GFRange@@QBE?AV0@ABV0@@Z @ 663
??GFRange@@QBE?AV0@M@Z @ 664
??GFRange@@QBE?AV0@XZ @ 665
??GFRangeVector@@QBE?AV0@ABV0@@Z @ 666
??GFRangeVector@@QBE?AV0@ABVFVector@@@Z @ 667
??GFRangeVector@@QBE?AV0@XZ @ 668
??GFRotator@@QBE?AV0@ABV0@@Z @ 669
??GFVector@@QBE?AV0@ABV0@@Z @ 670
??GFVector@@QBE?AV0@XZ @ 671
??H?$TArray@G@@QAEAAV0@ABV0@@Z @ 672
??HFBox@@QBE?AV0@ABV0@@Z @ 673
??HFBox@@QBE?AV0@ABVFVector@@@Z @ 674
??HFBtrDouble@@QBE?AV0@ABV0@@Z @ 675
??HFPlane@@QBE?AV0@ABV0@@Z @ 676
??HFQuat@@QBE?AV0@ABV0@@Z @ 677
??HFRange@@QBE?AV0@ABV0@@Z @ 678
??HFRange@@QBE?AV0@M@Z @ 679
??HFRangeVector@@QBE?AV0@ABV0@@Z @ 680
??HFRangeVector@@QBE?AV0@ABVFVector@@@Z @ 681
??HFRotator@@QBE?AV0@ABV0@@Z @ 682
??HFString@@QAE?AV0@ABV0@@Z @ 683
??HFString@@QAE?AV0@PBG@Z @ 684
??HFVector@@QBE?AV0@ABV0@@Z @ 685
??KFBtrDouble@@QBE?AV0@ABV0@@Z @ 686
??KFCoords@@QBE?AV0@ABVFRotator@@@Z @ 687
??KFCoords@@QBE?AV0@ABVFScale@@@Z @ 688
??KFCoords@@QBE?AV0@ABVFVector@@@Z @ 689
??KFPlane@@QBE?AV0@M@Z @ 690
??KFRange@@QBE?AV0@M@Z @ 691
??KFRangeVector@@QBE?AV0@M@Z @ 692
??KFVector@@QBE?AV0@M@Z @ 693
??MFString@@QBEHABV0@@Z @ 694
??MFString@@QBEHPBG@Z @ 695
??NFString@@QBEHABV0@@Z @ 696
??NFString@@QBEHPBG@Z @ 697
??OFString@@QBEHABV0@@Z @ 698
??OFString@@QBEHPBG@Z @ 699
??PFString@@QBEHABV0@@Z @ 700
??PFString@@QBEHPBG@Z @ 701
??R?$TArray@G@@QAEAAGH@Z @ 702
??R?$TArray@G@@QBEABGH@Z @ 703
??TFVector@@QBE?AV0@ABV0@@Z @ 704
??UFVector@@QBEMABV0@@Z @ 705
??XFBtrDouble@@QAE?AV0@ABV0@@Z @ 706
??XFCoords@@QAEAAV0@ABV0@@Z @ 707
??XFCoords@@QAEAAV0@ABVFRotator@@@Z @ 708
??XFCoords@@QAEAAV0@ABVFScale@@@Z @ 709
??XFCoords@@QAEAAV0@ABVFVector@@@Z @ 710
??XFMatrix@@QAEXABV0@@Z @ 711
??XFPlane@@QAE?AV0@ABV0@@Z @ 712
??XFPlane@@QAE?AV0@M@Z @ 713
??XFRange@@QAE?AV0@ABV0@@Z @ 714
??XFRange@@QAE?AV0@M@Z @ 715
??XFRangeVector@@QAE?AV0@ABV0@@Z @ 716
??XFRangeVector@@QAE?AV0@M@Z @ 717
??XFRotator@@QAE?AV0@M@Z @ 718
??XFString@@QAEAAV0@ABV0@@Z @ 719
??XFString@@QAEAAV0@PBG@Z @ 720
??XFVector@@QAE?AV0@ABV0@@Z @ 721
??XFVector@@QAE?AV0@M@Z @ 722
??Y?$TArray@G@@QAEAAV0@ABV0@@Z @ 723
??YFBox@@QAEAAV0@ABV0@@Z @ 724
??YFBox@@QAEAAV0@ABVFVector@@@Z @ 725
??YFBtrDouble@@QAE?AV0@ABV0@@Z @ 726
??YFPlane@@QAE?AV0@ABV0@@Z @ 727
??YFRange@@QAE?AV0@ABV0@@Z @ 728
??YFRange@@QAE?AV0@M@Z @ 729
??YFRangeVector@@QAE?AV0@ABV0@@Z @ 730
??YFRangeVector@@QAE?AV0@ABVFVector@@@Z @ 731
??YFRotator@@QAE?AV0@ABV0@@Z @ 732
??YFString@@QAEAAV0@ABV0@@Z @ 733
??YFString@@QAEAAV0@PBG@Z @ 734
??YFVector@@QAE?AV0@ABV0@@Z @ 735
??ZFBtrDouble@@QAE?AV0@ABV0@@Z @ 736
??ZFPlane@@QAE?AV0@ABV0@@Z @ 737
??ZFRange@@QAE?AV0@ABV0@@Z @ 738
??ZFRange@@QAE?AV0@M@Z @ 739
??ZFRangeVector@@QAE?AV0@ABV0@@Z @ 740
??ZFRangeVector@@QAE?AV0@ABVFVector@@@Z @ 741
??ZFRotator@@QAE?AV0@ABV0@@Z @ 742
??ZFVector@@QAE?AV0@ABV0@@Z @ 743
??_0FBtrDouble@@QAE?AV0@ABV0@@Z @ 744
??_0FCoords@@QAEAAV0@ABVFRotator@@@Z @ 745
??_0FCoords@@QAEAAV0@ABVFScale@@@Z @ 746
??_0FCoords@@QAEAAV0@ABVFVector@@@Z @ 747
??_0FPlane@@QAE?AV0@M@Z @ 748
??_0FRange@@QAE?AV0@ABV0@@Z @ 749
??_0FRange@@QAE?AV0@M@Z @ 750
??_0FRangeVector@@QAE?AV0@ABV0@@Z @ 751
??_0FRangeVector@@QAE?AV0@M@Z @ 752
??_0FVector@@QAE?AV0@ABV0@@Z @ 753
??_0FVector@@QAE?AV0@M@Z @ 754
??_7FArchive@@6B@ @ 755
??_7FArchiveCountMem@@6B@ @ 756
??_7FArchiveDummySave@@6B@ @ 757
??_7FBitReader@@6B@ @ 758
??_7FBitWriter@@6B@ @ 759
??_7FBufferReader@@6B@ @ 760
??_7FCombatSituationOut@@6B@ @ 761
??_7FCrashLogOutError@@6B@ @ 762
??_7FErrorOutError@@6B@ @ 763
??_7FExec@@6B@ @ 764
??_7FFeedbackContext@@6B@ @ 765
??_7FFileManager@@6B@ @ 766
??_7FFrame@@6B@ @ 767
??_7FLogOutError@@6B@ @ 768
??_7FMalloc@@6B@ @ 769
??_7FNotifyHook@@6B@ @ 770
??_7FNullOutError@@6B@ @ 771
??_7FOutputDevice@@6B@ @ 772
??_7FOutputDeviceError@@6B@ @ 773
??_7FStateFrame@@6B@ @ 774
??_7FThrowOut@@6B@ @ 775
??_7FTransactionBase@@6B@ @ 776
??_7FUnknown@@6B@ @ 777
??_7UArrayProperty@@6B@ @ 778
??_7UBoolProperty@@6B@ @ 779
??_7UByteProperty@@6B@ @ 780
??_7UClass@@6B@ @ 781
??_7UClassProperty@@6B@ @ 782
??_7UCommandlet@@6B@ @ 783
??_7UConst@@6B@ @ 784
??_7UDelegateProperty@@6B@ @ 785
??_7UEnum@@6B@ @ 786
??_7UExporter@@6B@ @ 787
??_7UFactory@@6B@ @ 788
??_7UField@@6B@ @ 789
??_7UFixedArrayProperty@@6B@ @ 790
??_7UFloatProperty@@6B@ @ 791
??_7UFunction@@6B@ @ 792
??_7UIntProperty@@6B@ @ 793
??_7ULanguage@@6B@ @ 794
??_7ULinker@@6B@ @ 795
??_7UMapProperty@@6B@ @ 796
??_7UNameProperty@@6B@ @ 797
??_7UObject@@6B@ @ 798
??_7UObjectExporterT3D@@6B@ @ 799
??_7UObjectProperty@@6B@ @ 800
??_7UPackage@@6B@ @ 801
??_7UPackageMap@@6B@ @ 802
??_7UPointerProperty@@6B@ @ 803
??_7UProperty@@6B@ @ 804
??_7UState@@6B@ @ 805
??_7UStrProperty@@6B@ @ 806
??_7UStruct@@6B@ @ 807
??_7UStructProperty@@6B@ @ 808
??_7USubsystem@@6BFExec@@@ @ 809
??_7USubsystem@@6BUObject@@@ @ 810
??_7USystem@@6BFExec@@@ @ 811
??_7USystem@@6BUObject@@@ @ 812
??_7UTextBuffer@@6BFOutputDevice@@@ @ 813
??_7UTextBuffer@@6BUObject@@@ @ 814
??_7UTextBufferFactory@@6B@ @ 815
??_FFBitReader@@QAEXXZ @ 816
??_FFPackageInfo@@QAEXXZ @ 817
??_FUTextBuffer@@QAEXXZ @ 818
?Add@?$TArray@G@@QAEHH@Z @ 819
?Add@FArray@@QAEHHH@Z @ 820
?Add@FRotator@@QAE?AV1@HHH@Z @ 821
?AddBaseStringInfo@USystem@@QAEXXZ @ 822
?AddBounded@FRotator@@QAE?AV1@HHH@Z @ 823
?AddBounded@FVector@@QAEXABV1@M@Z @ 824
?AddCppProperty@UArrayProperty@@UAEXPAVUProperty@@@Z @ 825
?AddCppProperty@UField@@UAEXPAVUProperty@@@Z @ 826
?AddCppProperty@UFixedArrayProperty@@QAEXPAVUProperty@@H@Z @ 827
?AddCppProperty@UStruct@@UAEXPAVUProperty@@@Z @ 828
?AddDependency@UClass@@QAEXPAV1@H@Z @ 829
?AddItem@?$TArray@G@@QAEHABG@Z @ 830
?AddLinker@UPackageMap@@UAEHPAVULinkerLoad@@@Z @ 831
?AddObject@UObject@@AAEXH@Z @ 832
?AddPoint@FInterpCurve@@QAEXMM@Z @ 833
?AddRef@FUnknown@@UAGKXZ @ 834
?AddRef@UObject@@UAGKXZ @ 835
?AddToRoot@UObject@@QAEXXZ @ 836
?AddUniqueItem@?$TArray@G@@QAEHABG@Z @ 837
?AddZeroed@?$TArray@G@@QAEHH@Z @ 838
?AddZeroed@FArray@@QAEHHH@Z @ 839
?AllocateNameEntry@@YAPAUFNameEntry@@PBGKKPAU1@@Z @ 840
?AllocateNewChunk@FMemStack@@AAEPAEH@Z @ 841
?AngAxisToFQuat@FQuat@@QAE?AV1@XZ @ 842
?ApplyPivot@FCoords@@QBE?AV1@ABV1@@Z @ 843
?AtEnd@FArchive@@UAEHXZ @ 844
?AtEnd@FBitReader@@UAEHXZ @ 845
?AtEnd@FBufferReader@@UAEHXZ @ 846
?AtStopper@FArchive@@UAEHXZ @ 847
?AttachLazyLoader@FArchive@@UAEXPAVFLazyLoader@@@Z @ 848
?AttemptDelete@UObject@@SAHAAPAV1@KH@Z @ 849
?Available@FName@@0V?$TArray@H@@A @ 850
?BeginAsyncLoad@FArchive@@UAEXXZ @ 851
?BeginLoad@UObject@@SAXXZ @ 852
?Bind@UClass@@UAEXXZ @ 853
?Bind@UField@@UAEXXZ @ 854
?Bind@UFunction@@UAEXXZ @ 855
?BindPackage@UObject@@SAXPAVUPackage@@@Z @ 856
?Booleanize@FRange@@QAEHXZ @ 857
?Booleanize@FVector@@QAEHXZ @ 858
?BoundToCube@FVector@@QAE?AV1@M@Z @ 859
?BtrDoubleToBtrTime@FBtrTime@@QAEXN@Z @ 860
?BtrTimeToBtrDouble@FBtrDouble@@QAEXVFBtrTime@@@Z @ 861
?ByteOrderSerialize@FArchive@@QAEAAV1@PAXH@Z @ 862
?CacheDrivers@UObject@@CAXH@Z @ 863
?CalcHomeDir@FFileManager@@UAEPBGXZ @ 864
?CallFunction@UObject@@UAEXAAUFFrame@@QAXPAVUFunction@@@Z @ 865
?CanSerializeObject@UPackageMap@@UAEHPAVUObject@@@Z @ 866
?Caps@FString@@QBE?AV1@XZ @ 867
?CheckDanglingOuter@UObject@@SAXPAV1@@Z @ 868
?CheckDanglingRefs@UObject@@SAXPAV1@@Z @ 869
?CheckMemoryFragmentationLevel@FMalloc@@UAEXAAVFOutputDevice@@@Z @ 870
?CheckState@FMemCache@@QAEXXZ @ 871
?Chr@FString@@SA?AV1@G@Z @ 872
?Clamp@FRotator@@QAE?AV1@XZ @ 873
?ClampPos@FRotator@@QAE?AV1@XZ @ 874
?CleanUp@?$TArray@G@@QAEXXZ @ 875
?CleanUp@FString@@QAEXXZ @ 876
?CleanupDestroyed@UArrayProperty@@UBEXPAE@Z @ 877
?CleanupDestroyed@UDelegateProperty@@UBEXPAE@Z @ 878
?CleanupDestroyed@UFixedArrayProperty@@UBEXPAE@Z @ 879
?CleanupDestroyed@UObjectProperty@@UBEXPAE@Z @ 880
?CleanupDestroyed@UProperty@@UBEXPAE@Z @ 881
?CleanupDestroyed@UStruct@@UAEXPAE@Z @ 882
?CleanupDestroyed@UStructProperty@@UBEXPAE@Z @ 883
?ClearConfig@UObject@@QAEXPAVUClass@@PBG@Z @ 884
?ClearFlags@FName@@QBEXK@Z @ 885
?ClearFlags@UObject@@QAEXK@Z @ 886
?ClearValue@UArrayProperty@@UBEXPAE@Z @ 887
?ClearValue@UBoolProperty@@UBEXPAE@Z @ 888
?ClearValue@UByteProperty@@UBEXPAE@Z @ 889
?ClearValue@UClassProperty@@UBEXPAE@Z @ 890
?ClearValue@UDelegateProperty@@UBEXPAE@Z @ 891
?ClearValue@UFixedArrayProperty@@UBEXPAE@Z @ 892
?ClearValue@UFloatProperty@@UBEXPAE@Z @ 893
?ClearValue@UIntProperty@@UBEXPAE@Z @ 894
?ClearValue@UMapProperty@@UBEXPAE@Z @ 895
?ClearValue@UNameProperty@@UBEXPAE@Z @ 896
?ClearValue@UObjectProperty@@UBEXPAE@Z @ 897
?ClearValue@UPointerProperty@@UBEXPAE@Z @ 898
?ClearValue@UStrProperty@@UBEXPAE@Z @ 899
?ClearValue@UStructProperty@@UBEXPAE@Z @ 900
?Close@FArchive@@UAEHXZ @ 901
?CollectGarbage@UObject@@SAXK@Z @ 902
?Component@FRange@@QAEAAMH@Z @ 903
?Component@FRangeVector@@QAEAAVFRange@@H@Z @ 904
?Component@FVector@@QAEAAMH@Z @ 905
?Compute@UPackageMap@@UAEXXZ @ 906
?ConditionalCheckState@FMemCache@@AAEXXZ @ 907
?ConditionalDestroy@UObject@@QAEHXZ @ 908
?ConditionalPostLoad@UObject@@QAEXXZ @ 909
?ConditionalRegister@UObject@@QAEXXZ @ 910
?ConditionalShutdownAfterError@UObject@@QAEXXZ @ 911
?ContainsCode@FArchive@@QAEHXZ @ 912
?Coords@FMatrix@@QAE?AVFCoords@@XZ @ 913
?Copy@UPackageMap@@QAEXPAV1@@Z @ 914
?CopyCompleteValue@UArrayProperty@@UBEXPAX0PAVUObject@@H@Z @ 915
?CopyCompleteValue@UByteProperty@@UBEXPAX0PAVUObject@@H@Z @ 916
?CopyCompleteValue@UDelegateProperty@@UBEXPAX0PAVUObject@@H@Z @ 917
?CopyCompleteValue@UFloatProperty@@UBEXPAX0PAVUObject@@H@Z @ 918
?CopyCompleteValue@UIntProperty@@UBEXPAX0PAVUObject@@H@Z @ 919
?CopyCompleteValue@UNameProperty@@UBEXPAX0PAVUObject@@H@Z @ 920
?CopyCompleteValue@UObjectProperty@@UBEXPAX0PAVUObject@@H@Z @ 921
?CopyCompleteValue@UPointerProperty@@UBEXPAX0PAVUObject@@H@Z @ 922
?CopyCompleteValue@UProperty@@UBEXPAX0PAVUObject@@H@Z @ 923
?CopyLinkers@UPackageMap@@QAEXPAV1@@Z @ 924
?CopySingleValue@UBoolProperty@@UBEXPAX0PAVUObject@@H@Z @ 925
?CopySingleValue@UByteProperty@@UBEXPAX0PAVUObject@@H@Z @ 926
?CopySingleValue@UDelegateProperty@@UBEXPAX0PAVUObject@@H@Z @ 927
?CopySingleValue@UFixedArrayProperty@@UBEXPAX0PAVUObject@@H@Z @ 928
?CopySingleValue@UFloatProperty@@UBEXPAX0PAVUObject@@H@Z @ 929
?CopySingleValue@UIntProperty@@UBEXPAX0PAVUObject@@H@Z @ 930
?CopySingleValue@UMapProperty@@UBEXPAX0PAVUObject@@H@Z @ 931
?CopySingleValue@UNameProperty@@UBEXPAX0PAVUObject@@H@Z @ 932
?CopySingleValue@UObjectProperty@@UBEXPAX0PAVUObject@@H@Z @ 933
?CopySingleValue@UPointerProperty@@UBEXPAX0PAVUObject@@H@Z @ 934
?CopySingleValue@UProperty@@UBEXPAX0PAVUObject@@H@Z @ 935
?CopySingleValue@UStrProperty@@UBEXPAX0PAVUObject@@H@Z @ 936
?CopySingleValue@UStructProperty@@UBEXPAX0PAVUObject@@H@Z @ 937
?CosFloat@FGlobalMath@@QAEMM@Z @ 938
?CosTab@FGlobalMath@@QAEMH@Z @ 939
?CountBytes@?$TArray@G@@QAEXAAVFArchive@@@Z @ 940
?CountBytes@FArchive@@UAEXKK@Z @ 941
?CountBytes@FArchiveCountMem@@UAEXKK@Z @ 942
?CountBytes@FArray@@QAEXAAVFArchive@@H@Z @ 943
?Create@FMemCache@@QAEPAE_KAAPAVFCacheItem@1@HHH@Z @ 944
?CreateEncryptFileReader@FFileManager@@UAEPAVFArchive@@PBGKPAVFOutputDevice@@@Z @ 945
?CreateEncryptFileWriter@FFileManager@@UAEPAVFArchive@@PBGKPAVFOutputDevice@@@Z @ 946
?CreateNewFreeSpace@FMemCache@@AAEXPAE0PAVFCacheItem@1@1H@Z @ 947
?CreateOriginalFileReader@FFileManager@@UAEPAVFArchive@@PBGKPAVFOutputDevice@@@Z @ 948
?CreateOriginalFileWriter@FFileManager@@UAEPAVFArchive@@PBGKPAVFOutputDevice@@@Z @ 949
?CreatePackage@UObject@@SAPAVUPackage@@PAV1@PBG@Z @ 950
?DeleteEntry@FName@@SAXH@Z @ 951
?DeletePackage@UObject@@SAHPBG@Z @ 952
?Describe@FStateFrame@@QAEPBGXZ @ 953
?Destroy@UClass@@UAEXXZ @ 954
?Destroy@UObject@@UAEXXZ @ 955
?Destroy@UPackage@@UAEXXZ @ 956
?Destroy@UPackageMap@@UAEXXZ @ 957
?Destroy@UState@@UAEXXZ @ 958
?Destroy@UStruct@@UAEXXZ @ 959
?DestroyValue@UArrayProperty@@UBEXPAX@Z @ 960
?DestroyValue@UFixedArrayProperty@@UBEXPAX@Z @ 961
?DestroyValue@UMapProperty@@UBEXPAX@Z @ 962
?DestroyValue@UProperty@@UBEXPAX@Z @ 963
?DestroyValue@UStrProperty@@UBEXPAX@Z @ 964
?DestroyValue@UStructProperty@@UBEXPAX@Z @ 965
?DetachLazyLoader@FArchive@@UAEXPAVFLazyLoader@@@Z @ 966
?Determinant@FMatrix@@QBEMXZ @ 967
?DisplayHash@FName@@SAXAAVFOutputDevice@@@Z @ 968
?EdClearLoadErrors@@YAXXZ @ 969
?EdLoadErrorf@@YAXHPBGZZ @ 970
?EmitCycles@FScriptCallGraph@@QAEXK@Z @ 971
?EmitEnd@FScriptCallGraph@@QAEXXZ @ 972
?EmitFrameEnd@FScriptCallGraph@@QAEXXZ @ 973
?EmitFunction@FScriptCallGraph@@QAEXPAVUFunction@@@Z @ 974
?Empty@?$TArray@G@@QAEXH@Z @ 975
?Empty@FArray@@QAEXHH@Z @ 976
?Empty@FString@@QAEXXZ @ 977
?EndAsyncLoad@FArchive@@UAEXXZ @ 978
?EndLoad@UObject@@SAXXZ @ 979
?EndsInDigit@FString@@QAEHXZ @ 980
?Eval@FInterpCurve@@QAEMM@Z @ 981
?Exec@FMalloc@@UAEHPBGAAVFOutputDevice@@@Z @ 982
?Exec@FMemCache@@QAEHPBGAAVFOutputDevice@@@Z @ 983
?Exec@USystem@@UAEHPBGAAVFOutputDevice@@@Z @ 984
?ExecutingBadStateCode@UObject@@UAEXAAUFFrame@@@Z @ 985
?Exit@FMemCache@@QAEXH@Z @ 986
?ExitProperties@UObject@@SAXPAEPAVUClass@@@Z @ 987
?ExpandBy@FBox@@QBE?AV1@M@Z @ 988
?ExpandPath@FFileManager@@UAE?AVFString@@PBG@Z @ 989
?ExportBinary@UExporter@@UAEHPAVUObject@@PBGAAVFArchive@@PAVFFeedbackContext@@@Z @ 990
?ExportCpp@UProperty@@UBEXAAVFOutputDevice@@HHHH@Z @ 991
?ExportCppItem@UArrayProperty@@UBEXAAVFOutputDevice@@H@Z @ 992
?ExportCppItem@UBoolProperty@@UBEXAAVFOutputDevice@@H@Z @ 993
?ExportCppItem@UByteProperty@@UBEXAAVFOutputDevice@@H@Z @ 994
?ExportCppItem@UDelegateProperty@@UBEXAAVFOutputDevice@@H@Z @ 995
?ExportCppItem@UFixedArrayProperty@@UBEXAAVFOutputDevice@@H@Z @ 996
?ExportCppItem@UFloatProperty@@UBEXAAVFOutputDevice@@H@Z @ 997
?ExportCppItem@UIntProperty@@UBEXAAVFOutputDevice@@H@Z @ 998
?ExportCppItem@UMapProperty@@UBEXAAVFOutputDevice@@H@Z @ 999
?ExportCppItem@UNameProperty@@UBEXAAVFOutputDevice@@H@Z @ 1000
?ExportCppItem@UObjectProperty@@UBEXAAVFOutputDevice@@H@Z @ 1001
?ExportCppItem@UPointerProperty@@UBEXAAVFOutputDevice@@H@Z @ 1002
?ExportCppItem@UStrProperty@@UBEXAAVFOutputDevice@@H@Z @ 1003
?ExportCppItem@UStructProperty@@UBEXAAVFOutputDevice@@H@Z @ 1004
?ExportProperties@UObject@@SAXAAVFOutputDevice@@PAVUClass@@PAEH12@Z @ 1005
?ExportText@UExporter@@UAEHPAVUObject@@PBGAAVFOutputDevice@@PAVFFeedbackContext@@@Z @ 1006
?ExportText@UObjectExporterT3D@@UAEHPAVUObject@@PBGAAVFOutputDevice@@PAVFFeedbackContext@@@Z @ 1007
?ExportText@UProperty@@UBEHHPAGPAE1H@Z @ 1008
?ExportTextItem@UArrayProperty@@UBEXPAGPAE1H@Z @ 1009
?ExportTextItem@UBoolProperty@@UBEXPAGPAE1H@Z @ 1010
?ExportTextItem@UByteProperty@@UBEXPAGPAE1H@Z @ 1011
?ExportTextItem@UDelegateProperty@@UBEXPAGPAE1H@Z @ 1012
?ExportTextItem@UFixedArrayProperty@@UBEXPAGPAE1H@Z @ 1013
?ExportTextItem@UFloatProperty@@UBEXPAGPAE1H@Z @ 1014
?ExportTextItem@UIntProperty@@UBEXPAGPAE1H@Z @ 1015
?ExportTextItem@UMapProperty@@UBEXPAGPAE1H@Z @ 1016
?ExportTextItem@UNameProperty@@UBEXPAGPAE1H@Z @ 1017
?ExportTextItem@UObjectProperty@@UBEXPAGPAE1H@Z @ 1018
?ExportTextItem@UPointerProperty@@UBEXPAGPAE1H@Z @ 1019
?ExportTextItem@UStrProperty@@UBEXPAGPAE1H@Z @ 1020
?ExportTextItem@UStructProperty@@UBEXPAGPAE1H@Z @ 1021
?ExportToArchive@UExporter@@SAXPAVUObject@@PAV1@AAVFArchive@@PBG@Z @ 1022
?ExportToFile@UExporter@@SAHPAVUObject@@PAV1@PBGHH@Z @ 1023
?ExportToOutputDevice@UExporter@@SAXPAVUObject@@PAV1@AAVFOutputDevice@@PBGH@Z @ 1024
?ExtractFilename@FString@@QAE?AV1@XZ @ 1025
?FAR_CLIPPING_PLANE@@3MA @ 1026
?FLineExtentBoxIntersection@@YAHABVFBox@@ABVFVector@@11AAV2@2AAM@Z @ 1027
?FQuatFindBetween@@YA?AVFQuat@@ABVFVector@@0@Z @ 1028
?FQuatToAngAxis@FQuat@@QAE?AV1@XZ @ 1029
?FactoryCreateBinary@UFactory@@UAEPAVUObject@@PAVUClass@@PAV2@VFName@@K1PBGAAPBEPBEPAVFFeedbackContext@@@Z @ 1030
?FactoryCreateNew@UFactory@@UAEPAVUObject@@PAVUClass@@PAV2@VFName@@K1PAVFFeedbackContext@@@Z @ 1031
?FactoryCreateText@UFactory@@UAEPAVUObject@@PAVULevel@@PAVUClass@@PAV2@VFName@@K2PBGAAPBG4PAVFFeedbackContext@@@Z @ 1032
?FactoryCreateText@UTextBufferFactory@@UAEPAVUObject@@PAVULevel@@PAVUClass@@PAV2@VFName@@K2PBGAAPBG4PAVFFeedbackContext@@@Z @ 1033
?FindArrayProperty@UObject@@QAEHVFString@@PAPAVFArray@@PAH@Z @ 1034
?FindBestAxisVectors@FVector@@QAEXAAV1@0@Z @ 1035
?FindBoolProperty@UObject@@QAEHVFString@@PAH@Z @ 1036
?FindExporter@UExporter@@SAPAV1@PAVUObject@@PBG@Z @ 1037
?FindFNameProperty@UObject@@QAEHVFString@@PAVFName@@@Z @ 1038
?FindFloatProperty@UObject@@QAEHVFString@@PAM@Z @ 1039
?FindFunction@UObject@@QAEPAVUFunction@@VFName@@H@Z @ 1040
?FindFunctionChecked@UObject@@QAEPAVUFunction@@VFName@@H@Z @ 1041
?FindIntProperty@UObject@@QAEHVFString@@PAH@Z @ 1042
?FindItem@?$TArray@G@@QBEHABGAAH@Z @ 1043
?FindItemIndex@?$TArray@G@@QBEHABG@Z @ 1044
?FindObjectField@UObject@@QAEPAVUField@@VFName@@H@Z @ 1045
?FindObjectProperty@UObject@@QAEHVFString@@PAPAV1@@Z @ 1046
?FindPointerProperty@UObject@@QAEHVFString@@PAK@Z @ 1047
?FindState@UObject@@QAEPAVUState@@VFName@@@Z @ 1048
?FindStructProperty@UObject@@QAEHVFString@@PAPAVUStruct@@@Z @ 1049
?First@FMemCache@@QAEPAVFCacheItem@1@XZ @ 1050
?Flip@FPlane@@QBE?AV1@XZ @ 1051
?Flush@FArchive@@UAEXXZ @ 1052
?Flush@FMemCache@@QAEX_KKH@Z @ 1053
?Flush@FOutputDevice@@UAEXXZ @ 1054
?FlushItem@FMemCache@@AAEPAVFCacheItem@1@PAV21@H@Z @ 1055
?ForClient@FArchive@@QAEHXZ @ 1056
?ForEdit@FArchive@@QAEHXZ @ 1057
?ForServer@FArchive@@QAEHXZ @ 1058
?ForceClose@FOutputDevice@@UAEXXZ @ 1059
?FormatAsNumber@FString@@SA?AV1@H@Z @ 1060
?FreeChunks@FMemStack@@AAEXPAUFTaggedMemory@1@@Z @ 1061
?FunctionMD5@UStruct@@QAE?AVFString@@XZ @ 1062
?GAllocatedMemory@@3KA @ 1063
?GAudioDefaultRadius@@3MA @ 1064
?GAudioMaxRadiusMultiplier@@3MA @ 1065
?GAutoRegister@UObject@@0PAV1@A @ 1066
?GBFKey@@3PAGA @ 1067
?GBFTime@@3NA @ 1068
?GBaseCycles@@3_KA @ 1069
?GBtrConfig@@3PAVFConfigCacheMemory@@A @ 1070
?GBtrErrCode@@3HA @ 1071
?GBuildLabel@@3PAGA @ 1072
?GCDKS@@3HA @ 1073
?GCPUType@@3PAGA @ 1074
?GCRCTable@@3PAKA @ 1075
?GCastDuplicate@@3HA @ 1076
?GCasts@@3PAP8UObject@@AEXAAUFFrame@@QAX@ZA @ 1077
?GCdPath@@3PAGA @ 1078
?GCombatLog@@3PAVFOutputDevice@@A @ 1079
?GConfig@@3PAVFConfigCache@@A @ 1080
?GCrashLog@@3PAVFOutputDevice@@A @ 1081
?GCurrentTime@@3NA @ 1082
?GDebugger@@3PAVUDebugger@@A @ 1083
?GDediServerChannelIP@@3PAGA @ 1084
?GDediServerChannelPort@@3HA @ 1085
?GDeltaTime@@3MA @ 1086
?GDemoPlayback@@3HA @ 1087
?GDummySave@@3PAVFArchive@@A @ 1088
?GEdLoadErrors@@3V?$TArray@VFEdLoadError@@@@A @ 1089
?GEdSelectionLock@@3HA @ 1090
?GEdShowFogInViewports@@3HA @ 1091
?GError@@3PAVFOutputDeviceError@@A @ 1092
?GErrorHist@@3PAGA @ 1093
?GExec@@3PAVFExec@@A @ 1094
?GFalse@@3PAGA @ 1095
?GFileManager@@3PAVFFileManager@@A @ 1096
?GFileManagerBytesRead@@3_KA @ 1097
?GFileManagerLoadingTime@@3MA @ 1098
?GFileManagerMiscTime@@3MA @ 1099
?GFileManagerSeekTime@@3MA @ 1100
?GFixedTimeStep@@3MA @ 1101
?GGPUDeviceID@@3KA @ 1102
?GGPUVendorID@@3KA @ 1103
?GHackNoDepthTestRenderTarget@@3HA @ 1104
?GHash@FMemCache@@QAEKK@Z @ 1105
?GImportCount@UObject@@0HA @ 1106
?GIni@@3PAGA @ 1107
?GInitEngineStep@@3HA @ 1108
?GInitRunaway@@YAXXZ @ 1109
?GIsBenchmarking@@3HA @ 1110
?GIsClient@@3HA @ 1111
?GIsClocking@@3HA @ 1112
?GIsCriticalError@@3HA @ 1113
?GIsDMZVersion@@3HA @ 1114
?GIsDediServerLog@@3HA @ 1115
?GIsEditor@@3HA @ 1116
?GIsGarbageCollecting@@3HA @ 1117
?GIsGuarded@@3HA @ 1118
?GIsLoadingLevel@@3HA @ 1119
?GIsOpenGL@@3HA @ 1120
?GIsOpenGLRevComps@@3HA @ 1121
?GIsPixomatic@@3HA @ 1122
?GIsPlayNoServiceBuild@@3HA @ 1123
?GIsRecordingMovie@@3HA @ 1124
?GIsRequestingExit@@3HA @ 1125
?GIsRunning@@3HA @ 1126
?GIsScriptable@@3HA @ 1127
?GIsServer@@3HA @ 1128
?GIsService_Test_Version@@3HA @ 1129
?GIsShowUserCount@@3HA @ 1130
?GIsSlowTask@@3HA @ 1131
?GIsSoaking@@3HA @ 1132
?GIsStarted@@3HA @ 1133
?GIsStrict@@3HA @ 1134
?GIsTeenVersion@@3HA @ 1135
?GIsUCC@@3HA @ 1136
?GIsUIMode@@3HA @ 1137
?GIsUseDediServer@@3HA @ 1138
?GIsUseEarlyZ@@3HA @ 1139
?GIsUseServiceLog@@3HA @ 1140
?GIsWindowModeVersion@@3HA @ 1141
?GLanguage@UObject@@0PAGA @ 1142
?GLazyLoad@@3HA @ 1143
?GLog@@3PAVFOutputDevice@@A @ 1144
?GLogCollectGarbage@@3HA @ 1145
?GLogHook@@3PAVFOutputDevice@@A @ 1146
?GMD5@@3PAEA @ 1147
?GMachineCPU@@3PAGA @ 1148
?GMachineOS@@3PAGA @ 1149
?GMachineVideo@@3PAGA @ 1150
?GMakeCacheIDIndex@@3_KA @ 1151
?GMalloc@@3PAVFMalloc@@A @ 1152
?GMath@@3VFGlobalMath@@A @ 1153
?GMaxInitEngineStep@@3HA @ 1154
?GMaxStreamingTime@@3MA @ 1155
?GMem@@3VFMemStack@@A @ 1156
?GMemoryTag@@3KA @ 1157
?GMinTextureResidentMipCount@@3HA @ 1158
?GModDef@@3PAGA @ 1159
?GModName@@3PAGA @ 1160
?GModPath@@3PAGA @ 1161
?GNativeDuplicate@@3HA @ 1162
?GNatives@@3PAP8UObject@@AEXAAUFFrame@@QAX@ZA @ 1163
?GNo@@3PAGA @ 1164
?GNone@@3PAGA @ 1165
?GNull@@3PAVFOutputDevice@@A @ 1166
?GObjAvailable@UObject@@0V?$TArray@H@@A @ 1167
?GObjBeginLoadCount@UObject@@0HA @ 1168
?GObjCachedLanguage@UObject@@0PAGA @ 1169
?GObjDrivers@UObject@@0V?$TArray@VFRegistryObjectInfo@@@@A @ 1170
?GObjHash@UObject@@0PAPAV1@A @ 1171
?GObjInitialized@UObject@@0HA @ 1172
?GObjLoaded@UObject@@0V?$TArray@PAVUObject@@@@A @ 1173
?GObjLoaders@UObject@@0V?$TArray@PAVUObject@@@@A @ 1174
?GObjNoRegister@UObject@@0HA @ 1175
?GObjObjects@UObject@@0V?$TArray@PAVUObject@@@@A @ 1176
?GObjPackageRemap@UObject@@0PAV?$TMultiMap@VFName@@V1@@@A @ 1177
?GObjPreferences@UObject@@0V?$TArray@VFPreferencesInfo@@@@A @ 1178
?GObjRegisterCount@UObject@@0HA @ 1179
?GObjRegistrants@UObject@@0V?$TArray@PAVUObject@@@@A @ 1180
?GObjRoot@UObject@@0V?$TArray@PAVUObject@@@@A @ 1181
?GObjTransientPkg@UObject@@0PAVUPackage@@A @ 1182
?GPID@@3KA @ 1183
?GPageSize@@3KA @ 1184
?GPhysicalMemory@@3KA @ 1185
?GProcessorCount@@3KA @ 1186
?GPropAddr@@3PAEA @ 1187
?GPropObject@@3PAVUObject@@A @ 1188
?GProperty@@3PAVUProperty@@A @ 1189
?GRegisterCast@@YAEHABQ8UObject@@AEXAAUFFrame@@QAX@Z@Z @ 1190
?GRegisterNative@@YAEHABQ8UObject@@AEXAAUFFrame@@QAX@Z@Z @ 1191
?GRunningCPU@@3W4ERunningCPU@@A @ 1192
?GRunningGPU@@3W4ERunningGPU@@A @ 1193
?GRunningOS@@3W4ERunningOS@@A @ 1194
?GRuntimeUCFlags@@3KA @ 1195
?GScriptCallGraph@@3PAUFScriptCallGraph@@A @ 1196
?GScriptCycles@@3HA @ 1197
?GScriptEntryTag@@3HA @ 1198
?GSecondsPerCycle@@3NA @ 1199
?GShowBuildLabel@@3HA @ 1200
?GStreamTickableCount@@3HA @ 1201
?GSys@@3PAVUSystem@@A @ 1202
?GTempDouble@@3NA @ 1203
?GTempFunc@@3P6AXPAX@ZA @ 1204
?GThrow@@3PAVFOutputDevice@@A @ 1205
?GTicks@@3_KA @ 1206
?GTransientNaming@@3HA @ 1207
?GTrue@@3PAGA @ 1208
?GUglyHackFlags@@3KA @ 1209
?GUndo@@3PAVFTransactionBase@@A @ 1210
?GUnicode@@3HA @ 1211
?GUnicodeOS@@3HA @ 1212
?GUseFixedTimeStep@@3HA @ 1213
?GUseSound@@3HA @ 1214
?GUserIni@@3PAGA @ 1215
?GWarn@@3PAVFFeedbackContext@@A @ 1216
?GWindowManager@@3PAVUSubsystem@@A @ 1217
?GYes@@3PAGA @ 1218
?G_AccountID@@3PAGA @ 1219
?G_AuthKey@@3PAGA @ 1220
?G_ChannelingType@@3HA @ 1221
?G_GUID@@3PAGA @ 1222
?G_Language@@3PAGA @ 1223
?G_RegionKey@@3PAGA @ 1224
?G_StartType@@3HA @ 1225
?Get@FMemCache@@QAEPAE_KAAPAVFCacheItem@1@H@Z @ 1226
?GetAbsMax@FVector@@QBEMXZ @ 1227
?GetAllocationInfo@FMalloc@@UAEXAAK0@Z @ 1228
?GetByteCount@FMemStack@@QBEHXZ @ 1229
?GetCenter@FBox@@QBE?AVFVector@@XZ @ 1230
?GetCenter@FRange@@QBEMXZ @ 1231
?GetCenter@FRangeVector@@QBE?AVFVector@@XZ @ 1232
?GetCenterAndExtents@FBox@@QBEXAAVFVector@@0@Z @ 1233
?GetCharArray@FString@@QAEAAV?$TArray@G@@XZ @ 1234
?GetClass@UObject@@QBEPAVUClass@@XZ @ 1235
?GetClassNetCache@UPackageMap@@UAEPAVFClassNetCache@@PAVUClass@@@Z @ 1236
?GetCost@FCacheItem@FMemCache@@QAEHXZ @ 1237
?GetData@FArray@@QAEPAXXZ @ 1238
?GetData@FArray@@QBEPBXXZ @ 1239
?GetData@FBitReader@@QAEPAEXZ @ 1240
?GetData@FBitWriter@@QAEPAEXZ @ 1241
?GetData@FCacheItem@FMemCache@@QAEPAEXZ @ 1242
?GetDefaultActor@UClass@@QAEPAVAActor@@XZ @ 1243
?GetDefaultObject@UClass@@QAEPAVUObject@@XZ @ 1244
?GetDefaultObject@UClass@@QBEPBVUObject@@XZ @ 1245
?GetDllExport@UPackage@@QAEPAXPBGH@Z @ 1246
?GetDriveLetters@FFileManager@@UBEHAAVFString@@@Z @ 1247
?GetEntry@FName@@SAPAUFNameEntry@@H@Z @ 1248
?GetErrMsg@UObject@@QAEXHAAVFString@@@Z @ 1249
?GetError@FArchive@@UAEHXZ @ 1250
?GetExportFullName@ULinker@@QAE?AVFString@@HPBG@Z @ 1251
?GetExtent@FBox@@QBE?AVFVector@@XZ @ 1252
?GetExtra@FCacheItem@FMemCache@@QAEEXZ @ 1253
?GetExtrema@FBox@@QAEAAVFVector@@H@Z @ 1254
?GetExtrema@FBox@@QBEABVFVector@@H@Z @ 1255
?GetFName@FName@@SAPAUFNameEntry@@PAG@Z @ 1256
?GetFName@UObject@@QBE?BVFName@@XZ @ 1257
?GetFileLastModTime@FFileManager@@UAEHPBGAAK11111@Z @ 1258
?GetFileVersion@FPackageFileSummary@@QBEHXZ @ 1259
?GetFileVersionComplete@FPackageFileSummary@@QBEHXZ @ 1260
?GetFileVersionLicensee@FPackageFileSummary@@QBEHXZ @ 1261
?GetFlags@FName@@QBEKXZ @ 1262
?GetFlags@UObject@@QBEKXZ @ 1263
?GetFromField@FClassNetCache@@QAEPAVFFieldNetCache@@PAVUObject@@@Z @ 1264
?GetFromIndex@FClassNetCache@@QAEPAVFFieldNetCache@@H@Z @ 1265
?GetFullName@UObject@@QBEPBGPAG@Z @ 1266
?GetID@UClassProperty@@UBEEXZ @ 1267
?GetID@UProperty@@UBEEXZ @ 1268
?GetId@FCacheItem@FMemCache@@QAE_KXZ @ 1269
?GetImportFullName@ULinker@@QAE?AVFString@@H@Z @ 1270
?GetIndex@FName@@QBEHXZ @ 1271
?GetIndex@UObject@@QBEKXZ @ 1272
?GetIndexedObject@UObject@@SAPAV1@H@Z @ 1273
?GetInheritanceSuper@UClass@@UAEPAVUStruct@@XZ @ 1274
?GetInheritanceSuper@UFunction@@UAEPAVUStruct@@XZ @ 1275
?GetInheritanceSuper@UState@@UAEPAVUStruct@@XZ @ 1276
?GetInheritanceSuper@UStruct@@UAEPAV1@XZ @ 1277
?GetInitialized@FName@@SAHXZ @ 1278
?GetInitialized@UObject@@SAHXZ @ 1279
?GetLanguage@UObject@@SAPBGXZ @ 1280
?GetLastErrCode@UObject@@QAEHXZ @ 1281
?GetLinker@UObject@@QBEPAVULinkerLoad@@XZ @ 1282
?GetLinkerIndex@UObject@@QBEHXZ @ 1283
?GetLoader@UObject@@CAPAVULinkerLoad@@H@Z @ 1284
?GetLoaderList@UObject@@SA?AV?$TArray@PAVUObject@@@@XZ @ 1285
?GetLocalTime@FBtrDouble@@QAEXXZ @ 1286
?GetLocalTime@FBtrTime@@QAEXXZ @ 1287
?GetMax@FArchiveCountMem@@QAEKXZ @ 1288
?GetMax@FRange@@QBEMXZ @ 1289
?GetMax@FRangeVector@@QBE?AVFVector@@XZ @ 1290
?GetMax@FVector@@QBEMXZ @ 1291
?GetMaxIndex@FClassNetCache@@QAEHXZ @ 1292
?GetMaxNames@FName@@SAHXZ @ 1293
?GetMaxObjectIndex@UPackageMap@@UAEHXZ @ 1294
?GetMin@FRange@@QBEMXZ @ 1295
?GetMin@FVector@@QBEMXZ @ 1296
?GetName@UObject@@QBEPBGXZ @ 1297
?GetNameCPP@UClass@@UBEPAGXZ @ 1298
?GetNameCPP@UStruct@@UBEPAGXZ @ 1299
?GetNonParallel@FVector@@QAE?AV1@XZ @ 1300
?GetNormalized@FVector@@QAE?AV1@XZ @ 1301
?GetNum@FArchiveCountMem@@QAEKXZ @ 1302
?GetNumBits@FBitReader@@QAEHXZ @ 1303
?GetNumBits@FBitWriter@@QAEHXZ @ 1304
?GetNumBits@FBitWriterMark@@QAEHXZ @ 1305
?GetNumBytes@FBitReader@@QAEHXZ @ 1306
?GetNumBytes@FBitWriter@@QAEHXZ @ 1307
?GetObjectHash@UObject@@SAHVFName@@H@Z @ 1308
?GetOuter@UObject@@QBEPAV1@XZ @ 1309
?GetOuterUField@UProperty@@QBEPAVUField@@XZ @ 1310
?GetOuterUPackage@UClass@@QBEPAVUPackage@@XZ @ 1311
?GetOuterUState@UFunction@@QBEPAVUState@@XZ @ 1312
?GetOuterUStruct@UConst@@QBEPAVUStruct@@XZ @ 1313
?GetOuterUStruct@UEnum@@QBEPAVUStruct@@XZ @ 1314
?GetOwnerClass@UField@@UAEPAVUClass@@XZ @ 1315
?GetPS3AllocationInfo@FMalloc@@UAEXAAHAAM0@Z @ 1316
?GetPackageLinker@UObject@@SAPAVULinkerLoad@@PAV1@PBGKPAVUPackageMap@@PAVFGuid@@H@Z @ 1317
?GetPathName@UObject@@QBEPBGPAV1@PAG@Z @ 1318
?GetPosBits@FBitReader@@QAEHXZ @ 1319
?GetPreferences@UObject@@SAXAAV?$TArray@VFPreferencesInfo@@@@PBGH@Z @ 1320
?GetPropertiesSize@UField@@UBEHXZ @ 1321
?GetPropertiesSize@UStruct@@UBEHXZ @ 1322
?GetRand@FRange@@QBEMXZ @ 1323
?GetRand@FRangeVector@@QBE?AVFVector@@XZ @ 1324
?GetReferenceName@FArchive@@UAEPAGXZ @ 1325
?GetReferencers@UObject@@SAXPAV1@AAV?$TArray@PAVUObject@@@@@Z @ 1326
?GetRegistryObjects@UObject@@SAXAAV?$TArray@VFRegistryObjectInfo@@@@PAVUClass@@1H@Z @ 1327
?GetRepConditionCount@FClassNetCache@@QAEHXZ @ 1328
?GetReturnProperty@UFunction@@QAEPAVUProperty@@XZ @ 1329
?GetSRand@FRange@@QBEMXZ @ 1330
?GetSRand@FRangeVector@@QBE?AVFVector@@XZ @ 1331
?GetScriptTextCRC@UStruct@@QBEKXZ @ 1332
?GetShortestRoute@UObject@@SAXPAV1@AAV?$TArray@PAVUObject@@@@@Z @ 1333
?GetSize@FCacheItem@FMemCache@@QAEHXZ @ 1334
?GetSize@UProperty@@QBEHXZ @ 1335
?GetStateFrame@UObject@@QBEPAUFStateFrame@@XZ @ 1336
?GetStateNameImp@UObject@@QAE?AVFName@@XZ @ 1337
?GetSuperClass@UClass@@QBEPAV1@XZ @ 1338
?GetSuperConst@UConst@@QBEPAV1@XZ @ 1339
?GetSuperEnum@UEnum@@QBEPAV1@XZ @ 1340
?GetSuperFunction@UFunction@@QBEPAV1@XZ @ 1341
?GetSuperState@UState@@QBEPAV1@XZ @ 1342
?GetSuperStruct@UStruct@@QBEPAV1@XZ @ 1343
?GetTime@FCacheItem@FMemCache@@QAEGXZ @ 1344
?GetTime@FMemCache@@QAEHXZ @ 1345
?GetTransientPackage@UObject@@SAPAVUPackage@@XZ @ 1346
?GetUnusedByteCount@FMemStack@@QBEHXZ @ 1347
?GlobalSetProperty@UObject@@SAXPBGPAVUClass@@PAVUProperty@@HH@Z @ 1348
?GotoLabel@UObject@@UAEHVFName@@@Z @ 1349
?GotoState@UObject@@UAE?AW4EGotoState@@VFName@@@Z @ 1350
?GridSnap@FRange@@QAE?AV1@ABV1@@Z @ 1351
?GridSnap@FRangeVector@@QAE?AV1@ABV1@@Z @ 1352
?GridSnap@FRotator@@QAE?AV1@ABV1@@Z @ 1353
?GridSnap@FVector@@QAE?AV1@ABV1@@Z @ 1354
?HandleError@FErrorOutError@@UAEXXZ @ 1355
?Hardcode@FName@@SAXPAUFNameEntry@@@Z @ 1356
?HasValue@UArrayProperty@@UBEHPBE@Z @ 1357
?HasValue@UBoolProperty@@UBEHPBE@Z @ 1358
?HasValue@UByteProperty@@UBEHPBE@Z @ 1359
?HasValue@UClassProperty@@UBEHPBE@Z @ 1360
?HasValue@UDelegateProperty@@UBEHPBE@Z @ 1361
?HasValue@UFixedArrayProperty@@UBEHPBE@Z @ 1362
?HasValue@UFloatProperty@@UBEHPBE@Z @ 1363
?HasValue@UIntProperty@@UBEHPBE@Z @ 1364
?HasValue@UMapProperty@@UBEHPBE@Z @ 1365
?HasValue@UNameProperty@@UBEHPBE@Z @ 1366
?HasValue@UObjectProperty@@UBEHPBE@Z @ 1367
?HasValue@UPointerProperty@@UBEHPBE@Z @ 1368
?HasValue@UStrProperty@@UBEHPBE@Z @ 1369
?HasValue@UStructProperty@@UBEHPBE@Z @ 1370
?HashObject@UObject@@AAEXXZ @ 1371
?HexValue@FString@@QAEHXZ @ 1372
?Identical@UArrayProperty@@UBEHPBX0@Z @ 1373
?Identical@UBoolProperty@@UBEHPBX0@Z @ 1374
?Identical@UByteProperty@@UBEHPBX0@Z @ 1375
?Identical@UDelegateProperty@@UBEHPBX0@Z @ 1376
?Identical@UFixedArrayProperty@@UBEHPBX0@Z @ 1377
?Identical@UFloatProperty@@UBEHPBX0@Z @ 1378
?Identical@UIntProperty@@UBEHPBX0@Z @ 1379
?Identical@UMapProperty@@UBEHPBX0@Z @ 1380
?Identical@UNameProperty@@UBEHPBX0@Z @ 1381
?Identical@UObjectProperty@@UBEHPBX0@Z @ 1382
?Identical@UPointerProperty@@UBEHPBX0@Z @ 1383
?Identical@UStrProperty@@UBEHPBX0@Z @ 1384
?Identical@UStructProperty@@UBEHPBX0@Z @ 1385
?Identity@FMatrix@@2V1@A @ 1386
?ImportText@UArrayProperty@@UBEPBGPBGPAEH@Z @ 1387
?ImportText@UBoolProperty@@UBEPBGPBGPAEH@Z @ 1388
?ImportText@UByteProperty@@UBEPBGPBGPAEH@Z @ 1389
?ImportText@UClassProperty@@UBEPBGPBGPAEH@Z @ 1390
?ImportText@UDelegateProperty@@UBEPBGPBGPAEH@Z @ 1391
?ImportText@UFixedArrayProperty@@UBEPBGPBGPAEH@Z @ 1392
?ImportText@UFloatProperty@@UBEPBGPBGPAEH@Z @ 1393
?ImportText@UIntProperty@@UBEPBGPBGPAEH@Z @ 1394
?ImportText@UMapProperty@@UBEPBGPBGPAEH@Z @ 1395
?ImportText@UNameProperty@@UBEPBGPBGPAEH@Z @ 1396
?ImportText@UObjectProperty@@UBEPBGPBGPAEH@Z @ 1397
?ImportText@UPointerProperty@@UBEPBGPBGPAEH@Z @ 1398
?ImportText@UStrProperty@@UBEPBGPBGPAEH@Z @ 1399
?ImportText@UStructProperty@@UBEPBGPBGPAEH@Z @ 1400
?InStr@FString@@QBEHABV1@H@Z @ 1401
?InStr@FString@@QBEHPBGH@Z @ 1402
?IndexToObject@UPackageMap@@UAEPAVUObject@@HH@Z @ 1403
?Init@FBox@@QAEXXZ @ 1404
?Init@FFileManager@@UAEXH@Z @ 1405
?Init@FMemCache@@QAEXHHPAXH@Z @ 1406
?InitClassDefaultObject@UObject@@QAEXPAVUClass@@H@Z @ 1407
?InitExecution@UObject@@UAEXXZ @ 1408
?InitProperties@UObject@@SAXPAEHPAVUClass@@0HPAV1@2H@Z @ 1409
?Initialized@FName@@0HA @ 1410
?Insert@?$TArray@G@@QAEXHH@Z @ 1411
?Insert@FArray@@QAEXHHH@Z @ 1412
?InsertZeroed@?$TArray@G@@QAEXHH@Z @ 1413
?InsertZeroed@FArray@@QAEXHHH@Z @ 1414
?InternalConstructor@UArrayProperty@@SAXPAX@Z @ 1415
?InternalConstructor@UBoolProperty@@SAXPAX@Z @ 1416
?InternalConstructor@UByteProperty@@SAXPAX@Z @ 1417
?InternalConstructor@UClass@@SAXPAX@Z @ 1418
?InternalConstructor@UClassProperty@@SAXPAX@Z @ 1419
?InternalConstructor@UCommandlet@@SAXPAX@Z @ 1420
?InternalConstructor@UConst@@SAXPAX@Z @ 1421
?InternalConstructor@UDelegateProperty@@SAXPAX@Z @ 1422
?InternalConstructor@UEnum@@SAXPAX@Z @ 1423
?InternalConstructor@UFixedArrayProperty@@SAXPAX@Z @ 1424
?InternalConstructor@UFloatProperty@@SAXPAX@Z @ 1425
?InternalConstructor@UFunction@@SAXPAX@Z @ 1426
?InternalConstructor@UIntProperty@@SAXPAX@Z @ 1427
?InternalConstructor@ULinker@@SAXPAX@Z @ 1428
?InternalConstructor@UMapProperty@@SAXPAX@Z @ 1429
?InternalConstructor@UNameProperty@@SAXPAX@Z @ 1430
?InternalConstructor@UObject@@SAXPAX@Z @ 1431
?InternalConstructor@UObjectExporterT3D@@SAXPAX@Z @ 1432
?InternalConstructor@UObjectProperty@@SAXPAX@Z @ 1433
?InternalConstructor@UPackage@@SAXPAX@Z @ 1434
?InternalConstructor@UPackageMap@@SAXPAX@Z @ 1435
?InternalConstructor@UPointerProperty@@SAXPAX@Z @ 1436
?InternalConstructor@UState@@SAXPAX@Z @ 1437
?InternalConstructor@UStrProperty@@SAXPAX@Z @ 1438
?InternalConstructor@UStruct@@SAXPAX@Z @ 1439
?InternalConstructor@UStructProperty@@SAXPAX@Z @ 1440
?InternalConstructor@USystem@@SAXPAX@Z @ 1441
?InternalConstructor@UTextBuffer@@SAXPAX@Z @ 1442
?InternalConstructor@UTextBufferFactory@@SAXPAX@Z @ 1443
?Intersect@FBox@@QBE_NABV1@@Z @ 1444
?Inverse@FCoords@@QBE?AV1@XZ @ 1445
?Inverse@FMatrix@@QBE?AV1@XZ @ 1446
?Inverse@FModelCoords@@QAE?AV1@XZ @ 1447
?IsA@UClass@@ABEHPAV1@@Z @ 1448
?IsA@UObject@@QBEHPAVUClass@@@Z @ 1449
?IsCaseSensitive@FFileManager@@UBEHXZ @ 1450
?IsChildOf@UStruct@@QBEHPBV1@@Z @ 1451
?IsCriticalError@FArchive@@QAEHXZ @ 1452
?IsEncryptExtension@@YAHPBG@Z @ 1453
?IsEndMarker@FScriptCallGraph@@QAEHK@Z @ 1454
?IsError@FArchive@@QAEHXZ @ 1455
?IsFrameEndMarker@FScriptCallGraph@@QAEHK@Z @ 1456
?IsIn@UObject@@QBEHPAV1@@Z @ 1457
?IsInternallyThreadSafe@FMalloc@@UBEHXZ @ 1458
?IsLoading@FArchive@@QAEHXZ @ 1459
?IsLocalized@UArrayProperty@@UBEHXZ @ 1460
?IsLocalized@UProperty@@UBEHXZ @ 1461
?IsLocalized@UStructProperty@@UBEHXZ @ 1462
?IsNearlyZero@FRange@@QBEHXZ @ 1463
?IsNearlyZero@FRangeVector@@QBEHXZ @ 1464
?IsNearlyZero@FVector@@QBEHXZ @ 1465
?IsNet@FArchive@@QAEHXZ @ 1466
?IsNumeric@FString@@QAEHXZ @ 1467
?IsPendingKill@UObject@@UAEHXZ @ 1468
?IsPersistent@FArchive@@QAEHXZ @ 1469
?IsProbing@UObject@@QAEHVFName@@@Z @ 1470
?IsReferenced@UObject@@SAHAAPAV1@KH@Z @ 1471
?IsSaving@FArchive@@QAEHXZ @ 1472
?IsTrans@FArchive@@QAEHXZ @ 1473
?IsUCCDecryptExtension@@YAHPBG@Z @ 1474
?IsUCCEncryptExtension@@YAHPBG@Z @ 1475
?IsUniform@FVector@@QAEHXZ @ 1476
?IsUpToDate@FDependency@@QAEHXZ @ 1477
?IsValid@FName@@QAEHXZ @ 1478
?IsValid@UObject@@QAEHXZ @ 1479
?IsValidIndex@FArray@@QBEHH@Z @ 1480
?IsZero@FRange@@QBEHXZ @ 1481
?IsZero@FRangeVector@@QBEHXZ @ 1482
?IsZero@FRotator@@QBEHXZ @ 1483
?IsZero@FVector@@QBEHXZ @ 1484
?LanguageChange@UObject@@UAEXXZ @ 1485
?Last@?$TArray@G@@QAEAAGH@Z @ 1486
?Last@?$TArray@G@@QBEABGH@Z @ 1487
?Last@FMemCache@@QAEPAVFCacheItem@1@XZ @ 1488
?Left@FString@@QBE?AV1@H@Z @ 1489
?LeftChop@FString@@QBE?AV1@H@Z @ 1490
?LeftPad@FString@@QAE?AV1@H@Z @ 1491
?Len@FString@@QBEHXZ @ 1492
?LicenseeVer@FArchive@@QAEHXZ @ 1493
?Link@UArrayProperty@@UAEXAAVFArchive@@PAVUProperty@@@Z @ 1494
?Link@UBoolProperty@@UAEXAAVFArchive@@PAVUProperty@@@Z @ 1495
?Link@UByteProperty@@UAEXAAVFArchive@@PAVUProperty@@@Z @ 1496
?Link@UClass@@UAEXAAVFArchive@@H@Z @ 1497
?Link@UDelegateProperty@@UAEXAAVFArchive@@PAVUProperty@@@Z @ 1498
?Link@UFixedArrayProperty@@UAEXAAVFArchive@@PAVUProperty@@@Z @ 1499
?Link@UFloatProperty@@UAEXAAVFArchive@@PAVUProperty@@@Z @ 1500
?Link@UFunction@@UAEXAAVFArchive@@H@Z @ 1501
?Link@UIntProperty@@UAEXAAVFArchive@@PAVUProperty@@@Z @ 1502
?Link@UMapProperty@@UAEXAAVFArchive@@PAVUProperty@@@Z @ 1503
?Link@UNameProperty@@UAEXAAVFArchive@@PAVUProperty@@@Z @ 1504
?Link@UObjectProperty@@UAEXAAVFArchive@@PAVUProperty@@@Z @ 1505
?Link@UPointerProperty@@UAEXAAVFArchive@@PAVUProperty@@@Z @ 1506
?Link@UProperty@@UAEXAAVFArchive@@PAV1@@Z @ 1507
?Link@UState@@UAEXAAVFArchive@@H@Z @ 1508
?Link@UStrProperty@@UAEXAAVFArchive@@PAVUProperty@@@Z @ 1509
?Link@UStruct@@UAEXAAVFArchive@@H@Z @ 1510
?Link@UStructProperty@@UAEXAAVFArchive@@PAVUProperty@@@Z @ 1511
?LinksToCode@ULinker@@UAEHXZ @ 1512
?LoadConfig@UObject@@QAEXHPAVUClass@@PBGHHHPAVUProperty@@@Z @ 1513
?LoadLocalized@UObject@@QAEXXZ @ 1514
?LoadPackage@UObject@@SAPAV1@PAV1@PBGK@Z @ 1515
?Localize@@YAPBGPBD0PBG1H@Z @ 1516
?Localize@@YAPBGPBG000H@Z @ 1517
?LocalizeBig@@YAXPBD0PBG1HPAGH@Z @ 1518
?LocalizeBig@@YAXPBG000HPAGH@Z @ 1519
?LocalizeError@@YAPBGPBDPBG1@Z @ 1520
?LocalizeError@@YAPBGPBG00@Z @ 1521
?LocalizeGeneral@@YAPBGPBDPBG1@Z @ 1522
?LocalizeGeneral@@YAPBGPBG00@Z @ 1523
?LocalizeHShield@@YAPBGPBDPBG1@Z @ 1524
?LocalizeHShield@@YAPBGPBG00@Z @ 1525
?LocalizeProgress@@YAPBGPBDPBG1@Z @ 1526
?LocalizeProgress@@YAPBGPBG00@Z @ 1527
?LocalizeQuery@@YAPBGPBDPBG1@Z @ 1528
?LocalizeQuery@@YAPBGPBG00@Z @ 1529
?Lock@FCriticalSection@@QAEXXZ @ 1530
?Locs@FString@@QBE?AV1@XZ @ 1531
?Log@FOutputDevice@@QAEXABVFString@@@Z @ 1532
?Log@FOutputDevice@@QAEXPBG@Z @ 1533
?Log@FOutputDevice@@QAEXW4EName@@ABVFString@@@Z @ 1534
?Log@FOutputDevice@@QAEXW4EName@@PBG@Z @ 1535
?LogLoading@FOutputDevice@@QAEXPBG0HMMMMMM@Z @ 1536
?Logf@FOutputDevice@@QAAXPBGZZ @ 1537
?Logf@FOutputDevice@@QAAXW4EName@@PBGZZ @ 1538
?Main@UCommandlet@@UAEHPBG@Z @ 1539
?MakeUniqueObjectName@UObject@@CA?AVFName@@PAV1@PAVUClass@@@Z @ 1540
?MapCheck_Add@FFeedbackContext@@UAEXHPAXPBG@Z @ 1541
?MapCheck_Clear@FFeedbackContext@@UAEXXZ @ 1542
?MapCheck_Hide@FFeedbackContext@@UAEXXZ @ 1543
?MapCheck_Show@FFeedbackContext@@UAEXXZ @ 1544
?MapCheck_ShowConditionally@FFeedbackContext@@UAEXXZ @ 1545
?MapName@FArchive@@UAEHPAVFName@@@Z @ 1546
?MapObject@FArchive@@UAEHPAVUObject@@@Z @ 1547
?Matches@UProperty@@QBEHPBX0H@Z @ 1548
?Matrix@FCoords@@QBE?AVFMatrix@@XZ @ 1549
?MergeBools@UClass@@UAEHXZ @ 1550
?MergeBools@UField@@UAEHXZ @ 1551
?MergeBools@UFunction@@UAEHXZ @ 1552
?MergeBools@UState@@UAEHXZ @ 1553
?MergeWithNext@FMemCache@@AAEPAVFCacheItem@1@PAV21@@Z @ 1554
?Mid@FString@@QBE?AV1@HH@Z @ 1555
?Minus@FBtrDouble@@QAE?AV1@V1@@Z @ 1556
?MirrorByPlane@FCoords@@QBE?AV1@ABVFPlane@@@Z @ 1557
?MirrorByPlane@FVector@@QBE?AV1@ABVFPlane@@@Z @ 1558
?MirrorByVector@FCoords@@QBE?AV1@ABVFVector@@@Z @ 1559
?MirrorByVector@FVector@@QBE?AV1@ABV1@@Z @ 1560
?Modify@UObject@@UAEXXZ @ 1561
?NEAR_CLIPPING_PLANE@@3MA @ 1562
?NameHash@FName@@0PAPAUFNameEntry@@A @ 1563
?Names@FName@@0V?$TArray@PAUFNameEntry@@@@A @ 1564
?NetDirty@UObject@@UAEXPAVUProperty@@@Z @ 1565
?NetPackData@FArchive@@QAEHXZ @ 1566
?NetSerializeItem@UArrayProperty@@UBEHAAVFArchive@@PAVUPackageMap@@PAX@Z @ 1567
?NetSerializeItem@UBoolProperty@@UBEHAAVFArchive@@PAVUPackageMap@@PAX@Z @ 1568
?NetSerializeItem@UByteProperty@@UBEHAAVFArchive@@PAVUPackageMap@@PAX@Z @ 1569
?NetSerializeItem@UDelegateProperty@@UBEHAAVFArchive@@PAVUPackageMap@@PAX@Z @ 1570
?NetSerializeItem@UFixedArrayProperty@@UBEHAAVFArchive@@PAVUPackageMap@@PAX@Z @ 1571
?NetSerializeItem@UFloatProperty@@UBEHAAVFArchive@@PAVUPackageMap@@PAX@Z @ 1572
?NetSerializeItem@UIntProperty@@UBEHAAVFArchive@@PAVUPackageMap@@PAX@Z @ 1573
?NetSerializeItem@UMapProperty@@UBEHAAVFArchive@@PAVUPackageMap@@PAX@Z @ 1574
?NetSerializeItem@UObjectProperty@@UBEHAAVFArchive@@PAVUPackageMap@@PAX@Z @ 1575
?NetSerializeItem@UPointerProperty@@UBEHAAVFArchive@@PAVUPackageMap@@PAX@Z @ 1576
?NetSerializeItem@UProperty@@UBEHAAVFArchive@@PAVUPackageMap@@PAX@Z @ 1577
?NetSerializeItem@UStructProperty@@UBEHAAVFArchive@@PAVUPackageMap@@PAX@Z @ 1578
?NetVer@FArchive@@QAEHXZ @ 1579
?Next@FMemCache@@QAEPAVFCacheItem@1@PAV21@@Z @ 1580
?Normalize@FQuat@@QAEHXZ @ 1581
?Normalize@FVector@@QAEHXZ @ 1582
?NotifyDestroy@FNotifyHook@@UAEXPAX@Z @ 1583
?NotifyExec@FNotifyHook@@UAEXPAXPBG@Z @ 1584
?NotifyPostChange@FNotifyHook@@UAEXPAX@Z @ 1585
?NotifyPreChange@FNotifyHook@@UAEXPAX@Z @ 1586
?Num@FArray@@QBEHXZ @ 1587
?ObjectToIndex@UPackageMap@@UAEHPAVUObject@@@Z @ 1588
?Orientation@FScale@@QAEMXZ @ 1589
?OrthoRotation@FCoords@@QBE?AVFRotator@@XZ @ 1590
?Parse@@YAHPBG0AAC@Z @ 1591
?Parse@@YAHPBG0AAE@Z @ 1592
?Parse@@YAHPBG0AAF@Z @ 1593
?Parse@@YAHPBG0AAG@Z @ 1594
?Parse@@YAHPBG0AAH@Z @ 1595
?Parse@@YAHPBG0AAK@Z @ 1596
?Parse@@YAHPBG0AAM@Z @ 1597
?Parse@@YAHPBG0AAVFGuid@@@Z @ 1598
?Parse@@YAHPBG0AAVFName@@@Z @ 1599
?Parse@@YAHPBG0AAVFString@@PAG@Z @ 1600
?Parse@@YAHPBG0AA_J@Z @ 1601
?Parse@@YAHPBG0AA_K@Z @ 1602
?Parse@@YAHPBG0PAGH1@Z @ 1603
?ParseCommand@@YAHPAPBGPBG@Z @ 1604
?ParseIntoArray@FString@@QBEHPBGPAV?$TArray@VFString@@@@@Z @ 1605
?ParseLine@@YAHPAPBGAAVFString@@H@Z @ 1606
?ParseLine@@YAHPAPBGPAGHH@Z @ 1607
?ParseNext@@YAXPAPBG@Z @ 1608
?ParseObject@@YAHPBG0PAVUClass@@AAPAVUObject@@PAV2@@Z @ 1609
?ParseParam@@YAHPBG0@Z @ 1610
?ParseParms@UObject@@QAEXPBG@Z @ 1611
?ParseToken@@YA?AVFString@@AAPBGH@Z @ 1612
?ParseToken@@YAHAAPBGAAVFString@@H@Z @ 1613
?ParseToken@@YAHAAPBGPAGHH@Z @ 1614
?ParseUBOOL@@YAHPBG0AAH@Z @ 1615
?PhysicalAlloc@FMalloc@@UAEPAXKW4ECacheBehaviour@@@Z @ 1616
?PhysicalFree@FMalloc@@UAEXPAX@Z @ 1617
?PivotInverse@FCoords@@QBE?AV1@XZ @ 1618
?PivotTransform@FVector@@QBE?AV1@ABVFCoords@@@Z @ 1619
?PlaneDot@FPlane@@QBEMABVFVector@@@Z @ 1620
?Plus@FBtrDouble@@QAE?AV1@V1@@Z @ 1621
?Pop@?$TArray@G@@QAEGXZ @ 1622
?Pop@FBitWriterMark@@QAEXAAUFBitWriter@@@Z @ 1623
?Pop@FMemMark@@QAEXXZ @ 1624
?Port@UProperty@@UBEHXZ @ 1625
?PostEditChange@UObject@@UAEXXZ @ 1626
?PostEditUndo@UObject@@UAEXXZ @ 1627
?PostLoad@UClass@@UAEXXZ @ 1628
?PostLoad@UField@@UAEXXZ @ 1629
?PostLoad@UFunction@@UAEXXZ @ 1630
?PostLoad@UObject@@UAEXXZ @ 1631
?PostLoad@UStruct@@UAEXXZ @ 1632
?PreEditUndo@UObject@@UAEXXZ @ 1633
?Precache@FArchive@@UAEXH@Z @ 1634
?Preload@FArchive@@UAEXPAVUObject@@@Z @ 1635
?Printf@FString@@SA?AV1@PBGZZ @ 1636
?PrivateStaticClass@UArrayProperty@@0VUClass@@A @ 1637
?PrivateStaticClass@UBoolProperty@@0VUClass@@A @ 1638
?PrivateStaticClass@UByteProperty@@0VUClass@@A @ 1639
?PrivateStaticClass@UClass@@0V1@A @ 1640
?PrivateStaticClass@UClassProperty@@0VUClass@@A @ 1641
?PrivateStaticClass@UCommandlet@@0VUClass@@A @ 1642
?PrivateStaticClass@UConst@@0VUClass@@A @ 1643
?PrivateStaticClass@UDelegateProperty@@0VUClass@@A @ 1644
?PrivateStaticClass@UEnum@@0VUClass@@A @ 1645
?PrivateStaticClass@UExporter@@0VUClass@@A @ 1646
?PrivateStaticClass@UFactory@@0VUClass@@A @ 1647
?PrivateStaticClass@UField@@0VUClass@@A @ 1648
?PrivateStaticClass@UFixedArrayProperty@@0VUClass@@A @ 1649
?PrivateStaticClass@UFloatProperty@@0VUClass@@A @ 1650
?PrivateStaticClass@UFunction@@0VUClass@@A @ 1651
?PrivateStaticClass@UIntProperty@@0VUClass@@A @ 1652
?PrivateStaticClass@ULanguage@@0VUClass@@A @ 1653
?PrivateStaticClass@ULinker@@0VUClass@@A @ 1654
?PrivateStaticClass@UMapProperty@@0VUClass@@A @ 1655
?PrivateStaticClass@UNameProperty@@0VUClass@@A @ 1656
?PrivateStaticClass@UObject@@0VUClass@@A @ 1657
?PrivateStaticClass@UObjectExporterT3D@@0VUClass@@A @ 1658
?PrivateStaticClass@UObjectProperty@@0VUClass@@A @ 1659
?PrivateStaticClass@UPackage@@0VUClass@@A @ 1660
?PrivateStaticClass@UPackageMap@@0VUClass@@A @ 1661
?PrivateStaticClass@UPointerProperty@@0VUClass@@A @ 1662
?PrivateStaticClass@UProperty@@0VUClass@@A @ 1663
?PrivateStaticClass@UState@@0VUClass@@A @ 1664
?PrivateStaticClass@UStrProperty@@0VUClass@@A @ 1665
?PrivateStaticClass@UStruct@@0VUClass@@A @ 1666
?PrivateStaticClass@UStructProperty@@0VUClass@@A @ 1667
?PrivateStaticClass@USubsystem@@0VUClass@@A @ 1668
?PrivateStaticClass@USystem@@0VUClass@@A @ 1669
?PrivateStaticClass@UTextBuffer@@0VUClass@@A @ 1670
?PrivateStaticClass@UTextBufferFactory@@0VUClass@@A @ 1671
?ProcessDelegate@UObject@@UAEXVFName@@PAUFScriptDelegate@@PAX2@Z @ 1672
?ProcessEvent@UObject@@UAEXPAVUFunction@@PAX1@Z @ 1673
?ProcessInternal@UObject@@QAEXAAUFFrame@@QAX@Z @ 1674
?ProcessRegistrants@UObject@@SAXXZ @ 1675
?ProcessRemoteFunction@UObject@@UAEHPAVUFunction@@PAXPAUFFrame@@@Z @ 1676
?ProcessState@UObject@@UAEXM@Z @ 1677
?Projection@FVector@@QBE?AV1@XZ @ 1678
?PurgeGarbage@UObject@@CAXXZ @ 1679
?PushBytes@FMemStack@@QAEPAEHH@Z @ 1680
?QueryInterface@FUnknown@@UAGKABVFGuid@@PAPAX@Z @ 1681
?QueryInterface@UObject@@UAGKABVFGuid@@PAPAX@Z @ 1682
?QuickMD5@ULinker@@QAE?AVFString@@XZ @ 1683
?ReadBit@FBitReader@@QAEEXZ @ 1684
?ReadFloat@FFrame@@QAEMXZ @ 1685
?ReadInt@FBitReader@@QAEKK@Z @ 1686
?ReadInt@FFrame@@QAEHXZ @ 1687
?ReadName@FFrame@@QAE?AVFName@@XZ @ 1688
?ReadObject@FFrame@@QAEPAVUObject@@XZ @ 1689
?ReadWord@FFrame@@QAEHXZ @ 1690
?Realloc@FArray@@IAEXH@Z @ 1691
?Reduce@FRotator@@QBE?AV1@XZ @ 1692
?Register@UClass@@UAEXXZ @ 1693
?Register@UField@@UAEXXZ @ 1694
?Register@UObject@@UAEXXZ @ 1695
?Register@UStruct@@UAEXXZ @ 1696
?Release@FUnknown@@UAGKXZ @ 1697
?Release@UObject@@UAGKXZ @ 1698
?Remove@?$TArray@G@@QAEXHH@Z @ 1699
?Remove@FArray@@QAEXHHH@Z @ 1700
?RemoveFromRoot@UObject@@QAEXXZ @ 1701
?RemoveItem@?$TArray@G@@QAEHABG@Z @ 1702
?RemoveScaling@FMatrix@@QAE?AV1@XZ @ 1703
?Rename@UObject@@UAEXPBGPAV1@@Z @ 1704
?Replace@FString@@QAE?AV1@PBG0@Z @ 1705
?Reset@FScriptCallGraph@@QAEXK@Z @ 1706
?ResetConfig@UObject@@SAXPAVUClass@@PBG@Z @ 1707
?ResetLoaders@UObject@@SAXPAV1@HH@Z @ 1708
?ResolveName@UObject@@CAHAAPAV1@AAPBGHH@Z @ 1709
?Reverse@FString@@QAE?AV1@XZ @ 1710
?Right@FString@@QBE?AV1@H@Z @ 1711
?RightPad@FString@@QAE?AV1@H@Z @ 1712
?RotateAngleAxis@FVector@@QBE?AV1@HABV1@@Z @ 1713
?RotateVector@FQuat@@QAE?AVFVector@@V2@@Z @ 1714
?Rotation@FVector@@QAE?AVFRotator@@XZ @ 1715
?SafeLoadError@UObject@@CAXKPBG0ZZ @ 1716
?SafeNormal@FVector@@QBE?AV1@XZ @ 1717
?SafeString@FName@@SAPBGW4EName@@@Z @ 1718
?SafeSuppressed@FName@@SAHW4EName@@@Z @ 1719
?SaveConfig@UObject@@QAEXKPBG@Z @ 1720
?SavePackage@UObject@@SAHPAV1@0KPBGPAVFOutputDevice@@PAVULinkerLoad@@@Z @ 1721
?ScriptConsoleExec@UObject@@UAEHPBGAAVFOutputDevice@@PAV1@@Z @ 1722
?ScriptInit@UObject@@UAEXPAVALevelInfo@@@Z @ 1723
?Seek@FArchive@@UAEXH@Z @ 1724
?Seek@FBufferReader@@UAEXH@Z @ 1725
?Serialize@FArchive@@UAEXPAXH@Z @ 1726
?Serialize@FBitReader@@UAEXPAXH@Z @ 1727
?Serialize@FBitWriter@@UAEXPAXH@Z @ 1728
?Serialize@FBufferReader@@UAEXPAXH@Z @ 1729
?Serialize@FCombatSituationOut@@UAEXPBGW4EName@@@Z @ 1730
?Serialize@FCrashLogOutError@@UAEXPBGW4EName@@@Z @ 1731
?Serialize@FErrorOutError@@UAEXPBGW4EName@@@Z @ 1732
?Serialize@FFrame@@UAEXPBGW4EName@@@Z @ 1733
?Serialize@FLogOutError@@UAEXPBGW4EName@@@Z @ 1734
?Serialize@FNullOutError@@UAEXPBGW4EName@@@Z @ 1735
?Serialize@FScriptCallGraph@@QAEXAAVFArchive@@@Z @ 1736
?Serialize@FThrowOut@@UAEXPBGW4EName@@@Z @ 1737
?Serialize@UArrayProperty@@UAEXAAVFArchive@@@Z @ 1738
?Serialize@UBoolProperty@@UAEXAAVFArchive@@@Z @ 1739
?Serialize@UByteProperty@@UAEXAAVFArchive@@@Z @ 1740
?Serialize@UClass@@UAEXAAVFArchive@@@Z @ 1741
?Serialize@UClassProperty@@UAEXAAVFArchive@@@Z @ 1742
?Serialize@UConst@@UAEXAAVFArchive@@@Z @ 1743
?Serialize@UDelegateProperty@@UAEXAAVFArchive@@@Z @ 1744
?Serialize@UEnum@@UAEXAAVFArchive@@@Z @ 1745
?Serialize@UExporter@@UAEXAAVFArchive@@@Z @ 1746
?Serialize@UFactory@@UAEXAAVFArchive@@@Z @ 1747
?Serialize@UField@@UAEXAAVFArchive@@@Z @ 1748
?Serialize@UFixedArrayProperty@@UAEXAAVFArchive@@@Z @ 1749
?Serialize@UFunction@@UAEXAAVFArchive@@@Z @ 1750
?Serialize@ULinker@@UAEXAAVFArchive@@@Z @ 1751
?Serialize@UMapProperty@@UAEXAAVFArchive@@@Z @ 1752
?Serialize@UObject@@UAEXAAVFArchive@@@Z @ 1753
?Serialize@UObjectProperty@@UAEXAAVFArchive@@@Z @ 1754
?Serialize@UPackage@@UAEXAAVFArchive@@@Z @ 1755
?Serialize@UPackageMap@@UAEXAAVFArchive@@@Z @ 1756
?Serialize@UProperty@@UAEXAAVFArchive@@@Z @ 1757
?Serialize@UState@@UAEXAAVFArchive@@@Z @ 1758
?Serialize@UStrProperty@@UAEXAAVFArchive@@@Z @ 1759
?Serialize@UStruct@@UAEXAAVFArchive@@@Z @ 1760
?Serialize@UStructProperty@@UAEXAAVFArchive@@@Z @ 1761
?Serialize@UTextBuffer@@UAEXAAVFArchive@@@Z @ 1762
?Serialize@UTextBuffer@@UAEXPBGW4EName@@@Z @ 1763
?SerializeBin@UStruct@@UAEXAAVFArchive@@PAEH@Z @ 1764
?SerializeBits@FArchive@@UAEXPAXH@Z @ 1765
?SerializeBits@FBitReader@@UAEXPAXH@Z @ 1766
?SerializeBits@FBitWriter@@UAEXPAXH@Z @ 1767
?SerializeExpr@UStruct@@UAE?AW4EExprToken@@AAHAAVFArchive@@@Z @ 1768
?SerializeInt@FArchive@@UAEXAAKK@Z @ 1769
?SerializeInt@FBitReader@@UAEXAAKK@Z @ 1770
?SerializeInt@FBitWriter@@UAEXAAKK@Z @ 1771
?SerializeItem@UArrayProperty@@UBEXAAVFArchive@@PAXH@Z @ 1772
?SerializeItem@UBoolProperty@@UBEXAAVFArchive@@PAXH@Z @ 1773
?SerializeItem@UByteProperty@@UBEXAAVFArchive@@PAXH@Z @ 1774
?SerializeItem@UDelegateProperty@@UBEXAAVFArchive@@PAXH@Z @ 1775
?SerializeItem@UFixedArrayProperty@@UBEXAAVFArchive@@PAXH@Z @ 1776
?SerializeItem@UFloatProperty@@UBEXAAVFArchive@@PAXH@Z @ 1777
?SerializeItem@UIntProperty@@UBEXAAVFArchive@@PAXH@Z @ 1778
?SerializeItem@UMapProperty@@UBEXAAVFArchive@@PAXH@Z @ 1779
?SerializeItem@UNameProperty@@UBEXAAVFArchive@@PAXH@Z @ 1780
?SerializeItem@UObjectProperty@@UBEXAAVFArchive@@PAXH@Z @ 1781
?SerializeItem@UPointerProperty@@UBEXAAVFArchive@@PAXH@Z @ 1782
?SerializeItem@UStrProperty@@UBEXAAVFArchive@@PAXH@Z @ 1783
?SerializeItem@UStructProperty@@UBEXAAVFArchive@@PAXH@Z @ 1784
?SerializeName@UPackageMap@@UAEHAAVFArchive@@AAVFName@@@Z @ 1785
?SerializeObject@UPackageMap@@UAEHAAVFArchive@@PAVUClass@@AAPAVUObject@@@Z @ 1786
?SerializeRootSet@UObject@@SAXAAVFArchive@@KK@Z @ 1787
?SerializeTaggedProperties@UStruct@@UAEXAAVFArchive@@PAEPAVUClass@@@Z @ 1788
?SetClass@UObject@@QAEXPAVUClass@@@Z @ 1789
?SetData@FBitReader@@QAEXAAU1@H@Z @ 1790
?SetExtra@FCacheItem@FMemCache@@QAEXE@Z @ 1791
?SetFileVersions@FPackageFileSummary@@QAEXHH@Z @ 1792
?SetFlags@FName@@QBEXK@Z @ 1793
?SetFlags@UObject@@QAEXK@Z @ 1794
?SetIdentity@FMatrix@@QAEXXZ @ 1795
?SetLanguage@UObject@@SAXPBG@Z @ 1796
?SetLinker@UObject@@UAEXPAVULinkerLoad@@H@Z @ 1797
?SetOverflowed@FBitReader@@QAEXXZ @ 1798
?SetOverflowed@FBitWriter@@QAEXXZ @ 1799
?SetPropertiesSize@UStruct@@QAEXH@Z @ 1800
?SetSize@?$TArray@G@@QAEXH@Z @ 1801
?SetSize@FArray@@QAEXHH@Z @ 1802
?SetStopper@FArchive@@UAEXH@Z @ 1803
?ShouldSerializeValue@UProperty@@QBEHAAVFArchive@@@Z @ 1804
?Shrink@?$TArray@G@@QAEXXZ @ 1805
?Shrink@FArray@@QAEXH@Z @ 1806
?Shrink@FString@@QAEXXZ @ 1807
?ShutdownAfterError@UObject@@UAEXXZ @ 1808
?SinFloat@FGlobalMath@@QAEMM@Z @ 1809
?SinTab@FGlobalMath@@QAEMH@Z @ 1810
?Size2D@FVector@@QBEMXZ @ 1811
?Size@FRange@@QBEMXZ @ 1812
?Size@FVector@@QBEMXZ @ 1813
?SizeSquared2D@FVector@@QBEMXZ @ 1814
?SizeSquared@FVector@@QBEMXZ @ 1815
?Split@FString@@QBEHABV1@PAV1@1H@Z @ 1816
?Sqrt@FGlobalMath@@QAEMH@Z @ 1817
?StaticAllocateObject@UObject@@SAPAV1@PAVUClass@@PAV1@VFName@@K1PAVFOutputDevice@@11@Z @ 1818
?StaticClass@UArrayProperty@@SAPAVUClass@@XZ @ 1819
?StaticClass@UBoolProperty@@SAPAVUClass@@XZ @ 1820
?StaticClass@UByteProperty@@SAPAVUClass@@XZ @ 1821
?StaticClass@UClass@@SAPAV1@XZ @ 1822
?StaticClass@UClassProperty@@SAPAVUClass@@XZ @ 1823
?StaticClass@UCommandlet@@SAPAVUClass@@XZ @ 1824
?StaticClass@UConst@@SAPAVUClass@@XZ @ 1825
?StaticClass@UDelegateProperty@@SAPAVUClass@@XZ @ 1826
?StaticClass@UEnum@@SAPAVUClass@@XZ @ 1827
?StaticClass@UExporter@@SAPAVUClass@@XZ @ 1828
?StaticClass@UFactory@@SAPAVUClass@@XZ @ 1829
?StaticClass@UField@@SAPAVUClass@@XZ @ 1830
?StaticClass@UFixedArrayProperty@@SAPAVUClass@@XZ @ 1831
?StaticClass@UFloatProperty@@SAPAVUClass@@XZ @ 1832
?StaticClass@UFunction@@SAPAVUClass@@XZ @ 1833
?StaticClass@UIntProperty@@SAPAVUClass@@XZ @ 1834
?StaticClass@ULanguage@@SAPAVUClass@@XZ @ 1835
?StaticClass@ULinker@@SAPAVUClass@@XZ @ 1836
?StaticClass@UMapProperty@@SAPAVUClass@@XZ @ 1837
?StaticClass@UNameProperty@@SAPAVUClass@@XZ @ 1838
?StaticClass@UObject@@SAPAVUClass@@XZ @ 1839
?StaticClass@UObjectExporterT3D@@SAPAVUClass@@XZ @ 1840
?StaticClass@UObjectProperty@@SAPAVUClass@@XZ @ 1841
?StaticClass@UPackage@@SAPAVUClass@@XZ @ 1842
?StaticClass@UPackageMap@@SAPAVUClass@@XZ @ 1843
?StaticClass@UPointerProperty@@SAPAVUClass@@XZ @ 1844
?StaticClass@UProperty@@SAPAVUClass@@XZ @ 1845
?StaticClass@UState@@SAPAVUClass@@XZ @ 1846
?StaticClass@UStrProperty@@SAPAVUClass@@XZ @ 1847
?StaticClass@UStruct@@SAPAVUClass@@XZ @ 1848
?StaticClass@UStructProperty@@SAPAVUClass@@XZ @ 1849
?StaticClass@USubsystem@@SAPAVUClass@@XZ @ 1850
?StaticClass@USystem@@SAPAVUClass@@XZ @ 1851
?StaticClass@UTextBuffer@@SAPAVUClass@@XZ @ 1852
?StaticClass@UTextBufferFactory@@SAPAVUClass@@XZ @ 1853
?StaticConfigName@UObject@@SAPBGXZ @ 1854
?StaticConstructObject@UObject@@SAPAV1@PAVUClass@@PAV1@VFName@@K1PAVFOutputDevice@@1@Z @ 1855
?StaticConstructor@UExporter@@QAEXXZ @ 1856
?StaticConstructor@UFactory@@QAEXXZ @ 1857
?StaticConstructor@UObject@@QAEXXZ @ 1858
?StaticConstructor@UObjectExporterT3D@@QAEXXZ @ 1859
?StaticConstructor@USystem@@QAEXXZ @ 1860
?StaticConstructor@UTextBufferFactory@@QAEXXZ @ 1861
?StaticExec@UObject@@SAHPBGAAVFOutputDevice@@@Z @ 1862
?StaticExit@FName@@SAXXZ @ 1863
?StaticExit@UObject@@SAXXZ @ 1864
?StaticFindObject@UObject@@SAPAV1@PAVUClass@@PAV1@PBGH@Z @ 1865
?StaticFindObjectChecked@UObject@@SAPAV1@PAVUClass@@PAV1@PBGH@Z @ 1866
?StaticImportObject@UFactory@@SAPAVUObject@@PAVULevel@@PAVUClass@@PAV2@VFName@@KPBG2PAV1@4PAVFFeedbackContext@@@Z @ 1867
?StaticInit@FName@@SAXXZ @ 1868
?StaticInit@UObject@@SAXXZ @ 1869
?StaticLoadClass@UObject@@SAPAVUClass@@PAV2@PAV1@PBG2KPAVUPackageMap@@@Z @ 1870
?StaticLoadObject@UObject@@SAPAV1@PAVUClass@@PAV1@PBG2KPAVUPackageMap@@@Z @ 1871
?StaticShutdownAfterError@UObject@@SAXXZ @ 1872
?StaticTick@UObject@@SAXXZ @ 1873
?Status@FMemCache@@QAEXPAG@Z @ 1874
?Step@FFrame@@QAEXPAVUObject@@QAX@Z @ 1875
?String@FGuid@@QBEPAGXZ @ 1876
?StructCompare@UStruct@@QAEHPBX0@Z @ 1877
?SupportsPackage@UPackageMap@@UAEHPAVUObject@@@Z @ 1878
?Tell@FArchive@@UAEHXZ @ 1879
?Tell@FBufferReader@@UAEHXZ @ 1880
?ThisContainsCode@FArchive@@QAEXXZ @ 1881
?Tick@FMalloc@@UAEXM@Z @ 1882
?Tick@FMemCache@@QAEXXZ @ 1883
?Tick@FMemStack@@QBEXXZ @ 1884
?Tick@FScriptCallGraph@@QAEXXZ @ 1885
?Tick@USubsystem@@UAEXM@Z @ 1886
?TotalSize@FArchive@@UAEHXZ @ 1887
?TotalSize@FBufferReader@@UAEHXZ @ 1888
?TransformBy@FBox@@QBE?AV1@ABVFCoords@@@Z @ 1889
?TransformBy@FBox@@QBE?AV1@ABVFMatrix@@@Z @ 1890
?TransformBy@FPlane@@QBE?AV1@ABVFCoords@@@Z @ 1891
?TransformBy@FPlane@@QBE?AV1@ABVFMatrix@@@Z @ 1892
?TransformBy@FSphere@@QBE?AV1@ABVFMatrix@@@Z @ 1893
?TransformByUsingAdjointT@FPlane@@QBE?AV1@ABVFMatrix@@M0@Z @ 1894
?TransformFPlane@FMatrix@@QBE?AVFPlane@@ABV2@@Z @ 1895
?TransformFVector@FMatrix@@QBE?AVFVector@@ABV2@@Z @ 1896
?TransformNormal@FMatrix@@QBE?AVFPlane@@ABVFVector@@@Z @ 1897
?TransformPlaneByOrtho@FPlane@@QBE?AV1@ABVFCoords@@@Z @ 1898
?TransformPlaneByOrtho@FPlane@@QBE?AV1@ABVFMatrix@@@Z @ 1899
?TransformPointBy@FVector@@QBE?AV1@ABVFCoords@@@Z @ 1900
?TransformVectorBy@FVector@@QBE?AV1@ABVFCoords@@@Z @ 1901
?TransformVectorByTranspose@FVector@@QBE?AV1@ABVFCoords@@@Z @ 1902
?Transpose@FCoords@@QBE?AV1@XZ @ 1903
?Transpose@FMatrix@@QAE?AV1@XZ @ 1904
?TransposeAdjoint@FMatrix@@QBE?AV1@XZ @ 1905
?TrimMemory@FMalloc@@UAEHKH@Z @ 1906
?Unhash@FMemCache@@AAEX_K@Z @ 1907
?UnhashObject@UObject@@AAEXH@Z @ 1908
?Unlock@FCacheItem@FMemCache@@QAEXXZ @ 1909
?Unlock@FCriticalSection@@QAEXXZ @ 1910
?UnsafeNormal@FVector@@QBE?AV1@XZ @ 1911
?Vector@FRotator@@QAE?AVFVector@@XZ @ 1912
?Ver@FArchive@@QAEHXZ @ 1913
?VerifyLinker@UObject@@SAXPAVULinkerLoad@@@Z @ 1914
?WriteBit@FBitWriter@@QAEXE@Z @ 1915
?WriteInt@FBitWriter@@QAEXKK@Z @ 1916
?__FUNC_NAME__@?2???3UObject@@SAXPAXI@Z@4QBGB @ 1917
?__FUNC_NAME__@?2??AddDependency@UClass@@QAEXPAV2@H@Z@4QBGB @ 1918
?__FUNC_NAME__@?2??Clamp@FRotator@@QAE?AV2@XZ@4QBGB @ 1919
?__FUNC_NAME__@?2??ClampPos@FRotator@@QAE?AV2@XZ@4QBGB @ 1920
?__FUNC_NAME__@?2??HexValue@FString@@QAEHXZ@4QBGB @ 1921
?__FUNC_NAME__@?2??ParseIntoArray@FString@@QBEHPBGPAV?$TArray@VFString@@@@@Z@4QBGB @ 1922
?__FUNC_NAME__@?2??Reverse@FString@@QAE?AV2@XZ@4QBGB @ 1923
?appAnsiStaticString1024@@YAPADXZ @ 1924
?appAtof@@YAMPBG@Z @ 1925
?appAtoi@@YAHPBG@Z @ 1926
?appBaseDir@@YAPBGXZ @ 1927
?appCeilLogTwo@@YAEK@Z @ 1928
?appCheckPackageFileGUID@@YAHPBGPBVFGuid@@@Z @ 1929
?appCleanFileCache@@YAXXZ @ 1930
?appClipboardCopy@@YAXPBG@Z @ 1931
?appClipboardPaste@@YA?AVFString@@XZ @ 1932
?appCloseHandle@@YAHPAX@Z @ 1933
?appCmdLine@@YAPBGXZ @ 1934
?appComputerName@@YAPBGXZ @ 1935
?appCreateBitmap@@YAHPBGHHPAKPAVFFileManager@@@Z @ 1936
?appCreateGuid@@YA?AVFGuid@@XZ @ 1937
?appCreateProc@@YAPAXPBG0@Z @ 1938
?appCreateTempFilename@@YAXPBGPAG@Z @ 1939
?appCreateThread@@YAPAXPAXK00KPAK@Z @ 1940
?appDebugBreak@@YAXXZ @ 1941
?appDebugMessagef@@YAXPBGZZ @ 1942
?appExit@@YAXXZ @ 1943
?appExitThread@@YAXK@Z @ 1944
?appFExt@@YAPBGPBG@Z @ 1945
?appFailAssert@@YAXPBD0H@Z @ 1946
?appFindPackageFile@@YAHPBGPBVFGuid@@PAGH@Z @ 1947
?appFormat@@YA?AVFString@@V1@ABV?$TMultiMap@VFString@@V1@@@@Z @ 1948
?appFreeDllHandle@@YAXPAX@Z @ 1949
?appFromAnsi@@YAPBGPBDPAGH@Z @ 1950
?appFromUnicode@@YAPBGPBGPAGH@Z @ 1951
?appGetCurrentThread@@YAPAXXZ @ 1952
?appGetCurrentThreadId@@YAKXZ @ 1953
?appGetDllExport@@YAPAXPAXPBG@Z @ 1954
?appGetDllHandle@@YAPAXPBG@Z @ 1955
?appGetGMTRef@@YA?AVFString@@XZ @ 1956
?appGetLastError@@YAXXZ @ 1957
?appGetProcReturnCode@@YAHPAXPAH@Z @ 1958
?appGetSystemErrorMessage@@YAPBGH@Z @ 1959
?appInit@@YAXPBG0PAVFMalloc@@PAVFOutputDevice@@PAVFOutputDeviceError@@PAVFFeedbackContext@@PAVFFileManager@@P6APAVFConfigCache@@XZH22@Z @ 1960
?appInterlockedAdd@@YAHPCHH@Z @ 1961
?appInterlockedCompareExchange@@YAHPAHHH@Z @ 1962
?appInterlockedCompareExchangePointer@@YAPAXPAPAXPAX1@Z @ 1963
?appInterlockedDecrement@@YAHPCH@Z @ 1964
?appInterlockedExchange@@YAHPCHH@Z @ 1965
?appInterlockedIncrement@@YAHPCH@Z @ 1966
?appIsDebuggerPresent@@YAHXZ @ 1967
?appIsOnConsole@@YAHXZ @ 1968
?appIsPureAnsi@@YAHPBG@Z @ 1969
?appItoa@@YAPAGH@Z @ 1970
?appLaunchURL@@YAXPBG0PAVFString@@@Z @ 1971
?appLoadEncryptFileToArray@@YAHAAV?$TArray@E@@PBGPAVFFileManager@@KH@Z @ 1972
?appLoadFileToArray@@YAHAAV?$TArray@E@@PBGPAVFFileManager@@KH@Z @ 1973
?appLoadFileToString@@YAHAAVFString@@PBGPAVFFileManager@@KH@Z @ 1974
?appLoadOriginalFileToArray@@YAHAAV?$TArray@E@@PBGPAVFFileManager@@KH@Z @ 1975
?appMD5Decode@@YAXPAKPAEH@Z @ 1976
?appMD5Encode@@YAXPAEPAKH@Z @ 1977
?appMD5Final@@YAXPAEPAUFMD5Context@@@Z @ 1978
?appMD5Init@@YAXPAUFMD5Context@@@Z @ 1979
?appMD5Transform@@YAXPAKPAE@Z @ 1980
?appMD5Update16@@YAXPAUFMD5Context@@G@Z @ 1981
?appMD5Update32@@YAXPAUFMD5Context@@H@Z @ 1982
?appMD5Update32@@YAXPAUFMD5Context@@K@Z @ 1983
?appMD5Update@@YAXPAUFMD5Context@@PAEH@Z @ 1984
?appMemCrc@@YAKPBXHK@Z @ 1985
?appMemIsZero@@YAHPBXH@Z @ 1986
?appMemcmp@@YAHPBX0H@Z @ 1987
?appMemmove@@YAPAXPAXPBXH@Z @ 1988
?appMemset@@YAXPAXHH@Z @ 1989
?appMemswap@@YAXPAX0K@Z @ 1990
?appMsgf@@YA?BHHPBGZZ @ 1991
?appMyDocumentDir@@YAPBGXZ @ 1992
?appPackage@@YAPBGXZ @ 1993
?appPreExit@@YAXXZ @ 1994
?appQsort@@YAXPAXHHP6AHPBX1@Z@Z @ 1995
?appQtoa@@YAPAG_KH@Z @ 1996
?appRequestExit@@YAXH@Z @ 1997
?appSRand@@YAMXZ @ 1998
?appSRandInit@@YAXH@Z @ 1999
?appSaveArrayToFile@@YAHABV?$TArray@E@@PBGPAVFFileManager@@KH@Z @ 2000
?appSaveEncrpytArrayToFile@@YAHABV?$TArray@E@@PBGPAVFFileManager@@KH@Z @ 2001
?appSaveOriginalArrayToFile@@YAHABV?$TArray@E@@PBGPAVFFileManager@@KH@Z @ 2002
?appSaveStringToFile@@YAHABVFString@@PBGPAVFFileManager@@KH@Z @ 2003
?appSeconds@@YAN_N@Z @ 2004
?appSecondsBtr@@YANXZ @ 2005
?appSecondsSlow@@YANXZ @ 2006
?appSleep@@YAXM@Z @ 2007
?appSpc@@YAPBGH@Z @ 2008
?appSprintf@@YAHPAGPBGZZ @ 2009
?appStaticString1024@@YAPAGXZ @ 2010
?appStrCrc@@YAKPBG@Z @ 2011
?appStrCrcCaps@@YAKPBG@Z @ 2012
?appStrPrefix@@YAHPBG0@Z @ 2013
?appStrcat@@YAPAGPAGPBG@Z @ 2014
?appStrchr@@YAPAGPBGH@Z @ 2015
?appStrcmp@@YAHPBG0@Z @ 2016
?appStrcpy@@YAPAGPAGPBG@Z @ 2017
?appStrfind@@YAPBGPBG0@Z @ 2018
?appStricmp@@YAHPBG0@Z @ 2019
?appStrlen@@YAHPBG@Z @ 2020
?appStrncat@@YAPAGPAGPBGH@Z @ 2021
?appStrncmp@@YAHPBG0H@Z @ 2022
?appStrncpy@@YAPAGPAGPBGH@Z @ 2023
?appStrnicmp@@YAHPBG0H@Z @ 2024
?appStrstr@@YAPAGPBG0@Z @ 2025
?appStrtoi@@YAHPBGPAPAGH@Z @ 2026
?appStrtok@@YAPAGPAGPBG@Z @ 2027
?appStrtoq@@YA_KPBGPAPAGH@Z @ 2028
?appStrupr@@YAPAGPAG@Z @ 2029
?appSystemTime@@YAXAAH0000000@Z @ 2030
?appSystemTimeLog@@YAXXZ @ 2031
?appThrowf@@YAXPBGZZ @ 2032
?appTimestamp@@YAPBGXZ @ 2033
?appToAnsi@@YAPBDPBGPADH@Z @ 2034
?appToUnicode@@YAPBGPBGPAGH@Z @ 2035
?appTrimSpaces@@YAXPAD@Z @ 2036
?appURLDownloadToFile@@YAHPBG0@Z @ 2037
?appUnwindf@@YAXPBGZZ @ 2038
?appUpdateFileModTime@@YAHPAG@Z @ 2039
?appUserName@@YAPBGXZ @ 2040
?eventBeginState@UObject@@QAEXXZ @ 2041
?eventCreated@UObject@@QAEXXZ @ 2042
?eventEndState@UObject@@QAEXXZ @ 2043
?eventMain@UCommandlet@@QAEHABVFString@@@Z @ 2044
?execAbs@UObject@@QAEXAAUFFrame@@QAX@Z @ 2045
?execAcos@UObject@@QAEXAAUFFrame@@QAX@Z @ 2046
?execAddAdd_Byte@UObject@@QAEXAAUFFrame@@QAX@Z @ 2047
?execAddAdd_Int@UObject@@QAEXAAUFFrame@@QAX@Z @ 2048
?execAddAdd_PreByte@UObject@@QAEXAAUFFrame@@QAX@Z @ 2049
?execAddAdd_PreInt@UObject@@QAEXAAUFFrame@@QAX@Z @ 2050
?execAddEqual_BtrDoubleBtrDouble@UObject@@QAEXAAUFFrame@@QAX@Z @ 2051
?execAddEqual_ByteByte@UObject@@QAEXAAUFFrame@@QAX@Z @ 2052
?execAddEqual_FloatFloat@UObject@@QAEXAAUFFrame@@QAX@Z @ 2053
?execAddEqual_IntInt@UObject@@QAEXAAUFFrame@@QAX@Z @ 2054
?execAddEqual_RotatorRotator@UObject@@QAEXAAUFFrame@@QAX@Z @ 2055
?execAddEqual_VectorVector@UObject@@QAEXAAUFFrame@@QAX@Z @ 2056
?execAdd_BtrDoubleBtrDouble@UObject@@QAEXAAUFFrame@@QAX@Z @ 2057
?execAdd_BtrDoubleFLOAT@UObject@@QAEXAAUFFrame@@QAX@Z @ 2058
?execAdd_BtrDoubleINT@UObject@@QAEXAAUFFrame@@QAX@Z @ 2059
?execAdd_FloatFloat@UObject@@QAEXAAUFFrame@@QAX@Z @ 2060
?execAdd_IntInt@UObject@@QAEXAAUFFrame@@QAX@Z @ 2061
?execAdd_RotatorRotator@UObject@@QAEXAAUFFrame@@QAX@Z @ 2062
?execAdd_VectorVector@UObject@@QAEXAAUFFrame@@QAX@Z @ 2063
?execAllObjects@UObject@@QAEXAAUFFrame@@QAX@Z @ 2064
?execAndAnd_BoolBool@UObject@@QAEXAAUFFrame@@QAX@Z @ 2065
?execAnd_IntInt@UObject@@QAEXAAUFFrame@@QAX@Z @ 2066
?execArrayElement@UObject@@QAEXAAUFFrame@@QAX@Z @ 2067
?execAsc@UObject@@QAEXAAUFFrame@@QAX@Z @ 2068
?execAsin@UObject@@QAEXAAUFFrame@@QAX@Z @ 2069
?execAssert@UObject@@QAEXAAUFFrame@@QAX@Z @ 2070
?execAtEqual_StringString@UObject@@QAEXAAUFFrame@@QAX@Z @ 2071
?execAt_StringString@UObject@@QAEXAAUFFrame@@QAX@Z @ 2072
?execAtan@UObject@@QAEXAAUFFrame@@QAX@Z @ 2073
?execBoolToByte@UObject@@QAEXAAUFFrame@@QAX@Z @ 2074
?execBoolToFloat@UObject@@QAEXAAUFFrame@@QAX@Z @ 2075
?execBoolToInt@UObject@@QAEXAAUFFrame@@QAX@Z @ 2076
?execBoolToString@UObject@@QAEXAAUFFrame@@QAX@Z @ 2077
?execBoolVariable@UObject@@QAEXAAUFFrame@@QAX@Z @ 2078
?execBtrDoubleGetToStr@UObject@@QAEXAAUFFrame@@QAX@Z @ 2079
?execBtrDoubleLessEqual@UObject@@QAEXAAUFFrame@@QAX@Z @ 2080
?execBtrDoubleMinus@UObject@@QAEXAAUFFrame@@QAX@Z @ 2081
?execBtrDoublePlus@UObject@@QAEXAAUFFrame@@QAX@Z @ 2082
?execBtrDoubleToBtrTime@UObject@@QAEXAAUFFrame@@QAX@Z @ 2083
?execBtrDoubleToInt@UObject@@QAEXAAUFFrame@@QAX@Z @ 2084
?execBtrTimeToBtrDouble@UObject@@QAEXAAUFFrame@@QAX@Z @ 2085
?execByteConst@UObject@@QAEXAAUFFrame@@QAX@Z @ 2086
?execByteToBool@UObject@@QAEXAAUFFrame@@QAX@Z @ 2087
?execByteToFloat@UObject@@QAEXAAUFFrame@@QAX@Z @ 2088
?execByteToInt@UObject@@QAEXAAUFFrame@@QAX@Z @ 2089
?execByteToString@UObject@@QAEXAAUFFrame@@QAX@Z @ 2090
?execCaps@UObject@@QAEXAAUFFrame@@QAX@Z @ 2091
?execCase@UObject@@QAEXAAUFFrame@@QAX@Z @ 2092
?execCeil@UObject@@QAEXAAUFFrame@@QAX@Z @ 2093
?execChr@UObject@@QAEXAAUFFrame@@QAX@Z @ 2094
?execClamp@UObject@@QAEXAAUFFrame@@QAX@Z @ 2095
?execClassContext@UObject@@QAEXAAUFFrame@@QAX@Z @ 2096
?execClassIsChildOf@UObject@@QAEXAAUFFrame@@QAX@Z @ 2097
?execClearConfig@UObject@@QAEXAAUFFrame@@QAX@Z @ 2098
?execClockwiseFrom_IntInt@UObject@@QAEXAAUFFrame@@QAX@Z @ 2099
?execCombatLog@UObject@@QAEXAAUFFrame@@QAX@Z @ 2100
?execComplementEqual_FloatFloat@UObject@@QAEXAAUFFrame@@QAX@Z @ 2101
?execComplementEqual_StringString@UObject@@QAEXAAUFFrame@@QAX@Z @ 2102
?execComplement_PreInt@UObject@@QAEXAAUFFrame@@QAX@Z @ 2103
?execConcatEqual_StringString@UObject@@QAEXAAUFFrame@@QAX@Z @ 2104
?execConcat_StringString@UObject@@QAEXAAUFFrame@@QAX@Z @ 2105
?execContext@UObject@@QAEXAAUFFrame@@QAX@Z @ 2106
?execCos@UObject@@QAEXAAUFFrame@@QAX@Z @ 2107
?execCrashLog@UObject@@QAEXAAUFFrame@@QAX@Z @ 2108
?execCross_VectorVector@UObject@@QAEXAAUFFrame@@QAX@Z @ 2109
?execDebugInfo@UObject@@QAEXAAUFFrame@@QAX@Z @ 2110
?execDefaultVariable@UObject@@QAEXAAUFFrame@@QAX@Z @ 2111
?execDelegateFunction@UObject@@QAEXAAUFFrame@@QAX@Z @ 2112
?execDelegateProperty@UObject@@QAEXAAUFFrame@@QAX@Z @ 2113
?execDisable@UObject@@QAEXAAUFFrame@@QAX@Z @ 2114
?execDivide@UObject@@QAEXAAUFFrame@@QAX@Z @ 2115
?execDivideEqual_BtrDoubleBtrDouble@UObject@@QAEXAAUFFrame@@QAX@Z @ 2116
?execDivideEqual_ByteByte@UObject@@QAEXAAUFFrame@@QAX@Z @ 2117
?execDivideEqual_FloatFloat@UObject@@QAEXAAUFFrame@@QAX@Z @ 2118
?execDivideEqual_IntFloat@UObject@@QAEXAAUFFrame@@QAX@Z @ 2119
?execDivideEqual_RotatorFloat@UObject@@QAEXAAUFFrame@@QAX@Z @ 2120
?execDivideEqual_VectorFloat@UObject@@QAEXAAUFFrame@@QAX@Z @ 2121
?execDivide_BtrDoubleBtrDouble@UObject@@QAEXAAUFFrame@@QAX@Z @ 2122
?execDivide_BtrDoubleFLOAT@UObject@@QAEXAAUFFrame@@QAX@Z @ 2123
?execDivide_BtrDoubleINT@UObject@@QAEXAAUFFrame@@QAX@Z @ 2124
?execDivide_FloatFloat@UObject@@QAEXAAUFFrame@@QAX@Z @ 2125
?execDivide_IntInt@UObject@@QAEXAAUFFrame@@QAX@Z @ 2126
?execDivide_RotatorFloat@UObject@@QAEXAAUFFrame@@QAX@Z @ 2127
?execDivide_VectorFloat@UObject@@QAEXAAUFFrame@@QAX@Z @ 2128
?execDot_VectorVector@UObject@@QAEXAAUFFrame@@QAX@Z @ 2129
?execDynArrayElement@UObject@@QAEXAAUFFrame@@QAX@Z @ 2130
?execDynArrayInsert@UObject@@QAEXAAUFFrame@@QAX@Z @ 2131
?execDynArrayLength@UObject@@QAEXAAUFFrame@@QAX@Z @ 2132
?execDynArrayRemove@UObject@@QAEXAAUFFrame@@QAX@Z @ 2133
?execDynamicCast@UObject@@QAEXAAUFFrame@@QAX@Z @ 2134
?execDynamicLoadObject@UObject@@QAEXAAUFFrame@@QAX@Z @ 2135
?execEatString@UObject@@QAEXAAUFFrame@@QAX@Z @ 2136
?execEnable@UObject@@QAEXAAUFFrame@@QAX@Z @ 2137
?execEndFunctionParms@UObject@@QAEXAAUFFrame@@QAX@Z @ 2138
?execEndOfScript@UObject@@QAEXAAUFFrame@@QAX@Z @ 2139
?execEqualEqual_BoolBool@UObject@@QAEXAAUFFrame@@QAX@Z @ 2140
?execEqualEqual_BtrDoubleBtrDouble@UObject@@QAEXAAUFFrame@@QAX@Z @ 2141
?execEqualEqual_BtrDoubleINT@UObject@@QAEXAAUFFrame@@QAX@Z @ 2142
?execEqualEqual_FloatFloat@UObject@@QAEXAAUFFrame@@QAX@Z @ 2143
?execEqualEqual_IntInt@UObject@@QAEXAAUFFrame@@QAX@Z @ 2144
?execEqualEqual_NameName@UObject@@QAEXAAUFFrame@@QAX@Z @ 2145
?execEqualEqual_ObjectObject@UObject@@QAEXAAUFFrame@@QAX@Z @ 2146
?execEqualEqual_RotatorRotator@UObject@@QAEXAAUFFrame@@QAX@Z @ 2147
?execEqualEqual_StringString@UObject@@QAEXAAUFFrame@@QAX@Z @ 2148
?execEqualEqual_VectorVector@UObject@@QAEXAAUFFrame@@QAX@Z @ 2149
?execEval@UObject@@QAEXAAUFFrame@@QAX@Z @ 2150
?execExp@UObject@@QAEXAAUFFrame@@QAX@Z @ 2151
?execFClamp@UObject@@QAEXAAUFFrame@@QAX@Z @ 2152
?execFMax@UObject@@QAEXAAUFFrame@@QAX@Z @ 2153
?execFMin@UObject@@QAEXAAUFFrame@@QAX@Z @ 2154
?execFRand@UObject@@QAEXAAUFFrame@@QAX@Z @ 2155
?execFalse@UObject@@QAEXAAUFFrame@@QAX@Z @ 2156
?execFinalFunction@UObject@@QAEXAAUFFrame@@QAX@Z @ 2157
?execFindObject@UObject@@QAEXAAUFFrame@@QAX@Z @ 2158
?execFloatConst@UObject@@QAEXAAUFFrame@@QAX@Z @ 2159
?execFloatToBool@UObject@@QAEXAAUFFrame@@QAX@Z @ 2160
?execFloatToByte@UObject@@QAEXAAUFFrame@@QAX@Z @ 2161
?execFloatToInt@UObject@@QAEXAAUFFrame@@QAX@Z @ 2162
?execFloatToString@UObject@@QAEXAAUFFrame@@QAX@Z @ 2163
?execGetAxes@UObject@@QAEXAAUFFrame@@QAX@Z @ 2164
?execGetEnum@UObject@@QAEXAAUFFrame@@QAX@Z @ 2165
?execGetErrMsg@UObject@@QAEXAAUFFrame@@QAX@Z @ 2166
?execGetLastErrCode@UObject@@QAEXAAUFFrame@@QAX@Z @ 2167
?execGetLocalTimeToBtrDouble@UObject@@QAEXAAUFFrame@@QAX@Z @ 2168
?execGetLocalTimeToBtrTime@UObject@@QAEXAAUFFrame@@QAX@Z @ 2169
?execGetPerObjectNames@UObject@@QAEXAAUFFrame@@QAX@Z @ 2170
?execGetPropertyText@UObject@@QAEXAAUFFrame@@QAX@Z @ 2171
?execGetReferencers@UObject@@QAEXAAUFFrame@@QAX@Z @ 2172
?execGetStateName@UObject@@QAEXAAUFFrame@@QAX@Z @ 2173
?execGetUnAxes@UObject@@QAEXAAUFFrame@@QAX@Z @ 2174
?execGlobalFunction@UObject@@QAEXAAUFFrame@@QAX@Z @ 2175
?execGotoLabel@UObject@@QAEXAAUFFrame@@QAX@Z @ 2176
?execGotoState@UObject@@QAEXAAUFFrame@@QAX@Z @ 2177
?execGreaterEqual_FloatFloat@UObject@@QAEXAAUFFrame@@QAX@Z @ 2178
?execGreaterEqual_IntInt@UObject@@QAEXAAUFFrame@@QAX@Z @ 2179
?execGreaterEqual_StringString@UObject@@QAEXAAUFFrame@@QAX@Z @ 2180
?execGreaterGreaterGreater_IntInt@UObject@@QAEXAAUFFrame@@QAX@Z @ 2181
?execGreaterGreater_IntInt@UObject@@QAEXAAUFFrame@@QAX@Z @ 2182
?execGreaterGreater_VectorRotator@UObject@@QAEXAAUFFrame@@QAX@Z @ 2183
?execGreater_FloatFloat@UObject@@QAEXAAUFFrame@@QAX@Z @ 2184
?execGreater_IntInt@UObject@@QAEXAAUFFrame@@QAX@Z @ 2185
?execGreater_StringString@UObject@@QAEXAAUFFrame@@QAX@Z @ 2186
?execHighNative0@UObject@@QAEXAAUFFrame@@QAX@Z @ 2187
?execHighNative10@UObject@@QAEXAAUFFrame@@QAX@Z @ 2188
?execHighNative11@UObject@@QAEXAAUFFrame@@QAX@Z @ 2189
?execHighNative12@UObject@@QAEXAAUFFrame@@QAX@Z @ 2190
?execHighNative13@UObject@@QAEXAAUFFrame@@QAX@Z @ 2191
?execHighNative14@UObject@@QAEXAAUFFrame@@QAX@Z @ 2192
?execHighNative15@UObject@@QAEXAAUFFrame@@QAX@Z @ 2193
?execHighNative1@UObject@@QAEXAAUFFrame@@QAX@Z @ 2194
?execHighNative2@UObject@@QAEXAAUFFrame@@QAX@Z @ 2195
?execHighNative3@UObject@@QAEXAAUFFrame@@QAX@Z @ 2196
?execHighNative4@UObject@@QAEXAAUFFrame@@QAX@Z @ 2197
?execHighNative5@UObject@@QAEXAAUFFrame@@QAX@Z @ 2198
?execHighNative6@UObject@@QAEXAAUFFrame@@QAX@Z @ 2199
?execHighNative7@UObject@@QAEXAAUFFrame@@QAX@Z @ 2200
?execHighNative8@UObject@@QAEXAAUFFrame@@QAX@Z @ 2201
?execHighNative9@UObject@@QAEXAAUFFrame@@QAX@Z @ 2202
?execInStr@UObject@@QAEXAAUFFrame@@QAX@Z @ 2203
?execInstanceVariable@UObject@@QAEXAAUFFrame@@QAX@Z @ 2204
?execIntConst@UObject@@QAEXAAUFFrame@@QAX@Z @ 2205
?execIntConstByte@UObject@@QAEXAAUFFrame@@QAX@Z @ 2206
?execIntOne@UObject@@QAEXAAUFFrame@@QAX@Z @ 2207
?execIntToBool@UObject@@QAEXAAUFFrame@@QAX@Z @ 2208
?execIntToBtrDouble@UObject@@QAEXAAUFFrame@@QAX@Z @ 2209
?execIntToByte@UObject@@QAEXAAUFFrame@@QAX@Z @ 2210
?execIntToFloat@UObject@@QAEXAAUFFrame@@QAX@Z @ 2211
?execIntToString@UObject@@QAEXAAUFFrame@@QAX@Z @ 2212
?execIntZero@UObject@@QAEXAAUFFrame@@QAX@Z @ 2213
?execInterpCurveEval@UObject@@QAEXAAUFFrame@@QAX@Z @ 2214
?execInterpCurveGetInputDomain@UObject@@QAEXAAUFFrame@@QAX@Z @ 2215
?execInterpCurveGetOutputRange@UObject@@QAEXAAUFFrame@@QAX@Z @ 2216
?execInvert@UObject@@QAEXAAUFFrame@@QAX@Z @ 2217
?execIsA@UObject@@QAEXAAUFFrame@@QAX@Z @ 2218
?execIsInState@UObject@@QAEXAAUFFrame@@QAX@Z @ 2219
?execIsOnConsole@UObject@@QAEXAAUFFrame@@QAX@Z @ 2220
?execIsSoaking@UObject@@QAEXAAUFFrame@@QAX@Z @ 2221
?execIterator@UObject@@QAEXAAUFFrame@@QAX@Z @ 2222
?execJump@UObject@@QAEXAAUFFrame@@QAX@Z @ 2223
?execJumpIfNot@UObject@@QAEXAAUFFrame@@QAX@Z @ 2224
?execKeyCode@UObject@@QAEXAAUFFrame@@QAX@Z @ 2225
?execLeft@UObject@@QAEXAAUFFrame@@QAX@Z @ 2226
?execLen@UObject@@QAEXAAUFFrame@@QAX@Z @ 2227
?execLerp@UObject@@QAEXAAUFFrame@@QAX@Z @ 2228
?execLessEqual_FloatFloat@UObject@@QAEXAAUFFrame@@QAX@Z @ 2229
?execLessEqual_IntInt@UObject@@QAEXAAUFFrame@@QAX@Z @ 2230
?execLessEqual_StringString@UObject@@QAEXAAUFFrame@@QAX@Z @ 2231
?execLessLess_IntInt@UObject@@QAEXAAUFFrame@@QAX@Z @ 2232
?execLessLess_VectorRotator@UObject@@QAEXAAUFFrame@@QAX@Z @ 2233
?execLess_BtrDoubleBtrDouble@UObject@@QAEXAAUFFrame@@QAX@Z @ 2234
?execLess_FloatFloat@UObject@@QAEXAAUFFrame@@QAX@Z @ 2235
?execLess_IntInt@UObject@@QAEXAAUFFrame@@QAX@Z @ 2236
?execLess_StringString@UObject@@QAEXAAUFFrame@@QAX@Z @ 2237
?execLet@UObject@@QAEXAAUFFrame@@QAX@Z @ 2238
?execLetBool@UObject@@QAEXAAUFFrame@@QAX@Z @ 2239
?execLetDelegate@UObject@@QAEXAAUFFrame@@QAX@Z @ 2240
?execLocalVariable@UObject@@QAEXAAUFFrame@@QAX@Z @ 2241
?execLocalize@UObject@@QAEXAAUFFrame@@QAX@Z @ 2242
?execLocs@UObject@@QAEXAAUFFrame@@QAX@Z @ 2243
?execLog@UObject@@QAEXAAUFFrame@@QAX@Z @ 2244
?execLoge@UObject@@QAEXAAUFFrame@@QAX@Z @ 2245
?execMain@UCommandlet@@QAEXAAUFFrame@@QAX@Z @ 2246
?execMax@UObject@@QAEXAAUFFrame@@QAX@Z @ 2247
?execMetaCast@UObject@@QAEXAAUFFrame@@QAX@Z @ 2248
?execMid@UObject@@QAEXAAUFFrame@@QAX@Z @ 2249
?execMin@UObject@@QAEXAAUFFrame@@QAX@Z @ 2250
?execMirrorVectorByNormal@UObject@@QAEXAAUFFrame@@QAX@Z @ 2251
?execMultiplyEqual_BtrDoubleBtrDouble@UObject@@QAEXAAUFFrame@@QAX@Z @ 2252
?execMultiplyEqual_ByteByte@UObject@@QAEXAAUFFrame@@QAX@Z @ 2253
?execMultiplyEqual_FloatFloat@UObject@@QAEXAAUFFrame@@QAX@Z @ 2254
?execMultiplyEqual_IntFloat@UObject@@QAEXAAUFFrame@@QAX@Z @ 2255
?execMultiplyEqual_RotatorFloat@UObject@@QAEXAAUFFrame@@QAX@Z @ 2256
?execMultiplyEqual_VectorFloat@UObject@@QAEXAAUFFrame@@QAX@Z @ 2257
?execMultiplyEqual_VectorVector@UObject@@QAEXAAUFFrame@@QAX@Z @ 2258
?execMultiplyMultiply_FloatFloat@UObject@@QAEXAAUFFrame@@QAX@Z @ 2259
?execMultiply_BtrDoubleBtrDouble@UObject@@QAEXAAUFFrame@@QAX@Z @ 2260
?execMultiply_BtrDoubleFLOAT@UObject@@QAEXAAUFFrame@@QAX@Z @ 2261
?execMultiply_BtrDoubleINT@UObject@@QAEXAAUFFrame@@QAX@Z @ 2262
?execMultiply_FloatFloat@UObject@@QAEXAAUFFrame@@QAX@Z @ 2263
?execMultiply_FloatRotator@UObject@@QAEXAAUFFrame@@QAX@Z @ 2264
?execMultiply_FloatVector@UObject@@QAEXAAUFFrame@@QAX@Z @ 2265
?execMultiply_IntInt@UObject@@QAEXAAUFFrame@@QAX@Z @ 2266
?execMultiply_RotatorFloat@UObject@@QAEXAAUFFrame@@QAX@Z @ 2267
?execMultiply_VectorFloat@UObject@@QAEXAAUFFrame@@QAX@Z @ 2268
?execMultiply_VectorVector@UObject@@QAEXAAUFFrame@@QAX@Z @ 2269
?execNameConst@UObject@@QAEXAAUFFrame@@QAX@Z @ 2270
?execNameToBool@UObject@@QAEXAAUFFrame@@QAX@Z @ 2271
?execNameToString@UObject@@QAEXAAUFFrame@@QAX@Z @ 2272
?execNativeParm@UObject@@QAEXAAUFFrame@@QAX@Z @ 2273
?execNew@UObject@@QAEXAAUFFrame@@QAX@Z @ 2274
?execNoObject@UObject@@QAEXAAUFFrame@@QAX@Z @ 2275
?execNormal@UObject@@QAEXAAUFFrame@@QAX@Z @ 2276
?execNormalize@UObject@@QAEXAAUFFrame@@QAX@Z @ 2277
?execNotEqual_BoolBool@UObject@@QAEXAAUFFrame@@QAX@Z @ 2278
?execNotEqual_BtrDoubleBtrDouble@UObject@@QAEXAAUFFrame@@QAX@Z @ 2279
?execNotEqual_BtrDoubleINT@UObject@@QAEXAAUFFrame@@QAX@Z @ 2280
?execNotEqual_FloatFloat@UObject@@QAEXAAUFFrame@@QAX@Z @ 2281
?execNotEqual_IntInt@UObject@@QAEXAAUFFrame@@QAX@Z @ 2282
?execNotEqual_NameName@UObject@@QAEXAAUFFrame@@QAX@Z @ 2283
?execNotEqual_ObjectObject@UObject@@QAEXAAUFFrame@@QAX@Z @ 2284
?execNotEqual_RotatorRotator@UObject@@QAEXAAUFFrame@@QAX@Z @ 2285
?execNotEqual_StringString@UObject@@QAEXAAUFFrame@@QAX@Z @ 2286
?execNotEqual_VectorVector@UObject@@QAEXAAUFFrame@@QAX@Z @ 2287
?execNot_PreBool@UObject@@QAEXAAUFFrame@@QAX@Z @ 2288
?execNothing@UObject@@QAEXAAUFFrame@@QAX@Z @ 2289
?execObjectConst@UObject@@QAEXAAUFFrame@@QAX@Z @ 2290
?execObjectToBool@UObject@@QAEXAAUFFrame@@QAX@Z @ 2291
?execObjectToString@UObject@@QAEXAAUFFrame@@QAX@Z @ 2292
?execOrOr_BoolBool@UObject@@QAEXAAUFFrame@@QAX@Z @ 2293
?execOr_IntInt@UObject@@QAEXAAUFFrame@@QAX@Z @ 2294
?execOrthoRotation@UObject@@QAEXAAUFFrame@@QAX@Z @ 2295
?execPercent_FloatFloat@UObject@@QAEXAAUFFrame@@QAX@Z @ 2296
?execPlatformIs64Bit@UObject@@QAEXAAUFFrame@@QAX@Z @ 2297
?execPlatformIsMacOS@UObject@@QAEXAAUFFrame@@QAX@Z @ 2298
?execPlatformIsUnix@UObject@@QAEXAAUFFrame@@QAX@Z @ 2299
?execPlatformIsWindows@UObject@@QAEXAAUFFrame@@QAX@Z @ 2300
?execPrimitiveCast@UObject@@QAEXAAUFFrame@@QAX@Z @ 2301
?execQuatFindBetween@UObject@@QAEXAAUFFrame@@QAX@Z @ 2302
?execQuatFromAxisAndAngle@UObject@@QAEXAAUFFrame@@QAX@Z @ 2303
?execQuatFromRotator@UObject@@QAEXAAUFFrame@@QAX@Z @ 2304
?execQuatInvert@UObject@@QAEXAAUFFrame@@QAX@Z @ 2305
?execQuatProduct@UObject@@QAEXAAUFFrame@@QAX@Z @ 2306
?execQuatRotateVector@UObject@@QAEXAAUFFrame@@QAX@Z @ 2307
?execQuatSlerp@UObject@@QAEXAAUFFrame@@QAX@Z @ 2308
?execQuatToRotator@UObject@@QAEXAAUFFrame@@QAX@Z @ 2309
?execRand@UObject@@QAEXAAUFFrame@@QAX@Z @ 2310
?execRepl@UObject@@QAEXAAUFFrame@@QAX@Z @ 2311
?execResetCombatLog@UObject@@QAEXAAUFFrame@@QAX@Z @ 2312
?execResetConfig@UObject@@QAEXAAUFFrame@@QAX@Z @ 2313
?execRight@UObject@@QAEXAAUFFrame@@QAX@Z @ 2314
?execRotRand@UObject@@QAEXAAUFFrame@@QAX@Z @ 2315
?execRotationConst@UObject@@QAEXAAUFFrame@@QAX@Z @ 2316
?execRotatorToBool@UObject@@QAEXAAUFFrame@@QAX@Z @ 2317
?execRotatorToString@UObject@@QAEXAAUFFrame@@QAX@Z @ 2318
?execRotatorToVector@UObject@@QAEXAAUFFrame@@QAX@Z @ 2319
?execRound@UObject@@QAEXAAUFFrame@@QAX@Z @ 2320
?execSRand@UObject@@QAEXAAUFFrame@@QAX@Z @ 2321
?execSaveConfig@UObject@@QAEXAAUFFrame@@QAX@Z @ 2322
?execSelf@UObject@@QAEXAAUFFrame@@QAX@Z @ 2323
?execSetPropertyText@UObject@@QAEXAAUFFrame@@QAX@Z @ 2324
?execSin@UObject@@QAEXAAUFFrame@@QAX@Z @ 2325
?execSmerp@UObject@@QAEXAAUFFrame@@QAX@Z @ 2326
?execSplit@UObject@@QAEXAAUFFrame@@QAX@Z @ 2327
?execSqrt@UObject@@QAEXAAUFFrame@@QAX@Z @ 2328
?execSquare@UObject@@QAEXAAUFFrame@@QAX@Z @ 2329
?execStaticClearConfig@UObject@@QAEXAAUFFrame@@QAX@Z @ 2330
?execStaticSaveConfig@UObject@@QAEXAAUFFrame@@QAX@Z @ 2331
?execStop@UObject@@QAEXAAUFFrame@@QAX@Z @ 2332
?execStopWatch@UObject@@QAEXAAUFFrame@@QAX@Z @ 2333
?execStrCmp@UObject@@QAEXAAUFFrame@@QAX@Z @ 2334
?execStringConst@UObject@@QAEXAAUFFrame@@QAX@Z @ 2335
?execStringToBool@UObject@@QAEXAAUFFrame@@QAX@Z @ 2336
?execStringToBtrDouble@UObject@@QAEXAAUFFrame@@QAX@Z @ 2337
?execStringToByte@UObject@@QAEXAAUFFrame@@QAX@Z @ 2338
?execStringToFloat@UObject@@QAEXAAUFFrame@@QAX@Z @ 2339
?execStringToInt@UObject@@QAEXAAUFFrame@@QAX@Z @ 2340
?execStringToRotator@UObject@@QAEXAAUFFrame@@QAX@Z @ 2341
?execStringToVector@UObject@@QAEXAAUFFrame@@QAX@Z @ 2342
?execStructCmpEq@UObject@@QAEXAAUFFrame@@QAX@Z @ 2343
?execStructCmpNe@UObject@@QAEXAAUFFrame@@QAX@Z @ 2344
?execStructMember@UObject@@QAEXAAUFFrame@@QAX@Z @ 2345
?execSubtractEqual_BtrDoubleBtrDouble@UObject@@QAEXAAUFFrame@@QAX@Z @ 2346
?execSubtractEqual_ByteByte@UObject@@QAEXAAUFFrame@@QAX@Z @ 2347
?execSubtractEqual_FloatFloat@UObject@@QAEXAAUFFrame@@QAX@Z @ 2348
?execSubtractEqual_IntInt@UObject@@QAEXAAUFFrame@@QAX@Z @ 2349
?execSubtractEqual_RotatorRotator@UObject@@QAEXAAUFFrame@@QAX@Z @ 2350
?execSubtractEqual_StringString@UObject@@QAEXAAUFFrame@@QAX@Z @ 2351
?execSubtractEqual_VectorVector@UObject@@QAEXAAUFFrame@@QAX@Z @ 2352
?execSubtractSubtract_Byte@UObject@@QAEXAAUFFrame@@QAX@Z @ 2353
?execSubtractSubtract_Int@UObject@@QAEXAAUFFrame@@QAX@Z @ 2354
?execSubtractSubtract_PreByte@UObject@@QAEXAAUFFrame@@QAX@Z @ 2355
?execSubtractSubtract_PreInt@UObject@@QAEXAAUFFrame@@QAX@Z @ 2356
?execSubtract_BtrDoubleBtrDouble@UObject@@QAEXAAUFFrame@@QAX@Z @ 2357
?execSubtract_BtrDoubleFLOAT@UObject@@QAEXAAUFFrame@@QAX@Z @ 2358
?execSubtract_BtrDoubleINT@UObject@@QAEXAAUFFrame@@QAX@Z @ 2359
?execSubtract_FloatFloat@UObject@@QAEXAAUFFrame@@QAX@Z @ 2360
?execSubtract_IntInt@UObject@@QAEXAAUFFrame@@QAX@Z @ 2361
?execSubtract_PreFloat@UObject@@QAEXAAUFFrame@@QAX@Z @ 2362
?execSubtract_PreInt@UObject@@QAEXAAUFFrame@@QAX@Z @ 2363
?execSubtract_PreVector@UObject@@QAEXAAUFFrame@@QAX@Z @ 2364
?execSubtract_RotatorRotator@UObject@@QAEXAAUFFrame@@QAX@Z @ 2365
?execSubtract_VectorVector@UObject@@QAEXAAUFFrame@@QAX@Z @ 2366
?execSwitch@UObject@@QAEXAAUFFrame@@QAX@Z @ 2367
?execTan@UObject@@QAEXAAUFFrame@@QAX@Z @ 2368
?execTrue@UObject@@QAEXAAUFFrame@@QAX@Z @ 2369
?execUndefined@UObject@@QAEXAAUFFrame@@QAX@Z @ 2370
?execUnicodeStringConst@UObject@@QAEXAAUFFrame@@QAX@Z @ 2371
?execVRand@UObject@@QAEXAAUFFrame@@QAX@Z @ 2372
?execVSize@UObject@@QAEXAAUFFrame@@QAX@Z @ 2373
?execVectorConst@UObject@@QAEXAAUFFrame@@QAX@Z @ 2374
?execVectorToBool@UObject@@QAEXAAUFFrame@@QAX@Z @ 2375
?execVectorToRotator@UObject@@QAEXAAUFFrame@@QAX@Z @ 2376
?execVectorToString@UObject@@QAEXAAUFFrame@@QAX@Z @ 2377
?execVirtualFunction@UObject@@QAEXAAUFFrame@@QAX@Z @ 2378
?execWarn@UObject@@QAEXAAUFFrame@@QAX@Z @ 2379
?execXorXor_BoolBool@UObject@@QAEXAAUFFrame@@QAX@Z @ 2380
?execXor_IntInt@UObject@@QAEXAAUFFrame@@QAX@Z @ 2381
?gAltDown@@3HA @ 2382
?gCancelAltUp@@3HA @ 2383
?gCancelCtrlUp@@3HA @ 2384
?gCancelShiftUp@@3HA @ 2385
?gCancelSpaceUp@@3HA @ 2386
?gCtrlDown@@3HA @ 2387
?gShiftDown@@3HA @ 2388
?gethostbyname_mutex@@3PAVFCriticalSection@@A @ 2389
?qRandSeed@@3IA @ 2390
?winAnsiToTCHAR@@YAPAGPAD@Z @ 2391
?winGetSizeANSI@@YAHPBG@Z @ 2392
?winGetSizeUNICODE@@YAHPBD@Z @ 2393
?winToANSI@@YAPADPADPBGH@Z @ 2394
?winToOEM@@YAPADPADPBGH@Z @ 2395
?winToUNICODE@@YAPAGPAGPBDH@Z @ 2396
GIsMMX @ 2398
GIsSSE @ 2399
GPackage @ 2400
_DllMain@12 @ 2397
autoclassUArrayProperty @ 2401
autoclassUBoolProperty @ 2402
autoclassUByteProperty @ 2403
autoclassUClass @ 2404
autoclassUClassProperty @ 2405
autoclassUCommandlet @ 2406
autoclassUConst @ 2407
autoclassUDelegateProperty @ 2408
autoclassUEnum @ 2409
autoclassUExporter @ 2410
autoclassUFactory @ 2411
autoclassUField @ 2412
autoclassUFixedArrayProperty @ 2413
autoclassUFloatProperty @ 2414
autoclassUFunction @ 2415
autoclassUIntProperty @ 2416
autoclassULanguage @ 2417
autoclassULinker @ 2418
autoclassULinkerLoad @ 2419
autoclassULinkerSave @ 2420
autoclassUMapProperty @ 2421
autoclassUNameProperty @ 2422
autoclassUObject @ 2423
autoclassUObjectExporterT3D @ 2424
autoclassUObjectProperty @ 2425
autoclassUPackage @ 2426
autoclassUPackageMap @ 2427
autoclassUPointerProperty @ 2428
autoclassUProperty @ 2429
autoclassUState @ 2430
autoclassUStrProperty @ 2431
autoclassUStruct @ 2432
autoclassUStructProperty @ 2433
autoclassUSubsystem @ 2434
autoclassUSystem @ 2435
autoclassUTextBuffer @ 2436
autoclassUTextBufferFactory @ 2437
intUCommandletexecMain @ 2438
intUObjectexecAbs @ 2439
intUObjectexecAcos @ 2440
intUObjectexecAddAdd_Byte @ 2441
intUObjectexecAddAdd_Int @ 2442
intUObjectexecAddAdd_PreByte @ 2443
intUObjectexecAddAdd_PreInt @ 2444
intUObjectexecAddEqual_BtrDoubleBtrDouble @ 2445
intUObjectexecAddEqual_ByteByte @ 2446
intUObjectexecAddEqual_FloatFloat @ 2447
intUObjectexecAddEqual_IntInt @ 2448
intUObjectexecAddEqual_RotatorRotator @ 2449
intUObjectexecAddEqual_VectorVector @ 2450
intUObjectexecAdd_BtrDoubleBtrDouble @ 2451
intUObjectexecAdd_BtrDoubleFLOAT @ 2452
intUObjectexecAdd_BtrDoubleINT @ 2453
intUObjectexecAdd_FloatFloat @ 2454
intUObjectexecAdd_IntInt @ 2455
intUObjectexecAdd_RotatorRotator @ 2456
intUObjectexecAdd_VectorVector @ 2457
intUObjectexecAllObjects @ 2458
intUObjectexecAndAnd_BoolBool @ 2459
intUObjectexecAnd_IntInt @ 2460
intUObjectexecArrayElement @ 2461
intUObjectexecAsc @ 2462
intUObjectexecAsin @ 2463
intUObjectexecAssert @ 2464
intUObjectexecAtEqual_StringString @ 2465
intUObjectexecAt_StringString @ 2466
intUObjectexecAtan @ 2467
intUObjectexecBoolToByte @ 2468
intUObjectexecBoolToFloat @ 2469
intUObjectexecBoolToInt @ 2470
intUObjectexecBoolToString @ 2471
intUObjectexecBoolVariable @ 2472
intUObjectexecBtrDoubleGetToStr @ 2473
intUObjectexecBtrDoubleLessEqual @ 2474
intUObjectexecBtrDoubleMinus @ 2475
intUObjectexecBtrDoublePlus @ 2476
intUObjectexecBtrDoubleToBtrTime @ 2477
intUObjectexecBtrDoubleToInt @ 2478
intUObjectexecBtrTimeToBtrDouble @ 2479
intUObjectexecByteConst @ 2480
intUObjectexecByteToBool @ 2481
intUObjectexecByteToFloat @ 2482
intUObjectexecByteToInt @ 2483
intUObjectexecByteToString @ 2484
intUObjectexecCaps @ 2485
intUObjectexecCase @ 2486
intUObjectexecCeil @ 2487
intUObjectexecChr @ 2488
intUObjectexecClamp @ 2489
intUObjectexecClassContext @ 2490
intUObjectexecClassIsChildOf @ 2491
intUObjectexecClearConfig @ 2492
intUObjectexecClockwiseFrom_IntInt @ 2493
intUObjectexecCombatLog @ 2494
intUObjectexecComplementEqual_FloatFloat @ 2495
intUObjectexecComplementEqual_StringString @ 2496
intUObjectexecComplement_PreInt @ 2497
intUObjectexecConcatEqual_StringString @ 2498
intUObjectexecConcat_StringString @ 2499
intUObjectexecContext @ 2500
intUObjectexecCos @ 2501
intUObjectexecCrashLog @ 2502
intUObjectexecCross_VectorVector @ 2503
intUObjectexecDebugInfo @ 2504
intUObjectexecDefaultVariable @ 2505
intUObjectexecDelegateFunction @ 2506
intUObjectexecDelegateProperty @ 2507
intUObjectexecDisable @ 2508
intUObjectexecDivide @ 2509
intUObjectexecDivideEqual_BtrDoubleBtrDouble @ 2510
intUObjectexecDivideEqual_ByteByte @ 2511
intUObjectexecDivideEqual_FloatFloat @ 2512
intUObjectexecDivideEqual_IntFloat @ 2513
intUObjectexecDivideEqual_RotatorFloat @ 2514
intUObjectexecDivideEqual_VectorFloat @ 2515
intUObjectexecDivide_BtrDoubleBtrDouble @ 2516
intUObjectexecDivide_BtrDoubleFLOAT @ 2517
intUObjectexecDivide_BtrDoubleINT @ 2518
intUObjectexecDivide_FloatFloat @ 2519
intUObjectexecDivide_IntInt @ 2520
intUObjectexecDivide_RotatorFloat @ 2521
intUObjectexecDivide_VectorFloat @ 2522
intUObjectexecDot_VectorVector @ 2523
intUObjectexecDynArrayElement @ 2524
intUObjectexecDynArrayInsert @ 2525
intUObjectexecDynArrayLength @ 2526
intUObjectexecDynArrayRemove @ 2527
intUObjectexecDynamicCast @ 2528
intUObjectexecDynamicLoadObject @ 2529
intUObjectexecEatString @ 2530
intUObjectexecEnable @ 2531
intUObjectexecEndFunctionParms @ 2532
intUObjectexecEndOfScript @ 2533
intUObjectexecEqualEqual_BoolBool @ 2534
intUObjectexecEqualEqual_BtrDoubleBtrDouble @ 2535
intUObjectexecEqualEqual_BtrDoubleINT @ 2536
intUObjectexecEqualEqual_FloatFloat @ 2537
intUObjectexecEqualEqual_IntInt @ 2538
intUObjectexecEqualEqual_NameName @ 2539
intUObjectexecEqualEqual_ObjectObject @ 2540
intUObjectexecEqualEqual_RotatorRotator @ 2541
intUObjectexecEqualEqual_StringString @ 2542
intUObjectexecEqualEqual_VectorVector @ 2543
intUObjectexecEval @ 2544
intUObjectexecExp @ 2545
intUObjectexecFClamp @ 2546
intUObjectexecFMax @ 2547
intUObjectexecFMin @ 2548
intUObjectexecFRand @ 2549
intUObjectexecFalse @ 2550
intUObjectexecFinalFunction @ 2551
intUObjectexecFindObject @ 2552
intUObjectexecFloatConst @ 2553
intUObjectexecFloatToBool @ 2554
intUObjectexecFloatToByte @ 2555
intUObjectexecFloatToInt @ 2556
intUObjectexecFloatToString @ 2557
intUObjectexecGetAxes @ 2558
intUObjectexecGetEnum @ 2559
intUObjectexecGetErrMsg @ 2560
intUObjectexecGetLastErrCode @ 2561
intUObjectexecGetLocalTimeToBtrDouble @ 2562
intUObjectexecGetLocalTimeToBtrTime @ 2563
intUObjectexecGetPerObjectNames @ 2564
intUObjectexecGetPropertyText @ 2565
intUObjectexecGetReferencers @ 2566
intUObjectexecGetStateName @ 2567
intUObjectexecGetUnAxes @ 2568
intUObjectexecGlobalFunction @ 2569
intUObjectexecGotoLabel @ 2570
intUObjectexecGotoState @ 2571
intUObjectexecGreaterEqual_FloatFloat @ 2572
intUObjectexecGreaterEqual_IntInt @ 2573
intUObjectexecGreaterEqual_StringString @ 2574
intUObjectexecGreaterGreaterGreater_IntInt @ 2575
intUObjectexecGreaterGreater_IntInt @ 2576
intUObjectexecGreaterGreater_VectorRotator @ 2577
intUObjectexecGreater_FloatFloat @ 2578
intUObjectexecGreater_IntInt @ 2579
intUObjectexecGreater_StringString @ 2580
intUObjectexecHighNative0 @ 2581
intUObjectexecHighNative1 @ 2582
intUObjectexecHighNative10 @ 2583
intUObjectexecHighNative11 @ 2584
intUObjectexecHighNative12 @ 2585
intUObjectexecHighNative13 @ 2586
intUObjectexecHighNative14 @ 2587
intUObjectexecHighNative15 @ 2588
intUObjectexecHighNative2 @ 2589
intUObjectexecHighNative3 @ 2590
intUObjectexecHighNative4 @ 2591
intUObjectexecHighNative5 @ 2592
intUObjectexecHighNative6 @ 2593
intUObjectexecHighNative7 @ 2594
intUObjectexecHighNative8 @ 2595
intUObjectexecHighNative9 @ 2596
intUObjectexecInStr @ 2597
intUObjectexecInstanceVariable @ 2598
intUObjectexecIntConst @ 2599
intUObjectexecIntConstByte @ 2600
intUObjectexecIntOne @ 2601
intUObjectexecIntToBool @ 2602
intUObjectexecIntToBtrDouble @ 2603
intUObjectexecIntToByte @ 2604
intUObjectexecIntToFloat @ 2605
intUObjectexecIntToString @ 2606
intUObjectexecIntZero @ 2607
intUObjectexecInterpCurveEval @ 2608
intUObjectexecInterpCurveGetInputDomain @ 2609
intUObjectexecInterpCurveGetOutputRange @ 2610
intUObjectexecInvert @ 2611
intUObjectexecIsA @ 2612
intUObjectexecIsInState @ 2613
intUObjectexecIsOnConsole @ 2614
intUObjectexecIsSoaking @ 2615
intUObjectexecIterator @ 2616
intUObjectexecJump @ 2617
intUObjectexecJumpIfNot @ 2618
intUObjectexecKeyCode @ 2619
intUObjectexecLeft @ 2620
intUObjectexecLen @ 2621
intUObjectexecLerp @ 2622
intUObjectexecLessEqual_FloatFloat @ 2623
intUObjectexecLessEqual_IntInt @ 2624
intUObjectexecLessEqual_StringString @ 2625
intUObjectexecLessLess_IntInt @ 2626
intUObjectexecLessLess_VectorRotator @ 2627
intUObjectexecLess_BtrDoubleBtrDouble @ 2628
intUObjectexecLess_FloatFloat @ 2629
intUObjectexecLess_IntInt @ 2630
intUObjectexecLess_StringString @ 2631
intUObjectexecLet @ 2632
intUObjectexecLetBool @ 2633
intUObjectexecLetDelegate @ 2634
intUObjectexecLocalVariable @ 2635
intUObjectexecLocalize @ 2636
intUObjectexecLocs @ 2637
intUObjectexecLog @ 2638
intUObjectexecLoge @ 2639
intUObjectexecMax @ 2640
intUObjectexecMetaCast @ 2641
intUObjectexecMid @ 2642
intUObjectexecMin @ 2643
intUObjectexecMirrorVectorByNormal @ 2644
intUObjectexecMultiplyEqual_BtrDoubleBtrDouble @ 2645
intUObjectexecMultiplyEqual_ByteByte @ 2646
intUObjectexecMultiplyEqual_FloatFloat @ 2647
intUObjectexecMultiplyEqual_IntFloat @ 2648
intUObjectexecMultiplyEqual_RotatorFloat @ 2649
intUObjectexecMultiplyEqual_VectorFloat @ 2650
intUObjectexecMultiplyEqual_VectorVector @ 2651
intUObjectexecMultiplyMultiply_FloatFloat @ 2652
intUObjectexecMultiply_BtrDoubleBtrDouble @ 2653
intUObjectexecMultiply_BtrDoubleFLOAT @ 2654
intUObjectexecMultiply_BtrDoubleINT @ 2655
intUObjectexecMultiply_FloatFloat @ 2656
intUObjectexecMultiply_FloatRotator @ 2657
intUObjectexecMultiply_FloatVector @ 2658
intUObjectexecMultiply_IntInt @ 2659
intUObjectexecMultiply_RotatorFloat @ 2660
intUObjectexecMultiply_VectorFloat @ 2661
intUObjectexecMultiply_VectorVector @ 2662
intUObjectexecNameConst @ 2663
intUObjectexecNameToBool @ 2664
intUObjectexecNameToString @ 2665
intUObjectexecNativeParm @ 2666
intUObjectexecNew @ 2667
intUObjectexecNoObject @ 2668
intUObjectexecNormal @ 2669
intUObjectexecNormalize @ 2670
intUObjectexecNotEqual_BoolBool @ 2671
intUObjectexecNotEqual_BtrDoubleBtrDouble @ 2672
intUObjectexecNotEqual_BtrDoubleINT @ 2673
intUObjectexecNotEqual_FloatFloat @ 2674
intUObjectexecNotEqual_IntInt @ 2675
intUObjectexecNotEqual_NameName @ 2676
intUObjectexecNotEqual_ObjectObject @ 2677
intUObjectexecNotEqual_RotatorRotator @ 2678
intUObjectexecNotEqual_StringString @ 2679
intUObjectexecNotEqual_VectorVector @ 2680
intUObjectexecNot_PreBool @ 2681
intUObjectexecNothing @ 2682
intUObjectexecObjectConst @ 2683
intUObjectexecObjectToBool @ 2684
intUObjectexecObjectToString @ 2685
intUObjectexecOrOr_BoolBool @ 2686
intUObjectexecOr_IntInt @ 2687
intUObjectexecOrthoRotation @ 2688
intUObjectexecPercent_FloatFloat @ 2689
intUObjectexecPlatformIs64Bit @ 2690
intUObjectexecPlatformIsMacOS @ 2691
intUObjectexecPlatformIsUnix @ 2692
intUObjectexecPlatformIsWindows @ 2693
intUObjectexecPrimitiveCast @ 2694
intUObjectexecQuatFindBetween @ 2695
intUObjectexecQuatFromAxisAndAngle @ 2696
intUObjectexecQuatFromRotator @ 2697
intUObjectexecQuatInvert @ 2698
intUObjectexecQuatProduct @ 2699
intUObjectexecQuatRotateVector @ 2700
intUObjectexecQuatSlerp @ 2701
intUObjectexecQuatToRotator @ 2702
intUObjectexecRand @ 2703
intUObjectexecRepl @ 2704
intUObjectexecResetCombatLog @ 2705
intUObjectexecResetConfig @ 2706
intUObjectexecRight @ 2707
intUObjectexecRotRand @ 2708
intUObjectexecRotationConst @ 2709
intUObjectexecRotatorToBool @ 2710
intUObjectexecRotatorToString @ 2711
intUObjectexecRotatorToVector @ 2712
intUObjectexecRound @ 2713
intUObjectexecSRand @ 2714
intUObjectexecSaveConfig @ 2715
intUObjectexecSelf @ 2716
intUObjectexecSetPropertyText @ 2717
intUObjectexecSin @ 2718
intUObjectexecSmerp @ 2719
intUObjectexecSplit @ 2720
intUObjectexecSqrt @ 2721
intUObjectexecSquare @ 2722
intUObjectexecStaticClearConfig @ 2723
intUObjectexecStaticSaveConfig @ 2724
intUObjectexecStop @ 2725
intUObjectexecStopWatch @ 2726
intUObjectexecStrCmp @ 2727
intUObjectexecStringConst @ 2728
intUObjectexecStringToBool @ 2729
intUObjectexecStringToBtrDouble @ 2730
intUObjectexecStringToByte @ 2731
intUObjectexecStringToFloat @ 2732
intUObjectexecStringToInt @ 2733
intUObjectexecStringToRotator @ 2734
intUObjectexecStringToVector @ 2735
intUObjectexecStructCmpEq @ 2736
intUObjectexecStructCmpNe @ 2737
intUObjectexecStructMember @ 2738
intUObjectexecSubtractEqual_BtrDoubleBtrDouble @ 2739
intUObjectexecSubtractEqual_ByteByte @ 2740
intUObjectexecSubtractEqual_FloatFloat @ 2741
intUObjectexecSubtractEqual_IntInt @ 2742
intUObjectexecSubtractEqual_RotatorRotator @ 2743
intUObjectexecSubtractEqual_StringString @ 2744
intUObjectexecSubtractEqual_VectorVector @ 2745
intUObjectexecSubtractSubtract_Byte @ 2746
intUObjectexecSubtractSubtract_Int @ 2747
intUObjectexecSubtractSubtract_PreByte @ 2748
intUObjectexecSubtractSubtract_PreInt @ 2749
intUObjectexecSubtract_BtrDoubleBtrDouble @ 2750
intUObjectexecSubtract_BtrDoubleFLOAT @ 2751
intUObjectexecSubtract_BtrDoubleINT @ 2752
intUObjectexecSubtract_FloatFloat @ 2753
intUObjectexecSubtract_IntInt @ 2754
intUObjectexecSubtract_PreFloat @ 2755
intUObjectexecSubtract_PreInt @ 2756
intUObjectexecSubtract_PreVector @ 2757
intUObjectexecSubtract_RotatorRotator @ 2758
intUObjectexecSubtract_VectorVector @ 2759
intUObjectexecSwitch @ 2760
intUObjectexecTan @ 2761
intUObjectexecTrue @ 2762
intUObjectexecUnicodeStringConst @ 2763
intUObjectexecVRand @ 2764
intUObjectexecVSize @ 2765
intUObjectexecVectorConst @ 2766
intUObjectexecVectorToBool @ 2767
intUObjectexecVectorToRotator @ 2768
intUObjectexecVectorToString @ 2769
intUObjectexecVirtualFunction @ 2770
intUObjectexecWarn @ 2771
intUObjectexecXorXor_BoolBool @ 2772
intUObjectexecXor_IntInt @ 2773
