LIBRARY D3D9Drv.dll

EXPORTS
??0UD3D9BtrFont@@QAE@ABV0@@Z @ 1
??0UD3D9BtrFont@@QAE@PAG0HH@Z @ 2
??0UD3D9BtrTexture@@QAE@ABV0@@Z @ 3
??0UD3D9BtrTexture@@QAE@XZ @ 4
??0UD3D9RenderDevice@@QAE@ABV0@@Z @ 5
??0UD3D9RenderDevice@@QAE@XZ @ 6
??1UD3D9BtrFont@@UAE@XZ @ 7
??1UD3D9BtrTexture@@UAE@XZ @ 8
??1UD3D9RenderDevice@@UAE@XZ @ 9
??2UD3D9BtrTexture@@SAPAXIPAVUObject@@PAGK@Z @ 10
??2UD3D9BtrTexture@@SAPAXIPAVUObject@@PBGK@Z @ 11
??2UD3D9BtrTexture@@SAPAXIPAVUObject@@VFName@@K@Z @ 12
??2UD3D9BtrTexture@@SAPAXIPAW4EInternal@@@Z @ 13
??2UD3D9RenderDevice@@SAPAXIPAVUObject@@PAGK@Z @ 14
??2UD3D9RenderDevice@@SAPAXIPAVUObject@@PBGK@Z @ 15
??2UD3D9RenderDevice@@SAPAXIPAVUObject@@VFName@@K@Z @ 16
??2UD3D9RenderDevice@@SAPAXIPAW4EInternal@@@Z @ 17
??4UD3D9BtrFont@@QAEAAV0@ABV0@@Z @ 18
??4UD3D9BtrTexture@@QAEAAV0@ABV0@@Z @ 19
??4UD3D9RenderDevice@@QAEAAV0@ABV0@@Z @ 20
??_7UD3D9BtrFont@@6B@ @ 21
??_7UD3D9BtrTexture@@6B@ @ 22
??_7UD3D9RenderDevice@@6BFExec@@@ @ 23
??_7UD3D9RenderDevice@@6BUObject@@@ @ 24
?EndFrame@UD3D9BtrFont@@QAEXXZ @ 25
?Exec@UD3D9RenderDevice@@UAEHPBGAAVFOutputDevice@@@Z @ 26
?Exit@UD3D9RenderDevice@@UAEXPAVUViewport@@@Z @ 27
?Flush@UD3D9RenderDevice@@UAEXPAVUViewport@@@Z @ 28
?FlushResource@UD3D9RenderDevice@@UAEX_K@Z @ 29
?GetAspectRatio@UD3D9RenderDevice@@UAEMXZ @ 30
?GetAverageColor@UD3D9RenderDevice@@UAE?AVFColor@@HHHHH@Z @ 31
?GetCachedResource@UD3D9RenderDevice@@QAEPAVFD3D9Resource@@_K@Z @ 32
?GetDesktopHorzRes@UD3D9RenderDevice@@UAEHXZ @ 33
?GetDesktopVertRes@UD3D9RenderDevice@@UAEHXZ @ 34
?GetPixelShader@UD3D9RenderDevice@@QAEPAVFD3D9PixelShader@@W4EPixelShader@@@Z @ 35
?GetPixelShaderVersion@UD3D9RenderDevice@@UAEHXZ @ 36
?GetRenderCaps@UD3D9RenderDevice@@UAEPAUFRenderCaps@@XZ @ 37
?GetRenderInterface@UD3D9RenderDevice@@UAEPAVFRenderInterface@@XZ @ 38
?GetVertexShader@UD3D9RenderDevice@@QAEPAVFD3D9VertexShader@@W4EVertexShader@@AAUFShaderDeclaration@@@Z @ 39
?GetVertexShaderVersion@UD3D9RenderDevice@@UAEHXZ @ 40
?Init@UD3D9RenderDevice@@UAEHXZ @ 41
?InternalConstructor@UD3D9BtrTexture@@SAXPAX@Z @ 42
?InternalConstructor@UD3D9RenderDevice@@SAXPAX@Z @ 43
?Lock@UD3D9RenderDevice@@UAEPAVFRenderInterface@@PAVUViewport@@PAEPAH@Z @ 44
?PrecacheShaderEffects@UD3D9RenderDevice@@UAEXXZ @ 45
?Present@UD3D9RenderDevice@@UAEXPAVUViewport@@@Z @ 46
?PrivateStaticClass@UD3D9BtrTexture@@0VUClass@@A @ 47
?PrivateStaticClass@UD3D9RenderDevice@@0VUClass@@A @ 48
?ReadPixels@UD3D9RenderDevice@@UAEXPAVUViewport@@PAVFColor@@H@Z @ 49
?Reset@UD3D9BtrFont@@QAEXXZ @ 50
?ResourceCached@UD3D9RenderDevice@@UAEH_K@Z @ 51
?RestoreGamma@UD3D9RenderDevice@@UAEXXZ @ 52
?SaveBackBufferToFile@UD3D9RenderDevice@@UAEXPBGHHHH@Z @ 53
?SaveTexture@UD3D9BtrFont@@QAEKXZ @ 54
?SetEmulationMode@UD3D9RenderDevice@@UAEXW4EHardwareEmulationMode@@@Z @ 55
?SetRes@UD3D9RenderDevice@@UAEHPAVUViewport@@HHHHH@Z @ 56
?SetSamplerState_MAGFILTER@UD3D9RenderDevice@@UAEXH@Z @ 57
?SetSamplerState_MINFILTER@UD3D9RenderDevice@@UAEXH@Z @ 58
?SetSamplerState_MIPFILTER@UD3D9RenderDevice@@UAEXH@Z @ 59
?StaticClass@UD3D9BtrTexture@@SAPAVUClass@@XZ @ 60
?StaticClass@UD3D9RenderDevice@@SAPAVUClass@@XZ @ 61
?StaticConstructor@UD3D9RenderDevice@@QAEXXZ @ 62
?SupportHWShadowMap@UD3D9RenderDevice@@UAEHXZ @ 63
?SupportMRT@UD3D9RenderDevice@@UAEHXZ @ 64
?SupportsTextureFormat@UD3D9RenderDevice@@UAEHW4ETextureFormat@@@Z @ 65
?UnSetRes@UD3D9RenderDevice@@QAEHPBGJH@Z @ 66
?Unlock@UD3D9RenderDevice@@UAEXPAVFRenderInterface@@@Z @ 67
?UnuseTextureRelease@UD3D9BtrFont@@QAEXXZ @ 68
?UpdateGamma@UD3D9RenderDevice@@UAEXPAVUViewport@@@Z @ 69
?cleanUp@UD3D9BtrFont@@UAEXXZ @ 70
?cleanUp@UD3D9BtrTexture@@UAEXXZ @ 71
?drawTextToSurface@UD3D9BtrFont@@UAEXPAVFRenderInterface@@PAVBtrFontData@@@Z @ 72
?getTextWidthSize@UD3D9BtrFont@@UAE?AVBtr2DSize@@PBG@Z @ 73
?getTextWidthSizeLH@UD3D9BtrFont@@UAE?AVBtr2DSize@@PBG@Z @ 74
?getTextWidthSizeNoCache@UD3D9BtrFont@@UAE?AVBtr2DSize@@PBG@Z @ 75
?getTextWidthSizeOLD@UD3D9BtrFont@@UAE?AVBtr2DSize@@PBG@Z @ 76
?getTextureHeight@UD3D9BtrTexture@@UAEIXZ @ 77
?getTextureWidth@UD3D9BtrTexture@@UAEIXZ @ 78
?setTexture@UD3D9BtrTexture@@UAEXPAVFRenderInterface@@K@Z @ 79
?startUp@UD3D9BtrFont@@UAE_NPAVFRenderInterface@@@Z @ 80
?startUp@UD3D9BtrTexture@@UAE_NPAVFRenderInterface@@II@Z @ 81
?storeToTextBuffer@UD3D9BtrFont@@QAEXPAG@Z @ 82
GPackage @ 84
_DllMain@12 @ 83
autoclassUD3D9BtrTexture @ 85
autoclassUD3D9RenderDevice @ 86
