LIBRARY Editor.dll

EXPORTS
??0FBuilderPoly@@QAE@ABU0@@Z @ 1
??0FBuilderPoly@@QAE@XZ @ 2
??0FConstraints@@QAE@ABV0@@Z @ 3
??0FConstraints@@QAE@XZ @ 4
??0FEditorConstraints@@QAE@ABV0@@Z @ 5
??0FEditorConstraints@@QAE@XZ @ 6
??0FLevelStat@@QAE@ABV0@@Z @ 7
??0FLevelStat@@QAE@XZ @ 8
??0FPerlinNoise@@QAE@ABV0@@Z @ 9
??0FPerlinNoise@@QAE@XZ @ 10
??0UAnimNotifyProps@@IAE@XZ @ 11
??0UAnimNotifyProps@@QAE@ABV0@@Z @ 12
??0UBitArray@@IAE@XZ @ 13
??0UBitArray@@QAE@ABV0@@Z @ 14
??0UBitArray@@QAE@K@Z @ 15
??0UBitMatrix@@IAE@XZ @ 16
??0UBitMatrix@@QAE@ABV0@@Z @ 17
??0UBitMatrix@@QAE@K@Z @ 18
??0UBrushBuilder@@QAE@ABV0@@Z @ 19
??0UBrushBuilder@@QAE@XZ @ 20
??0UClassExporterH@@QAE@ABV0@@Z @ 21
??0UClassExporterH@@QAE@XZ @ 22
??0UClassExporterUC@@QAE@ABV0@@Z @ 23
??0UClassExporterUC@@QAE@XZ @ 24
??0UClassFactoryNew@@QAE@ABV0@@Z @ 25
??0UClassFactoryNew@@QAE@XZ @ 26
??0UClassFactoryUC@@QAE@ABV0@@Z @ 27
??0UClassFactoryUC@@QAE@XZ @ 28
??0UConvexVolumeExporterT3D@@QAE@ABV0@@Z @ 29
??0UConvexVolumeExporterT3D@@QAE@XZ @ 30
??0UConvexVolumeFactory@@QAE@ABV0@@Z @ 31
??0UConvexVolumeFactory@@QAE@XZ @ 32
??0UEditInfo@@QAE@ABV0@@Z @ 33
??0UEditInfo@@QAE@XZ @ 34
??0UEditorEngine@@QAE@ABV0@@Z @ 35
??0UEditorEngine@@QAE@XZ @ 36
??0UFontFactory@@QAE@ABV0@@Z @ 37
??0UFontFactory@@QAE@XZ @ 38
??0ULevelExporterOBJ@@QAE@ABV0@@Z @ 39
??0ULevelExporterOBJ@@QAE@XZ @ 40
??0ULevelExporterSTL@@QAE@ABV0@@Z @ 41
??0ULevelExporterSTL@@QAE@XZ @ 42
??0ULevelExporterT3D@@QAE@ABV0@@Z @ 43
??0ULevelExporterT3D@@QAE@XZ @ 44
??0ULevelFactory@@QAE@ABV0@@Z @ 45
??0ULevelFactory@@QAE@XZ @ 46
??0ULevelFactoryNew@@QAE@ABV0@@Z @ 47
??0ULevelFactoryNew@@QAE@XZ @ 48
??0UMaterialFactory@@IAE@XZ @ 49
??0UMaterialFactory@@QAE@ABV0@@Z @ 50
??0UModelExporterT3D@@QAE@ABV0@@Z @ 51
??0UModelExporterT3D@@QAE@XZ @ 52
??0UModelFactory@@QAE@ABV0@@Z @ 53
??0UModelFactory@@QAE@XZ @ 54
??0UPolysExporterOBJ@@QAE@ABV0@@Z @ 55
??0UPolysExporterOBJ@@QAE@XZ @ 56
??0UPolysExporterT3D@@QAE@ABV0@@Z @ 57
??0UPolysExporterT3D@@QAE@XZ @ 58
??0UPolysFactory@@QAE@ABV0@@Z @ 59
??0UPolysFactory@@QAE@XZ @ 60
??0UPrefab@@QAE@ABV0@@Z @ 61
??0UPrefab@@QAE@XZ @ 62
??0UPrefabExporterT3D@@QAE@ABV0@@Z @ 63
??0UPrefabExporterT3D@@QAE@XZ @ 64
??0UPrefabFactory@@QAE@ABV0@@Z @ 65
??0UPrefabFactory@@QAE@XZ @ 66
??0USoundExporterWAV@@QAE@ABV0@@Z @ 67
??0USoundExporterWAV@@QAE@XZ @ 68
??0USoundFactory@@QAE@ABV0@@Z @ 69
??0USoundFactory@@QAE@XZ @ 70
??0UStaticMeshExporterT3D@@QAE@ABV0@@Z @ 71
??0UStaticMeshExporterT3D@@QAE@XZ @ 72
??0UStaticMeshFactory@@QAE@ABV0@@Z @ 73
??0UStaticMeshFactory@@QAE@XZ @ 74
??0UTextBufferExporterTXT@@QAE@ABV0@@Z @ 75
??0UTextBufferExporterTXT@@QAE@XZ @ 76
??0UTextureExporterBMP@@QAE@ABV0@@Z @ 77
??0UTextureExporterBMP@@QAE@XZ @ 78
??0UTextureExporterDDS@@QAE@ABV0@@Z @ 79
??0UTextureExporterDDS@@QAE@XZ @ 80
??0UTextureExporterPCX@@QAE@ABV0@@Z @ 81
??0UTextureExporterPCX@@QAE@XZ @ 82
??0UTextureExporterTGA@@QAE@ABV0@@Z @ 83
??0UTextureExporterTGA@@QAE@XZ @ 84
??0UTextureExporterUPT@@QAE@ABV0@@Z @ 85
??0UTextureExporterUPT@@QAE@XZ @ 86
??0UTextureFactory@@QAE@ABV0@@Z @ 87
??0UTextureFactory@@QAE@XZ @ 88
??0UTextureFactoryNew@@QAE@ABV0@@Z @ 89
??0UTextureFactoryNew@@QAE@XZ @ 90
??0UTransBuffer@@IAE@XZ @ 91
??0UTransBuffer@@QAE@ABV0@@Z @ 92
??0UTransBuffer@@QAE@K@Z @ 93
??0UTransactor@@QAE@ABV0@@Z @ 94
??0UTransactor@@QAE@XZ @ 95
??0UTrueTypeFontFactory@@QAE@ABV0@@Z @ 96
??0UTrueTypeFontFactory@@QAE@XZ @ 97
??1FBuilderPoly@@QAE@XZ @ 98
??1FLevelStat@@UAE@XZ @ 99
??1FPerlinNoise@@UAE@XZ @ 100
??1UAnimNotifyProps@@UAE@XZ @ 101
??1UBitArray@@UAE@XZ @ 102
??1UBitMatrix@@UAE@XZ @ 103
??1UBrushBuilder@@UAE@XZ @ 104
??1UClassExporterH@@UAE@XZ @ 105
??1UClassExporterUC@@UAE@XZ @ 106
??1UClassFactoryNew@@UAE@XZ @ 107
??1UClassFactoryUC@@UAE@XZ @ 108
??1UConvexVolumeExporterT3D@@UAE@XZ @ 109
??1UConvexVolumeFactory@@UAE@XZ @ 110
??1UEditInfo@@UAE@XZ @ 111
??1UEditorEngine@@UAE@XZ @ 112
??1UFontFactory@@UAE@XZ @ 113
??1ULevelExporterOBJ@@UAE@XZ @ 114
??1ULevelExporterSTL@@UAE@XZ @ 115
??1ULevelExporterT3D@@UAE@XZ @ 116
??1ULevelFactory@@UAE@XZ @ 117
??1ULevelFactoryNew@@UAE@XZ @ 118
??1UMaterialFactory@@UAE@XZ @ 119
??1UModelExporterT3D@@UAE@XZ @ 120
??1UModelFactory@@UAE@XZ @ 121
??1UPolysExporterOBJ@@UAE@XZ @ 122
??1UPolysExporterT3D@@UAE@XZ @ 123
??1UPolysFactory@@UAE@XZ @ 124
??1UPrefab@@UAE@XZ @ 125
??1UPrefabExporterT3D@@UAE@XZ @ 126
??1UPrefabFactory@@UAE@XZ @ 127
??1USoundExporterWAV@@UAE@XZ @ 128
??1USoundFactory@@UAE@XZ @ 129
??1UStaticMeshExporterT3D@@UAE@XZ @ 130
??1UStaticMeshFactory@@UAE@XZ @ 131
??1UTextBufferExporterTXT@@UAE@XZ @ 132
??1UTextureExporterBMP@@UAE@XZ @ 133
??1UTextureExporterDDS@@UAE@XZ @ 134
??1UTextureExporterPCX@@UAE@XZ @ 135
??1UTextureExporterTGA@@UAE@XZ @ 136
??1UTextureExporterUPT@@UAE@XZ @ 137
??1UTextureFactory@@UAE@XZ @ 138
??1UTextureFactoryNew@@UAE@XZ @ 139
??1UTransBuffer@@UAE@XZ @ 140
??1UTransactor@@UAE@XZ @ 141
??1UTrueTypeFontFactory@@UAE@XZ @ 142
??2UAnimNotifyProps@@SAPAXIPAVUObject@@PAGK@Z @ 143
??2UAnimNotifyProps@@SAPAXIPAVUObject@@PBGK@Z @ 144
??2UAnimNotifyProps@@SAPAXIPAVUObject@@VFName@@K@Z @ 145
??2UAnimNotifyProps@@SAPAXIPAW4EInternal@@@Z @ 146
??2UBitArray@@SAPAXIPAVUObject@@PAGK@Z @ 147
??2UBitArray@@SAPAXIPAVUObject@@PBGK@Z @ 148
??2UBitArray@@SAPAXIPAVUObject@@VFName@@K@Z @ 149
??2UBitArray@@SAPAXIPAW4EInternal@@@Z @ 150
??2UBitMatrix@@SAPAXIPAVUObject@@PAGK@Z @ 151
??2UBitMatrix@@SAPAXIPAVUObject@@PBGK@Z @ 152
??2UBitMatrix@@SAPAXIPAVUObject@@VFName@@K@Z @ 153
??2UBitMatrix@@SAPAXIPAW4EInternal@@@Z @ 154
??2UBrushBuilder@@SAPAXIPAVUObject@@PAGK@Z @ 155
??2UBrushBuilder@@SAPAXIPAVUObject@@PBGK@Z @ 156
??2UBrushBuilder@@SAPAXIPAVUObject@@VFName@@K@Z @ 157
??2UBrushBuilder@@SAPAXIPAW4EInternal@@@Z @ 158
??2UClassExporterH@@SAPAXIPAVUObject@@PAGK@Z @ 159
??2UClassExporterH@@SAPAXIPAVUObject@@PBGK@Z @ 160
??2UClassExporterH@@SAPAXIPAVUObject@@VFName@@K@Z @ 161
??2UClassExporterH@@SAPAXIPAW4EInternal@@@Z @ 162
??2UClassExporterUC@@SAPAXIPAVUObject@@PAGK@Z @ 163
??2UClassExporterUC@@SAPAXIPAVUObject@@PBGK@Z @ 164
??2UClassExporterUC@@SAPAXIPAVUObject@@VFName@@K@Z @ 165
??2UClassExporterUC@@SAPAXIPAW4EInternal@@@Z @ 166
??2UClassFactoryNew@@SAPAXIPAVUObject@@PAGK@Z @ 167
??2UClassFactoryNew@@SAPAXIPAVUObject@@PBGK@Z @ 168
??2UClassFactoryNew@@SAPAXIPAVUObject@@VFName@@K@Z @ 169
??2UClassFactoryNew@@SAPAXIPAW4EInternal@@@Z @ 170
??2UClassFactoryUC@@SAPAXIPAVUObject@@PAGK@Z @ 171
??2UClassFactoryUC@@SAPAXIPAVUObject@@PBGK@Z @ 172
??2UClassFactoryUC@@SAPAXIPAVUObject@@VFName@@K@Z @ 173
??2UClassFactoryUC@@SAPAXIPAW4EInternal@@@Z @ 174
??2UConvexVolumeExporterT3D@@SAPAXIPAVUObject@@PAGK@Z @ 175
??2UConvexVolumeExporterT3D@@SAPAXIPAVUObject@@PBGK@Z @ 176
??2UConvexVolumeExporterT3D@@SAPAXIPAVUObject@@VFName@@K@Z @ 177
??2UConvexVolumeExporterT3D@@SAPAXIPAW4EInternal@@@Z @ 178
??2UConvexVolumeFactory@@SAPAXIPAVUObject@@PAGK@Z @ 179
??2UConvexVolumeFactory@@SAPAXIPAVUObject@@PBGK@Z @ 180
??2UConvexVolumeFactory@@SAPAXIPAVUObject@@VFName@@K@Z @ 181
??2UConvexVolumeFactory@@SAPAXIPAW4EInternal@@@Z @ 182
??2UEditInfo@@SAPAXIPAVUObject@@PAGK@Z @ 183
??2UEditInfo@@SAPAXIPAVUObject@@PBGK@Z @ 184
??2UEditInfo@@SAPAXIPAVUObject@@VFName@@K@Z @ 185
??2UEditInfo@@SAPAXIPAW4EInternal@@@Z @ 186
??2UEditorEngine@@SAPAXIPAVUObject@@PAGK@Z @ 187
??2UEditorEngine@@SAPAXIPAVUObject@@PBGK@Z @ 188
??2UEditorEngine@@SAPAXIPAVUObject@@VFName@@K@Z @ 189
??2UEditorEngine@@SAPAXIPAW4EInternal@@@Z @ 190
??2UFontFactory@@SAPAXIPAVUObject@@PAGK@Z @ 191
??2UFontFactory@@SAPAXIPAVUObject@@PBGK@Z @ 192
??2UFontFactory@@SAPAXIPAVUObject@@VFName@@K@Z @ 193
??2UFontFactory@@SAPAXIPAW4EInternal@@@Z @ 194
??2ULevelExporterOBJ@@SAPAXIPAVUObject@@PAGK@Z @ 195
??2ULevelExporterOBJ@@SAPAXIPAVUObject@@PBGK@Z @ 196
??2ULevelExporterOBJ@@SAPAXIPAVUObject@@VFName@@K@Z @ 197
??2ULevelExporterOBJ@@SAPAXIPAW4EInternal@@@Z @ 198
??2ULevelExporterSTL@@SAPAXIPAVUObject@@PAGK@Z @ 199
??2ULevelExporterSTL@@SAPAXIPAVUObject@@PBGK@Z @ 200
??2ULevelExporterSTL@@SAPAXIPAVUObject@@VFName@@K@Z @ 201
??2ULevelExporterSTL@@SAPAXIPAW4EInternal@@@Z @ 202
??2ULevelExporterT3D@@SAPAXIPAVUObject@@PAGK@Z @ 203
??2ULevelExporterT3D@@SAPAXIPAVUObject@@PBGK@Z @ 204
??2ULevelExporterT3D@@SAPAXIPAVUObject@@VFName@@K@Z @ 205
??2ULevelExporterT3D@@SAPAXIPAW4EInternal@@@Z @ 206
??2ULevelFactory@@SAPAXIPAVUObject@@PAGK@Z @ 207
??2ULevelFactory@@SAPAXIPAVUObject@@PBGK@Z @ 208
??2ULevelFactory@@SAPAXIPAVUObject@@VFName@@K@Z @ 209
??2ULevelFactory@@SAPAXIPAW4EInternal@@@Z @ 210
??2ULevelFactoryNew@@SAPAXIPAVUObject@@PAGK@Z @ 211
??2ULevelFactoryNew@@SAPAXIPAVUObject@@PBGK@Z @ 212
??2ULevelFactoryNew@@SAPAXIPAVUObject@@VFName@@K@Z @ 213
??2ULevelFactoryNew@@SAPAXIPAW4EInternal@@@Z @ 214
??2UMaterialFactory@@SAPAXIPAVUObject@@PAGK@Z @ 215
??2UMaterialFactory@@SAPAXIPAVUObject@@PBGK@Z @ 216
??2UMaterialFactory@@SAPAXIPAVUObject@@VFName@@K@Z @ 217
??2UMaterialFactory@@SAPAXIPAW4EInternal@@@Z @ 218
??2UModelExporterT3D@@SAPAXIPAVUObject@@PAGK@Z @ 219
??2UModelExporterT3D@@SAPAXIPAVUObject@@PBGK@Z @ 220
??2UModelExporterT3D@@SAPAXIPAVUObject@@VFName@@K@Z @ 221
??2UModelExporterT3D@@SAPAXIPAW4EInternal@@@Z @ 222
??2UModelFactory@@SAPAXIPAVUObject@@PAGK@Z @ 223
??2UModelFactory@@SAPAXIPAVUObject@@PBGK@Z @ 224
??2UModelFactory@@SAPAXIPAVUObject@@VFName@@K@Z @ 225
??2UModelFactory@@SAPAXIPAW4EInternal@@@Z @ 226
??2UPolysExporterOBJ@@SAPAXIPAVUObject@@PAGK@Z @ 227
??2UPolysExporterOBJ@@SAPAXIPAVUObject@@PBGK@Z @ 228
??2UPolysExporterOBJ@@SAPAXIPAVUObject@@VFName@@K@Z @ 229
??2UPolysExporterOBJ@@SAPAXIPAW4EInternal@@@Z @ 230
??2UPolysExporterT3D@@SAPAXIPAVUObject@@PAGK@Z @ 231
??2UPolysExporterT3D@@SAPAXIPAVUObject@@PBGK@Z @ 232
??2UPolysExporterT3D@@SAPAXIPAVUObject@@VFName@@K@Z @ 233
??2UPolysExporterT3D@@SAPAXIPAW4EInternal@@@Z @ 234
??2UPolysFactory@@SAPAXIPAVUObject@@PAGK@Z @ 235
??2UPolysFactory@@SAPAXIPAVUObject@@PBGK@Z @ 236
??2UPolysFactory@@SAPAXIPAVUObject@@VFName@@K@Z @ 237
??2UPolysFactory@@SAPAXIPAW4EInternal@@@Z @ 238
??2UPrefab@@SAPAXIPAVUObject@@PAGK@Z @ 239
??2UPrefab@@SAPAXIPAVUObject@@PBGK@Z @ 240
??2UPrefab@@SAPAXIPAVUObject@@VFName@@K@Z @ 241
??2UPrefab@@SAPAXIPAW4EInternal@@@Z @ 242
??2UPrefabExporterT3D@@SAPAXIPAVUObject@@PAGK@Z @ 243
??2UPrefabExporterT3D@@SAPAXIPAVUObject@@PBGK@Z @ 244
??2UPrefabExporterT3D@@SAPAXIPAVUObject@@VFName@@K@Z @ 245
??2UPrefabExporterT3D@@SAPAXIPAW4EInternal@@@Z @ 246
??2UPrefabFactory@@SAPAXIPAVUObject@@PAGK@Z @ 247
??2UPrefabFactory@@SAPAXIPAVUObject@@PBGK@Z @ 248
??2UPrefabFactory@@SAPAXIPAVUObject@@VFName@@K@Z @ 249
??2UPrefabFactory@@SAPAXIPAW4EInternal@@@Z @ 250
??2USoundExporterWAV@@SAPAXIPAVUObject@@PAGK@Z @ 251
??2USoundExporterWAV@@SAPAXIPAVUObject@@PBGK@Z @ 252
??2USoundExporterWAV@@SAPAXIPAVUObject@@VFName@@K@Z @ 253
??2USoundExporterWAV@@SAPAXIPAW4EInternal@@@Z @ 254
??2USoundFactory@@SAPAXIPAVUObject@@PAGK@Z @ 255
??2USoundFactory@@SAPAXIPAVUObject@@PBGK@Z @ 256
??2USoundFactory@@SAPAXIPAVUObject@@VFName@@K@Z @ 257
??2USoundFactory@@SAPAXIPAW4EInternal@@@Z @ 258
??2UStaticMeshExporterT3D@@SAPAXIPAVUObject@@PAGK@Z @ 259
??2UStaticMeshExporterT3D@@SAPAXIPAVUObject@@PBGK@Z @ 260
??2UStaticMeshExporterT3D@@SAPAXIPAVUObject@@VFName@@K@Z @ 261
??2UStaticMeshExporterT3D@@SAPAXIPAW4EInternal@@@Z @ 262
??2UStaticMeshFactory@@SAPAXIPAVUObject@@PAGK@Z @ 263
??2UStaticMeshFactory@@SAPAXIPAVUObject@@PBGK@Z @ 264
??2UStaticMeshFactory@@SAPAXIPAVUObject@@VFName@@K@Z @ 265
??2UStaticMeshFactory@@SAPAXIPAW4EInternal@@@Z @ 266
??2UTextBufferExporterTXT@@SAPAXIPAVUObject@@PAGK@Z @ 267
??2UTextBufferExporterTXT@@SAPAXIPAVUObject@@PBGK@Z @ 268
??2UTextBufferExporterTXT@@SAPAXIPAVUObject@@VFName@@K@Z @ 269
??2UTextBufferExporterTXT@@SAPAXIPAW4EInternal@@@Z @ 270
??2UTextureExporterBMP@@SAPAXIPAVUObject@@PAGK@Z @ 271
??2UTextureExporterBMP@@SAPAXIPAVUObject@@PBGK@Z @ 272
??2UTextureExporterBMP@@SAPAXIPAVUObject@@VFName@@K@Z @ 273
??2UTextureExporterBMP@@SAPAXIPAW4EInternal@@@Z @ 274
??2UTextureExporterDDS@@SAPAXIPAVUObject@@PAGK@Z @ 275
??2UTextureExporterDDS@@SAPAXIPAVUObject@@PBGK@Z @ 276
??2UTextureExporterDDS@@SAPAXIPAVUObject@@VFName@@K@Z @ 277
??2UTextureExporterDDS@@SAPAXIPAW4EInternal@@@Z @ 278
??2UTextureExporterPCX@@SAPAXIPAVUObject@@PAGK@Z @ 279
??2UTextureExporterPCX@@SAPAXIPAVUObject@@PBGK@Z @ 280
??2UTextureExporterPCX@@SAPAXIPAVUObject@@VFName@@K@Z @ 281
??2UTextureExporterPCX@@SAPAXIPAW4EInternal@@@Z @ 282
??2UTextureExporterTGA@@SAPAXIPAVUObject@@PAGK@Z @ 283
??2UTextureExporterTGA@@SAPAXIPAVUObject@@PBGK@Z @ 284
??2UTextureExporterTGA@@SAPAXIPAVUObject@@VFName@@K@Z @ 285
??2UTextureExporterTGA@@SAPAXIPAW4EInternal@@@Z @ 286
??2UTextureExporterUPT@@SAPAXIPAVUObject@@PAGK@Z @ 287
??2UTextureExporterUPT@@SAPAXIPAVUObject@@PBGK@Z @ 288
??2UTextureExporterUPT@@SAPAXIPAVUObject@@VFName@@K@Z @ 289
??2UTextureExporterUPT@@SAPAXIPAW4EInternal@@@Z @ 290
??2UTextureFactory@@SAPAXIPAVUObject@@PAGK@Z @ 291
??2UTextureFactory@@SAPAXIPAVUObject@@PBGK@Z @ 292
??2UTextureFactory@@SAPAXIPAVUObject@@VFName@@K@Z @ 293
??2UTextureFactory@@SAPAXIPAW4EInternal@@@Z @ 294
??2UTextureFactoryNew@@SAPAXIPAVUObject@@PAGK@Z @ 295
??2UTextureFactoryNew@@SAPAXIPAVUObject@@PBGK@Z @ 296
??2UTextureFactoryNew@@SAPAXIPAVUObject@@VFName@@K@Z @ 297
??2UTextureFactoryNew@@SAPAXIPAW4EInternal@@@Z @ 298
??2UTransBuffer@@SAPAXIPAVUObject@@PAGK@Z @ 299
??2UTransBuffer@@SAPAXIPAVUObject@@PBGK@Z @ 300
??2UTransBuffer@@SAPAXIPAVUObject@@VFName@@K@Z @ 301
??2UTransBuffer@@SAPAXIPAW4EInternal@@@Z @ 302
??2UTransactor@@SAPAXIPAVUObject@@PAGK@Z @ 303
??2UTransactor@@SAPAXIPAVUObject@@PBGK@Z @ 304
??2UTransactor@@SAPAXIPAVUObject@@VFName@@K@Z @ 305
??2UTransactor@@SAPAXIPAW4EInternal@@@Z @ 306
??2UTrueTypeFontFactory@@SAPAXIPAVUObject@@PAGK@Z @ 307
??2UTrueTypeFontFactory@@SAPAXIPAVUObject@@PBGK@Z @ 308
??2UTrueTypeFontFactory@@SAPAXIPAVUObject@@VFName@@K@Z @ 309
??2UTrueTypeFontFactory@@SAPAXIPAW4EInternal@@@Z @ 310
??4FBuilderPoly@@QAEAAU0@ABU0@@Z @ 311
??4FConstraints@@QAEAAV0@ABV0@@Z @ 312
??4FEditorConstraints@@QAEAAV0@ABV0@@Z @ 313
??4FGlobalTopicTable@@QAEAAV0@ABV0@@Z @ 314
??4FLevelStat@@QAEAAV0@ABV0@@Z @ 315
??4FPerlinNoise@@QAEAAV0@ABV0@@Z @ 316
??4UAnimNotifyProps@@QAEAAV0@ABV0@@Z @ 317
??4UBitArray@@QAEAAV0@ABV0@@Z @ 318
??4UBitMatrix@@QAEAAV0@ABV0@@Z @ 319
??4UBrushBuilder@@QAEAAV0@ABV0@@Z @ 320
??4UClassExporterH@@QAEAAV0@ABV0@@Z @ 321
??4UClassExporterUC@@QAEAAV0@ABV0@@Z @ 322
??4UClassFactoryNew@@QAEAAV0@ABV0@@Z @ 323
??4UClassFactoryUC@@QAEAAV0@ABV0@@Z @ 324
??4UConvexVolumeExporterT3D@@QAEAAV0@ABV0@@Z @ 325
??4UConvexVolumeFactory@@QAEAAV0@ABV0@@Z @ 326
??4UEditInfo@@QAEAAV0@ABV0@@Z @ 327
??4UEditorEngine@@QAEAAV0@ABV0@@Z @ 328
??4UFontFactory@@QAEAAV0@ABV0@@Z @ 329
??4ULevelExporterOBJ@@QAEAAV0@ABV0@@Z @ 330
??4ULevelExporterSTL@@QAEAAV0@ABV0@@Z @ 331
??4ULevelExporterT3D@@QAEAAV0@ABV0@@Z @ 332
??4ULevelFactory@@QAEAAV0@ABV0@@Z @ 333
??4ULevelFactoryNew@@QAEAAV0@ABV0@@Z @ 334
??4UMaterialFactory@@QAEAAV0@ABV0@@Z @ 335
??4UModelExporterT3D@@QAEAAV0@ABV0@@Z @ 336
??4UModelFactory@@QAEAAV0@ABV0@@Z @ 337
??4UPolysExporterOBJ@@QAEAAV0@ABV0@@Z @ 338
??4UPolysExporterT3D@@QAEAAV0@ABV0@@Z @ 339
??4UPolysFactory@@QAEAAV0@ABV0@@Z @ 340
??4UPrefab@@QAEAAV0@ABV0@@Z @ 341
??4UPrefabExporterT3D@@QAEAAV0@ABV0@@Z @ 342
??4UPrefabFactory@@QAEAAV0@ABV0@@Z @ 343
??4USoundExporterWAV@@QAEAAV0@ABV0@@Z @ 344
??4USoundFactory@@QAEAAV0@ABV0@@Z @ 345
??4UStaticMeshExporterT3D@@QAEAAV0@ABV0@@Z @ 346
??4UStaticMeshFactory@@QAEAAV0@ABV0@@Z @ 347
??4UTextBufferExporterTXT@@QAEAAV0@ABV0@@Z @ 348
??4UTextureExporterBMP@@QAEAAV0@ABV0@@Z @ 349
??4UTextureExporterDDS@@QAEAAV0@ABV0@@Z @ 350
??4UTextureExporterPCX@@QAEAAV0@ABV0@@Z @ 351
??4UTextureExporterTGA@@QAEAAV0@ABV0@@Z @ 352
??4UTextureExporterUPT@@QAEAAV0@ABV0@@Z @ 353
??4UTextureFactory@@QAEAAV0@ABV0@@Z @ 354
??4UTextureFactoryNew@@QAEAAV0@ABV0@@Z @ 355
??4UTransBuffer@@QAEAAV0@ABV0@@Z @ 356
??4UTransactor@@QAEAAV0@ABV0@@Z @ 357
??4UTrueTypeFontFactory@@QAEAAV0@ABV0@@Z @ 358
??_7FConstraints@@6B@ @ 359
??_7FEditorConstraints@@6B@ @ 360
??_7FLevelStat@@6B@ @ 361
??_7FPerlinNoise@@6B@ @ 362
??_7UAnimNotifyProps@@6B@ @ 363
??_7UBitArray@@6B@ @ 364
??_7UBitMatrix@@6B@ @ 365
??_7UBrushBuilder@@6B@ @ 366
??_7UClassExporterH@@6B@ @ 367
??_7UClassExporterUC@@6B@ @ 368
??_7UClassFactoryNew@@6B@ @ 369
??_7UClassFactoryUC@@6B@ @ 370
??_7UConvexVolumeExporterT3D@@6B@ @ 371
??_7UConvexVolumeFactory@@6B@ @ 372
??_7UEditInfo@@6B@ @ 373
??_7UEditorEngine@@6BFExec@@@ @ 374
??_7UEditorEngine@@6BUObject@@@ @ 375
??_7UFontFactory@@6B@ @ 376
??_7ULevelExporterOBJ@@6B@ @ 377
??_7ULevelExporterSTL@@6B@ @ 378
??_7ULevelExporterT3D@@6B@ @ 379
??_7ULevelFactory@@6B@ @ 380
??_7ULevelFactoryNew@@6B@ @ 381
??_7UMaterialFactory@@6B@ @ 382
??_7UModelExporterT3D@@6B@ @ 383
??_7UModelFactory@@6B@ @ 384
??_7UPolysExporterOBJ@@6B@ @ 385
??_7UPolysExporterT3D@@6B@ @ 386
??_7UPolysFactory@@6B@ @ 387
??_7UPrefab@@6B@ @ 388
??_7UPrefabExporterT3D@@6B@ @ 389
??_7UPrefabFactory@@6B@ @ 390
??_7USoundExporterWAV@@6B@ @ 391
??_7USoundFactory@@6B@ @ 392
??_7UStaticMeshExporterT3D@@6B@ @ 393
??_7UStaticMeshFactory@@6B@ @ 394
??_7UTextBufferExporterTXT@@6B@ @ 395
??_7UTextureExporterBMP@@6B@ @ 396
??_7UTextureExporterDDS@@6B@ @ 397
??_7UTextureExporterPCX@@6B@ @ 398
??_7UTextureExporterTGA@@6B@ @ 399
??_7UTextureExporterUPT@@6B@ @ 400
??_7UTextureFactory@@6B@ @ 401
??_7UTextureFactoryNew@@6B@ @ 402
??_7UTransBuffer@@6B@ @ 403
??_7UTransactor@@6B@ @ 404
??_7UTrueTypeFontFactory@@6B@ @ 405
?AddActor@UEditorEngine@@UAEPAVAActor@@PAVULevel@@PAVUClass@@VFVector@@H@Z @ 406
?AddBspGeom@FLevelStat@@AAEXPAVUModel@@@Z @ 407
?AddMaterialTextures@FLevelStat@@AAEXPAVUMaterial@@@Z @ 408
?AddMeshGeom@FLevelStat@@AAEXPAVULodMesh@@@Z @ 409
?AddStaticMeshGeom@FLevelStat@@AAEXPAVUStaticMesh@@@Z @ 410
?AddTerrainGeom@FLevelStat@@AAEXPAVATerrainInfo@@@Z @ 411
?Analyze@FLevelStat@@QAEHPAVULevel@@@Z @ 412
?Begin@UTransBuffer@@UAEXPBGH@Z @ 413
?BuildCollisionFromList@@YAXPAVUStaticMesh@@ABV?$TArray@VFVector@@@@@Z @ 414
?CalcDirectionalLightmaps@UEditorEngine@@QAEXPAVULevel@@VFString@@PAVUViewport@@@Z @ 415
?CanRedo@UTransBuffer@@UAEHPAVFString@@@Z @ 416
?CanUndo@UTransBuffer@@UAEHPAVFString@@@Z @ 417
?CheckScripts@UEditorEngine@@UAEHPAVFFeedbackContext@@PAVUClass@@AAVFOutputDevice@@@Z @ 418
?CheckState@UTransBuffer@@QAEXXZ @ 419
?Cleanse@UEditorEngine@@UAEXHPBG@Z @ 420
?Click@UEditorEngine@@UAEXPAVUViewport@@KMM@Z @ 421
?Continue@UTransBuffer@@UAEXXZ @ 422
?CreateInternalTransaction@UTransBuffer@@UAEPAVFTransactionBase@@XZ @ 423
?CreateModelFromStaticMesh@@YAXPAVUModel@@PAVAActor@@@Z @ 424
?CreateStaticMesh@@YAPAVUStaticMesh@@AAV?$TArray@UFStaticMeshTriangle@@@@AAV?$TArray@VFStaticMeshMaterial@@@@PAVUObject@@VFName@@@Z @ 425
?CreateStaticMeshFromActor@@YAPAVUStaticMesh@@PAVUObject@@VFName@@PAVAActor@@@Z @ 426
?CreateStaticMeshFromBrush@@YAPAVUStaticMesh@@PAVUObject@@VFName@@PAVABrush@@PAVUModel@@@Z @ 427
?CreateStaticMeshFromLWO@@YAPAVUStaticMesh@@PAVUObject@@VFName@@ABVFString@@PAVULevel@@PAVUClass@@@Z @ 428
?CreateTextureFromDC@UTrueTypeFontFactory@@QAEPAVUTexture@@PAVUFont@@KHH@Z @ 429
?CreateTrans@UEditorEngine@@UAEPAVUTransactor@@XZ @ 430
?CreateWithNormals@UEditorEngine@@QAEXPAVUStaticMesh@@AAV?$TArray@UFStaticMeshTriangle@@@@AAV?$TArray@VFVector@@@@AAV?$TArray@VFStaticMeshMaterial@@@@2@Z @ 431
?DDSConversion@UEditorEngine@@QAEHPAGPBGAAVFOutputDevice@@@Z @ 432
?Destroy@UEditorEngine@@UAEXXZ @ 433
?Destroy@UPrefab@@UAEXXZ @ 434
?Destroy@UTransBuffer@@UAEXXZ @ 435
?Draw@UEditorEngine@@UAEXPAVUViewport@@HPAEPAH@Z @ 436
?EDITOR_Build@@3VFName@@A @ 437
?EDITOR_CreateMaterial@@3VFName@@A @ 438
?End@UTransBuffer@@UAEXXZ @ 439
?Exec@UEditorEngine@@UAEHPBGAAVFOutputDevice@@@Z @ 440
?ExecMacro@UEditorEngine@@QAEXPBGAAVFOutputDevice@@@Z @ 441
?Exec_Anim@UEditorEngine@@QAEHPBGAAVFOutputDevice@@@Z @ 442
?Exec_Audio@UEditorEngine@@QAEHPBGAAVFOutputDevice@@@Z @ 443
?Exec_BSP@UEditorEngine@@QAEHPBGAAVFOutputDevice@@@Z @ 444
?Exec_Brush@UEditorEngine@@QAEHPBGAAVFOutputDevice@@@Z @ 445
?Exec_BrushClip@UEditorEngine@@QAEHPBGAAVFOutputDevice@@@Z @ 446
?Exec_Camera@UEditorEngine@@QAEHPBGAAVFOutputDevice@@@Z @ 447
?Exec_CheckStaticMesh@UEditorEngine@@QAEHPBGAAVFOutputDevice@@@Z @ 448
?Exec_Class@UEditorEngine@@QAEHPBGAAVFOutputDevice@@@Z @ 449
?Exec_CleanupAntiPortal@UEditorEngine@@QAEHPBGAAVFOutputDevice@@@Z @ 450
?Exec_FXFileImport@UEditorEngine@@QAEHPBGAAVFOutputDevice@@@Z @ 451
?Exec_Fluid@UEditorEngine@@QAEHPBGAAVFOutputDevice@@@Z @ 452
?Exec_Level@UEditorEngine@@QAEHPBGAAVFOutputDevice@@@Z @ 453
?Exec_Light@UEditorEngine@@QAEHPBGAAVFOutputDevice@@@Z @ 454
?Exec_Map@UEditorEngine@@QAEHPBGAAVFOutputDevice@@@Z @ 455
?Exec_Obj@UEditorEngine@@QAEHPBGAAVFOutputDevice@@@Z @ 456
?Exec_Paths@UEditorEngine@@QAEHPBGAAVFOutputDevice@@@Z @ 457
?Exec_Poly@UEditorEngine@@QAEHPBGAAVFOutputDevice@@@Z @ 458
?Exec_Select@UEditorEngine@@QAEHPBGAAVFOutputDevice@@@Z @ 459
?Exec_Shader@UEditorEngine@@QAEHPBGAAVFOutputDevice@@@Z @ 460
?Exec_StaticMesh@UEditorEngine@@QAEHPBGAAVFOutputDevice@@@Z @ 461
?Exec_StaticMeshImport@UEditorEngine@@QAEHPBGAAVFOutputDevice@@@Z @ 462
?Exec_StaticMeshImportToEditor@UEditorEngine@@QAEHPBGAAVFOutputDevice@@@Z @ 463
?Exec_Terrain@UEditorEngine@@QAEHPBGAAVFOutputDevice@@@Z @ 464
?Exec_Texture@UEditorEngine@@QAEHPBGAAVFOutputDevice@@@Z @ 465
?Exec_Transaction@UEditorEngine@@QAEHPBGAAVFOutputDevice@@@Z @ 466
?Exit@FGlobalTopicTable@@QAEXXZ @ 467
?ExportBinary@USoundExporterWAV@@UAEHPAVUObject@@PBGAAVFArchive@@PAVFFeedbackContext@@@Z @ 468
?ExportBinary@UTextureExporterBMP@@UAEHPAVUObject@@PBGAAVFArchive@@PAVFFeedbackContext@@@Z @ 469
?ExportBinary@UTextureExporterDDS@@UAEHPAVUObject@@PBGAAVFArchive@@PAVFFeedbackContext@@@Z @ 470
?ExportBinary@UTextureExporterPCX@@UAEHPAVUObject@@PBGAAVFArchive@@PAVFFeedbackContext@@@Z @ 471
?ExportBinary@UTextureExporterTGA@@UAEHPAVUObject@@PBGAAVFArchive@@PAVFFeedbackContext@@@Z @ 472
?ExportBinary@UTextureExporterUPT@@UAEHPAVUObject@@PBGAAVFArchive@@PAVFFeedbackContext@@@Z @ 473
?ExportText@UClassExporterH@@UAEHPAVUObject@@PBGAAVFOutputDevice@@PAVFFeedbackContext@@@Z @ 474
?ExportText@UClassExporterUC@@UAEHPAVUObject@@PBGAAVFOutputDevice@@PAVFFeedbackContext@@@Z @ 475
?ExportText@UConvexVolumeExporterT3D@@UAEHPAVUObject@@PBGAAVFOutputDevice@@PAVFFeedbackContext@@@Z @ 476
?ExportText@ULevelExporterOBJ@@UAEHPAVUObject@@PBGAAVFOutputDevice@@PAVFFeedbackContext@@@Z @ 477
?ExportText@ULevelExporterSTL@@UAEHPAVUObject@@PBGAAVFOutputDevice@@PAVFFeedbackContext@@@Z @ 478
?ExportText@ULevelExporterT3D@@UAEHPAVUObject@@PBGAAVFOutputDevice@@PAVFFeedbackContext@@@Z @ 479
?ExportText@UModelExporterT3D@@UAEHPAVUObject@@PBGAAVFOutputDevice@@PAVFFeedbackContext@@@Z @ 480
?ExportText@UPolysExporterOBJ@@UAEHPAVUObject@@PBGAAVFOutputDevice@@PAVFFeedbackContext@@@Z @ 481
?ExportText@UPolysExporterT3D@@UAEHPAVUObject@@PBGAAVFOutputDevice@@PAVFFeedbackContext@@@Z @ 482
?ExportText@UPrefabExporterT3D@@UAEHPAVUObject@@PBGAAVFOutputDevice@@PAVFFeedbackContext@@@Z @ 483
?ExportText@UStaticMeshExporterT3D@@UAEHPAVUObject@@PBGAAVFOutputDevice@@PAVFFeedbackContext@@@Z @ 484
?ExportText@UTextBufferExporterTXT@@UAEHPAVUObject@@PBGAAVFOutputDevice@@PAVFFeedbackContext@@@Z @ 485
?FactoryCreateBinary@UFontFactory@@UAEPAVUObject@@PAVUClass@@PAV2@VFName@@K1PBGAAPBEPBEPAVFFeedbackContext@@@Z @ 486
?FactoryCreateBinary@UPrefabFactory@@UAEPAVUObject@@PAVUClass@@PAV2@VFName@@K1PBGAAPBEPBEPAVFFeedbackContext@@@Z @ 487
?FactoryCreateBinary@USoundFactory@@UAEPAVUObject@@PAVUClass@@PAV2@VFName@@K1PBGAAPBEPBEPAVFFeedbackContext@@@Z @ 488
?FactoryCreateBinary@UTextureFactory@@UAEPAVUObject@@PAVUClass@@PAV2@VFName@@K1PBGAAPBEPBEPAVFFeedbackContext@@@Z @ 489
?FactoryCreateNew@UClassFactoryNew@@UAEPAVUObject@@PAVUClass@@PAV2@VFName@@K1PAVFFeedbackContext@@@Z @ 490
?FactoryCreateNew@ULevelFactoryNew@@UAEPAVUObject@@PAVUClass@@PAV2@VFName@@K1PAVFFeedbackContext@@@Z @ 491
?FactoryCreateNew@UTextureFactoryNew@@UAEPAVUObject@@PAVUClass@@PAV2@VFName@@K1PAVFFeedbackContext@@@Z @ 492
?FactoryCreateNew@UTrueTypeFontFactory@@UAEPAVUObject@@PAVUClass@@PAV2@VFName@@K1PAVFFeedbackContext@@@Z @ 493
?FactoryCreateText@UClassFactoryUC@@UAEPAVUObject@@PAVULevel@@PAVUClass@@PAV2@VFName@@K2PBGAAPBG4PAVFFeedbackContext@@@Z @ 494
?FactoryCreateText@UConvexVolumeFactory@@UAEPAVUObject@@PAVULevel@@PAVUClass@@PAV2@VFName@@K2PBGAAPBG4PAVFFeedbackContext@@@Z @ 495
?FactoryCreateText@ULevelFactory@@UAEPAVUObject@@PAVULevel@@PAVUClass@@PAV2@VFName@@K2PBGAAPBG4PAVFFeedbackContext@@@Z @ 496
?FactoryCreateText@UModelFactory@@UAEPAVUObject@@PAVULevel@@PAVUClass@@PAV2@VFName@@K2PBGAAPBG4PAVFFeedbackContext@@@Z @ 497
?FactoryCreateText@UPolysFactory@@UAEPAVUObject@@PAVULevel@@PAVUClass@@PAV2@VFName@@K2PBGAAPBG4PAVFFeedbackContext@@@Z @ 498
?FactoryCreateText@UStaticMeshFactory@@UAEPAVUObject@@PAVULevel@@PAVUClass@@PAV2@VFName@@K2PBGAAPBG4PAVFFeedbackContext@@@Z @ 499
?Find@FGlobalTopicTable@@AAEPAVFTopicHandler@@PBG@Z @ 500
?FinishAllSnaps@UEditorEngine@@UAEXPAVULevel@@@Z @ 501
?FinishDo@UTransBuffer@@QAEXXZ @ 502
?GEditor@@3PAVUEditorEngine@@A @ 503
?GTopics@@3VFGlobalTopicTable@@A @ 504
?Get@FGlobalTopicTable@@QAEXPAVULevel@@PBG1AAVFOutputDevice@@@Z @ 505
?Get@UBitArray@@QAEHK@Z @ 506
?Get@UBitMatrix@@QAEHKK@Z @ 507
?Get@UEditorEngine@@UAEXPBG0AAVFOutputDevice@@@Z @ 508
?GetBEGIN@@YAHPAPBGPBG@Z @ 509
?GetByteTotal@FLevelStat@@QAEKH@Z @ 510
?GetCharacterManager@UEditorEngine@@UAEPAVUwCharacterManager@@XZ @ 511
?GetCountTotal@FLevelStat@@QAEKH@Z @ 512
?GetCurrentViewport@UEditorEngine@@QAEPAVUViewport@@XZ @ 513
?GetEND@@YAHPAPBGPBG@Z @ 514
?GetFPLANE@@YAHPBGAAVFPlane@@@Z @ 515
?GetFROTATOR@@YAHPBG0AAVFRotator@@H@Z @ 516
?GetFROTATOR@@YAHPBGAAVFRotator@@H@Z @ 517
?GetFSCALE@@YAHPBGAAVFScale@@@Z @ 518
?GetFVECTOR@@YAHPBG0AAVFVector@@@Z @ 519
?GetFVECTOR@@YAHPBGAAVFVector@@@Z @ 520
?GetFormatDesc@FLevelStat@@CA?AVFString@@W4ETextureFormat@@@Z @ 521
?GetGameManager@UEditorEngine@@UAEPAVUwGameManager@@XZ @ 522
?GetItemIterator@UEditorEngine@@UAEPAVUItemIterator@@XZ @ 523
?GetPivotLocation@UEditorEngine@@UAE?AVFVector@@XZ @ 524
?GetSUBSTRING@@YAHPBG0PAGH@Z @ 525
?GetWeaponManager@UEditorEngine@@UAEPAVUwWeaponManager@@XZ @ 526
?HasBeenSaved@UTransBuffer@@UAEXXZ @ 527
?ImportProperties@@YAPBGPAVUClass@@PAEPAVULevel@@PBGPAVUObject@@PAVFFeedbackContext@@H@Z @ 528
?Init@FGlobalTopicTable@@QAEXXZ @ 529
?Init@FLevelStat@@AAEXXZ @ 530
?Init@UEditorEngine@@UAEXXZ @ 531
?InitEditor@UEditorEngine@@QAEXXZ @ 532
?IntExport@@YAHPAVUObject@@PBGHHH@Z @ 533
?IntExport@@YAHPBG0HHH@Z @ 534
?IntGetNameFromPackageName@@YAXABVFString@@AAV1@@Z @ 535
?IntMatchesPackage@@YAHPAVUObject@@PBG@Z @ 536
?IntMatchesPackage@@YAHPBG0@Z @ 537
?IntMatchesPackage@@YAHPBG@Z @ 538
?InternalConstructor@UAnimNotifyProps@@SAXPAX@Z @ 539
?InternalConstructor@UBitArray@@SAXPAX@Z @ 540
?InternalConstructor@UBitMatrix@@SAXPAX@Z @ 541
?InternalConstructor@UBrushBuilder@@SAXPAX@Z @ 542
?InternalConstructor@UClassExporterH@@SAXPAX@Z @ 543
?InternalConstructor@UClassExporterUC@@SAXPAX@Z @ 544
?InternalConstructor@UClassFactoryNew@@SAXPAX@Z @ 545
?InternalConstructor@UClassFactoryUC@@SAXPAX@Z @ 546
?InternalConstructor@UConvexVolumeExporterT3D@@SAXPAX@Z @ 547
?InternalConstructor@UConvexVolumeFactory@@SAXPAX@Z @ 548
?InternalConstructor@UEditInfo@@SAXPAX@Z @ 549
?InternalConstructor@UEditorEngine@@SAXPAX@Z @ 550
?InternalConstructor@UFontFactory@@SAXPAX@Z @ 551
?InternalConstructor@ULevelExporterOBJ@@SAXPAX@Z @ 552
?InternalConstructor@ULevelExporterSTL@@SAXPAX@Z @ 553
?InternalConstructor@ULevelExporterT3D@@SAXPAX@Z @ 554
?InternalConstructor@ULevelFactory@@SAXPAX@Z @ 555
?InternalConstructor@ULevelFactoryNew@@SAXPAX@Z @ 556
?InternalConstructor@UMaterialFactory@@SAXPAX@Z @ 557
?InternalConstructor@UModelExporterT3D@@SAXPAX@Z @ 558
?InternalConstructor@UModelFactory@@SAXPAX@Z @ 559
?InternalConstructor@UPolysExporterOBJ@@SAXPAX@Z @ 560
?InternalConstructor@UPolysExporterT3D@@SAXPAX@Z @ 561
?InternalConstructor@UPolysFactory@@SAXPAX@Z @ 562
?InternalConstructor@UPrefab@@SAXPAX@Z @ 563
?InternalConstructor@UPrefabExporterT3D@@SAXPAX@Z @ 564
?InternalConstructor@UPrefabFactory@@SAXPAX@Z @ 565
?InternalConstructor@USoundExporterWAV@@SAXPAX@Z @ 566
?InternalConstructor@USoundFactory@@SAXPAX@Z @ 567
?InternalConstructor@UStaticMeshExporterT3D@@SAXPAX@Z @ 568
?InternalConstructor@UStaticMeshFactory@@SAXPAX@Z @ 569
?InternalConstructor@UTextBufferExporterTXT@@SAXPAX@Z @ 570
?InternalConstructor@UTextureExporterBMP@@SAXPAX@Z @ 571
?InternalConstructor@UTextureExporterDDS@@SAXPAX@Z @ 572
?InternalConstructor@UTextureExporterPCX@@SAXPAX@Z @ 573
?InternalConstructor@UTextureExporterTGA@@SAXPAX@Z @ 574
?InternalConstructor@UTextureExporterUPT@@SAXPAX@Z @ 575
?InternalConstructor@UTextureFactory@@SAXPAX@Z @ 576
?InternalConstructor@UTextureFactoryNew@@SAXPAX@Z @ 577
?InternalConstructor@UTransBuffer@@SAXPAX@Z @ 578
?InternalConstructor@UTrueTypeFontFactory@@SAXPAX@Z @ 579
?IsTextureUnique@FLevelStat@@AAEHPAVUTexture@@@Z @ 580
?MakeScripts@UEditorEngine@@UAEHPAVUClass@@PAVFFeedbackContext@@HHH@Z @ 581
?MouseDelta@UEditorEngine@@UAEXPAVUViewport@@KMM@Z @ 582
?MousePosition@UEditorEngine@@UAEXPAVUViewport@@KMM@Z @ 583
?MouseWheel@UEditorEngine@@UAEXPAVUViewport@@KH@Z @ 584
?NeedsToBeSaved@UTransBuffer@@UAEHXZ @ 585
?NoteActorMovement@UEditorEngine@@UAEXPAVULevel@@@Z @ 586
?NoteSelectionChange@UEditorEngine@@UAEXPAVULevel@@@Z @ 587
?PostLoad@UPrefab@@UAEXXZ @ 588
?PrintGeomSummary@FLevelStat@@QAEXAAVFOutputDevice@@@Z @ 589
?PrintTextureDetails@FLevelStat@@QAEXAAVFOutputDevice@@@Z @ 590
?PrintTextureSummary@FLevelStat@@QAEXAAVFOutputDevice@@@Z @ 591
?PrivateStaticClass@UAnimNotifyProps@@0VUClass@@A @ 592
?PrivateStaticClass@UBitArray@@0VUClass@@A @ 593
?PrivateStaticClass@UBitMatrix@@0VUClass@@A @ 594
?PrivateStaticClass@UBrushBuilder@@0VUClass@@A @ 595
?PrivateStaticClass@UClassExporterH@@0VUClass@@A @ 596
?PrivateStaticClass@UClassExporterUC@@0VUClass@@A @ 597
?PrivateStaticClass@UClassFactoryNew@@0VUClass@@A @ 598
?PrivateStaticClass@UClassFactoryUC@@0VUClass@@A @ 599
?PrivateStaticClass@UConvexVolumeExporterT3D@@0VUClass@@A @ 600
?PrivateStaticClass@UConvexVolumeFactory@@0VUClass@@A @ 601
?PrivateStaticClass@UEditInfo@@0VUClass@@A @ 602
?PrivateStaticClass@UEditorEngine@@0VUClass@@A @ 603
?PrivateStaticClass@UFontFactory@@0VUClass@@A @ 604
?PrivateStaticClass@ULevelExporterOBJ@@0VUClass@@A @ 605
?PrivateStaticClass@ULevelExporterSTL@@0VUClass@@A @ 606
?PrivateStaticClass@ULevelExporterT3D@@0VUClass@@A @ 607
?PrivateStaticClass@ULevelFactory@@0VUClass@@A @ 608
?PrivateStaticClass@ULevelFactoryNew@@0VUClass@@A @ 609
?PrivateStaticClass@UMaterialFactory@@0VUClass@@A @ 610
?PrivateStaticClass@UModelExporterT3D@@0VUClass@@A @ 611
?PrivateStaticClass@UModelFactory@@0VUClass@@A @ 612
?PrivateStaticClass@UPolysExporterOBJ@@0VUClass@@A @ 613
?PrivateStaticClass@UPolysExporterT3D@@0VUClass@@A @ 614
?PrivateStaticClass@UPolysFactory@@0VUClass@@A @ 615
?PrivateStaticClass@UPrefab@@0VUClass@@A @ 616
?PrivateStaticClass@UPrefabExporterT3D@@0VUClass@@A @ 617
?PrivateStaticClass@UPrefabFactory@@0VUClass@@A @ 618
?PrivateStaticClass@USoundExporterWAV@@0VUClass@@A @ 619
?PrivateStaticClass@USoundFactory@@0VUClass@@A @ 620
?PrivateStaticClass@UStaticMeshExporterT3D@@0VUClass@@A @ 621
?PrivateStaticClass@UStaticMeshFactory@@0VUClass@@A @ 622
?PrivateStaticClass@UTextBufferExporterTXT@@0VUClass@@A @ 623
?PrivateStaticClass@UTextureExporterBMP@@0VUClass@@A @ 624
?PrivateStaticClass@UTextureExporterDDS@@0VUClass@@A @ 625
?PrivateStaticClass@UTextureExporterPCX@@0VUClass@@A @ 626
?PrivateStaticClass@UTextureExporterTGA@@0VUClass@@A @ 627
?PrivateStaticClass@UTextureExporterUPT@@0VUClass@@A @ 628
?PrivateStaticClass@UTextureFactory@@0VUClass@@A @ 629
?PrivateStaticClass@UTextureFactoryNew@@0VUClass@@A @ 630
?PrivateStaticClass@UTransBuffer@@0VUClass@@A @ 631
?PrivateStaticClass@UTransactor@@0VUClass@@A @ 632
?PrivateStaticClass@UTrueTypeFontFactory@@0VUClass@@A @ 633
?ProcessAmbientOcclusion@UEditorEngine@@QAEXPAVULevel@@H@Z @ 634
?Redo@UTransBuffer@@UAEHXZ @ 635
?RedrawAllViewports@UEditorEngine@@QAEXH@Z @ 636
?RedrawCurrentViewport@UEditorEngine@@QAEXXZ @ 637
?RedrawLevel@UEditorEngine@@UAEXPAVULevel@@@Z @ 638
?Register@FGlobalTopicTable@@QAEXPBGPAVFTopicHandler@@@Z @ 639
?Reset@UTransBuffer@@UAEXPBG@Z @ 640
?ResetPivot@UEditorEngine@@UAEXXZ @ 641
?ResetSound@UEditorEngine@@UAEXXZ @ 642
?SafeExec@UEditorEngine@@UAEHPBGAAVFOutputDevice@@@Z @ 643
?SelectActor@UEditorEngine@@UAEXPAVULevel@@PAVAActor@@HH@Z @ 644
?SelectBSPSurf@UEditorEngine@@UAEXPAVULevel@@HHH@Z @ 645
?SelectNone@UEditorEngine@@UAEXPAVULevel@@HH@Z @ 646
?Serialize@UBitArray@@UAEXAAVFArchive@@@Z @ 647
?Serialize@UBitMatrix@@UAEXAAVFArchive@@@Z @ 648
?Serialize@UClassFactoryNew@@UAEXAAVFArchive@@@Z @ 649
?Serialize@UEditorEngine@@UAEXAAVFArchive@@@Z @ 650
?Serialize@ULevelFactoryNew@@UAEXAAVFArchive@@@Z @ 651
?Serialize@UPrefab@@UAEXAAVFArchive@@@Z @ 652
?Serialize@UTextureFactoryNew@@UAEXAAVFArchive@@@Z @ 653
?Serialize@UTransBuffer@@UAEXAAVFArchive@@@Z @ 654
?Set@FGlobalTopicTable@@QAEXPAVULevel@@PBG11@Z @ 655
?Set@UBitArray@@QAEXKH@Z @ 656
?Set@UBitMatrix@@QAEXKKH@Z @ 657
?Set@UEditorEngine@@UAEXPBG00@Z @ 658
?SetBaseStrings@UEditorEngine@@QAEXXZ @ 659
?SetClientTravel@UEditorEngine@@UAEXPAVUPlayer@@PBGHW4ETravelType@@@Z @ 660
?SetFPLANE@@YAPAGPAGPBVFPlane@@@Z @ 661
?SetFVECTOR@@YAPAGPAGPBVFVector@@@Z @ 662
?SetPivot@UEditorEngine@@UAEXVFVector@@HHH@Z @ 663
?Snap@FEditorConstraints@@UAEHPAVULevel@@AAVFVector@@V3@AAVFRotator@@@Z @ 664
?Snap@FEditorConstraints@@UAEXAAVFRotator@@@Z @ 665
?Snap@FEditorConstraints@@UAEXAAVFVector@@V2@@Z @ 666
?StaticClass@UAnimNotifyProps@@SAPAVUClass@@XZ @ 667
?StaticClass@UBitArray@@SAPAVUClass@@XZ @ 668
?StaticClass@UBitMatrix@@SAPAVUClass@@XZ @ 669
?StaticClass@UBrushBuilder@@SAPAVUClass@@XZ @ 670
?StaticClass@UClassExporterH@@SAPAVUClass@@XZ @ 671
?StaticClass@UClassExporterUC@@SAPAVUClass@@XZ @ 672
?StaticClass@UClassFactoryNew@@SAPAVUClass@@XZ @ 673
?StaticClass@UClassFactoryUC@@SAPAVUClass@@XZ @ 674
?StaticClass@UConvexVolumeExporterT3D@@SAPAVUClass@@XZ @ 675
?StaticClass@UConvexVolumeFactory@@SAPAVUClass@@XZ @ 676
?StaticClass@UEditInfo@@SAPAVUClass@@XZ @ 677
?StaticClass@UEditorEngine@@SAPAVUClass@@XZ @ 678
?StaticClass@UFontFactory@@SAPAVUClass@@XZ @ 679
?StaticClass@ULevelExporterOBJ@@SAPAVUClass@@XZ @ 680
?StaticClass@ULevelExporterSTL@@SAPAVUClass@@XZ @ 681
?StaticClass@ULevelExporterT3D@@SAPAVUClass@@XZ @ 682
?StaticClass@ULevelFactory@@SAPAVUClass@@XZ @ 683
?StaticClass@ULevelFactoryNew@@SAPAVUClass@@XZ @ 684
?StaticClass@UMaterialFactory@@SAPAVUClass@@XZ @ 685
?StaticClass@UModelExporterT3D@@SAPAVUClass@@XZ @ 686
?StaticClass@UModelFactory@@SAPAVUClass@@XZ @ 687
?StaticClass@UPolysExporterOBJ@@SAPAVUClass@@XZ @ 688
?StaticClass@UPolysExporterT3D@@SAPAVUClass@@XZ @ 689
?StaticClass@UPolysFactory@@SAPAVUClass@@XZ @ 690
?StaticClass@UPrefab@@SAPAVUClass@@XZ @ 691
?StaticClass@UPrefabExporterT3D@@SAPAVUClass@@XZ @ 692
?StaticClass@UPrefabFactory@@SAPAVUClass@@XZ @ 693
?StaticClass@USoundExporterWAV@@SAPAVUClass@@XZ @ 694
?StaticClass@USoundFactory@@SAPAVUClass@@XZ @ 695
?StaticClass@UStaticMeshExporterT3D@@SAPAVUClass@@XZ @ 696
?StaticClass@UStaticMeshFactory@@SAPAVUClass@@XZ @ 697
?StaticClass@UTextBufferExporterTXT@@SAPAVUClass@@XZ @ 698
?StaticClass@UTextureExporterBMP@@SAPAVUClass@@XZ @ 699
?StaticClass@UTextureExporterDDS@@SAPAVUClass@@XZ @ 700
?StaticClass@UTextureExporterPCX@@SAPAVUClass@@XZ @ 701
?StaticClass@UTextureExporterTGA@@SAPAVUClass@@XZ @ 702
?StaticClass@UTextureExporterUPT@@SAPAVUClass@@XZ @ 703
?StaticClass@UTextureFactory@@SAPAVUClass@@XZ @ 704
?StaticClass@UTextureFactoryNew@@SAPAVUClass@@XZ @ 705
?StaticClass@UTransBuffer@@SAPAVUClass@@XZ @ 706
?StaticClass@UTransactor@@SAPAVUClass@@XZ @ 707
?StaticClass@UTrueTypeFontFactory@@SAPAVUClass@@XZ @ 708
?StaticConstructor@UClassExporterH@@QAEXXZ @ 709
?StaticConstructor@UClassExporterUC@@QAEXXZ @ 710
?StaticConstructor@UClassFactoryNew@@QAEXXZ @ 711
?StaticConstructor@UClassFactoryUC@@QAEXXZ @ 712
?StaticConstructor@UConvexVolumeExporterT3D@@QAEXXZ @ 713
?StaticConstructor@UConvexVolumeFactory@@QAEXXZ @ 714
?StaticConstructor@UEditorEngine@@QAEXXZ @ 715
?StaticConstructor@UFontFactory@@QAEXXZ @ 716
?StaticConstructor@ULevelExporterOBJ@@QAEXXZ @ 717
?StaticConstructor@ULevelExporterSTL@@QAEXXZ @ 718
?StaticConstructor@ULevelExporterT3D@@QAEXXZ @ 719
?StaticConstructor@ULevelFactory@@QAEXXZ @ 720
?StaticConstructor@ULevelFactoryNew@@QAEXXZ @ 721
?StaticConstructor@UModelExporterT3D@@QAEXXZ @ 722
?StaticConstructor@UModelFactory@@QAEXXZ @ 723
?StaticConstructor@UPolysExporterOBJ@@QAEXXZ @ 724
?StaticConstructor@UPolysExporterT3D@@QAEXXZ @ 725
?StaticConstructor@UPolysFactory@@QAEXXZ @ 726
?StaticConstructor@UPrefabExporterT3D@@QAEXXZ @ 727
?StaticConstructor@UPrefabFactory@@QAEXXZ @ 728
?StaticConstructor@USoundExporterWAV@@QAEXXZ @ 729
?StaticConstructor@USoundFactory@@QAEXXZ @ 730
?StaticConstructor@UStaticMeshExporterT3D@@QAEXXZ @ 731
?StaticConstructor@UStaticMeshFactory@@QAEXXZ @ 732
?StaticConstructor@UTextBufferExporterTXT@@QAEXXZ @ 733
?StaticConstructor@UTextureExporterBMP@@QAEXXZ @ 734
?StaticConstructor@UTextureExporterDDS@@QAEXXZ @ 735
?StaticConstructor@UTextureExporterPCX@@QAEXXZ @ 736
?StaticConstructor@UTextureExporterTGA@@QAEXXZ @ 737
?StaticConstructor@UTextureExporterUPT@@QAEXXZ @ 738
?StaticConstructor@UTextureFactory@@QAEXXZ @ 739
?StaticConstructor@UTextureFactoryNew@@QAEXXZ @ 740
?StaticConstructor@UTrueTypeFontFactory@@QAEXXZ @ 741
?TestVisibility@UEditorEngine@@UAEXPAVULevel@@PAVUModel@@HH@Z @ 742
?Tick@UEditorEngine@@UAEXM@Z @ 743
?UnClick@UEditorEngine@@UAEXPAVUViewport@@KHH@Z @ 744
?Undo@UTransBuffer@@UAEHXZ @ 745
?UndoDataSize@UTransBuffer@@QAEKXZ @ 746
?__FUNC_NAME__@?2???0UBitArray@@QAE@K@Z@4QBGB @ 747
?__FUNC_NAME__@?2???0UTransBuffer@@QAE@K@Z@4QBGB @ 748
?__FUNC_NAME__@?2??Begin@UTransBuffer@@UAEXPBGH@Z@4QBGB @ 749
?__FUNC_NAME__@?2??CanRedo@UTransBuffer@@UAEHPAVFString@@@Z@4QBGB @ 750
?__FUNC_NAME__@?2??CanUndo@UTransBuffer@@UAEHPAVFString@@@Z@4QBGB @ 751
?__FUNC_NAME__@?2??CheckState@UTransBuffer@@QAEXXZ@4QBGB @ 752
?__FUNC_NAME__@?2??Continue@UTransBuffer@@UAEXXZ@4QBGB @ 753
?__FUNC_NAME__@?2??CreateInternalTransaction@UTransBuffer@@UAEPAVFTransactionBase@@XZ@4QBGB @ 754
?__FUNC_NAME__@?2??Destroy@UTransBuffer@@UAEXXZ@4QBGB @ 755
?__FUNC_NAME__@?2??End@UTransBuffer@@UAEXXZ@4QBGB @ 756
?__FUNC_NAME__@?2??FinishDo@UTransBuffer@@QAEXXZ@4QBGB @ 757
?__FUNC_NAME__@?2??NeedsToBeSaved@UTransBuffer@@UAEHXZ@4QBGB @ 758
?__FUNC_NAME__@?2??Redo@UTransBuffer@@UAEHXZ@4QBGB @ 759
?__FUNC_NAME__@?2??Reset@UTransBuffer@@UAEXPBG@Z@4QBGB @ 760
?__FUNC_NAME__@?2??Serialize@UBitMatrix@@UAEXAAVFArchive@@@Z@4QBGB @ 761
?__FUNC_NAME__@?2??Serialize@UTransBuffer@@UAEXAAVFArchive@@@Z@4QBGB @ 762
?__FUNC_NAME__@?2??Undo@UTransBuffer@@UAEHXZ@4QBGB @ 763
?__FUNC_NAME__@?2??UndoDataSize@UTransBuffer@@QAEKXZ@4QBGB @ 764
?animGetBoneIndex@UEditorEngine@@UAEHPAVUMeshAnimation@@VFName@@@Z @ 765
?animationImport@UEditorEngine@@UAEXPBGPAVUObject@@0HM@Z @ 766
?brushclipDeleteMarkers@UEditorEngine@@QAEXXZ @ 767
?bspAddNode@UEditorEngine@@UAEHPAVUModel@@HW4ENodePlace@@KPAVFPoly@@@Z @ 768
?bspAddPoint@UEditorEngine@@UAEHPAVUModel@@PAVFVector@@H@Z @ 769
?bspAddVector@UEditorEngine@@UAEHPAVUModel@@PAVFVector@@H@Z @ 770
?bspBrushCSG@UEditorEngine@@UAEHPAVABrush@@PAVUModel@@KW4ECsgOper@@HH@Z @ 771
?bspBuild@UEditorEngine@@UAEXPAVUModel@@W4EBspOptimization@@HHHH@Z @ 772
?bspBuildBounds@UEditorEngine@@UAEXPAVUModel@@@Z @ 773
?bspBuildFPolys@UEditorEngine@@UAEXPAVUModel@@HH@Z @ 774
?bspCleanup@UEditorEngine@@UAEXPAVUModel@@@Z @ 775
?bspMergeCoplanars@UEditorEngine@@UAEXPAVUModel@@HH@Z @ 776
?bspNodeToFPoly@UEditorEngine@@UAEHPAVUModel@@HPAVFPoly@@@Z @ 777
?bspOptGeom@UEditorEngine@@UAEXPAVUModel@@@Z @ 778
?bspRefresh@UEditorEngine@@UAEXPAVUModel@@H@Z @ 779
?bspRepartition@UEditorEngine@@UAEXPAVULevel@@HH@Z @ 780
?bspUnlinkPolys@UEditorEngine@@UAEXPAVUModel@@@Z @ 781
?bspValidateBrush@UEditorEngine@@UAEXPAVUModel@@HH@Z @ 782
?csgAddOperation@UEditorEngine@@UAEPAVABrush@@PAV2@PAVULevel@@KW4ECsgOper@@@Z @ 783
?csgCopyBrush@UEditorEngine@@UAEXPAVABrush@@0KKH@Z @ 784
?csgGetName@UEditorEngine@@UAEPBGW4ECsgOper@@@Z @ 785
?csgPrepMovingBrush@UEditorEngine@@UAEXPAVABrush@@@Z @ 786
?csgRebuild@UEditorEngine@@UAEXPAVULevel@@@Z @ 787
?digestMovementRepertoire@UEditorEngine@@UAEXPAVUMeshAnimation@@@Z @ 788
?eventBuild@UBrushBuilder@@QAEKXZ @ 789
?eventCreateMaterial@UMaterialFactory@@QAEPAVUMaterial@@PAVUObject@@ABVFString@@11@Z @ 790
?execBadParameters@UBrushBuilder@@QAEXAAUFFrame@@QAX@Z @ 791
?execBeginBrush@UBrushBuilder@@QAEXAAUFFrame@@QAX@Z @ 792
?execConsoleCommand@UMaterialFactory@@QAEXAAUFFrame@@QAX@Z @ 793
?execEndBrush@UBrushBuilder@@QAEXAAUFFrame@@QAX@Z @ 794
?execGetPolyCount@UBrushBuilder@@QAEXAAUFFrame@@QAX@Z @ 795
?execGetVertex@UBrushBuilder@@QAEXAAUFFrame@@QAX@Z @ 796
?execGetVertexCount@UBrushBuilder@@QAEXAAUFFrame@@QAX@Z @ 797
?execPoly3i@UBrushBuilder@@QAEXAAUFFrame@@QAX@Z @ 798
?execPoly4i@UBrushBuilder@@QAEXAAUFFrame@@QAX@Z @ 799
?execPolyBegin@UBrushBuilder@@QAEXAAUFFrame@@QAX@Z @ 800
?execPolyEnd@UBrushBuilder@@QAEXAAUFFrame@@QAX@Z @ 801
?execPolyi@UBrushBuilder@@QAEXAAUFFrame@@QAX@Z @ 802
?execVertex3f@UBrushBuilder@@QAEXAAUFFrame@@QAX@Z @ 803
?execVertexv@UBrushBuilder@@QAEXAAUFFrame@@QAX@Z @ 804
?init@FPerlinNoise@@QAEXXZ @ 805
?mapBrushGet@UEditorEngine@@UAEXPAVULevel@@@Z @ 806
?mapBrushPut@UEditorEngine@@UAEXPAVULevel@@@Z @ 807
?mapSelectFirst@UEditorEngine@@UAEXPAVULevel@@@Z @ 808
?mapSelectFlags@UEditorEngine@@UAEXPAVULevel@@K@Z @ 809
?mapSelectLast@UEditorEngine@@UAEXPAVULevel@@@Z @ 810
?mapSelectOperation@UEditorEngine@@UAEXPAVULevel@@W4ECsgOper@@@Z @ 811
?mapSendToFirst@UEditorEngine@@UAEXPAVULevel@@@Z @ 812
?mapSendToLast@UEditorEngine@@UAEXPAVULevel@@@Z @ 813
?mapSendToSwap@UEditorEngine@@UAEXPAVULevel@@@Z @ 814
?mapSetBrush@UEditorEngine@@UAEXPAVULevel@@W4EMapSetBrushFlags@@GVFName@@KKKH@Z @ 815
?meshDropFrames@UEditorEngine@@UAEXPAVUVertMesh@@HH@Z @ 816
?meshSkelImport@UEditorEngine@@UAEXPBGPAVUObject@@0HHHPAUFLODProcessInfo@@@Z @ 817
?meshSkelLODProcess@UEditorEngine@@UAEXPAVUSkeletalMesh@@PAUFLODProcessInfo@@PAUUSkelImport@@@Z @ 818
?meshVertImport@UEditorEngine@@UAEXPBGPAVUObject@@00HHHPAUFLODProcessInfo@@@Z @ 819
?meshVertLODProcess@UEditorEngine@@UAEXPAVUVertMesh@@AAV?$TArray@UFMeshTri@@@@PAUFLODProcessInfo@@@Z @ 820
?movementDigest@UEditorEngine@@UAEXPAVUMeshAnimation@@H@Z @ 821
?noise1@FPerlinNoise@@QAENN@Z @ 822
?noise2@FPerlinNoise@@QAEMQAM@Z @ 823
?noise3@FPerlinNoise@@QAEMQAM@Z @ 824
?normalize2@FPerlinNoise@@QAEXQAM@Z @ 825
?normalize3@FPerlinNoise@@QAEXQAM@Z @ 826
?optimizeShadowMap@UEditorEngine@@QAEXPAVULevel@@@Z @ 827
?polyFindMaster@UEditorEngine@@UAEHPAVUModel@@HAAVFPoly@@@Z @ 828
?polyGetLinkedPolys@UEditorEngine@@UAEXPAVABrush@@PAVFPoly@@PAV?$TArray@VFPoly@@@@@Z @ 829
?polyGetOuterEdgeList@UEditorEngine@@UAEXPAV?$TArray@VFPoly@@@@PAV?$TArray@VFEdge@@@@@Z @ 830
?polyIntersectSet@UEditorEngine@@UAEXPAVUModel@@@Z @ 831
?polyMemorizeSet@UEditorEngine@@UAEXPAVUModel@@@Z @ 832
?polyRememberSet@UEditorEngine@@UAEXPAVUModel@@@Z @ 833
?polySelectAdjacentFloors@UEditorEngine@@UAEXPAVUModel@@@Z @ 834
?polySelectAdjacentSlants@UEditorEngine@@UAEXPAVUModel@@@Z @ 835
?polySelectAdjacentWalls@UEditorEngine@@UAEXPAVUModel@@@Z @ 836
?polySelectAdjacents@UEditorEngine@@UAEXPAVUModel@@@Z @ 837
?polySelectAll@UEditorEngine@@UAEXPAVUModel@@@Z @ 838
?polySelectCoplanars@UEditorEngine@@UAEXPAVUModel@@@Z @ 839
?polySelectMatchingBrush@UEditorEngine@@UAEXPAVUModel@@@Z @ 840
?polySelectMatchingGroups@UEditorEngine@@UAEXPAVUModel@@@Z @ 841
?polySelectMatchingItems@UEditorEngine@@UAEXPAVUModel@@@Z @ 842
?polySelectMatchingTexture@UEditorEngine@@UAEXPAVUModel@@@Z @ 843
?polySelectReverse@UEditorEngine@@UAEXPAVUModel@@@Z @ 844
?polySelectZone@UEditorEngine@@UAEXPAVUModel@@@Z @ 845
?polySetAndClearPolyFlags@UEditorEngine@@UAEXPAVUModel@@KKHH@Z @ 846
?polySplitOverlappingEdges@UEditorEngine@@UAEXPAV?$TArray@VFPoly@@@@0@Z @ 847
?polyTexPan@UEditorEngine@@UAEXPAVUModel@@HHH@Z @ 848
?polyTexScale@UEditorEngine@@UAEXPAVUModel@@MMMMH@Z @ 849
?polyUnionSet@UEditorEngine@@UAEXPAVUModel@@@Z @ 850
?polyUpdateMaster@UEditorEngine@@UAEXPAVUModel@@HH@Z @ 851
?polyXorSet@UEditorEngine@@UAEXPAVUModel@@@Z @ 852
?polygonDeleteMarkers@UEditorEngine@@QAEXXZ @ 853
?shadowIlluminateBsp@UEditorEngine@@UAEXPAVULevel@@HH@Z @ 854
GPackage @ 856
_DllMain@12 @ 855
autoclassUAnalyzeBuildCommandlet @ 857
autoclassUAnalyzeContentCommandlet @ 858
autoclassUAnimNotifyProps @ 859
autoclassUBatchExportCommandlet @ 860
autoclassUBatchImportCommandlet @ 861
autoclassUBatchingSummary @ 862
autoclassUBitArray @ 863
autoclassUBitMatrix @ 864
autoclassUBrushBuilder @ 865
autoclassUCheckEmitters @ 866
autoclassUCheckSounds @ 867
autoclassUCheckStaticMeshes @ 868
autoclassUCheckTextures @ 869
autoclassUCheckUnicodeCommandlet @ 870
autoclassUChecksumPackageCommandlet @ 871
autoclassUClassExporterH @ 872
autoclassUClassExporterUC @ 873
autoclassUClassFactoryNew @ 874
autoclassUClassFactoryUC @ 875
autoclassUClassFlagCommandlet @ 876
autoclassUCompareIntCommandlet @ 877
autoclassUCompressTextures @ 878
autoclassUConformCommandlet @ 879
autoclassUConvertMaterialCommandlet @ 880
autoclassUConvexVolumeExporterT3D @ 881
autoclassUConvexVolumeFactory @ 882
autoclassUCutdownContentCommandlet @ 883
autoclassUDXTConvertCommandlet @ 884
autoclassUDataRipCommandlet @ 885
autoclassUDumpConfigCommandlet @ 886
autoclassUDumpIntCommandlet @ 887
autoclassUEditInfo @ 888
autoclassUEditorEngine @ 889
autoclassUFontFactory @ 890
autoclassUGroupRepairCommandlet @ 891
autoclassULevelExporterOBJ @ 892
autoclassULevelExporterSTL @ 893
autoclassULevelExporterT3D @ 894
autoclassULevelFactory @ 895
autoclassULevelFactoryNew @ 896
autoclassUListExports @ 897
autoclassULoadPackage @ 898
autoclassUMakeCommandlet @ 899
autoclassUMapConvertCommandlet @ 900
autoclassUMapKillZ @ 901
autoclassUMasterCommandlet @ 902
autoclassUMaterialFactory @ 903
autoclassUMergeIntCommandlet @ 904
autoclassUModelExporterT3D @ 905
autoclassUModelFactory @ 906
autoclassUObjectRenameCommandlet @ 907
autoclassUPS2ConvertCommandlet @ 908
autoclassUPackageFlagCommandlet @ 909
autoclassUPkgCommandlet @ 910
autoclassUPolysExporterOBJ @ 911
autoclassUPolysExporterT3D @ 912
autoclassUPolysFactory @ 913
autoclassUPrefab @ 914
autoclassUPrefabExporterT3D @ 915
autoclassUPrefabFactory @ 916
autoclassURearrangeIntCommandlet @ 917
autoclassURebuildCommandlet @ 918
autoclassUSetNormalLODCommandlet @ 919
autoclassUSoundConvert @ 920
autoclassUSoundExporterWAV @ 921
autoclassUSoundFactory @ 922
autoclassUSoundLocCommandlet @ 923
autoclassUStaticMeshConvert @ 924
autoclassUStaticMeshExporterT3D @ 925
autoclassUStaticMeshFactory @ 926
autoclassUStripSourceCommandlet @ 927
autoclassUSurfaceTypeCommandlet @ 928
autoclassUTextBufferExporterTXT @ 929
autoclassUTextureExporterBMP @ 930
autoclassUTextureExporterDDS @ 931
autoclassUTextureExporterPCX @ 932
autoclassUTextureExporterTGA @ 933
autoclassUTextureExporterUPT @ 934
autoclassUTextureFactory @ 935
autoclassUTextureFactoryNew @ 936
autoclassUTextureInfoCommandlet @ 937
autoclassUTextureLODCommandlet @ 938
autoclassUTextureStripCommandlet @ 939
autoclassUTransBuffer @ 940
autoclassUTransactor @ 941
autoclassUTrueTypeFontFactory @ 942
autoclassUUpdateUModCommandlet @ 943
intUBrushBuilderexecBadParameters @ 944
intUBrushBuilderexecBeginBrush @ 945
intUBrushBuilderexecEndBrush @ 946
intUBrushBuilderexecGetPolyCount @ 947
intUBrushBuilderexecGetVertex @ 948
intUBrushBuilderexecGetVertexCount @ 949
intUBrushBuilderexecPoly3i @ 950
intUBrushBuilderexecPoly4i @ 951
intUBrushBuilderexecPolyBegin @ 952
intUBrushBuilderexecPolyEnd @ 953
intUBrushBuilderexecPolyi @ 954
intUBrushBuilderexecVertex3f @ 955
intUBrushBuilderexecVertexv @ 956
intUMaterialFactoryexecConsoleCommand @ 957
