LIBRARY Engine.dll

EXPORTS
??0?$TArray@E@@QAE@ABV0@@Z @ 1
??0?$TArray@E@@QAE@H@Z @ 2
??0?$TArray@E@@QAE@W4ENoInit@@@Z @ 3
??0?$TArray@E@@QAE@XZ @ 4
??0?$TLazyArray@E@@QAE@ABV0@@Z @ 5
??0?$TLazyArray@E@@QAE@H@Z @ 6
??0AAIController@@QAE@ABV0@@Z @ 7
??0AAIController@@QAE@XZ @ 8
??0AAIMarker@@QAE@ABV0@@Z @ 9
??0AAIMarker@@QAE@XZ @ 10
??0AAIScript@@QAE@ABV0@@Z @ 11
??0AAIScript@@QAE@XZ @ 12
??0AActor@@QAE@ABV0@@Z @ 13
??0AActor@@QAE@XZ @ 14
??0AAmbientLightVolume@@QAE@ABV0@@Z @ 15
??0AAmbientLightVolume@@QAE@XZ @ 16
??0AAmbientSound@@QAE@ABV0@@Z @ 17
??0AAmbientSound@@QAE@XZ @ 18
??0AAmmo@@IAE@XZ @ 19
??0AAmmo@@QAE@ABV0@@Z @ 20
??0AAnnouncerVoice@@IAE@XZ @ 21
??0AAnnouncerVoice@@QAE@ABV0@@Z @ 22
??0AAntiPortalActor@@IAE@XZ @ 23
??0AAntiPortalActor@@QAE@ABV0@@Z @ 24
??0AAutoDoor@@IAE@XZ @ 25
??0AAutoDoor@@QAE@ABV0@@Z @ 26
??0AAutoLadder@@QAE@ABV0@@Z @ 27
??0AAutoLadder@@QAE@XZ @ 28
??0AAvoidMarker@@IAE@XZ @ 29
??0AAvoidMarker@@QAE@ABV0@@Z @ 30
??0ABlockingVolume@@QAE@ABV0@@Z @ 31
??0ABlockingVolume@@QAE@XZ @ 32
??0ABrush@@QAE@ABV0@@Z @ 33
??0ABrush@@QAE@XZ @ 34
??0ACamera@@QAE@ABV0@@Z @ 35
??0ACamera@@QAE@XZ @ 36
??0AClipMarker@@IAE@XZ @ 37
??0AClipMarker@@QAE@ABV0@@Z @ 38
??0AController@@QAE@ABV0@@Z @ 39
??0AController@@QAE@XZ @ 40
??0ACubemapVolume@@IAE@XZ @ 41
??0ACubemapVolume@@QAE@ABV0@@Z @ 42
??0ADamageType@@IAE@XZ @ 43
??0ADamageType@@QAE@ABV0@@Z @ 44
??0ADecoVolumeObject@@IAE@XZ @ 45
??0ADecoVolumeObject@@QAE@ABV0@@Z @ 46
??0ADecoration@@QAE@ABV0@@Z @ 47
??0ADecoration@@QAE@XZ @ 48
??0ADecorationList@@IAE@XZ @ 49
??0ADecorationList@@QAE@ABV0@@Z @ 50
??0ADefaultPhysicsVolume@@IAE@XZ @ 51
??0ADefaultPhysicsVolume@@QAE@ABV0@@Z @ 52
??0ADoor@@QAE@ABV0@@Z @ 53
??0ADoor@@QAE@XZ @ 54
??0AEmitter@@QAE@ABV0@@Z @ 55
??0AEmitter@@QAE@XZ @ 56
??0AFileLog@@QAE@ABV0@@Z @ 57
??0AFileLog@@QAE@XZ @ 58
??0AFluidSurfaceInfo@@IAE@XZ @ 59
??0AFluidSurfaceInfo@@QAE@ABV0@@Z @ 60
??0AFluidSurfaceOscillator@@QAE@ABV0@@Z @ 61
??0AFluidSurfaceOscillator@@QAE@XZ @ 62
??0AFlyingPathNode@@QAE@ABV0@@Z @ 63
??0AFlyingPathNode@@QAE@XZ @ 64
??0AGameInfo@@IAE@XZ @ 65
??0AGameInfo@@QAE@ABV0@@Z @ 66
??0AGameReplicationInfo@@QAE@ABV0@@Z @ 67
??0AGameReplicationInfo@@QAE@XZ @ 68
??0AGameStats@@IAE@XZ @ 69
??0AGameStats@@QAE@ABV0@@Z @ 70
??0AHUD@@IAE@XZ @ 71
??0AHUD@@QAE@ABV0@@Z @ 72
??0AHoverPathNode@@QAE@ABV0@@Z @ 73
??0AHoverPathNode@@QAE@XZ @ 74
??0AInfo@@IAE@XZ @ 75
??0AInfo@@QAE@ABV0@@Z @ 76
??0AInternetInfo@@IAE@XZ @ 77
??0AInternetInfo@@QAE@ABV0@@Z @ 78
??0AInterpolationPoint@@QAE@ABV0@@Z @ 79
??0AInterpolationPoint@@QAE@XZ @ 80
??0AInventory@@QAE@ABV0@@Z @ 81
??0AInventory@@QAE@XZ @ 82
??0AInventoryAttachment@@QAE@ABV0@@Z @ 83
??0AInventoryAttachment@@QAE@XZ @ 84
??0AInventorySpot@@QAE@ABV0@@Z @ 85
??0AInventorySpot@@QAE@XZ @ 86
??0AJumpDest@@QAE@ABV0@@Z @ 87
??0AJumpDest@@QAE@XZ @ 88
??0AJumpPad@@QAE@ABV0@@Z @ 89
??0AJumpPad@@QAE@XZ @ 90
??0AKActor@@QAE@ABV0@@Z @ 91
??0AKActor@@QAE@XZ @ 92
??0AKBSJoint@@IAE@XZ @ 93
??0AKBSJoint@@QAE@ABV0@@Z @ 94
??0AKCarWheelJoint@@QAE@ABV0@@Z @ 95
??0AKCarWheelJoint@@QAE@XZ @ 96
??0AKConeLimit@@QAE@ABV0@@Z @ 97
??0AKConeLimit@@QAE@XZ @ 98
??0AKConstraint@@QAE@ABV0@@Z @ 99
??0AKConstraint@@QAE@XZ @ 100
??0AKHinge@@QAE@ABV0@@Z @ 101
??0AKHinge@@QAE@XZ @ 102
??0AKRepulsor@@QAE@ABV0@@Z @ 103
??0AKRepulsor@@QAE@XZ @ 104
??0AKTire@@QAE@ABV0@@Z @ 105
??0AKTire@@QAE@XZ @ 106
??0AKVehicle@@QAE@ABV0@@Z @ 107
??0AKVehicle@@QAE@XZ @ 108
??0AKeypoint@@IAE@XZ @ 109
??0AKeypoint@@QAE@ABV0@@Z @ 110
??0ALadder@@QAE@ABV0@@Z @ 111
??0ALadder@@QAE@XZ @ 112
??0ALadderVolume@@QAE@ABV0@@Z @ 113
??0ALadderVolume@@QAE@XZ @ 114
??0ALevelInfo@@QAE@ABV0@@Z @ 115
??0ALevelInfo@@QAE@XZ @ 116
??0ALevelLoadingView@@IAE@XZ @ 117
??0ALevelLoadingView@@QAE@ABV0@@Z @ 118
??0ALiftCenter@@QAE@ABV0@@Z @ 119
??0ALiftCenter@@QAE@XZ @ 120
??0ALiftExit@@IAE@XZ @ 121
??0ALiftExit@@QAE@ABV0@@Z @ 122
??0ALight@@QAE@ABV0@@Z @ 123
??0ALight@@QAE@XZ @ 124
??0ALineOfSightTrigger@@QAE@ABV0@@Z @ 125
??0ALineOfSightTrigger@@QAE@XZ @ 126
??0ALinkAntiportalVolume@@IAE@XZ @ 127
??0ALinkAntiportalVolume@@QAE@ABV0@@Z @ 128
??0ALinkedReplicationInfo@@IAE@XZ @ 129
??0ALinkedReplicationInfo@@QAE@ABV0@@Z @ 130
??0ALookTarget@@IAE@XZ @ 131
??0ALookTarget@@QAE@ABV0@@Z @ 132
??0AMaplistManagerBase@@IAE@XZ @ 133
??0AMaplistManagerBase@@QAE@ABV0@@Z @ 134
??0AMatDemoActor@@IAE@XZ @ 135
??0AMatDemoActor@@QAE@ABV0@@Z @ 136
??0AMover@@QAE@ABV0@@Z @ 137
??0AMover@@QAE@XZ @ 138
??0AMutator@@IAE@XZ @ 139
??0AMutator@@QAE@ABV0@@Z @ 140
??0ANavigationPoint@@QAE@ABV0@@Z @ 141
??0ANavigationPoint@@QAE@XZ @ 142
??0ANote@@QAE@ABV0@@Z @ 143
??0ANote@@QAE@XZ @ 144
??0APathNode@@QAE@ABV0@@Z @ 145
??0APathNode@@QAE@XZ @ 146
??0APawn@@QAE@ABV0@@Z @ 147
??0APawn@@QAE@XZ @ 148
??0APhysicsVolume@@QAE@ABV0@@Z @ 149
??0APhysicsVolume@@QAE@XZ @ 150
??0APickup@@QAE@ABV0@@Z @ 151
??0APickup@@QAE@XZ @ 152
??0APlayerChatManager@@IAE@XZ @ 153
??0APlayerChatManager@@QAE@ABV0@@Z @ 154
??0APlayerController@@QAE@ABV0@@Z @ 155
??0APlayerController@@QAE@XZ @ 156
??0APlayerReplicationInfo@@QAE@ABV0@@Z @ 157
??0APlayerReplicationInfo@@QAE@XZ @ 158
??0APlayerStart@@QAE@ABV0@@Z @ 159
??0APlayerStart@@QAE@XZ @ 160
??0APlayerStart_SD@@IAE@XZ @ 161
??0APlayerStart_SD@@QAE@ABV0@@Z @ 162
??0APolyMarker@@IAE@XZ @ 163
??0APolyMarker@@QAE@ABV0@@Z @ 164
??0APotentialClimbWatcher@@IAE@XZ @ 165
??0APotentialClimbWatcher@@QAE@ABV0@@Z @ 166
??0APowerups@@QAE@ABV0@@Z @ 167
??0APowerups@@QAE@XZ @ 168
??0APrecacheHack@@IAE@XZ @ 169
??0APrecacheHack@@QAE@ABV0@@Z @ 170
??0AProjectile@@QAE@ABV0@@Z @ 171
??0AProjectile@@QAE@XZ @ 172
??0AProjector@@QAE@ABV0@@Z @ 173
??0AProjector@@QAE@XZ @ 174
??0AReplicationInfo@@QAE@ABV0@@Z @ 175
??0AReplicationInfo@@QAE@XZ @ 176
??0ARoadPathNode@@QAE@ABV0@@Z @ 177
??0ARoadPathNode@@QAE@XZ @ 178
??0ASVehicle@@QAE@ABV0@@Z @ 179
??0ASVehicle@@QAE@XZ @ 180
??0ASVehicleFactory@@QAE@ABV0@@Z @ 181
??0ASVehicleFactory@@QAE@XZ @ 182
??0ASVehicleTrigger@@QAE@ABV0@@Z @ 183
??0ASVehicleTrigger@@QAE@XZ @ 184
??0ASavedMove@@IAE@XZ @ 185
??0ASavedMove@@QAE@ABV0@@Z @ 186
??0ASceneManager@@QAE@ABV0@@Z @ 187
??0ASceneManager@@QAE@XZ @ 188
??0ASceneSubtitles@@QAE@ABV0@@Z @ 189
??0ASceneSubtitles@@QAE@XZ @ 190
??0AScout@@QAE@ABV0@@Z @ 191
??0AScout@@QAE@XZ @ 192
??0ASecurity@@QAE@ABV0@@Z @ 193
??0ASecurity@@QAE@XZ @ 194
??0ASkyZoneInfo@@IAE@XZ @ 195
??0ASkyZoneInfo@@QAE@ABV0@@Z @ 196
??0ASmallNavigationPoint@@IAE@XZ @ 197
??0ASmallNavigationPoint@@QAE@ABV0@@Z @ 198
??0AStaticMeshActor@@IAE@XZ @ 199
??0AStaticMeshActor@@QAE@ABV0@@Z @ 200
??0ATeamInfo@@QAE@ABV0@@Z @ 201
??0ATeamInfo@@QAE@XZ @ 202
??0ATeleporter@@QAE@ABV0@@Z @ 203
??0ATeleporter@@QAE@XZ @ 204
??0ATerrainInfo@@QAE@ABV0@@Z @ 205
??0ATerrainInfo@@QAE@XZ @ 206
??0ATonemappingVolume@@IAE@XZ @ 207
??0ATonemappingVolume@@QAE@ABV0@@Z @ 208
??0ATrigger@@IAE@XZ @ 209
??0ATrigger@@QAE@ABV0@@Z @ 210
??0ATriggers@@QAE@ABV0@@Z @ 211
??0ATriggers@@QAE@XZ @ 212
??0AVehicle@@QAE@ABV0@@Z @ 213
??0AVehicle@@QAE@XZ @ 214
??0AVehiclePart@@IAE@XZ @ 215
??0AVehiclePart@@QAE@ABV0@@Z @ 216
??0AVertMeshActor@@IAE@XZ @ 217
??0AVertMeshActor@@QAE@ABV0@@Z @ 218
??0AVignette@@IAE@XZ @ 219
??0AVignette@@QAE@ABV0@@Z @ 220
??0AVoiceChatReplicationInfo@@QAE@ABV0@@Z @ 221
??0AVoiceChatReplicationInfo@@QAE@XZ @ 222
??0AVoiceChatRoom@@IAE@XZ @ 223
??0AVoiceChatRoom@@QAE@ABV0@@Z @ 224
??0AVolume@@QAE@ABV0@@Z @ 225
??0AVolume@@QAE@XZ @ 226
??0AWarpZoneInfo@@QAE@ABV0@@Z @ 227
??0AWarpZoneInfo@@QAE@XZ @ 228
??0AWarpZoneMarker@@QAE@ABV0@@Z @ 229
??0AWarpZoneMarker@@QAE@XZ @ 230
??0AWeaponAttachment@@QAE@ABV0@@Z @ 231
??0AWeaponAttachment@@QAE@XZ @ 232
??0AZoneInfo@@QAE@ABV0@@Z @ 233
??0AZoneInfo@@QAE@XZ @ 234
??0AmbientCube@@QAE@XZ @ 235
??0AwAILevelBase@@IAE@XZ @ 236
??0AwAILevelBase@@QAE@ABV0@@Z @ 237
??0AwAmmunition@@QAE@ABV0@@Z @ 238
??0AwAmmunition@@QAE@XZ @ 239
??0AwArrangeTurret@@IAE@XZ @ 240
??0AwArrangeTurret@@QAE@ABV0@@Z @ 241
??0AwEmitter@@QAE@ABV0@@Z @ 242
??0AwEmitter@@QAE@XZ @ 243
??0AwGameStateStorageSender@@IAE@XZ @ 244
??0AwGameStateStorageSender@@QAE@ABV0@@Z @ 245
??0AwPickUpBase@@QAE@ABV0@@Z @ 246
??0AwPickUpBase@@QAE@XZ @ 247
??0AwProcMesh@@QAE@ABV0@@Z @ 248
??0AwProcMesh@@QAE@XZ @ 249
??0AwWeapon@@QAE@ABV0@@Z @ 250
??0AwWeapon@@QAE@XZ @ 251
??0AwWeaponPickup@@QAE@ABV0@@Z @ 252
??0AwWeaponPickup@@QAE@XZ @ 253
??0AwWeatherEffect@@QAE@ABV0@@Z @ 254
??0AwWeatherEffect@@QAE@XZ @ 255
??0FActorSceneNode@@QAE@ABV0@@Z @ 256
??0FActorSceneNode@@QAE@PAVUViewport@@PAVFRenderTarget@@PAVAActor@@2VFVector@@VFRotator@@M@Z @ 257
??0FAnimMeshVertexStream@@QAE@ABV0@@Z @ 258
??0FAnimMeshVertexStream@@QAE@XZ @ 259
??0FAnnouncerRecord@@QAE@ABU0@@Z @ 260
??0FAnnouncerRecord@@QAE@XZ @ 261
??0FBSPTangentBinormal@@QAE@VFVector@@0@Z @ 262
??0FBSPTangentBinormal@@QAE@XZ @ 263
??0FBSPTangentBinormalStream@@QAE@ABV0@@Z @ 264
??0FBSPTangentBinormalStream@@QAE@XZ @ 265
??0FBezier@@QAE@ABV0@@Z @ 266
??0FBezier@@QAE@XZ @ 267
??0FBlendWeightAndIndex@@QAE@ABU0@@Z @ 268
??0FBlendWeightAndIndex@@QAE@VFPlane@@0@Z @ 269
??0FBlendWeightAndIndex@@QAE@XZ @ 270
??0FBlendWeightAndIndexStream@@QAE@ABV0@@Z @ 271
??0FBlendWeightAndIndexStream@@QAE@XZ @ 272
??0FBlockStruct@@QAE@ABU0@@Z @ 273
??0FBlockStruct@@QAE@XZ @ 274
??0FBootyInfo@@QAE@ABU0@@Z @ 275
??0FBootyInfo@@QAE@XZ @ 276
??0FBspSection@@QAE@ABV0@@Z @ 277
??0FBspSection@@QAE@XZ @ 278
??0FBspVertex@@QAE@XZ @ 279
??0FBspVertexStream@@QAE@ABV0@@Z @ 280
??0FBspVertexStream@@QAE@XZ @ 281
??0FCameraSceneNode@@QAE@ABV0@@Z @ 282
??0FCameraSceneNode@@QAE@PAVUViewport@@PAVFRenderTarget@@PAVAActor@@VFVector@@VFRotator@@MPAVULevel@@@Z @ 283
??0FCanvasUtil@@QAE@ABV0@@Z @ 284
??0FCanvasUtil@@QAE@PAVFRenderTarget@@PAVFRenderInterface@@@Z @ 285
??0FCanvasVertex@@QAE@VFVector@@VFColor@@MM@Z @ 286
??0FCanvasVertex@@QAE@XZ @ 287
??0FClanLevelInfoParam@@QAE@ABV0@@Z @ 288
??0FClanLevelInfoParam@@QAE@PBVUwClanLevelInfoParam@@@Z @ 289
??0FClanLevelInfoParam@@QAE@XZ @ 290
??0FClanMarkParam@@QAE@ABV0@@Z @ 291
??0FClanMarkParam@@QAE@PBVUwClanMarkParam@@@Z @ 292
??0FClanMarkParam@@QAE@XZ @ 293
??0FClanStruct@@QAE@ABU0@@Z @ 294
??0FClanStruct@@QAE@XZ @ 295
??0FClientAdjustment@@QAE@XZ @ 296
??0FCollisionHash@@QAE@ABV0@@Z @ 297
??0FCollisionHash@@QAE@XZ @ 298
??0FCollisionOctree@@QAE@ABV0@@Z @ 299
??0FCollisionOctree@@QAE@XZ @ 300
??0FColor@@QAE@ABVFPlane@@@Z @ 301
??0FColor@@QAE@EEEE@Z @ 302
??0FColor@@QAE@K@Z @ 303
??0FColor@@QAE@XZ @ 304
??0FColorPreset@@QAE@ABU0@@Z @ 305
??0FColorPreset@@QAE@XZ @ 306
??0FConsoleMessage@@QAE@ABU0@@Z @ 307
??0FConsoleMessage@@QAE@XZ @ 308
??0FConvexVolume@@QAE@ABV0@@Z @ 309
??0FConvexVolume@@QAE@XZ @ 310
??0FCrosshairItem@@QAE@ABU0@@Z @ 311
??0FCrosshairItem@@QAE@XZ @ 312
??0FCrosshairRecord@@QAE@ABU0@@Z @ 313
??0FCrosshairRecord@@QAE@XZ @ 314
??0FDXTCompressionOptions@@QAE@XZ @ 315
??0FDailyQuestParam@@QAE@PBVUwDailyQuestParam@@@Z @ 316
??0FDailyQuestParam@@QAE@XZ @ 317
??0FDefenceGameParam@@QAE@PBVUwDefenceGameParam@@@Z @ 318
??0FDefenceGameParam@@QAE@XZ @ 319
??0FDiamondIndexBuffer@@QAE@ABV0@@Z @ 320
??0FDiamondIndexBuffer@@QAE@XZ @ 321
??0FDiamondVertexStream@@QAE@ABV0@@Z @ 322
??0FDiamondVertexStream@@QAE@XZ @ 323
??0FDirectionalLightMapSceneNode@@QAE@ABV0@@Z @ 324
??0FDirectionalLightMapSceneNode@@QAE@PAVUViewport@@PAVAActor@@AAVFBspSurf@@PAVFLightMap@@@Z @ 325
??0FDynamicActor@@QAE@ABV0@@Z @ 326
??0FDynamicActor@@QAE@PAVAActor@@@Z @ 327
??0FDynamicLight@@QAE@ABV0@@Z @ 328
??0FDynamicLight@@QAE@PAVAActor@@@Z @ 329
??0FEngineStats@@QAE@XZ @ 330
??0FEquippedItemInfo@@QAE@ABU0@@Z @ 331
??0FEquippedItemInfo@@QAE@XZ @ 332
??0FEquippedQSlotInfo@@QAE@ABU0@@Z @ 333
??0FEquippedQSlotInfo@@QAE@XZ @ 334
??0FEventTimerStruct@@QAE@ABU0@@Z @ 335
??0FEventTimerStruct@@QAE@XZ @ 336
??0FFilePath@@QAE@AAV?$TArray@VFString@@@@PBG11@Z @ 337
??0FFilePath@@QAE@ABU0@@Z @ 338
??0FFilePath@@QAE@PBG00@Z @ 339
??0FFilePath@@QAE@PBG@Z @ 340
??0FFilePath@@QAE@XZ @ 341
??0FFrameHeader@@QAE@ABU0@@Z @ 342
??0FFrameHeader@@QAE@K@Z @ 343
??0FFriendStruct@@QAE@ABU0@@Z @ 344
??0FFriendStruct@@QAE@XZ @ 345
??0FGP20Product@@QAE@ABU0@@Z @ 346
??0FGP20Product@@QAE@XZ @ 347
??0FGameRecord@@QAE@ABU0@@Z @ 348
??0FGameRecord@@QAE@XZ @ 349
??0FHitCause@@QAE@PAVFHitObserver@@PAVUViewport@@KMM@Z @ 350
??0FHitFXData@@QAE@XZ @ 351
??0FHitObserver@@QAE@ABV0@@Z @ 352
??0FHitObserver@@QAE@XZ @ 353
??0FID3Field@@QAE@ABU0@@Z @ 354
??0FID3Field@@QAE@KE@Z @ 355
??0FID3Field@@QAE@PBUFID3V2Frame@@@Z @ 356
??0FID3Tag@@QAE@ABU0@@Z @ 357
??0FID3Tag@@QAE@XZ @ 358
??0FID3TagV1@@QAE@ABU0@@Z @ 359
??0FID3TagV1@@QAE@EEW4ETagGenre@@@Z @ 360
??0FID3TagV2@@QAE@ABU0@@Z @ 361
??0FID3TagV2@@QAE@XZ @ 362
??0FID3V2ExtendedTagHeader@@QAE@K@Z @ 363
??0FID3V2Frame@@QAE@ABU0@@Z @ 364
??0FID3V2Frame@@QAE@UFFrameHeader@@W4EID3TextEncoding@@@Z @ 365
??0FID3V2Frame@@QAE@W4EID3TextEncoding@@@Z @ 366
??0FID3V2TagHeader@@QAE@XZ @ 367
??0FInBunch@@QAE@ABV0@@Z @ 368
??0FInBunch@@QAE@PAVUNetConnection@@@Z @ 369
??0FItemBaseParam@@QAE@ABV0@@Z @ 370
??0FItemBaseParam@@QAE@PBVUwItemBaseParam@@@Z @ 371
??0FItemBaseParam@@QAE@XZ @ 372
??0FItemBoxParam@@QAE@PBVUwItemBoxParam@@@Z @ 373
??0FItemBoxParam@@QAE@XZ @ 374
??0FItemResourceParam@@QAE@ABV0@@Z @ 375
??0FItemResourceParam@@QAE@PBVUwItemResourceParam@@@Z @ 376
??0FItemResourceParam@@QAE@XZ @ 377
??0FKAggregateGeom@@QAE@ABV0@@Z @ 378
??0FKAggregateGeom@@QAE@XZ @ 379
??0FKBoxElem@@QAE@M@Z @ 380
??0FKBoxElem@@QAE@MMM@Z @ 381
??0FKBoxElem@@QAE@XZ @ 382
??0FKConvexElem@@QAE@ABV0@@Z @ 383
??0FKConvexElem@@QAE@XZ @ 384
??0FKCylinderElem@@QAE@MM@Z @ 385
??0FKCylinderElem@@QAE@XZ @ 386
??0FKSphereElem@@QAE@M@Z @ 387
??0FKSphereElem@@QAE@XZ @ 388
??0FKeyValuePair@@QAE@ABU0@@Z @ 389
??0FKeyValuePair@@QAE@XZ @ 390
??0FLeafRenderInfo@@QAE@ABU0@@Z @ 391
??0FLeafRenderInfo@@QAE@XZ @ 392
??0FLevelColorPreset@@QAE@ABU0@@Z @ 393
??0FLevelColorPreset@@QAE@XZ @ 394
??0FLevelInfoParam@@QAE@ABV0@@Z @ 395
??0FLevelInfoParam@@QAE@PBVUwLevelInfoParam@@@Z @ 396
??0FLevelInfoParam@@QAE@XZ @ 397
??0FLevelSceneNode@@QAE@ABV0@@Z @ 398
??0FLevelSceneNode@@QAE@PAV0@HABVFMatrix@@@Z @ 399
??0FLevelSceneNode@@QAE@PAVUViewport@@PAVFRenderTarget@@PAVULevel@@@Z @ 400
??0FLightMap@@QAE@ABV0@@Z @ 401
??0FLightMap@@QAE@PAVULevel@@HH@Z @ 402
??0FLightMap@@QAE@XZ @ 403
??0FLightMapIndex@@QAE@XZ @ 404
??0FLightMapSceneNode@@QAE@ABV0@@Z @ 405
??0FLightMapSceneNode@@QAE@PAVUViewport@@PAVAActor@@PAVFLightMap@@@Z @ 406
??0FLightMapTexture@@QAE@ABV0@@Z @ 407
??0FLightMapTexture@@QAE@PAVULevel@@@Z @ 408
??0FLightMapTexture@@QAE@XZ @ 409
??0FLineBatcher@@QAE@ABV0@@Z @ 410
??0FLineBatcher@@QAE@PAVFRenderInterface@@H@Z @ 411
??0FLineVertex@@QAE@VFVector@@VFColor@@@Z @ 412
??0FLineVertex@@QAE@XZ @ 413
??0FListener@@QAE@ABV0@@Z @ 414
??0FListener@@QAE@XZ @ 415
??0FLoadingMessageItem@@QAE@ABU0@@Z @ 416
??0FLoadingMessageItem@@QAE@XZ @ 417
??0FMapInfo@@QAE@ABV0@@Z @ 418
??0FMapInfo@@QAE@PBVUwMapInfo@@@Z @ 419
??0FMapInfo@@QAE@XZ @ 420
??0FMapRecord@@QAE@ABU0@@Z @ 421
??0FMapRecord@@QAE@XZ @ 422
??0FMatineeTools@@QAE@ABV0@@Z @ 423
??0FMatineeTools@@QAE@XZ @ 424
??0FMiniMapSceneNode@@QAE@ABV0@@Z @ 425
??0FMiniMapSceneNode@@QAE@PAVUViewport@@PAVFRenderTarget@@PAVAActor@@VFVector@@VFRotator@@M@Z @ 426
??0FMipmap@@QAE@ABU0@@Z @ 427
??0FMipmap@@QAE@EE@Z @ 428
??0FMipmap@@QAE@EEH@Z @ 429
??0FMipmap@@QAE@XZ @ 430
??0FMipmapBase@@QAE@EE@Z @ 431
??0FMipmapBase@@QAE@XZ @ 432
??0FMirrorSceneNode@@QAE@ABV0@@Z @ 433
??0FMirrorSceneNode@@QAE@PAVFLevelSceneNode@@VFPlane@@HH@Z @ 434
??0FMissionItem@@QAE@ABU0@@Z @ 435
??0FMissionItem@@QAE@XZ @ 436
??0FModeDOAParam@@QAE@PBVUwModeDOAParam@@@Z @ 437
??0FModeDOAParam@@QAE@XZ @ 438
??0FMutatorRecord@@QAE@ABU0@@Z @ 439
??0FMutatorRecord@@QAE@XZ @ 440
??0FMyMatchState@@QAE@ABU0@@Z @ 441
??0FMyMatchState@@QAE@XZ @ 442
??0FNPCActionGroupParam@@QAE@ABV0@@Z @ 443
??0FNPCActionGroupParam@@QAE@PBVUwNPCActionGroupParam@@@Z @ 444
??0FNPCActionGroupParam@@QAE@XZ @ 445
??0FNPCItemGroupParam@@QAE@PBVUwNPCItemGroupParam@@@Z @ 446
??0FNPCItemGroupParam@@QAE@XZ @ 447
??0FNPCNameGroupParam@@QAE@ABV0@@Z @ 448
??0FNPCNameGroupParam@@QAE@PBVUwNPCNameGroupParam@@@Z @ 449
??0FNPCNameGroupParam@@QAE@XZ @ 450
??0FNPCParam@@QAE@ABV0@@Z @ 451
??0FNPCParam@@QAE@PBVUwNPCParam@@@Z @ 452
??0FNPCParam@@QAE@XZ @ 453
??0FNPCSpawnParam@@QAE@ABV0@@Z @ 454
??0FNPCSpawnParam@@QAE@PBVUwNPCSpawnParam@@@Z @ 455
??0FNPCSpawnParam@@QAE@XZ @ 456
??0FNetworkNotify@@QAE@ABV0@@Z @ 457
??0FNetworkNotify@@QAE@XZ @ 458
??0FNumericWidget@@QAE@XZ @ 459
??0FOcclusionQuery@@QAE@PAVFDynamicActor@@H@Z @ 460
??0FOcclusionQuery@@QAE@XZ @ 461
??0FOctreeNode@@QAE@ABV0@@Z @ 462
??0FOctreeNode@@QAE@XZ @ 463
??0FOrientation@@QAE@XZ @ 464
??0FOtherLoadingStateItem@@QAE@ABU0@@Z @ 465
??0FOtherLoadingStateItem@@QAE@XZ @ 466
??0FOutBunch@@QAE@ABV0@@Z @ 467
??0FOutBunch@@QAE@PAVUChannel@@H@Z @ 468
??0FOutBunch@@QAE@PAVUNetConnection@@@Z @ 469
??0FPCBangStruct@@QAE@ABU0@@Z @ 470
??0FPCBangStruct@@QAE@XZ @ 471
??0FPaintGroupParam@@QAE@ABV0@@Z @ 472
??0FPaintGroupParam@@QAE@PBVUwPaintGroupParam@@@Z @ 473
??0FPaintGroupParam@@QAE@XZ @ 474
??0FPartsGroupParam@@QAE@ABV0@@Z @ 475
??0FPartsGroupParam@@QAE@PBVUwPartsGroupParam@@@Z @ 476
??0FPartsGroupParam@@QAE@XZ @ 477
??0FPingTime@@QAE@ABU0@@Z @ 478
??0FPingTime@@QAE@XZ @ 479
??0FPlaneAmbientCube@@QAE@ABU0@@Z @ 480
??0FPlaneAmbientCube@@QAE@XZ @ 481
??0FPlayInfoData@@QAE@ABU0@@Z @ 482
??0FPlayInfoData@@QAE@XZ @ 483
??0FPlayerNameInfo@@QAE@ABU0@@Z @ 484
??0FPlayerNameInfo@@QAE@XZ @ 485
??0FPlayerPartsInfo@@QAE@ABU0@@Z @ 486
??0FPlayerPartsInfo@@QAE@XZ @ 487
??0FPlayerProperty@@QAE@ABU0@@Z @ 488
??0FPlayerProperty@@QAE@XZ @ 489
??0FPlayerResponseLine@@QAE@ABU0@@Z @ 490
??0FPlayerResponseLine@@QAE@XZ @ 491
??0FPlayerSceneNode@@QAE@ABV0@@Z @ 492
??0FPlayerSceneNode@@QAE@PAVUViewport@@PAVFRenderTarget@@PAVAActor@@VFVector@@VFRotator@@MPAVULevel@@@Z @ 493
??0FPointLightMapSceneNode@@QAE@ABV0@@Z @ 494
??0FPointLightMapSceneNode@@QAE@PAVUViewport@@PAVAActor@@AAVFBspSurf@@PAVFLightMap@@HHHH@Z @ 495
??0FPointRegion@@QAE@PAVAZoneInfo@@@Z @ 496
??0FPointRegion@@QAE@PAVAZoneInfo@@HE@Z @ 497
??0FPointRegion@@QAE@XZ @ 498
??0FPoly@@QAE@XZ @ 499
??0FPostProcessCanvasUtil@@QAE@ABV0@@Z @ 500
??0FPostProcessCanvasUtil@@QAE@PAVFRenderTarget@@PAVFRenderInterface@@PAVFMatrix@@2@Z @ 501
??0FProcMeshVertex@@QAE@XZ @ 502
??0FPromotionParam@@QAE@ABV0@@Z @ 503
??0FPromotionParam@@QAE@PBVUwPromotionParam@@@Z @ 504
??0FPromotionParam@@QAE@XZ @ 505
??0FQuestParam@@QAE@ABV0@@Z @ 506
??0FQuestParam@@QAE@PBVUwQuestParam@@@Z @ 507
??0FQuestParam@@QAE@XZ @ 508
??0FRadiositySceneNode@@QAE@ABV0@@Z @ 509
??0FRadiositySceneNode@@QAE@PAVUViewport@@PAVFRenderTarget@@PAVAActor@@VFVector@@VFRotator@@M@Z @ 510
??0FRandBoxParam@@QAE@PBVUwRandBoxParam@@@Z @ 511
??0FRandBoxParam@@QAE@XZ @ 512
??0FRaw32BitIndexBuffer@@QAE@ABV0@@Z @ 513
??0FRaw32BitIndexBuffer@@QAE@XZ @ 514
??0FRawColorStream@@QAE@ABV0@@Z @ 515
??0FRawColorStream@@QAE@XZ @ 516
??0FRawIndexBuffer@@QAE@ABV0@@Z @ 517
??0FRawIndexBuffer@@QAE@XZ @ 518
??0FRebuildOptions@@QAE@ABV0@@Z @ 519
??0FRebuildOptions@@QAE@XZ @ 520
??0FRebuildTools@@QAE@ABV0@@Z @ 521
??0FRebuildTools@@QAE@XZ @ 522
??0FRenderInterface@@QAE@ABV0@@Z @ 523
??0FRenderInterface@@QAE@XZ @ 524
??0FResultData@@QAE@XZ @ 525
??0FResultInfo@@QAE@ABU0@@Z @ 526
??0FResultInfo@@QAE@XZ @ 527
??0FRotatorF@@QAE@MMM@Z @ 528
??0FRotatorF@@QAE@VFRotator@@@Z @ 529
??0FRotatorF@@QAE@XZ @ 530
??0FSDefenceGameParam@@QAE@ABU0@@Z @ 531
??0FSDefenceGameParam@@QAE@XZ @ 532
??0FSEAXEffect@@QAE@ABU0@@Z @ 533
??0FSEAXEffect@@QAE@XZ @ 534
??0FSceneNode@@QAE@ABV0@@Z @ 535
??0FSceneNode@@QAE@PAV0@@Z @ 536
??0FSceneNode@@QAE@PAVUViewport@@PAVFRenderTarget@@@Z @ 537
??0FScriptedPortalSceneNode@@QAE@ABV0@@Z @ 538
??0FScriptedPortalSceneNode@@QAE@PAVUViewport@@PAVFRenderTarget@@PAVAActor@@VFVector@@VFRotator@@M@Z @ 539
??0FServerResponseLine@@QAE@ABU0@@Z @ 540
??0FServerResponseLine@@QAE@XZ @ 541
??0FShadowMeshVertexStream@@QAE@ABV0@@Z @ 542
??0FShadowMeshVertexStream@@QAE@XZ @ 543
??0FShadowSceneNode@@QAE@ABV0@@Z @ 544
??0FShadowSceneNode@@QAE@PAVUViewport@@PAVFRenderTarget@@PAVAActor@@2VFVector@@VFRotator@@M@Z @ 545
??0FSkeletalMeshBoundStream@@QAE@ABV0@@Z @ 546
??0FSkeletalMeshBoundStream@@QAE@VFBox@@@Z @ 547
??0FSkeletalMeshTangentBinormal@@QAE@VFVector@@0@Z @ 548
??0FSkeletalMeshTangentBinormal@@QAE@XZ @ 549
??0FSkeletalMeshTangentBinormalStream@@QAE@ABV0@@Z @ 550
??0FSkeletalMeshTangentBinormalStream@@QAE@XZ @ 551
??0FSkillBaseParam@@QAE@ABV0@@Z @ 552
??0FSkillBaseParam@@QAE@PBVUwSkillBaseParam@@@Z @ 553
??0FSkillBaseParam@@QAE@XZ @ 554
??0FSkinVertexStream@@QAE@ABV0@@Z @ 555
??0FSkinVertexStream@@QAE@XZ @ 556
??0FSkySceneNode@@QAE@ABV0@@Z @ 557
??0FSkySceneNode@@QAE@PAVFLevelSceneNode@@H@Z @ 558
??0FSolidColorTexture@@QAE@ABV0@@Z @ 559
??0FSolidColorTexture@@QAE@VFColor@@@Z @ 560
??0FSoundData@@QAE@ABV0@@Z @ 561
??0FSoundData@@QAE@PAVUSound@@@Z @ 562
??0FSoundSource@@QAE@ABV0@@Z @ 563
??0FSoundSource@@QAE@PAVUAudioSubsystem@@@Z @ 564
??0FSpeechReplacement@@QAE@ABU0@@Z @ 565
??0FSpeechReplacement@@QAE@XZ @ 566
??0FSpriteWidget@@QAE@XZ @ 567
??0FStandard@@QAE@ABU0@@Z @ 568
??0FStandard@@QAE@XZ @ 569
??0FStatGraph@@QAE@ABV0@@Z @ 570
??0FStatGraph@@QAE@XZ @ 571
??0FStatGraphLine@@QAE@ABV0@@Z @ 572
??0FStatGraphLine@@QAE@XZ @ 573
??0FStaticCubemap@@QAE@ABV0@@Z @ 574
??0FStaticCubemap@@QAE@PAVUCubemap@@@Z @ 575
??0FStaticDownloadTexture@@QAE@ABV0@@Z @ 576
??0FStaticDownloadTexture@@QAE@PAVUDownloadTexture@@@Z @ 577
??0FStaticLightMapTexture@@QAE@ABV0@@Z @ 578
??0FStaticLightMapTexture@@QAE@XZ @ 579
??0FStaticMeshBatch@@QAE@ABV0@@Z @ 580
??0FStaticMeshBatch@@QAE@PAVUMaterial@@HH@Z @ 581
??0FStaticMeshBatchIndexBuffer@@QAE@ABV0@@Z @ 582
??0FStaticMeshBatchIndexBuffer@@QAE@XZ @ 583
??0FStaticMeshBatchNormalVertex@@QAE@XZ @ 584
??0FStaticMeshBatchShaderVertex@@QAE@ABU0@@Z @ 585
??0FStaticMeshBatchShaderVertex@@QAE@XZ @ 586
??0FStaticMeshBatchVertex@@QAE@XZ @ 587
??0FStaticMeshBatchVertexStream@@QAE@ABV0@@Z @ 588
??0FStaticMeshBatchVertexStream@@QAE@PAVUMaterial@@H@Z @ 589
??0FStaticMeshBoundVertex@@QAE@VFVector@@@Z @ 590
??0FStaticMeshBoundVertex@@QAE@XZ @ 591
??0FStaticMeshBoundVertexStream@@QAE@ABV0@@Z @ 592
??0FStaticMeshBoundVertexStream@@QAE@XZ @ 593
??0FStaticMeshCollisionNode@@QAE@XZ @ 594
??0FStaticMeshCollisionTriangle@@QAE@ABU0@@Z @ 595
??0FStaticMeshCollisionTriangle@@QAE@XZ @ 596
??0FStaticMeshColorStream@@QAE@ABV0@@Z @ 597
??0FStaticMeshColorStream@@QAE@XZ @ 598
??0FStaticMeshDirectionalLightcolor@@QAE@ABU0@@Z @ 599
??0FStaticMeshDirectionalLightcolor@@QAE@XZ @ 600
??0FStaticMeshDirectionalLightcolorStream@@QAE@ABV0@@Z @ 601
??0FStaticMeshDirectionalLightcolorStream@@QAE@XZ @ 602
??0FStaticMeshLOD@UStaticMesh@@QAE@PAV1@M@Z @ 603
??0FStaticMeshMaterial@@QAE@PAVUMaterial@@@Z @ 604
??0FStaticMeshSection@@QAE@XZ @ 605
??0FStaticMeshTangentBinormal@@QAE@VFVector@@0@Z @ 606
??0FStaticMeshTangentBinormal@@QAE@XZ @ 607
??0FStaticMeshTangentBinormalStream@@QAE@ABV0@@Z @ 608
??0FStaticMeshTangentBinormalStream@@QAE@XZ @ 609
??0FStaticMeshTriangle@@QAE@XZ @ 610
??0FStaticMeshUVStream@@QAE@ABV0@@Z @ 611
??0FStaticMeshUVStream@@QAE@XZ @ 612
??0FStaticMeshVertex@@QAE@XZ @ 613
??0FStaticMeshVertexStream@@QAE@ABV0@@Z @ 614
??0FStaticMeshVertexStream@@QAE@XZ @ 615
??0FStaticProjectorInfo@@QAE@ABU0@@Z @ 616
??0FStaticProjectorInfo@@QAE@XZ @ 617
??0FStaticProjectorVertex@@QAE@XZ @ 618
??0FStaticTexture@@QAE@ABV0@@Z @ 619
??0FStaticTexture@@QAE@PAVUTexture@@@Z @ 620
??0FStats@@QAE@ABV0@@Z @ 621
??0FStats@@QAE@XZ @ 622
??0FStoredChatPassword@@QAE@ABU0@@Z @ 623
??0FStoredChatPassword@@QAE@XZ @ 624
??0FStreamingManagerBase@@QAE@ABU0@@Z @ 625
??0FStreamingManagerBase@@QAE@XZ @ 626
??0FStreamingManagerCollection@@QAE@ABU0@@Z @ 627
??0FStreamingManagerCollection@@QAE@XZ @ 628
??0FStreamingManagerTexture@@QAE@ABU0@@Z @ 629
??0FStreamingManagerTexture@@QAE@XZ @ 630
??0FStreamingTexture@@QAE@PAVUTexture@@@Z @ 631
??0FTempLineBatcher@@QAE@ABV0@@Z @ 632
??0FTempLineBatcher@@QAE@XZ @ 633
??0FTencentLoginInfo@@QAE@ABU0@@Z @ 634
??0FTencentLoginInfo@@QAE@XZ @ 635
??0FTerrainDirectionalLightcolor@@QAE@ABU0@@Z @ 636
??0FTerrainDirectionalLightcolor@@QAE@XZ @ 637
??0FTerrainDirectionalLightcolorStream@@QAE@ABV0@@Z @ 638
??0FTerrainDirectionalLightcolorStream@@QAE@XZ @ 639
??0FTerrainMaterialLayer@@QAE@XZ @ 640
??0FTerrainTools@@QAE@ABV0@@Z @ 641
??0FTerrainTools@@QAE@XZ @ 642
??0FTexelInfo@@QAE@XZ @ 643
??0FToneElement@@QAE@ABU0@@Z @ 644
??0FToneElement@@QAE@XZ @ 645
??0FURL@@QAE@ABV0@@Z @ 646
??0FURL@@QAE@PAV0@PBGW4ETravelType@@@Z @ 647
??0FURL@@QAE@PBG@Z @ 648
??0FVehicleRecord@@QAE@ABU0@@Z @ 649
??0FVehicleRecord@@QAE@XZ @ 650
??0FVoiceChatCodec@@QAE@ABU0@@Z @ 651
??0FVoiceChatCodec@@QAE@XZ @ 652
??0FWarpZoneSceneNode@@QAE@ABV0@@Z @ 653
??0FWarpZoneSceneNode@@QAE@PAVFLevelSceneNode@@PAVAWarpZoneInfo@@@Z @ 654
??0FWaterDrop@@QAE@MMMMM@Z @ 655
??0FWaveModInfo@@QAE@XZ @ 656
??0FWeaponBaseParam@@QAE@ABV0@@Z @ 657
??0FWeaponBaseParam@@QAE@PBVUwWeaponBaseParams@@@Z @ 658
??0FWeaponBaseParam@@QAE@XZ @ 659
??0FWeaponCustomInfoParam@@QAE@ABV0@@Z @ 660
??0FWeaponCustomInfoParam@@QAE@PBVUwWeaponCustomInfoParam@@@Z @ 661
??0FWeaponCustomInfoParam@@QAE@XZ @ 662
??0FWeaponCustomPartsParam@@QAE@ABV0@@Z @ 663
??0FWeaponCustomPartsParam@@QAE@PBVUwWeaponCustomPartsParam@@@Z @ 664
??0FWeaponCustomPartsParam@@QAE@XZ @ 665
??0FWeaponPart@@QAE@ABU0@@Z @ 666
??0FWeaponPart@@QAE@XZ @ 667
??0FWeaponRecord@@QAE@ABU0@@Z @ 668
??0FWeaponRecord@@QAE@XZ @ 669
??0FWeatherPcl@@QAE@XZ @ 670
??0FWebzenInven@@QAE@ABU0@@Z @ 671
??0FWebzenInven@@QAE@XZ @ 672
??0FWebzenShopCategory@@QAE@ABU0@@Z @ 673
??0FWebzenShopCategory@@QAE@XZ @ 674
??0FWebzenShopPackage@@QAE@ABU0@@Z @ 675
??0FWebzenShopPackage@@QAE@XZ @ 676
??0FWebzenShopProduct@@QAE@ABU0@@Z @ 677
??0FWebzenShopProduct@@QAE@XZ @ 678
??0FZoneRenderInfo@@QAE@ABU0@@Z @ 679
??0FZoneRenderInfo@@QAE@XZ @ 680
??0FsItem@@QAE@ABU0@@Z @ 681
??0FsItem@@QAE@XZ @ 682
??0FsQuickSlot@@QAE@ABU0@@Z @ 683
??0FsQuickSlot@@QAE@XZ @ 684
??0FsSkill@@QAE@ABU0@@Z @ 685
??0FsSkill@@QAE@XZ @ 686
??0FsStartWeaponInfo@@QAE@ABU0@@Z @ 687
??0FsStartWeaponInfo@@QAE@XZ @ 688
??0FstMultiBulletPerFire@@QAE@XZ @ 689
??0HActor@@QAE@ABU0@@Z @ 690
??0HActor@@QAE@PAVAActor@@@Z @ 691
??0HBspSurf@@QAE@ABU0@@Z @ 692
??0HBspSurf@@QAE@H@Z @ 693
??0HCoords@@QAE@ABU0@@Z @ 694
??0HCoords@@QAE@PAVFCameraSceneNode@@@Z @ 695
??0HHitProxy@@QAE@ABU0@@Z @ 696
??0HHitProxy@@QAE@XZ @ 697
??0HMaterialTree@@QAE@ABU0@@Z @ 698
??0HMaterialTree@@QAE@PAVUMaterial@@K@Z @ 699
??0HMatineeAction@@QAE@ABU0@@Z @ 700
??0HMatineeAction@@QAE@PAVASceneManager@@PAVUMatAction@@@Z @ 701
??0HMatineeScene@@QAE@ABU0@@Z @ 702
??0HMatineeScene@@QAE@PAVASceneManager@@@Z @ 703
??0HMatineeSubAction@@QAE@ABU0@@Z @ 704
??0HMatineeSubAction@@QAE@PAVUMatSubAction@@PAVUMatAction@@@Z @ 705
??0HMatineeTimePath@@QAE@ABU0@@Z @ 706
??0HMatineeTimePath@@QAE@PAVASceneManager@@@Z @ 707
??0HTerrain@@QAE@ABU0@@Z @ 708
??0HTerrain@@QAE@PAVATerrainInfo@@@Z @ 709
??0HTerrainToolLayer@@QAE@ABU0@@Z @ 710
??0HTerrainToolLayer@@QAE@PAVATerrainInfo@@HPAVUTexture@@@Z @ 711
??0UActionMoveCamera@@IAE@XZ @ 712
??0UActionMoveCamera@@QAE@ABV0@@Z @ 713
??0UActionPause@@IAE@XZ @ 714
??0UActionPause@@QAE@ABV0@@Z @ 715
??0UActorChannel@@QAE@ABV0@@Z @ 716
??0UActorChannel@@QAE@XZ @ 717
??0UAdminBase@@IAE@XZ @ 718
??0UAdminBase@@QAE@ABV0@@Z @ 719
??0UAnimNotify@@QAE@ABV0@@Z @ 720
??0UAnimNotify@@QAE@XZ @ 721
??0UAnimNotify_DestroyEffect@@QAE@ABV0@@Z @ 722
??0UAnimNotify_DestroyEffect@@QAE@XZ @ 723
??0UAnimNotify_Effect@@QAE@ABV0@@Z @ 724
??0UAnimNotify_Effect@@QAE@XZ @ 725
??0UAnimNotify_LIPSinc@@QAE@ABV0@@Z @ 726
??0UAnimNotify_LIPSinc@@QAE@XZ @ 727
??0UAnimNotify_MatSubAction@@QAE@ABV0@@Z @ 728
??0UAnimNotify_MatSubAction@@QAE@XZ @ 729
??0UAnimNotify_Script@@QAE@ABV0@@Z @ 730
??0UAnimNotify_Script@@QAE@XZ @ 731
??0UAnimNotify_Scripted@@QAE@ABV0@@Z @ 732
??0UAnimNotify_Scripted@@QAE@XZ @ 733
??0UAnimNotify_Sound@@QAE@ABV0@@Z @ 734
??0UAnimNotify_Sound@@QAE@XZ @ 735
??0UAnimation@@QAE@ABV0@@Z @ 736
??0UAnimation@@QAE@XZ @ 737
??0UAudioSubsystem@@QAE@ABV0@@Z @ 738
??0UAudioSubsystem@@QAE@XZ @ 739
??0UBTLoadingAdvancer@@QAE@ABV0@@Z @ 740
??0UBTLoadingAdvancer@@QAE@XZ @ 741
??0UBTLoadingState@@QAE@ABV0@@Z @ 742
??0UBTLoadingState@@QAE@XZ @ 743
??0UBTMapLoader@@QAE@ABV0@@Z @ 744
??0UBTMapLoader@@QAE@XZ @ 745
??0UBTNetInterface@@QAE@ABV0@@Z @ 746
??0UBTNetInterface@@QAE@XZ @ 747
??0UBTPingChecker@@QAE@ABV0@@Z @ 748
??0UBTPingChecker@@QAE@XZ @ 749
??0UBTPingCheckerLinker@@IAE@XZ @ 750
??0UBTPingCheckerLinker@@QAE@ABV0@@Z @ 751
??0UBTTcpLink_Channel_DS@@QAE@ABV0@@Z @ 752
??0UBTTcpLink_Channel_DS@@QAE@XZ @ 753
??0UBTTcpLink_DStoDP_DS@@QAE@ABV0@@Z @ 754
??0UBTTcpLink_DStoDP_DS@@QAE@XZ @ 755
??0UBaseGUIController@@QAE@ABV0@@Z @ 756
??0UBaseGUIController@@QAE@XZ @ 757
??0UBeamEmitter@@QAE@ABV0@@Z @ 758
??0UBeamEmitter@@QAE@XZ @ 759
??0UBitmapMaterial@@QAE@ABV0@@Z @ 760
??0UBitmapMaterial@@QAE@XZ @ 761
??0UBlackWhite@@QAE@ABV0@@Z @ 762
??0UBlackWhite@@QAE@XZ @ 763
??0UBlendShader@@QAE@ABV0@@Z @ 764
??0UBlendShader@@QAE@XZ @ 765
??0UBtrTraceResult@@QAE@ABV0@@Z @ 766
??0UBtrTraceResult@@QAE@XZ @ 767
??0UByteArray@@IAE@XZ @ 768
??0UByteArray@@QAE@ABV0@@Z @ 769
??0UCacheManager@@IAE@XZ @ 770
??0UCacheManager@@QAE@ABV0@@Z @ 771
??0UCameraEffect@@QAE@ABV0@@Z @ 772
??0UCameraEffect@@QAE@XZ @ 773
??0UCameraOverlay@@QAE@ABV0@@Z @ 774
??0UCameraOverlay@@QAE@XZ @ 775
??0UCanvas@@IAE@XZ @ 776
??0UCanvas@@QAE@ABV0@@Z @ 777
??0UCascadedShadowMaps@@QAE@ABV0@@Z @ 778
??0UCascadedShadowMaps@@QAE@XZ @ 779
??0UChannel@@QAE@ABV0@@Z @ 780
??0UChannel@@QAE@XZ @ 781
??0UChannelDownload@@IAE@XZ @ 782
??0UChannelDownload@@QAE@ABV0@@Z @ 783
??0UCheatManager@@IAE@XZ @ 784
??0UCheatManager@@QAE@ABV0@@Z @ 785
??0UClient@@QAE@ABV0@@Z @ 786
??0UClient@@QAE@XZ @ 787
??0UColorModifier@@IAE@XZ @ 788
??0UColorModifier@@QAE@ABV0@@Z @ 789
??0UCombiner@@QAE@ABV0@@Z @ 790
??0UCombiner@@QAE@XZ @ 791
??0UConsole@@IAE@XZ @ 792
??0UConsole@@QAE@ABV0@@Z @ 793
??0UConstantColor@@QAE@ABV0@@Z @ 794
??0UConstantColor@@QAE@XZ @ 795
??0UConstantMaterial@@QAE@ABV0@@Z @ 796
??0UConstantMaterial@@QAE@XZ @ 797
??0UControlChannel@@QAE@ABV0@@Z @ 798
??0UControlChannel@@QAE@XZ @ 799
??0UConvexVolume@@QAE@ABV0@@Z @ 800
??0UConvexVolume@@QAE@XZ @ 801
??0UCrosshairPack@@IAE@XZ @ 802
??0UCrosshairPack@@QAE@ABV0@@Z @ 803
??0UCubemap@@QAE@ABV0@@Z @ 804
??0UCubemap@@QAE@XZ @ 805
??0UDOFEffect@@QAE@ABV0@@Z @ 806
??0UDOFEffect@@QAE@XZ @ 807
??0UDecalShader@@QAE@ABV0@@Z @ 808
??0UDecalShader@@QAE@XZ @ 809
??0UDemoRecConnection@@IAE@XZ @ 810
??0UDemoRecConnection@@QAE@ABV0@@Z @ 811
??0UDemoRecConnection@@QAE@PAVUNetDriver@@ABVFURL@@@Z @ 812
??0UDemoRecDriver@@QAE@ABV0@@Z @ 813
??0UDemoRecDriver@@QAE@XZ @ 814
??0UDistortEmitter@@QAE@ABV0@@Z @ 815
??0UDistortEmitter@@QAE@XZ @ 816
??0UDownload@@IAE@XZ @ 817
??0UDownload@@QAE@ABV0@@Z @ 818
??0UDownloadTexture@@QAE@ABV0@@Z @ 819
??0UDownloadTexture@@QAE@XZ @ 820
??0UDripEffect@@QAE@ABV0@@Z @ 821
??0UDripEffect@@QAE@XZ @ 822
??0UEngine@@QAE@ABV0@@Z @ 823
??0UEngine@@QAE@XZ @ 824
??0UFXFile@@QAE@ABV0@@Z @ 825
??0UFXFile@@QAE@XZ @ 826
??0UFadeBlackWhite@@QAE@ABV0@@Z @ 827
??0UFadeBlackWhite@@QAE@XZ @ 828
??0UFadeColor@@QAE@ABV0@@Z @ 829
??0UFadeColor@@QAE@XZ @ 830
??0UFileChannel@@QAE@ABV0@@Z @ 831
??0UFileChannel@@QAE@XZ @ 832
??0UFinalBlend@@QAE@ABV0@@Z @ 833
??0UFinalBlend@@QAE@XZ @ 834
??0UFinalEffect@@QAE@ABV0@@Z @ 835
??0UFinalEffect@@QAE@XZ @ 836
??0UFluidSurfacePrimitive@@IAE@XZ @ 837
??0UFluidSurfacePrimitive@@QAE@ABV0@@Z @ 838
??0UFont@@QAE@ABV0@@Z @ 839
??0UFont@@QAE@XZ @ 840
??0UGMFile@@QAE@ABV0@@Z @ 841
??0UGMFile@@QAE@XZ @ 842
??0UGameEngine@@QAE@ABV0@@Z @ 843
??0UGameEngine@@QAE@XZ @ 844
??0UGameProfile@@IAE@XZ @ 845
??0UGameProfile@@QAE@ABV0@@Z @ 846
??0UGlowEffect@@QAE@ABV0@@Z @ 847
??0UGlowEffect@@QAE@XZ @ 848
??0UHShieldManager@@QAE@XZ @ 849
??0UHardwareShader@@QAE@ABV0@@Z @ 850
??0UHardwareShader@@QAE@XZ @ 851
??0UI3DL2Listener@@QAE@ABV0@@Z @ 852
??0UI3DL2Listener@@QAE@XZ @ 853
??0UIndexBuffer@@QAE@ABV0@@Z @ 854
??0UIndexBuffer@@QAE@XZ @ 855
??0UInput@@QAE@ABV0@@Z @ 856
??0UInput@@QAE@XZ @ 857
??0UInteraction@@QAE@ABV0@@Z @ 858
??0UInteraction@@QAE@XZ @ 859
??0UInteractionMaster@@QAE@ABV0@@Z @ 860
??0UInteractionMaster@@QAE@XZ @ 861
??0UInteractions@@IAE@XZ @ 862
??0UInteractions@@QAE@ABV0@@Z @ 863
??0UItemIterator@@QAE@ABV0@@Z @ 864
??0UItemIterator@@QAE@XZ @ 865
??0UKMeshProps@@QAE@ABV0@@Z @ 866
??0UKMeshProps@@QAE@XZ @ 867
??0UKarmaParams@@QAE@ABV0@@Z @ 868
??0UKarmaParams@@QAE@XZ @ 869
??0UKarmaParamsCollision@@QAE@ABV0@@Z @ 870
??0UKarmaParamsCollision@@QAE@XZ @ 871
??0UKarmaParamsRBFull@@IAE@XZ @ 872
??0UKarmaParamsRBFull@@QAE@ABV0@@Z @ 873
??0UKarmaParamsSkel@@IAE@XZ @ 874
??0UKarmaParamsSkel@@QAE@ABV0@@Z @ 875
??0ULevel@@IAE@XZ @ 876
??0ULevel@@QAE@ABV0@@Z @ 877
??0ULevel@@QAE@PAVUEngine@@H@Z @ 878
??0ULevelBase@@IAE@XZ @ 879
??0ULevelBase@@QAE@ABV0@@Z @ 880
??0ULevelBase@@QAE@PAVUEngine@@ABVFURL@@@Z @ 881
??0ULevelSummary@@QAE@ABV0@@Z @ 882
??0ULevelSummary@@QAE@XZ @ 883
??0ULodMesh@@QAE@ABV0@@Z @ 884
??0ULodMesh@@QAE@XZ @ 885
??0ULodMeshInstance@@QAE@ABV0@@Z @ 886
??0ULodMeshInstance@@QAE@XZ @ 887
??0ULogEntry@@IAE@XZ @ 888
??0ULogEntry@@QAE@ABV0@@Z @ 889
??0UManifest@@QAE@ABV0@@Z @ 890
??0UManifest@@QAE@XZ @ 891
??0UMatAction@@QAE@ABV0@@Z @ 892
??0UMatAction@@QAE@XZ @ 893
??0UMatObject@@IAE@XZ @ 894
??0UMatObject@@QAE@ABV0@@Z @ 895
??0UMatSubAction@@QAE@ABV0@@Z @ 896
??0UMatSubAction@@QAE@XZ @ 897
??0UMaterial@@QAE@ABV0@@Z @ 898
??0UMaterial@@QAE@XZ @ 899
??0UMaterialSequence@@QAE@ABV0@@Z @ 900
??0UMaterialSequence@@QAE@XZ @ 901
??0UMaterialSwitch@@QAE@ABV0@@Z @ 902
??0UMaterialSwitch@@QAE@XZ @ 903
??0UMesh@@QAE@ABV0@@Z @ 904
??0UMesh@@QAE@XZ @ 905
??0UMeshAnimation@@QAE@ABV0@@Z @ 906
??0UMeshAnimation@@QAE@XZ @ 907
??0UMeshEmitter@@QAE@ABV0@@Z @ 908
??0UMeshEmitter@@QAE@XZ @ 909
??0UMeshInstance@@QAE@ABV0@@Z @ 910
??0UMeshInstance@@QAE@XZ @ 911
??0UMeshObject@@IAE@XZ @ 912
??0UMeshObject@@QAE@ABV0@@Z @ 913
??0UModel@@QAE@ABV0@@Z @ 914
??0UModel@@QAE@PAVABrush@@H@Z @ 915
??0UModel@@QAE@XZ @ 916
??0UModifier@@QAE@ABV0@@Z @ 917
??0UModifier@@QAE@XZ @ 918
??0UMotionBlur@@QAE@ABV0@@Z @ 919
??0UMotionBlur@@QAE@XZ @ 920
??0UMotionBlurEffect@@QAE@ABV0@@Z @ 921
??0UMotionBlurEffect@@QAE@XZ @ 922
??0UNetConnection@@QAE@ABV0@@Z @ 923
??0UNetConnection@@QAE@PAVUNetDriver@@ABVFURL@@@Z @ 924
??0UNetConnection@@QAE@XZ @ 925
??0UNetDriver@@QAE@ABV0@@Z @ 926
??0UNetDriver@@QAE@XZ @ 927
??0UNullRenderDevice@@QAE@ABV0@@Z @ 928
??0UNullRenderDevice@@QAE@XZ @ 929
??0UObjectPool@@IAE@XZ @ 930
??0UObjectPool@@QAE@ABV0@@Z @ 931
??0UOpacityModifier@@IAE@XZ @ 932
??0UOpacityModifier@@QAE@ABV0@@Z @ 933
??0UPackageCheckInfo@@IAE@XZ @ 934
??0UPackageCheckInfo@@QAE@ABV0@@Z @ 935
??0UPackageMapLevel@@QAE@ABV0@@Z @ 936
??0UPackageMapLevel@@QAE@PAVUNetConnection@@@Z @ 937
??0UPackageMapLevel@@QAE@XZ @ 938
??0UPalette@@QAE@ABV0@@Z @ 939
??0UPalette@@QAE@XZ @ 940
??0UParticleEmitter@@QAE@ABV0@@Z @ 941
??0UParticleEmitter@@QAE@XZ @ 942
??0UParticleMaterial@@IAE@XZ @ 943
??0UParticleMaterial@@QAE@ABV0@@Z @ 944
??0UPlayInfo@@QAE@ABV0@@Z @ 945
??0UPlayInfo@@QAE@XZ @ 946
??0UPlayer@@QAE@ABV0@@Z @ 947
??0UPlayer@@QAE@XZ @ 948
??0UPlayerInput@@IAE@XZ @ 949
??0UPlayerInput@@QAE@ABV0@@Z @ 950
??0UPolys@@QAE@ABV0@@Z @ 951
??0UPolys@@QAE@XZ @ 952
??0UPostProcessEffect@@QAE@ABV0@@Z @ 953
??0UPostProcessEffect@@QAE@XZ @ 954
??0UPrimitive@@QAE@ABV0@@Z @ 955
??0UPrimitive@@QAE@XZ @ 956
??0UProceduralSound@@QAE@ABV0@@Z @ 957
??0UProceduralSound@@QAE@XZ @ 958
??0UProjectorMaterial@@IAE@XZ @ 959
??0UProjectorMaterial@@QAE@ABV0@@Z @ 960
??0UProjectorPrimitive@@QAE@ABV0@@Z @ 961
??0UProjectorPrimitive@@QAE@XZ @ 962
??0UProxyBitmapMaterial@@QAE@ABV0@@Z @ 963
??0UProxyBitmapMaterial@@QAE@XZ @ 964
??0UReachSpec@@QAE@ABV0@@Z @ 965
??0UReachSpec@@QAE@XZ @ 966
??0URenderDevice@@QAE@ABV0@@Z @ 967
??0URenderDevice@@QAE@XZ @ 968
??0URenderResource@@QAE@ABV0@@Z @ 969
??0URenderResource@@QAE@XZ @ 970
??0URenderedMaterial@@QAE@ABV0@@Z @ 971
??0URenderedMaterial@@QAE@XZ @ 972
??0USSAOEffect@@QAE@ABV0@@Z @ 973
??0USSAOEffect@@QAE@XZ @ 974
??0USVehicleWheel@@IAE@XZ @ 975
??0USVehicleWheel@@QAE@ABV0@@Z @ 976
??0UScriptedTexture@@QAE@ABV0@@Z @ 977
??0UScriptedTexture@@QAE@XZ @ 978
??0UShader@@QAE@ABV0@@Z @ 979
??0UShader@@QAE@XZ @ 980
??0UShadowBitmapMaterial@@QAE@ABV0@@Z @ 981
??0UShadowBitmapMaterial@@QAE@XZ @ 982
??0USkeletalMesh@@QAE@ABV0@@Z @ 983
??0USkeletalMesh@@QAE@XZ @ 984
??0USkeletalMeshInstance@@QAE@ABV0@@Z @ 985
??0USkeletalMeshInstance@@QAE@XZ @ 986
??0USkinVertexBuffer@@QAE@ABV0@@Z @ 987
??0USkinVertexBuffer@@QAE@XZ @ 988
??0USound@@QAE@ABV0@@Z @ 989
??0USound@@QAE@H@Z @ 990
??0USound@@QAE@PBGH@Z @ 991
??0USound@@QAE@XZ @ 992
??0USoundGroup@@QAE@ABV0@@Z @ 993
??0USoundGroup@@QAE@XZ @ 994
??0USparkEmitter@@QAE@ABV0@@Z @ 995
??0USparkEmitter@@QAE@XZ @ 996
??0USpline@@QAE@ABV0@@Z @ 997
??0USpline@@QAE@XZ @ 998
??0USpriteEmitter@@QAE@ABV0@@Z @ 999
??0USpriteEmitter@@QAE@XZ @ 1000
??0UStaticMesh@@QAE@ABV0@@Z @ 1001
??0UStaticMesh@@QAE@XZ @ 1002
??0UStaticMeshInstance@@QAE@ABV0@@Z @ 1003
??0UStaticMeshInstance@@QAE@XZ @ 1004
??0UStream@@QAE@ABV0@@Z @ 1005
??0UStream@@QAE@XZ @ 1006
??0UStreamBase@@IAE@XZ @ 1007
??0UStreamBase@@QAE@ABV0@@Z @ 1008
??0UStreamInteraction@@QAE@ABV0@@Z @ 1009
??0UStreamInteraction@@QAE@XZ @ 1010
??0UStreamInterface@@QAE@ABV0@@Z @ 1011
??0UStreamInterface@@QAE@XZ @ 1012
??0UStreamTag@@QAE@ABV0@@Z @ 1013
??0UStreamTag@@QAE@XZ @ 1014
??0USubActionCameraEffect@@QAE@ABV0@@Z @ 1015
??0USubActionCameraEffect@@QAE@XZ @ 1016
??0USubActionCameraShake@@QAE@ABV0@@Z @ 1017
??0USubActionCameraShake@@QAE@XZ @ 1018
??0USubActionFOV@@QAE@ABV0@@Z @ 1019
??0USubActionFOV@@QAE@XZ @ 1020
??0USubActionFade@@QAE@ABV0@@Z @ 1021
??0USubActionFade@@QAE@XZ @ 1022
??0USubActionGameSpeed@@QAE@ABV0@@Z @ 1023
??0USubActionGameSpeed@@QAE@XZ @ 1024
??0USubActionOrientation@@QAE@ABV0@@Z @ 1025
??0USubActionOrientation@@QAE@XZ @ 1026
??0USubActionSceneSpeed@@QAE@ABV0@@Z @ 1027
??0USubActionSceneSpeed@@QAE@XZ @ 1028
??0USubActionSubTitle@@QAE@ABV0@@Z @ 1029
??0USubActionSubTitle@@QAE@XZ @ 1030
??0USubActionTrigger@@QAE@ABV0@@Z @ 1031
??0USubActionTrigger@@QAE@XZ @ 1032
??0UTerrainBrush@@QAE@ABV0@@Z @ 1033
??0UTerrainBrush@@QAE@XZ @ 1034
??0UTerrainBrushColor@@QAE@ABV0@@Z @ 1035
??0UTerrainBrushColor@@QAE@XZ @ 1036
??0UTerrainBrushEdgeTurn@@QAE@ABV0@@Z @ 1037
??0UTerrainBrushEdgeTurn@@QAE@XZ @ 1038
??0UTerrainBrushFlatten@@QAE@ABV0@@Z @ 1039
??0UTerrainBrushFlatten@@QAE@XZ @ 1040
??0UTerrainBrushNoise@@QAE@ABV0@@Z @ 1041
??0UTerrainBrushNoise@@QAE@XZ @ 1042
??0UTerrainBrushPaint@@QAE@ABV0@@Z @ 1043
??0UTerrainBrushPaint@@QAE@XZ @ 1044
??0UTerrainBrushSelect@@QAE@ABV0@@Z @ 1045
??0UTerrainBrushSelect@@QAE@XZ @ 1046
??0UTerrainBrushSmooth@@QAE@ABV0@@Z @ 1047
??0UTerrainBrushSmooth@@QAE@XZ @ 1048
??0UTerrainBrushTexPan@@QAE@ABV0@@Z @ 1049
??0UTerrainBrushTexPan@@QAE@XZ @ 1050
??0UTerrainBrushTexRotate@@QAE@ABV0@@Z @ 1051
??0UTerrainBrushTexRotate@@QAE@XZ @ 1052
??0UTerrainBrushTexScale@@QAE@ABV0@@Z @ 1053
??0UTerrainBrushTexScale@@QAE@XZ @ 1054
??0UTerrainBrushVertexEdit@@QAE@ABV0@@Z @ 1055
??0UTerrainBrushVertexEdit@@QAE@XZ @ 1056
??0UTerrainBrushVisibility@@QAE@ABV0@@Z @ 1057
??0UTerrainBrushVisibility@@QAE@XZ @ 1058
??0UTerrainMaterial@@QAE@ABV0@@Z @ 1059
??0UTerrainMaterial@@QAE@XZ @ 1060
??0UTerrainPrimitive@@IAE@XZ @ 1061
??0UTerrainPrimitive@@QAE@ABV0@@Z @ 1062
??0UTerrainPrimitive@@QAE@PAVATerrainInfo@@@Z @ 1063
??0UTerrainSector@@IAE@XZ @ 1064
??0UTerrainSector@@QAE@ABV0@@Z @ 1065
??0UTerrainSector@@QAE@PAVATerrainInfo@@HHHH@Z @ 1066
??0UTexCoordMaterial@@QAE@ABV0@@Z @ 1067
??0UTexCoordMaterial@@QAE@XZ @ 1068
??0UTexCoordSource@@QAE@ABV0@@Z @ 1069
??0UTexCoordSource@@QAE@XZ @ 1070
??0UTexEnvMap@@QAE@ABV0@@Z @ 1071
??0UTexEnvMap@@QAE@XZ @ 1072
??0UTexMatrix@@QAE@ABV0@@Z @ 1073
??0UTexMatrix@@QAE@XZ @ 1074
??0UTexModifier@@QAE@ABV0@@Z @ 1075
??0UTexModifier@@QAE@XZ @ 1076
??0UTexOscillator@@QAE@ABV0@@Z @ 1077
??0UTexOscillator@@QAE@XZ @ 1078
??0UTexOscillatorTriggered@@QAE@ABV0@@Z @ 1079
??0UTexOscillatorTriggered@@QAE@XZ @ 1080
??0UTexPanner@@QAE@ABV0@@Z @ 1081
??0UTexPanner@@QAE@XZ @ 1082
??0UTexPannerTriggered@@QAE@ABV0@@Z @ 1083
??0UTexPannerTriggered@@QAE@XZ @ 1084
??0UTexRotator@@QAE@ABV0@@Z @ 1085
??0UTexRotator@@QAE@XZ @ 1086
??0UTexScaler@@QAE@ABV0@@Z @ 1087
??0UTexScaler@@QAE@XZ @ 1088
??0UTextToSpeechAlias@@IAE@XZ @ 1089
??0UTextToSpeechAlias@@QAE@ABV0@@Z @ 1090
??0UTexture@@QAE@ABV0@@Z @ 1091
??0UTexture@@QAE@XZ @ 1092
??0UTickChecker@@QAE@ABV0@@Z @ 1093
??0UTickChecker@@QAE@XZ @ 1094
??0UTrailEmitter@@QAE@ABV0@@Z @ 1095
??0UTrailEmitter@@QAE@XZ @ 1096
??0UUserzoneInfo@@IAE@XZ @ 1097
??0UUserzoneInfo@@QAE@ABV0@@Z @ 1098
??0UVariableTexPanner@@QAE@ABV0@@Z @ 1099
??0UVariableTexPanner@@QAE@XZ @ 1100
??0UVertMesh@@QAE@ABV0@@Z @ 1101
??0UVertMesh@@QAE@XZ @ 1102
??0UVertMeshInstance@@QAE@ABV0@@Z @ 1103
??0UVertMeshInstance@@QAE@XZ @ 1104
??0UVertexBuffer@@QAE@ABV0@@Z @ 1105
??0UVertexBuffer@@QAE@K@Z @ 1106
??0UVertexBuffer@@QAE@XZ @ 1107
??0UVertexColor@@IAE@XZ @ 1108
??0UVertexColor@@QAE@ABV0@@Z @ 1109
??0UVertexStreamBase@@QAE@ABV0@@Z @ 1110
??0UVertexStreamBase@@QAE@HKK@Z @ 1111
??0UVertexStreamCOLOR@@QAE@ABV0@@Z @ 1112
??0UVertexStreamCOLOR@@QAE@K@Z @ 1113
??0UVertexStreamCOLOR@@QAE@XZ @ 1114
??0UVertexStreamPosNormTex@@QAE@ABV0@@Z @ 1115
??0UVertexStreamPosNormTex@@QAE@K@Z @ 1116
??0UVertexStreamPosNormTex@@QAE@XZ @ 1117
??0UVertexStreamUV@@QAE@ABV0@@Z @ 1118
??0UVertexStreamUV@@QAE@K@Z @ 1119
??0UVertexStreamUV@@QAE@XZ @ 1120
??0UVertexStreamVECTOR@@QAE@ABV0@@Z @ 1121
??0UVertexStreamVECTOR@@QAE@K@Z @ 1122
??0UVertexStreamVECTOR@@QAE@XZ @ 1123
??0UViewport@@QAE@ABV0@@Z @ 1124
??0UViewport@@QAE@XZ @ 1125
??0UVisibilityItem@@IAE@XZ @ 1126
??0UVisibilityItem@@QAE@ABV0@@Z @ 1127
??0UVisibilityItemArray@@IAE@XZ @ 1128
??0UVisibilityItemArray@@QAE@ABV0@@Z @ 1129
??0UVoiceChannel@@QAE@ABV0@@Z @ 1130
??0UVoiceChannel@@QAE@XZ @ 1131
??0UWMFile@@QAE@ABV0@@Z @ 1132
??0UWMFile@@QAE@XZ @ 1133
??0UWebLog@@QAE@ABV0@@Z @ 1134
??0UWebLog@@QAE@XZ @ 1135
??0UWebzenShopItemListDownloader@@QAE@ABV0@@Z @ 1136
??0UWebzenShopItemListDownloader@@QAE@XZ @ 1137
??0UwBTLoadingScreenDrawer@@IAE@XZ @ 1138
??0UwBTLoadingScreenDrawer@@QAE@ABV0@@Z @ 1139
??0UwBtrIni@@IAE@XZ @ 1140
??0UwBtrIni@@QAE@ABV0@@Z @ 1141
??0UwCharacterManager@@QAE@ABV0@@Z @ 1142
??0UwCharacterManager@@QAE@XZ @ 1143
??0UwClanLevelInfoParam@@QAE@ABV0@@Z @ 1144
??0UwClanLevelInfoParam@@QAE@XZ @ 1145
??0UwClanMarkParam@@QAE@ABV0@@Z @ 1146
??0UwClanMarkParam@@QAE@XZ @ 1147
??0UwDailyQuestParam@@QAE@ABV0@@Z @ 1148
??0UwDailyQuestParam@@QAE@XZ @ 1149
??0UwDefenceGameParam@@QAE@ABV0@@Z @ 1150
??0UwDefenceGameParam@@QAE@XZ @ 1151
??0UwGameManager@@QAE@ABV0@@Z @ 1152
??0UwGameManager@@QAE@XZ @ 1153
??0UwInstantFire@@IAE@XZ @ 1154
??0UwInstantFire@@QAE@ABV0@@Z @ 1155
??0UwInventory@@IAE@XZ @ 1156
??0UwInventory@@QAE@ABV0@@Z @ 1157
??0UwItemBaseParam@@QAE@ABV0@@Z @ 1158
??0UwItemBaseParam@@QAE@XZ @ 1159
??0UwItemBoxParam@@QAE@ABV0@@Z @ 1160
??0UwItemBoxParam@@QAE@XZ @ 1161
??0UwItemResourceParam@@QAE@ABV0@@Z @ 1162
??0UwItemResourceParam@@QAE@XZ @ 1163
??0UwLevelInfoParam@@QAE@ABV0@@Z @ 1164
??0UwLevelInfoParam@@QAE@XZ @ 1165
??0UwMapInfo@@QAE@ABV0@@Z @ 1166
??0UwMapInfo@@QAE@XZ @ 1167
??0UwMatchMaker@@QAE@ABV0@@Z @ 1168
??0UwMatchMaker@@QAE@XZ @ 1169
??0UwModeDOAParam@@QAE@ABV0@@Z @ 1170
??0UwModeDOAParam@@QAE@XZ @ 1171
??0UwMyPlayerStatus@@IAE@XZ @ 1172
??0UwMyPlayerStatus@@QAE@ABV0@@Z @ 1173
??0UwNPCActionGroupParam@@QAE@ABV0@@Z @ 1174
??0UwNPCActionGroupParam@@QAE@XZ @ 1175
??0UwNPCItemGroupParam@@QAE@ABV0@@Z @ 1176
??0UwNPCItemGroupParam@@QAE@XZ @ 1177
??0UwNPCNameGroupParam@@QAE@ABV0@@Z @ 1178
??0UwNPCNameGroupParam@@QAE@XZ @ 1179
??0UwNPCParam@@QAE@ABV0@@Z @ 1180
??0UwNPCParam@@QAE@XZ @ 1181
??0UwNPCSpawnParam@@QAE@ABV0@@Z @ 1182
??0UwNPCSpawnParam@@QAE@XZ @ 1183
??0UwPaintGroupParam@@QAE@ABV0@@Z @ 1184
??0UwPaintGroupParam@@QAE@XZ @ 1185
??0UwPartsGroupParam@@QAE@ABV0@@Z @ 1186
??0UwPartsGroupParam@@QAE@XZ @ 1187
??0UwPromotionParam@@QAE@ABV0@@Z @ 1188
??0UwPromotionParam@@QAE@XZ @ 1189
??0UwQuestParam@@QAE@ABV0@@Z @ 1190
??0UwQuestParam@@QAE@XZ @ 1191
??0UwRandBoxParam@@QAE@ABV0@@Z @ 1192
??0UwRandBoxParam@@QAE@XZ @ 1193
??0UwSkillBaseParam@@QAE@ABV0@@Z @ 1194
??0UwSkillBaseParam@@QAE@XZ @ 1195
??0UwSkills@@IAE@XZ @ 1196
??0UwSkills@@QAE@ABV0@@Z @ 1197
??0UwWeaponBaseParams@@QAE@ABV0@@Z @ 1198
??0UwWeaponBaseParams@@QAE@XZ @ 1199
??0UwWeaponCustomInfoParam@@QAE@ABV0@@Z @ 1200
??0UwWeaponCustomInfoParam@@QAE@XZ @ 1201
??0UwWeaponCustomPartsParam@@QAE@ABV0@@Z @ 1202
??0UwWeaponCustomPartsParam@@QAE@XZ @ 1203
??0UwWeaponFire@@QAE@ABV0@@Z @ 1204
??0UwWeaponFire@@QAE@XZ @ 1205
??0UwWeaponManager@@QAE@ABV0@@Z @ 1206
??0UwWeaponManager@@QAE@XZ @ 1207
??0UwWeaponParams@@QAE@ABV0@@Z @ 1208
??0UwWeaponParams@@QAE@XZ @ 1209
??1?$TArray@E@@QAE@XZ @ 1210
??1?$TLazyArray@E@@QAE@XZ @ 1211
??1AAIController@@UAE@XZ @ 1212
??1AAIMarker@@UAE@XZ @ 1213
??1AAIScript@@UAE@XZ @ 1214
??1AActor@@UAE@XZ @ 1215
??1AAmbientLightVolume@@UAE@XZ @ 1216
??1AAmbientSound@@UAE@XZ @ 1217
??1AAmmo@@UAE@XZ @ 1218
??1AAnnouncerVoice@@UAE@XZ @ 1219
??1AAntiPortalActor@@UAE@XZ @ 1220
??1AAutoDoor@@UAE@XZ @ 1221
??1AAutoLadder@@UAE@XZ @ 1222
??1AAvoidMarker@@UAE@XZ @ 1223
??1ABlockingVolume@@UAE@XZ @ 1224
??1ABrush@@UAE@XZ @ 1225
??1ACamera@@UAE@XZ @ 1226
??1AClipMarker@@UAE@XZ @ 1227
??1AController@@UAE@XZ @ 1228
??1ACubemapVolume@@UAE@XZ @ 1229
??1ADamageType@@UAE@XZ @ 1230
??1ADecoVolumeObject@@UAE@XZ @ 1231
??1ADecoration@@UAE@XZ @ 1232
??1ADecorationList@@UAE@XZ @ 1233
??1ADefaultPhysicsVolume@@UAE@XZ @ 1234
??1ADoor@@UAE@XZ @ 1235
??1AEmitter@@UAE@XZ @ 1236
??1AFileLog@@UAE@XZ @ 1237
??1AFluidSurfaceInfo@@UAE@XZ @ 1238
??1AFluidSurfaceOscillator@@UAE@XZ @ 1239
??1AFlyingPathNode@@UAE@XZ @ 1240
??1AGameInfo@@UAE@XZ @ 1241
??1AGameReplicationInfo@@UAE@XZ @ 1242
??1AGameStats@@UAE@XZ @ 1243
??1AHUD@@UAE@XZ @ 1244
??1AHoverPathNode@@UAE@XZ @ 1245
??1AInfo@@UAE@XZ @ 1246
??1AInternetInfo@@UAE@XZ @ 1247
??1AInterpolationPoint@@UAE@XZ @ 1248
??1AInventory@@UAE@XZ @ 1249
??1AInventoryAttachment@@UAE@XZ @ 1250
??1AInventorySpot@@UAE@XZ @ 1251
??1AJumpDest@@UAE@XZ @ 1252
??1AJumpPad@@UAE@XZ @ 1253
??1AKActor@@UAE@XZ @ 1254
??1AKBSJoint@@UAE@XZ @ 1255
??1AKCarWheelJoint@@UAE@XZ @ 1256
??1AKConeLimit@@UAE@XZ @ 1257
??1AKConstraint@@UAE@XZ @ 1258
??1AKHinge@@UAE@XZ @ 1259
??1AKRepulsor@@UAE@XZ @ 1260
??1AKTire@@UAE@XZ @ 1261
??1AKVehicle@@UAE@XZ @ 1262
??1AKeypoint@@UAE@XZ @ 1263
??1ALadder@@UAE@XZ @ 1264
??1ALadderVolume@@UAE@XZ @ 1265
??1ALevelInfo@@UAE@XZ @ 1266
??1ALevelLoadingView@@UAE@XZ @ 1267
??1ALiftCenter@@UAE@XZ @ 1268
??1ALiftExit@@UAE@XZ @ 1269
??1ALight@@UAE@XZ @ 1270
??1ALineOfSightTrigger@@UAE@XZ @ 1271
??1ALinkAntiportalVolume@@UAE@XZ @ 1272
??1ALinkedReplicationInfo@@UAE@XZ @ 1273
??1ALookTarget@@UAE@XZ @ 1274
??1AMaplistManagerBase@@UAE@XZ @ 1275
??1AMatDemoActor@@UAE@XZ @ 1276
??1AMover@@UAE@XZ @ 1277
??1AMutator@@UAE@XZ @ 1278
??1ANavigationPoint@@UAE@XZ @ 1279
??1ANote@@UAE@XZ @ 1280
??1APathNode@@UAE@XZ @ 1281
??1APawn@@UAE@XZ @ 1282
??1APhysicsVolume@@UAE@XZ @ 1283
??1APickup@@UAE@XZ @ 1284
??1APlayerChatManager@@UAE@XZ @ 1285
??1APlayerController@@UAE@XZ @ 1286
??1APlayerReplicationInfo@@UAE@XZ @ 1287
??1APlayerStart@@UAE@XZ @ 1288
??1APlayerStart_SD@@UAE@XZ @ 1289
??1APolyMarker@@UAE@XZ @ 1290
??1APotentialClimbWatcher@@UAE@XZ @ 1291
??1APowerups@@UAE@XZ @ 1292
??1APrecacheHack@@UAE@XZ @ 1293
??1AProjectile@@UAE@XZ @ 1294
??1AProjector@@UAE@XZ @ 1295
??1AReplicationInfo@@UAE@XZ @ 1296
??1ARoadPathNode@@UAE@XZ @ 1297
??1ASVehicle@@UAE@XZ @ 1298
??1ASVehicleFactory@@UAE@XZ @ 1299
??1ASVehicleTrigger@@UAE@XZ @ 1300
??1ASavedMove@@UAE@XZ @ 1301
??1ASceneManager@@UAE@XZ @ 1302
??1ASceneSubtitles@@UAE@XZ @ 1303
??1AScout@@UAE@XZ @ 1304
??1ASecurity@@UAE@XZ @ 1305
??1ASkyZoneInfo@@UAE@XZ @ 1306
??1ASmallNavigationPoint@@UAE@XZ @ 1307
??1AStaticMeshActor@@UAE@XZ @ 1308
??1ATeamInfo@@UAE@XZ @ 1309
??1ATeleporter@@UAE@XZ @ 1310
??1ATerrainInfo@@UAE@XZ @ 1311
??1ATonemappingVolume@@UAE@XZ @ 1312
??1ATrigger@@UAE@XZ @ 1313
??1ATriggers@@UAE@XZ @ 1314
??1AVehicle@@UAE@XZ @ 1315
??1AVehiclePart@@UAE@XZ @ 1316
??1AVertMeshActor@@UAE@XZ @ 1317
??1AVignette@@UAE@XZ @ 1318
??1AVoiceChatReplicationInfo@@UAE@XZ @ 1319
??1AVoiceChatRoom@@UAE@XZ @ 1320
??1AVolume@@UAE@XZ @ 1321
??1AWarpZoneInfo@@UAE@XZ @ 1322
??1AWarpZoneMarker@@UAE@XZ @ 1323
??1AWeaponAttachment@@UAE@XZ @ 1324
??1AZoneInfo@@UAE@XZ @ 1325
??1AwAILevelBase@@UAE@XZ @ 1326
??1AwAmmunition@@UAE@XZ @ 1327
??1AwArrangeTurret@@UAE@XZ @ 1328
??1AwEmitter@@UAE@XZ @ 1329
??1AwGameStateStorageSender@@UAE@XZ @ 1330
??1AwPickUpBase@@UAE@XZ @ 1331
??1AwProcMesh@@UAE@XZ @ 1332
??1AwWeapon@@UAE@XZ @ 1333
??1AwWeaponPickup@@UAE@XZ @ 1334
??1AwWeatherEffect@@UAE@XZ @ 1335
??1FActorSceneNode@@UAE@XZ @ 1336
??1FAnimMeshVertexStream@@QAE@XZ @ 1337
??1FAnnouncerRecord@@QAE@XZ @ 1338
??1FBSPTangentBinormalStream@@QAE@XZ @ 1339
??1FBezier@@UAE@XZ @ 1340
??1FBlendWeightAndIndexStream@@QAE@XZ @ 1341
??1FBlockStruct@@QAE@XZ @ 1342
??1FBootyInfo@@QAE@XZ @ 1343
??1FBspSection@@QAE@XZ @ 1344
??1FBspVertexStream@@QAE@XZ @ 1345
??1FCameraSceneNode@@UAE@XZ @ 1346
??1FCanvasUtil@@QAE@XZ @ 1347
??1FClanLevelInfoParam@@QAE@XZ @ 1348
??1FClanMarkParam@@QAE@XZ @ 1349
??1FClanStruct@@QAE@XZ @ 1350
??1FCollisionHash@@UAE@XZ @ 1351
??1FCollisionOctree@@UAE@XZ @ 1352
??1FColorPreset@@QAE@XZ @ 1353
??1FConsoleMessage@@QAE@XZ @ 1354
??1FCrosshairItem@@QAE@XZ @ 1355
??1FCrosshairRecord@@QAE@XZ @ 1356
??1FDirectionalLightMapSceneNode@@UAE@XZ @ 1357
??1FDynamicActor@@QAE@XZ @ 1358
??1FFilePath@@QAE@XZ @ 1359
??1FFriendStruct@@QAE@XZ @ 1360
??1FGP20Product@@QAE@XZ @ 1361
??1FGameRecord@@QAE@XZ @ 1362
??1FID3Field@@QAE@XZ @ 1363
??1FID3TagV2@@QAE@XZ @ 1364
??1FID3V2Frame@@QAE@XZ @ 1365
??1FInBunch@@UAE@XZ @ 1366
??1FItemBaseParam@@QAE@XZ @ 1367
??1FItemResourceParam@@QAE@XZ @ 1368
??1FKAggregateGeom@@QAE@XZ @ 1369
??1FKBoxElem@@QAE@XZ @ 1370
??1FKConvexElem@@QAE@XZ @ 1371
??1FKCylinderElem@@QAE@XZ @ 1372
??1FKSphereElem@@QAE@XZ @ 1373
??1FKeyValuePair@@QAE@XZ @ 1374
??1FLeafRenderInfo@@QAE@XZ @ 1375
??1FLevelInfoParam@@QAE@XZ @ 1376
??1FLevelSceneNode@@UAE@XZ @ 1377
??1FLightMap@@QAE@XZ @ 1378
??1FLightMapIndex@@QAE@XZ @ 1379
??1FLightMapSceneNode@@UAE@XZ @ 1380
??1FLightMapTexture@@QAE@XZ @ 1381
??1FLineBatcher@@QAE@XZ @ 1382
??1FLoadingMessageItem@@QAE@XZ @ 1383
??1FMapInfo@@QAE@XZ @ 1384
??1FMapRecord@@QAE@XZ @ 1385
??1FMatineeTools@@UAE@XZ @ 1386
??1FMiniMapSceneNode@@UAE@XZ @ 1387
??1FMipmap@@QAE@XZ @ 1388
??1FMirrorSceneNode@@UAE@XZ @ 1389
??1FMissionItem@@QAE@XZ @ 1390
??1FMutatorRecord@@QAE@XZ @ 1391
??1FMyMatchState@@QAE@XZ @ 1392
??1FNPCActionGroupParam@@QAE@XZ @ 1393
??1FNPCNameGroupParam@@QAE@XZ @ 1394
??1FNPCParam@@QAE@XZ @ 1395
??1FNPCSpawnParam@@QAE@XZ @ 1396
??1FOctreeNode@@QAE@XZ @ 1397
??1FOtherLoadingStateItem@@QAE@XZ @ 1398
??1FOutBunch@@UAE@XZ @ 1399
??1FPCBangStruct@@QAE@XZ @ 1400
??1FPaintGroupParam@@QAE@XZ @ 1401
??1FPartsGroupParam@@QAE@XZ @ 1402
??1FPingTime@@QAE@XZ @ 1403
??1FPlayInfoData@@QAE@XZ @ 1404
??1FPlayerNameInfo@@QAE@XZ @ 1405
??1FPlayerPartsInfo@@QAE@XZ @ 1406
??1FPlayerProperty@@QAE@XZ @ 1407
??1FPlayerResponseLine@@QAE@XZ @ 1408
??1FPlayerSceneNode@@UAE@XZ @ 1409
??1FPointLightMapSceneNode@@UAE@XZ @ 1410
??1FPostProcessCanvasUtil@@QAE@XZ @ 1411
??1FPromotionParam@@QAE@XZ @ 1412
??1FQuestParam@@QAE@XZ @ 1413
??1FRadiositySceneNode@@UAE@XZ @ 1414
??1FRaw32BitIndexBuffer@@QAE@XZ @ 1415
??1FRawColorStream@@QAE@XZ @ 1416
??1FRawIndexBuffer@@QAE@XZ @ 1417
??1FRebuildOptions@@QAE@XZ @ 1418
??1FRebuildTools@@QAE@XZ @ 1419
??1FResultInfo@@QAE@XZ @ 1420
??1FSDefenceGameParam@@QAE@XZ @ 1421
??1FSEAXEffect@@QAE@XZ @ 1422
??1FSceneNode@@UAE@XZ @ 1423
??1FScriptedPortalSceneNode@@UAE@XZ @ 1424
??1FServerResponseLine@@QAE@XZ @ 1425
??1FShadowMeshVertexStream@@QAE@XZ @ 1426
??1FShadowSceneNode@@UAE@XZ @ 1427
??1FSkeletalMeshBoundStream@@QAE@XZ @ 1428
??1FSkeletalMeshTangentBinormalStream@@QAE@XZ @ 1429
??1FSkillBaseParam@@QAE@XZ @ 1430
??1FSkinVertexStream@@QAE@XZ @ 1431
??1FSkySceneNode@@UAE@XZ @ 1432
??1FSoundData@@QAE@XZ @ 1433
??1FSoundSource@@QAE@XZ @ 1434
??1FSpeechReplacement@@QAE@XZ @ 1435
??1FStandard@@QAE@XZ @ 1436
??1FStatGraph@@QAE@XZ @ 1437
??1FStatGraphLine@@QAE@XZ @ 1438
??1FStaticLightMapTexture@@QAE@XZ @ 1439
??1FStaticMeshBatch@@QAE@XZ @ 1440
??1FStaticMeshBoundVertexStream@@QAE@XZ @ 1441
??1FStaticMeshColorStream@@QAE@XZ @ 1442
??1FStaticMeshDirectionalLightcolorStream@@QAE@XZ @ 1443
??1FStaticMeshTangentBinormalStream@@QAE@XZ @ 1444
??1FStaticMeshUVStream@@QAE@XZ @ 1445
??1FStaticMeshVertexStream@@QAE@XZ @ 1446
??1FStaticProjectorInfo@@QAE@XZ @ 1447
??1FStaticTexture@@QAE@XZ @ 1448
??1FStats@@QAE@XZ @ 1449
??1FStoredChatPassword@@QAE@XZ @ 1450
??1FStreamingManagerBase@@UAE@XZ @ 1451
??1FStreamingManagerCollection@@UAE@XZ @ 1452
??1FStreamingManagerTexture@@UAE@XZ @ 1453
??1FTempLineBatcher@@QAE@XZ @ 1454
??1FTencentLoginInfo@@QAE@XZ @ 1455
??1FTerrainDirectionalLightcolorStream@@QAE@XZ @ 1456
??1FTerrainMaterialLayer@@QAE@XZ @ 1457
??1FTerrainTools@@UAE@XZ @ 1458
??1FURL@@QAE@XZ @ 1459
??1FVehicleRecord@@QAE@XZ @ 1460
??1FVoiceChatCodec@@QAE@XZ @ 1461
??1FWarpZoneSceneNode@@UAE@XZ @ 1462
??1FWeaponBaseParam@@QAE@XZ @ 1463
??1FWeaponCustomInfoParam@@QAE@XZ @ 1464
??1FWeaponCustomPartsParam@@QAE@XZ @ 1465
??1FWeaponPart@@QAE@XZ @ 1466
??1FWeaponRecord@@QAE@XZ @ 1467
??1FWebzenInven@@QAE@XZ @ 1468
??1FWebzenShopCategory@@QAE@XZ @ 1469
??1FWebzenShopPackage@@QAE@XZ @ 1470
??1FWebzenShopProduct@@QAE@XZ @ 1471
??1FZoneRenderInfo@@QAE@XZ @ 1472
??1FsQuickSlot@@QAE@XZ @ 1473
??1UActionMoveCamera@@UAE@XZ @ 1474
??1UActionPause@@UAE@XZ @ 1475
??1UActorChannel@@UAE@XZ @ 1476
??1UAdminBase@@UAE@XZ @ 1477
??1UAnimNotify@@UAE@XZ @ 1478
??1UAnimNotify_DestroyEffect@@UAE@XZ @ 1479
??1UAnimNotify_Effect@@UAE@XZ @ 1480
??1UAnimNotify_LIPSinc@@UAE@XZ @ 1481
??1UAnimNotify_MatSubAction@@UAE@XZ @ 1482
??1UAnimNotify_Script@@UAE@XZ @ 1483
??1UAnimNotify_Scripted@@UAE@XZ @ 1484
??1UAnimNotify_Sound@@UAE@XZ @ 1485
??1UAnimation@@UAE@XZ @ 1486
??1UAudioSubsystem@@UAE@XZ @ 1487
??1UBTLoadingAdvancer@@UAE@XZ @ 1488
??1UBTLoadingState@@UAE@XZ @ 1489
??1UBTMapLoader@@UAE@XZ @ 1490
??1UBTNetInterface@@UAE@XZ @ 1491
??1UBTPingChecker@@UAE@XZ @ 1492
??1UBTPingCheckerLinker@@UAE@XZ @ 1493
??1UBTTcpLink_Channel_DS@@UAE@XZ @ 1494
??1UBTTcpLink_DStoDP_DS@@UAE@XZ @ 1495
??1UBaseGUIController@@UAE@XZ @ 1496
??1UBeamEmitter@@UAE@XZ @ 1497
??1UBitmapMaterial@@UAE@XZ @ 1498
??1UBlackWhite@@UAE@XZ @ 1499
??1UBlendShader@@UAE@XZ @ 1500
??1UBtrTraceResult@@UAE@XZ @ 1501
??1UByteArray@@UAE@XZ @ 1502
??1UCacheManager@@UAE@XZ @ 1503
??1UCameraEffect@@UAE@XZ @ 1504
??1UCameraOverlay@@UAE@XZ @ 1505
??1UCanvas@@UAE@XZ @ 1506
??1UCascadedShadowMaps@@UAE@XZ @ 1507
??1UChannel@@UAE@XZ @ 1508
??1UChannelDownload@@UAE@XZ @ 1509
??1UCheatManager@@UAE@XZ @ 1510
??1UClient@@UAE@XZ @ 1511
??1UColorModifier@@UAE@XZ @ 1512
??1UCombiner@@UAE@XZ @ 1513
??1UConsole@@UAE@XZ @ 1514
??1UConstantColor@@UAE@XZ @ 1515
??1UConstantMaterial@@UAE@XZ @ 1516
??1UControlChannel@@UAE@XZ @ 1517
??1UConvexVolume@@UAE@XZ @ 1518
??1UCrosshairPack@@UAE@XZ @ 1519
??1UCubemap@@UAE@XZ @ 1520
??1UDOFEffect@@UAE@XZ @ 1521
??1UDecalShader@@UAE@XZ @ 1522
??1UDemoRecConnection@@UAE@XZ @ 1523
??1UDemoRecDriver@@UAE@XZ @ 1524
??1UDistortEmitter@@UAE@XZ @ 1525
??1UDownload@@UAE@XZ @ 1526
??1UDownloadTexture@@UAE@XZ @ 1527
??1UDripEffect@@UAE@XZ @ 1528
??1UEngine@@UAE@XZ @ 1529
??1UFXFile@@UAE@XZ @ 1530
??1UFadeBlackWhite@@UAE@XZ @ 1531
??1UFadeColor@@UAE@XZ @ 1532
??1UFileChannel@@UAE@XZ @ 1533
??1UFinalBlend@@UAE@XZ @ 1534
??1UFinalEffect@@UAE@XZ @ 1535
??1UFluidSurfacePrimitive@@UAE@XZ @ 1536
??1UFont@@UAE@XZ @ 1537
??1UGMFile@@UAE@XZ @ 1538
??1UGameEngine@@UAE@XZ @ 1539
??1UGameProfile@@UAE@XZ @ 1540
??1UGlowEffect@@UAE@XZ @ 1541
??1UHardwareShader@@UAE@XZ @ 1542
??1UI3DL2Listener@@UAE@XZ @ 1543
??1UIndexBuffer@@UAE@XZ @ 1544
??1UInput@@UAE@XZ @ 1545
??1UInteraction@@UAE@XZ @ 1546
??1UInteractionMaster@@UAE@XZ @ 1547
??1UInteractions@@UAE@XZ @ 1548
??1UItemIterator@@UAE@XZ @ 1549
??1UKMeshProps@@UAE@XZ @ 1550
??1UKarmaParams@@UAE@XZ @ 1551
??1UKarmaParamsCollision@@UAE@XZ @ 1552
??1UKarmaParamsRBFull@@UAE@XZ @ 1553
??1UKarmaParamsSkel@@UAE@XZ @ 1554
??1ULevel@@UAE@XZ @ 1555
??1ULevelBase@@UAE@XZ @ 1556
??1ULevelSummary@@UAE@XZ @ 1557
??1ULodMesh@@UAE@XZ @ 1558
??1ULodMeshInstance@@UAE@XZ @ 1559
??1ULogEntry@@UAE@XZ @ 1560
??1UManifest@@UAE@XZ @ 1561
??1UMatAction@@UAE@XZ @ 1562
??1UMatObject@@UAE@XZ @ 1563
??1UMatSubAction@@UAE@XZ @ 1564
??1UMaterial@@UAE@XZ @ 1565
??1UMaterialSequence@@UAE@XZ @ 1566
??1UMaterialSwitch@@UAE@XZ @ 1567
??1UMesh@@UAE@XZ @ 1568
??1UMeshAnimation@@UAE@XZ @ 1569
??1UMeshEmitter@@UAE@XZ @ 1570
??1UMeshInstance@@UAE@XZ @ 1571
??1UMeshObject@@UAE@XZ @ 1572
??1UModel@@UAE@XZ @ 1573
??1UModifier@@UAE@XZ @ 1574
??1UMotionBlur@@UAE@XZ @ 1575
??1UMotionBlurEffect@@UAE@XZ @ 1576
??1UNetConnection@@UAE@XZ @ 1577
??1UNetDriver@@UAE@XZ @ 1578
??1UNullRenderDevice@@UAE@XZ @ 1579
??1UObjectPool@@UAE@XZ @ 1580
??1UOpacityModifier@@UAE@XZ @ 1581
??1UPackageCheckInfo@@UAE@XZ @ 1582
??1UPackageMapLevel@@UAE@XZ @ 1583
??1UPalette@@UAE@XZ @ 1584
??1UParticleEmitter@@UAE@XZ @ 1585
??1UParticleMaterial@@UAE@XZ @ 1586
??1UPlayInfo@@UAE@XZ @ 1587
??1UPlayer@@UAE@XZ @ 1588
??1UPlayerInput@@UAE@XZ @ 1589
??1UPolys@@UAE@XZ @ 1590
??1UPostProcessEffect@@UAE@XZ @ 1591
??1UPrimitive@@UAE@XZ @ 1592
??1UProceduralSound@@UAE@XZ @ 1593
??1UProjectorMaterial@@UAE@XZ @ 1594
??1UProjectorPrimitive@@UAE@XZ @ 1595
??1UProxyBitmapMaterial@@UAE@XZ @ 1596
??1UReachSpec@@UAE@XZ @ 1597
??1URenderDevice@@UAE@XZ @ 1598
??1URenderResource@@UAE@XZ @ 1599
??1URenderedMaterial@@UAE@XZ @ 1600
??1USSAOEffect@@UAE@XZ @ 1601
??1USVehicleWheel@@UAE@XZ @ 1602
??1UScriptedTexture@@UAE@XZ @ 1603
??1UShader@@UAE@XZ @ 1604
??1UShadowBitmapMaterial@@UAE@XZ @ 1605
??1USkeletalMesh@@UAE@XZ @ 1606
??1USkeletalMeshInstance@@UAE@XZ @ 1607
??1USkinVertexBuffer@@UAE@XZ @ 1608
??1USound@@UAE@XZ @ 1609
??1USoundGroup@@UAE@XZ @ 1610
??1USparkEmitter@@UAE@XZ @ 1611
??1USpline@@UAE@XZ @ 1612
??1USpriteEmitter@@UAE@XZ @ 1613
??1UStaticMesh@@UAE@XZ @ 1614
??1UStaticMeshInstance@@UAE@XZ @ 1615
??1UStream@@UAE@XZ @ 1616
??1UStreamBase@@UAE@XZ @ 1617
??1UStreamInteraction@@UAE@XZ @ 1618
??1UStreamInterface@@UAE@XZ @ 1619
??1UStreamTag@@UAE@XZ @ 1620
??1USubActionCameraEffect@@UAE@XZ @ 1621
??1USubActionCameraShake@@UAE@XZ @ 1622
??1USubActionFOV@@UAE@XZ @ 1623
??1USubActionFade@@UAE@XZ @ 1624
??1USubActionGameSpeed@@UAE@XZ @ 1625
??1USubActionOrientation@@UAE@XZ @ 1626
??1USubActionSceneSpeed@@UAE@XZ @ 1627
??1USubActionSubTitle@@UAE@XZ @ 1628
??1USubActionTrigger@@UAE@XZ @ 1629
??1UTerrainBrush@@UAE@XZ @ 1630
??1UTerrainBrushColor@@UAE@XZ @ 1631
??1UTerrainBrushEdgeTurn@@UAE@XZ @ 1632
??1UTerrainBrushFlatten@@UAE@XZ @ 1633
??1UTerrainBrushNoise@@UAE@XZ @ 1634
??1UTerrainBrushPaint@@UAE@XZ @ 1635
??1UTerrainBrushSelect@@UAE@XZ @ 1636
??1UTerrainBrushSmooth@@UAE@XZ @ 1637
??1UTerrainBrushTexPan@@UAE@XZ @ 1638
??1UTerrainBrushTexRotate@@UAE@XZ @ 1639
??1UTerrainBrushTexScale@@UAE@XZ @ 1640
??1UTerrainBrushVertexEdit@@UAE@XZ @ 1641
??1UTerrainBrushVisibility@@UAE@XZ @ 1642
??1UTerrainMaterial@@UAE@XZ @ 1643
??1UTerrainPrimitive@@UAE@XZ @ 1644
??1UTerrainSector@@UAE@XZ @ 1645
??1UTexCoordMaterial@@UAE@XZ @ 1646
??1UTexCoordSource@@UAE@XZ @ 1647
??1UTexEnvMap@@UAE@XZ @ 1648
??1UTexMatrix@@UAE@XZ @ 1649
??1UTexModifier@@UAE@XZ @ 1650
??1UTexOscillator@@UAE@XZ @ 1651
??1UTexOscillatorTriggered@@UAE@XZ @ 1652
??1UTexPanner@@UAE@XZ @ 1653
??1UTexPannerTriggered@@UAE@XZ @ 1654
??1UTexRotator@@UAE@XZ @ 1655
??1UTexScaler@@UAE@XZ @ 1656
??1UTextToSpeechAlias@@UAE@XZ @ 1657
??1UTexture@@UAE@XZ @ 1658
??1UTickChecker@@UAE@XZ @ 1659
??1UTrailEmitter@@UAE@XZ @ 1660
??1UUserzoneInfo@@UAE@XZ @ 1661
??1UVariableTexPanner@@UAE@XZ @ 1662
??1UVertMesh@@UAE@XZ @ 1663
??1UVertMeshInstance@@UAE@XZ @ 1664
??1UVertexBuffer@@UAE@XZ @ 1665
??1UVertexColor@@UAE@XZ @ 1666
??1UVertexStreamBase@@UAE@XZ @ 1667
??1UVertexStreamCOLOR@@UAE@XZ @ 1668
??1UVertexStreamPosNormTex@@UAE@XZ @ 1669
??1UVertexStreamUV@@UAE@XZ @ 1670
??1UVertexStreamVECTOR@@UAE@XZ @ 1671
??1UViewport@@UAE@XZ @ 1672
??1UVisibilityItem@@UAE@XZ @ 1673
??1UVisibilityItemArray@@UAE@XZ @ 1674
??1UVoiceChannel@@UAE@XZ @ 1675
??1UWMFile@@UAE@XZ @ 1676
??1UWebLog@@UAE@XZ @ 1677
??1UWebzenShopItemListDownloader@@UAE@XZ @ 1678
??1UwBTLoadingScreenDrawer@@UAE@XZ @ 1679
??1UwBtrIni@@UAE@XZ @ 1680
??1UwCharacterManager@@UAE@XZ @ 1681
??1UwClanLevelInfoParam@@UAE@XZ @ 1682
??1UwClanMarkParam@@UAE@XZ @ 1683
??1UwDailyQuestParam@@UAE@XZ @ 1684
??1UwDefenceGameParam@@UAE@XZ @ 1685
??1UwGameManager@@UAE@XZ @ 1686
??1UwInstantFire@@UAE@XZ @ 1687
??1UwInventory@@UAE@XZ @ 1688
??1UwItemBaseParam@@UAE@XZ @ 1689
??1UwItemBoxParam@@UAE@XZ @ 1690
??1UwItemResourceParam@@UAE@XZ @ 1691
??1UwLevelInfoParam@@UAE@XZ @ 1692
??1UwMapInfo@@UAE@XZ @ 1693
??1UwMatchMaker@@UAE@XZ @ 1694
??1UwModeDOAParam@@UAE@XZ @ 1695
??1UwMyPlayerStatus@@UAE@XZ @ 1696
??1UwNPCActionGroupParam@@UAE@XZ @ 1697
??1UwNPCItemGroupParam@@UAE@XZ @ 1698
??1UwNPCNameGroupParam@@UAE@XZ @ 1699
??1UwNPCParam@@UAE@XZ @ 1700
??1UwNPCSpawnParam@@UAE@XZ @ 1701
??1UwPaintGroupParam@@UAE@XZ @ 1702
??1UwPartsGroupParam@@UAE@XZ @ 1703
??1UwPromotionParam@@UAE@XZ @ 1704
??1UwQuestParam@@UAE@XZ @ 1705
??1UwRandBoxParam@@UAE@XZ @ 1706
??1UwSkillBaseParam@@UAE@XZ @ 1707
??1UwSkills@@UAE@XZ @ 1708
??1UwWeaponBaseParams@@UAE@XZ @ 1709
??1UwWeaponCustomInfoParam@@UAE@XZ @ 1710
??1UwWeaponCustomPartsParam@@UAE@XZ @ 1711
??1UwWeaponFire@@UAE@XZ @ 1712
??1UwWeaponManager@@UAE@XZ @ 1713
??1UwWeaponParams@@UAE@XZ @ 1714
??2AAIController@@SAPAXIPAVUObject@@PAGK@Z @ 1715
??2AAIController@@SAPAXIPAVUObject@@PBGK@Z @ 1716
??2AAIController@@SAPAXIPAVUObject@@VFName@@K@Z @ 1717
??2AAIController@@SAPAXIPAW4EInternal@@@Z @ 1718
??2AAIMarker@@SAPAXIPAVUObject@@PAGK@Z @ 1719
??2AAIMarker@@SAPAXIPAVUObject@@PBGK@Z @ 1720
??2AAIMarker@@SAPAXIPAVUObject@@VFName@@K@Z @ 1721
??2AAIMarker@@SAPAXIPAW4EInternal@@@Z @ 1722
??2AAIScript@@SAPAXIPAVUObject@@PAGK@Z @ 1723
??2AAIScript@@SAPAXIPAVUObject@@PBGK@Z @ 1724
??2AAIScript@@SAPAXIPAVUObject@@VFName@@K@Z @ 1725
??2AAIScript@@SAPAXIPAW4EInternal@@@Z @ 1726
??2AActor@@SAPAXIPAVUObject@@PAGK@Z @ 1727
??2AActor@@SAPAXIPAVUObject@@PBGK@Z @ 1728
??2AActor@@SAPAXIPAVUObject@@VFName@@K@Z @ 1729
??2AActor@@SAPAXIPAW4EInternal@@@Z @ 1730
??2AAmbientLightVolume@@SAPAXIPAVUObject@@PAGK@Z @ 1731
??2AAmbientLightVolume@@SAPAXIPAVUObject@@PBGK@Z @ 1732
??2AAmbientLightVolume@@SAPAXIPAVUObject@@VFName@@K@Z @ 1733
??2AAmbientLightVolume@@SAPAXIPAW4EInternal@@@Z @ 1734
??2AAmbientSound@@SAPAXIPAVUObject@@PAGK@Z @ 1735
??2AAmbientSound@@SAPAXIPAVUObject@@PBGK@Z @ 1736
??2AAmbientSound@@SAPAXIPAVUObject@@VFName@@K@Z @ 1737
??2AAmbientSound@@SAPAXIPAW4EInternal@@@Z @ 1738
??2AAmmo@@SAPAXIPAVUObject@@PAGK@Z @ 1739
??2AAmmo@@SAPAXIPAVUObject@@PBGK@Z @ 1740
??2AAmmo@@SAPAXIPAVUObject@@VFName@@K@Z @ 1741
??2AAmmo@@SAPAXIPAW4EInternal@@@Z @ 1742
??2AAnnouncerVoice@@SAPAXIPAVUObject@@PAGK@Z @ 1743
??2AAnnouncerVoice@@SAPAXIPAVUObject@@PBGK@Z @ 1744
??2AAnnouncerVoice@@SAPAXIPAVUObject@@VFName@@K@Z @ 1745
??2AAnnouncerVoice@@SAPAXIPAW4EInternal@@@Z @ 1746
??2AAntiPortalActor@@SAPAXIPAVUObject@@PAGK@Z @ 1747
??2AAntiPortalActor@@SAPAXIPAVUObject@@PBGK@Z @ 1748
??2AAntiPortalActor@@SAPAXIPAVUObject@@VFName@@K@Z @ 1749
??2AAntiPortalActor@@SAPAXIPAW4EInternal@@@Z @ 1750
??2AAutoDoor@@SAPAXIPAVUObject@@PAGK@Z @ 1751
??2AAutoDoor@@SAPAXIPAVUObject@@PBGK@Z @ 1752
??2AAutoDoor@@SAPAXIPAVUObject@@VFName@@K@Z @ 1753
??2AAutoDoor@@SAPAXIPAW4EInternal@@@Z @ 1754
??2AAutoLadder@@SAPAXIPAVUObject@@PAGK@Z @ 1755
??2AAutoLadder@@SAPAXIPAVUObject@@PBGK@Z @ 1756
??2AAutoLadder@@SAPAXIPAVUObject@@VFName@@K@Z @ 1757
??2AAutoLadder@@SAPAXIPAW4EInternal@@@Z @ 1758
??2AAvoidMarker@@SAPAXIPAVUObject@@PAGK@Z @ 1759
??2AAvoidMarker@@SAPAXIPAVUObject@@PBGK@Z @ 1760
??2AAvoidMarker@@SAPAXIPAVUObject@@VFName@@K@Z @ 1761
??2AAvoidMarker@@SAPAXIPAW4EInternal@@@Z @ 1762
??2ABlockingVolume@@SAPAXIPAVUObject@@PAGK@Z @ 1763
??2ABlockingVolume@@SAPAXIPAVUObject@@PBGK@Z @ 1764
??2ABlockingVolume@@SAPAXIPAVUObject@@VFName@@K@Z @ 1765
??2ABlockingVolume@@SAPAXIPAW4EInternal@@@Z @ 1766
??2ABrush@@SAPAXIPAVUObject@@PAGK@Z @ 1767
??2ABrush@@SAPAXIPAVUObject@@PBGK@Z @ 1768
??2ABrush@@SAPAXIPAVUObject@@VFName@@K@Z @ 1769
??2ABrush@@SAPAXIPAW4EInternal@@@Z @ 1770
??2ACamera@@SAPAXIPAVUObject@@PAGK@Z @ 1771
??2ACamera@@SAPAXIPAVUObject@@PBGK@Z @ 1772
??2ACamera@@SAPAXIPAVUObject@@VFName@@K@Z @ 1773
??2ACamera@@SAPAXIPAW4EInternal@@@Z @ 1774
??2AClipMarker@@SAPAXIPAVUObject@@PAGK@Z @ 1775
??2AClipMarker@@SAPAXIPAVUObject@@PBGK@Z @ 1776
??2AClipMarker@@SAPAXIPAVUObject@@VFName@@K@Z @ 1777
??2AClipMarker@@SAPAXIPAW4EInternal@@@Z @ 1778
??2AController@@SAPAXIPAVUObject@@PAGK@Z @ 1779
??2AController@@SAPAXIPAVUObject@@PBGK@Z @ 1780
??2AController@@SAPAXIPAVUObject@@VFName@@K@Z @ 1781
??2AController@@SAPAXIPAW4EInternal@@@Z @ 1782
??2ACubemapVolume@@SAPAXIPAVUObject@@PAGK@Z @ 1783
??2ACubemapVolume@@SAPAXIPAVUObject@@PBGK@Z @ 1784
??2ACubemapVolume@@SAPAXIPAVUObject@@VFName@@K@Z @ 1785
??2ACubemapVolume@@SAPAXIPAW4EInternal@@@Z @ 1786
??2ADamageType@@SAPAXIPAVUObject@@PAGK@Z @ 1787
??2ADamageType@@SAPAXIPAVUObject@@PBGK@Z @ 1788
??2ADamageType@@SAPAXIPAVUObject@@VFName@@K@Z @ 1789
??2ADamageType@@SAPAXIPAW4EInternal@@@Z @ 1790
??2ADecoVolumeObject@@SAPAXIPAVUObject@@PAGK@Z @ 1791
??2ADecoVolumeObject@@SAPAXIPAVUObject@@PBGK@Z @ 1792
??2ADecoVolumeObject@@SAPAXIPAVUObject@@VFName@@K@Z @ 1793
??2ADecoVolumeObject@@SAPAXIPAW4EInternal@@@Z @ 1794
??2ADecoration@@SAPAXIPAVUObject@@PAGK@Z @ 1795
??2ADecoration@@SAPAXIPAVUObject@@PBGK@Z @ 1796
??2ADecoration@@SAPAXIPAVUObject@@VFName@@K@Z @ 1797
??2ADecoration@@SAPAXIPAW4EInternal@@@Z @ 1798
??2ADecorationList@@SAPAXIPAVUObject@@PAGK@Z @ 1799
??2ADecorationList@@SAPAXIPAVUObject@@PBGK@Z @ 1800
??2ADecorationList@@SAPAXIPAVUObject@@VFName@@K@Z @ 1801
??2ADecorationList@@SAPAXIPAW4EInternal@@@Z @ 1802
??2ADefaultPhysicsVolume@@SAPAXIPAVUObject@@PAGK@Z @ 1803
??2ADefaultPhysicsVolume@@SAPAXIPAVUObject@@PBGK@Z @ 1804
??2ADefaultPhysicsVolume@@SAPAXIPAVUObject@@VFName@@K@Z @ 1805
??2ADefaultPhysicsVolume@@SAPAXIPAW4EInternal@@@Z @ 1806
??2ADoor@@SAPAXIPAVUObject@@PAGK@Z @ 1807
??2ADoor@@SAPAXIPAVUObject@@PBGK@Z @ 1808
??2ADoor@@SAPAXIPAVUObject@@VFName@@K@Z @ 1809
??2ADoor@@SAPAXIPAW4EInternal@@@Z @ 1810
??2AEmitter@@SAPAXIPAVUObject@@PAGK@Z @ 1811
??2AEmitter@@SAPAXIPAVUObject@@PBGK@Z @ 1812
??2AEmitter@@SAPAXIPAVUObject@@VFName@@K@Z @ 1813
??2AEmitter@@SAPAXIPAW4EInternal@@@Z @ 1814
??2AFileLog@@SAPAXIPAVUObject@@PAGK@Z @ 1815
??2AFileLog@@SAPAXIPAVUObject@@PBGK@Z @ 1816
??2AFileLog@@SAPAXIPAVUObject@@VFName@@K@Z @ 1817
??2AFileLog@@SAPAXIPAW4EInternal@@@Z @ 1818
??2AFluidSurfaceInfo@@SAPAXIPAVUObject@@PAGK@Z @ 1819
??2AFluidSurfaceInfo@@SAPAXIPAVUObject@@PBGK@Z @ 1820
??2AFluidSurfaceInfo@@SAPAXIPAVUObject@@VFName@@K@Z @ 1821
??2AFluidSurfaceInfo@@SAPAXIPAW4EInternal@@@Z @ 1822
??2AFluidSurfaceOscillator@@SAPAXIPAVUObject@@PAGK@Z @ 1823
??2AFluidSurfaceOscillator@@SAPAXIPAVUObject@@PBGK@Z @ 1824
??2AFluidSurfaceOscillator@@SAPAXIPAVUObject@@VFName@@K@Z @ 1825
??2AFluidSurfaceOscillator@@SAPAXIPAW4EInternal@@@Z @ 1826
??2AFlyingPathNode@@SAPAXIPAVUObject@@PAGK@Z @ 1827
??2AFlyingPathNode@@SAPAXIPAVUObject@@PBGK@Z @ 1828
??2AFlyingPathNode@@SAPAXIPAVUObject@@VFName@@K@Z @ 1829
??2AFlyingPathNode@@SAPAXIPAW4EInternal@@@Z @ 1830
??2AGameInfo@@SAPAXIPAVUObject@@PAGK@Z @ 1831
??2AGameInfo@@SAPAXIPAVUObject@@PBGK@Z @ 1832
??2AGameInfo@@SAPAXIPAVUObject@@VFName@@K@Z @ 1833
??2AGameInfo@@SAPAXIPAW4EInternal@@@Z @ 1834
??2AGameReplicationInfo@@SAPAXIPAVUObject@@PAGK@Z @ 1835
??2AGameReplicationInfo@@SAPAXIPAVUObject@@PBGK@Z @ 1836
??2AGameReplicationInfo@@SAPAXIPAVUObject@@VFName@@K@Z @ 1837
??2AGameReplicationInfo@@SAPAXIPAW4EInternal@@@Z @ 1838
??2AGameStats@@SAPAXIPAVUObject@@PAGK@Z @ 1839
??2AGameStats@@SAPAXIPAVUObject@@PBGK@Z @ 1840
??2AGameStats@@SAPAXIPAVUObject@@VFName@@K@Z @ 1841
??2AGameStats@@SAPAXIPAW4EInternal@@@Z @ 1842
??2AHUD@@SAPAXIPAVUObject@@PAGK@Z @ 1843
??2AHUD@@SAPAXIPAVUObject@@PBGK@Z @ 1844
??2AHUD@@SAPAXIPAVUObject@@VFName@@K@Z @ 1845
??2AHUD@@SAPAXIPAW4EInternal@@@Z @ 1846
??2AHoverPathNode@@SAPAXIPAVUObject@@PAGK@Z @ 1847
??2AHoverPathNode@@SAPAXIPAVUObject@@PBGK@Z @ 1848
??2AHoverPathNode@@SAPAXIPAVUObject@@VFName@@K@Z @ 1849
??2AHoverPathNode@@SAPAXIPAW4EInternal@@@Z @ 1850
??2AInfo@@SAPAXIPAVUObject@@PAGK@Z @ 1851
??2AInfo@@SAPAXIPAVUObject@@PBGK@Z @ 1852
??2AInfo@@SAPAXIPAVUObject@@VFName@@K@Z @ 1853
??2AInfo@@SAPAXIPAW4EInternal@@@Z @ 1854
??2AInternetInfo@@SAPAXIPAVUObject@@PAGK@Z @ 1855
??2AInternetInfo@@SAPAXIPAVUObject@@PBGK@Z @ 1856
??2AInternetInfo@@SAPAXIPAVUObject@@VFName@@K@Z @ 1857
??2AInternetInfo@@SAPAXIPAW4EInternal@@@Z @ 1858
??2AInterpolationPoint@@SAPAXIPAVUObject@@PAGK@Z @ 1859
??2AInterpolationPoint@@SAPAXIPAVUObject@@PBGK@Z @ 1860
??2AInterpolationPoint@@SAPAXIPAVUObject@@VFName@@K@Z @ 1861
??2AInterpolationPoint@@SAPAXIPAW4EInternal@@@Z @ 1862
??2AInventory@@SAPAXIPAVUObject@@PAGK@Z @ 1863
??2AInventory@@SAPAXIPAVUObject@@PBGK@Z @ 1864
??2AInventory@@SAPAXIPAVUObject@@VFName@@K@Z @ 1865
??2AInventory@@SAPAXIPAW4EInternal@@@Z @ 1866
??2AInventoryAttachment@@SAPAXIPAVUObject@@PAGK@Z @ 1867
??2AInventoryAttachment@@SAPAXIPAVUObject@@PBGK@Z @ 1868
??2AInventoryAttachment@@SAPAXIPAVUObject@@VFName@@K@Z @ 1869
??2AInventoryAttachment@@SAPAXIPAW4EInternal@@@Z @ 1870
??2AInventorySpot@@SAPAXIPAVUObject@@PAGK@Z @ 1871
??2AInventorySpot@@SAPAXIPAVUObject@@PBGK@Z @ 1872
??2AInventorySpot@@SAPAXIPAVUObject@@VFName@@K@Z @ 1873
??2AInventorySpot@@SAPAXIPAW4EInternal@@@Z @ 1874
??2AJumpDest@@SAPAXIPAVUObject@@PAGK@Z @ 1875
??2AJumpDest@@SAPAXIPAVUObject@@PBGK@Z @ 1876
??2AJumpDest@@SAPAXIPAVUObject@@VFName@@K@Z @ 1877
??2AJumpDest@@SAPAXIPAW4EInternal@@@Z @ 1878
??2AJumpPad@@SAPAXIPAVUObject@@PAGK@Z @ 1879
??2AJumpPad@@SAPAXIPAVUObject@@PBGK@Z @ 1880
??2AJumpPad@@SAPAXIPAVUObject@@VFName@@K@Z @ 1881
??2AJumpPad@@SAPAXIPAW4EInternal@@@Z @ 1882
??2AKActor@@SAPAXIPAVUObject@@PAGK@Z @ 1883
??2AKActor@@SAPAXIPAVUObject@@PBGK@Z @ 1884
??2AKActor@@SAPAXIPAVUObject@@VFName@@K@Z @ 1885
??2AKActor@@SAPAXIPAW4EInternal@@@Z @ 1886
??2AKBSJoint@@SAPAXIPAVUObject@@PAGK@Z @ 1887
??2AKBSJoint@@SAPAXIPAVUObject@@PBGK@Z @ 1888
??2AKBSJoint@@SAPAXIPAVUObject@@VFName@@K@Z @ 1889
??2AKBSJoint@@SAPAXIPAW4EInternal@@@Z @ 1890
??2AKCarWheelJoint@@SAPAXIPAVUObject@@PAGK@Z @ 1891
??2AKCarWheelJoint@@SAPAXIPAVUObject@@PBGK@Z @ 1892
??2AKCarWheelJoint@@SAPAXIPAVUObject@@VFName@@K@Z @ 1893
??2AKCarWheelJoint@@SAPAXIPAW4EInternal@@@Z @ 1894
??2AKConeLimit@@SAPAXIPAVUObject@@PAGK@Z @ 1895
??2AKConeLimit@@SAPAXIPAVUObject@@PBGK@Z @ 1896
??2AKConeLimit@@SAPAXIPAVUObject@@VFName@@K@Z @ 1897
??2AKConeLimit@@SAPAXIPAW4EInternal@@@Z @ 1898
??2AKConstraint@@SAPAXIPAVUObject@@PAGK@Z @ 1899
??2AKConstraint@@SAPAXIPAVUObject@@PBGK@Z @ 1900
??2AKConstraint@@SAPAXIPAVUObject@@VFName@@K@Z @ 1901
??2AKConstraint@@SAPAXIPAW4EInternal@@@Z @ 1902
??2AKHinge@@SAPAXIPAVUObject@@PAGK@Z @ 1903
??2AKHinge@@SAPAXIPAVUObject@@PBGK@Z @ 1904
??2AKHinge@@SAPAXIPAVUObject@@VFName@@K@Z @ 1905
??2AKHinge@@SAPAXIPAW4EInternal@@@Z @ 1906
??2AKRepulsor@@SAPAXIPAVUObject@@PAGK@Z @ 1907
??2AKRepulsor@@SAPAXIPAVUObject@@PBGK@Z @ 1908
??2AKRepulsor@@SAPAXIPAVUObject@@VFName@@K@Z @ 1909
??2AKRepulsor@@SAPAXIPAW4EInternal@@@Z @ 1910
??2AKTire@@SAPAXIPAVUObject@@PAGK@Z @ 1911
??2AKTire@@SAPAXIPAVUObject@@PBGK@Z @ 1912
??2AKTire@@SAPAXIPAVUObject@@VFName@@K@Z @ 1913
??2AKTire@@SAPAXIPAW4EInternal@@@Z @ 1914
??2AKVehicle@@SAPAXIPAVUObject@@PAGK@Z @ 1915
??2AKVehicle@@SAPAXIPAVUObject@@PBGK@Z @ 1916
??2AKVehicle@@SAPAXIPAVUObject@@VFName@@K@Z @ 1917
??2AKVehicle@@SAPAXIPAW4EInternal@@@Z @ 1918
??2AKeypoint@@SAPAXIPAVUObject@@PAGK@Z @ 1919
??2AKeypoint@@SAPAXIPAVUObject@@PBGK@Z @ 1920
??2AKeypoint@@SAPAXIPAVUObject@@VFName@@K@Z @ 1921
??2AKeypoint@@SAPAXIPAW4EInternal@@@Z @ 1922
??2ALadder@@SAPAXIPAVUObject@@PAGK@Z @ 1923
??2ALadder@@SAPAXIPAVUObject@@PBGK@Z @ 1924
??2ALadder@@SAPAXIPAVUObject@@VFName@@K@Z @ 1925
??2ALadder@@SAPAXIPAW4EInternal@@@Z @ 1926
??2ALadderVolume@@SAPAXIPAVUObject@@PAGK@Z @ 1927
??2ALadderVolume@@SAPAXIPAVUObject@@PBGK@Z @ 1928
??2ALadderVolume@@SAPAXIPAVUObject@@VFName@@K@Z @ 1929
??2ALadderVolume@@SAPAXIPAW4EInternal@@@Z @ 1930
??2ALevelInfo@@SAPAXIPAVUObject@@PAGK@Z @ 1931
??2ALevelInfo@@SAPAXIPAVUObject@@PBGK@Z @ 1932
??2ALevelInfo@@SAPAXIPAVUObject@@VFName@@K@Z @ 1933
??2ALevelInfo@@SAPAXIPAW4EInternal@@@Z @ 1934
??2ALevelLoadingView@@SAPAXIPAVUObject@@PAGK@Z @ 1935
??2ALevelLoadingView@@SAPAXIPAVUObject@@PBGK@Z @ 1936
??2ALevelLoadingView@@SAPAXIPAVUObject@@VFName@@K@Z @ 1937
??2ALevelLoadingView@@SAPAXIPAW4EInternal@@@Z @ 1938
??2ALiftCenter@@SAPAXIPAVUObject@@PAGK@Z @ 1939
??2ALiftCenter@@SAPAXIPAVUObject@@PBGK@Z @ 1940
??2ALiftCenter@@SAPAXIPAVUObject@@VFName@@K@Z @ 1941
??2ALiftCenter@@SAPAXIPAW4EInternal@@@Z @ 1942
??2ALiftExit@@SAPAXIPAVUObject@@PAGK@Z @ 1943
??2ALiftExit@@SAPAXIPAVUObject@@PBGK@Z @ 1944
??2ALiftExit@@SAPAXIPAVUObject@@VFName@@K@Z @ 1945
??2ALiftExit@@SAPAXIPAW4EInternal@@@Z @ 1946
??2ALight@@SAPAXIPAVUObject@@PAGK@Z @ 1947
??2ALight@@SAPAXIPAVUObject@@PBGK@Z @ 1948
??2ALight@@SAPAXIPAVUObject@@VFName@@K@Z @ 1949
??2ALight@@SAPAXIPAW4EInternal@@@Z @ 1950
??2ALineOfSightTrigger@@SAPAXIPAVUObject@@PAGK@Z @ 1951
??2ALineOfSightTrigger@@SAPAXIPAVUObject@@PBGK@Z @ 1952
??2ALineOfSightTrigger@@SAPAXIPAVUObject@@VFName@@K@Z @ 1953
??2ALineOfSightTrigger@@SAPAXIPAW4EInternal@@@Z @ 1954
??2ALinkAntiportalVolume@@SAPAXIPAVUObject@@PAGK@Z @ 1955
??2ALinkAntiportalVolume@@SAPAXIPAVUObject@@PBGK@Z @ 1956
??2ALinkAntiportalVolume@@SAPAXIPAVUObject@@VFName@@K@Z @ 1957
??2ALinkAntiportalVolume@@SAPAXIPAW4EInternal@@@Z @ 1958
??2ALinkedReplicationInfo@@SAPAXIPAVUObject@@PAGK@Z @ 1959
??2ALinkedReplicationInfo@@SAPAXIPAVUObject@@PBGK@Z @ 1960
??2ALinkedReplicationInfo@@SAPAXIPAVUObject@@VFName@@K@Z @ 1961
??2ALinkedReplicationInfo@@SAPAXIPAW4EInternal@@@Z @ 1962
??2ALookTarget@@SAPAXIPAVUObject@@PAGK@Z @ 1963
??2ALookTarget@@SAPAXIPAVUObject@@PBGK@Z @ 1964
??2ALookTarget@@SAPAXIPAVUObject@@VFName@@K@Z @ 1965
??2ALookTarget@@SAPAXIPAW4EInternal@@@Z @ 1966
??2AMaplistManagerBase@@SAPAXIPAVUObject@@PAGK@Z @ 1967
??2AMaplistManagerBase@@SAPAXIPAVUObject@@PBGK@Z @ 1968
??2AMaplistManagerBase@@SAPAXIPAVUObject@@VFName@@K@Z @ 1969
??2AMaplistManagerBase@@SAPAXIPAW4EInternal@@@Z @ 1970
??2AMatDemoActor@@SAPAXIPAVUObject@@PAGK@Z @ 1971
??2AMatDemoActor@@SAPAXIPAVUObject@@PBGK@Z @ 1972
??2AMatDemoActor@@SAPAXIPAVUObject@@VFName@@K@Z @ 1973
??2AMatDemoActor@@SAPAXIPAW4EInternal@@@Z @ 1974
??2AMover@@SAPAXIPAVUObject@@PAGK@Z @ 1975
??2AMover@@SAPAXIPAVUObject@@PBGK@Z @ 1976
??2AMover@@SAPAXIPAVUObject@@VFName@@K@Z @ 1977
??2AMover@@SAPAXIPAW4EInternal@@@Z @ 1978
??2AMutator@@SAPAXIPAVUObject@@PAGK@Z @ 1979
??2AMutator@@SAPAXIPAVUObject@@PBGK@Z @ 1980
??2AMutator@@SAPAXIPAVUObject@@VFName@@K@Z @ 1981
??2AMutator@@SAPAXIPAW4EInternal@@@Z @ 1982
??2ANavigationPoint@@SAPAXIPAVUObject@@PAGK@Z @ 1983
??2ANavigationPoint@@SAPAXIPAVUObject@@PBGK@Z @ 1984
??2ANavigationPoint@@SAPAXIPAVUObject@@VFName@@K@Z @ 1985
??2ANavigationPoint@@SAPAXIPAW4EInternal@@@Z @ 1986
??2ANote@@SAPAXIPAVUObject@@PAGK@Z @ 1987
??2ANote@@SAPAXIPAVUObject@@PBGK@Z @ 1988
??2ANote@@SAPAXIPAVUObject@@VFName@@K@Z @ 1989
??2ANote@@SAPAXIPAW4EInternal@@@Z @ 1990
??2APathNode@@SAPAXIPAVUObject@@PAGK@Z @ 1991
??2APathNode@@SAPAXIPAVUObject@@PBGK@Z @ 1992
??2APathNode@@SAPAXIPAVUObject@@VFName@@K@Z @ 1993
??2APathNode@@SAPAXIPAW4EInternal@@@Z @ 1994
??2APawn@@SAPAXIPAVUObject@@PAGK@Z @ 1995
??2APawn@@SAPAXIPAVUObject@@PBGK@Z @ 1996
??2APawn@@SAPAXIPAVUObject@@VFName@@K@Z @ 1997
??2APawn@@SAPAXIPAW4EInternal@@@Z @ 1998
??2APhysicsVolume@@SAPAXIPAVUObject@@PAGK@Z @ 1999
??2APhysicsVolume@@SAPAXIPAVUObject@@PBGK@Z @ 2000
??2APhysicsVolume@@SAPAXIPAVUObject@@VFName@@K@Z @ 2001
??2APhysicsVolume@@SAPAXIPAW4EInternal@@@Z @ 2002
??2APickup@@SAPAXIPAVUObject@@PAGK@Z @ 2003
??2APickup@@SAPAXIPAVUObject@@PBGK@Z @ 2004
??2APickup@@SAPAXIPAVUObject@@VFName@@K@Z @ 2005
??2APickup@@SAPAXIPAW4EInternal@@@Z @ 2006
??2APlayerChatManager@@SAPAXIPAVUObject@@PAGK@Z @ 2007
??2APlayerChatManager@@SAPAXIPAVUObject@@PBGK@Z @ 2008
??2APlayerChatManager@@SAPAXIPAVUObject@@VFName@@K@Z @ 2009
??2APlayerChatManager@@SAPAXIPAW4EInternal@@@Z @ 2010
??2APlayerController@@SAPAXIPAVUObject@@PAGK@Z @ 2011
??2APlayerController@@SAPAXIPAVUObject@@PBGK@Z @ 2012
??2APlayerController@@SAPAXIPAVUObject@@VFName@@K@Z @ 2013
??2APlayerController@@SAPAXIPAW4EInternal@@@Z @ 2014
??2APlayerReplicationInfo@@SAPAXIPAVUObject@@PAGK@Z @ 2015
??2APlayerReplicationInfo@@SAPAXIPAVUObject@@PBGK@Z @ 2016
??2APlayerReplicationInfo@@SAPAXIPAVUObject@@VFName@@K@Z @ 2017
??2APlayerReplicationInfo@@SAPAXIPAW4EInternal@@@Z @ 2018
??2APlayerStart@@SAPAXIPAVUObject@@PAGK@Z @ 2019
??2APlayerStart@@SAPAXIPAVUObject@@PBGK@Z @ 2020
??2APlayerStart@@SAPAXIPAVUObject@@VFName@@K@Z @ 2021
??2APlayerStart@@SAPAXIPAW4EInternal@@@Z @ 2022
??2APlayerStart_SD@@SAPAXIPAVUObject@@PAGK@Z @ 2023
??2APlayerStart_SD@@SAPAXIPAVUObject@@PBGK@Z @ 2024
??2APlayerStart_SD@@SAPAXIPAVUObject@@VFName@@K@Z @ 2025
??2APlayerStart_SD@@SAPAXIPAW4EInternal@@@Z @ 2026
??2APolyMarker@@SAPAXIPAVUObject@@PAGK@Z @ 2027
??2APolyMarker@@SAPAXIPAVUObject@@PBGK@Z @ 2028
??2APolyMarker@@SAPAXIPAVUObject@@VFName@@K@Z @ 2029
??2APolyMarker@@SAPAXIPAW4EInternal@@@Z @ 2030
??2APotentialClimbWatcher@@SAPAXIPAVUObject@@PAGK@Z @ 2031
??2APotentialClimbWatcher@@SAPAXIPAVUObject@@PBGK@Z @ 2032
??2APotentialClimbWatcher@@SAPAXIPAVUObject@@VFName@@K@Z @ 2033
??2APotentialClimbWatcher@@SAPAXIPAW4EInternal@@@Z @ 2034
??2APowerups@@SAPAXIPAVUObject@@PAGK@Z @ 2035
??2APowerups@@SAPAXIPAVUObject@@PBGK@Z @ 2036
??2APowerups@@SAPAXIPAVUObject@@VFName@@K@Z @ 2037
??2APowerups@@SAPAXIPAW4EInternal@@@Z @ 2038
??2APrecacheHack@@SAPAXIPAVUObject@@PAGK@Z @ 2039
??2APrecacheHack@@SAPAXIPAVUObject@@PBGK@Z @ 2040
??2APrecacheHack@@SAPAXIPAVUObject@@VFName@@K@Z @ 2041
??2APrecacheHack@@SAPAXIPAW4EInternal@@@Z @ 2042
??2AProjectile@@SAPAXIPAVUObject@@PAGK@Z @ 2043
??2AProjectile@@SAPAXIPAVUObject@@PBGK@Z @ 2044
??2AProjectile@@SAPAXIPAVUObject@@VFName@@K@Z @ 2045
??2AProjectile@@SAPAXIPAW4EInternal@@@Z @ 2046
??2AProjector@@SAPAXIPAVUObject@@PAGK@Z @ 2047
??2AProjector@@SAPAXIPAVUObject@@PBGK@Z @ 2048
??2AProjector@@SAPAXIPAVUObject@@VFName@@K@Z @ 2049
??2AProjector@@SAPAXIPAW4EInternal@@@Z @ 2050
??2AReplicationInfo@@SAPAXIPAVUObject@@PAGK@Z @ 2051
??2AReplicationInfo@@SAPAXIPAVUObject@@PBGK@Z @ 2052
??2AReplicationInfo@@SAPAXIPAVUObject@@VFName@@K@Z @ 2053
??2AReplicationInfo@@SAPAXIPAW4EInternal@@@Z @ 2054
??2ARoadPathNode@@SAPAXIPAVUObject@@PAGK@Z @ 2055
??2ARoadPathNode@@SAPAXIPAVUObject@@PBGK@Z @ 2056
??2ARoadPathNode@@SAPAXIPAVUObject@@VFName@@K@Z @ 2057
??2ARoadPathNode@@SAPAXIPAW4EInternal@@@Z @ 2058
??2ASVehicle@@SAPAXIPAVUObject@@PAGK@Z @ 2059
??2ASVehicle@@SAPAXIPAVUObject@@PBGK@Z @ 2060
??2ASVehicle@@SAPAXIPAVUObject@@VFName@@K@Z @ 2061
??2ASVehicle@@SAPAXIPAW4EInternal@@@Z @ 2062
??2ASVehicleFactory@@SAPAXIPAVUObject@@PAGK@Z @ 2063
??2ASVehicleFactory@@SAPAXIPAVUObject@@PBGK@Z @ 2064
??2ASVehicleFactory@@SAPAXIPAVUObject@@VFName@@K@Z @ 2065
??2ASVehicleFactory@@SAPAXIPAW4EInternal@@@Z @ 2066
??2ASVehicleTrigger@@SAPAXIPAVUObject@@PAGK@Z @ 2067
??2ASVehicleTrigger@@SAPAXIPAVUObject@@PBGK@Z @ 2068
??2ASVehicleTrigger@@SAPAXIPAVUObject@@VFName@@K@Z @ 2069
??2ASVehicleTrigger@@SAPAXIPAW4EInternal@@@Z @ 2070
??2ASavedMove@@SAPAXIPAVUObject@@PAGK@Z @ 2071
??2ASavedMove@@SAPAXIPAVUObject@@PBGK@Z @ 2072
??2ASavedMove@@SAPAXIPAVUObject@@VFName@@K@Z @ 2073
??2ASavedMove@@SAPAXIPAW4EInternal@@@Z @ 2074
??2ASceneManager@@SAPAXIPAVUObject@@PAGK@Z @ 2075
??2ASceneManager@@SAPAXIPAVUObject@@PBGK@Z @ 2076
??2ASceneManager@@SAPAXIPAVUObject@@VFName@@K@Z @ 2077
??2ASceneManager@@SAPAXIPAW4EInternal@@@Z @ 2078
??2ASceneSubtitles@@SAPAXIPAVUObject@@PAGK@Z @ 2079
??2ASceneSubtitles@@SAPAXIPAVUObject@@PBGK@Z @ 2080
??2ASceneSubtitles@@SAPAXIPAVUObject@@VFName@@K@Z @ 2081
??2ASceneSubtitles@@SAPAXIPAW4EInternal@@@Z @ 2082
??2AScout@@SAPAXIPAVUObject@@PAGK@Z @ 2083
??2AScout@@SAPAXIPAVUObject@@PBGK@Z @ 2084
??2AScout@@SAPAXIPAVUObject@@VFName@@K@Z @ 2085
??2AScout@@SAPAXIPAW4EInternal@@@Z @ 2086
??2ASecurity@@SAPAXIPAVUObject@@PAGK@Z @ 2087
??2ASecurity@@SAPAXIPAVUObject@@PBGK@Z @ 2088
??2ASecurity@@SAPAXIPAVUObject@@VFName@@K@Z @ 2089
??2ASecurity@@SAPAXIPAW4EInternal@@@Z @ 2090
??2ASkyZoneInfo@@SAPAXIPAVUObject@@PAGK@Z @ 2091
??2ASkyZoneInfo@@SAPAXIPAVUObject@@PBGK@Z @ 2092
??2ASkyZoneInfo@@SAPAXIPAVUObject@@VFName@@K@Z @ 2093
??2ASkyZoneInfo@@SAPAXIPAW4EInternal@@@Z @ 2094
??2ASmallNavigationPoint@@SAPAXIPAVUObject@@PAGK@Z @ 2095
??2ASmallNavigationPoint@@SAPAXIPAVUObject@@PBGK@Z @ 2096
??2ASmallNavigationPoint@@SAPAXIPAVUObject@@VFName@@K@Z @ 2097
??2ASmallNavigationPoint@@SAPAXIPAW4EInternal@@@Z @ 2098
??2AStaticMeshActor@@SAPAXIPAVUObject@@PAGK@Z @ 2099
??2AStaticMeshActor@@SAPAXIPAVUObject@@PBGK@Z @ 2100
??2AStaticMeshActor@@SAPAXIPAVUObject@@VFName@@K@Z @ 2101
??2AStaticMeshActor@@SAPAXIPAW4EInternal@@@Z @ 2102
??2ATeamInfo@@SAPAXIPAVUObject@@PAGK@Z @ 2103
??2ATeamInfo@@SAPAXIPAVUObject@@PBGK@Z @ 2104
??2ATeamInfo@@SAPAXIPAVUObject@@VFName@@K@Z @ 2105
??2ATeamInfo@@SAPAXIPAW4EInternal@@@Z @ 2106
??2ATeleporter@@SAPAXIPAVUObject@@PAGK@Z @ 2107
??2ATeleporter@@SAPAXIPAVUObject@@PBGK@Z @ 2108
??2ATeleporter@@SAPAXIPAVUObject@@VFName@@K@Z @ 2109
??2ATeleporter@@SAPAXIPAW4EInternal@@@Z @ 2110
??2ATerrainInfo@@SAPAXIPAVUObject@@PAGK@Z @ 2111
??2ATerrainInfo@@SAPAXIPAVUObject@@PBGK@Z @ 2112
??2ATerrainInfo@@SAPAXIPAVUObject@@VFName@@K@Z @ 2113
??2ATerrainInfo@@SAPAXIPAW4EInternal@@@Z @ 2114
??2ATonemappingVolume@@SAPAXIPAVUObject@@PAGK@Z @ 2115
??2ATonemappingVolume@@SAPAXIPAVUObject@@PBGK@Z @ 2116
??2ATonemappingVolume@@SAPAXIPAVUObject@@VFName@@K@Z @ 2117
??2ATonemappingVolume@@SAPAXIPAW4EInternal@@@Z @ 2118
??2ATrigger@@SAPAXIPAVUObject@@PAGK@Z @ 2119
??2ATrigger@@SAPAXIPAVUObject@@PBGK@Z @ 2120
??2ATrigger@@SAPAXIPAVUObject@@VFName@@K@Z @ 2121
??2ATrigger@@SAPAXIPAW4EInternal@@@Z @ 2122
??2ATriggers@@SAPAXIPAVUObject@@PAGK@Z @ 2123
??2ATriggers@@SAPAXIPAVUObject@@PBGK@Z @ 2124
??2ATriggers@@SAPAXIPAVUObject@@VFName@@K@Z @ 2125
??2ATriggers@@SAPAXIPAW4EInternal@@@Z @ 2126
??2AVehicle@@SAPAXIPAVUObject@@PAGK@Z @ 2127
??2AVehicle@@SAPAXIPAVUObject@@PBGK@Z @ 2128
??2AVehicle@@SAPAXIPAVUObject@@VFName@@K@Z @ 2129
??2AVehicle@@SAPAXIPAW4EInternal@@@Z @ 2130
??2AVehiclePart@@SAPAXIPAVUObject@@PAGK@Z @ 2131
??2AVehiclePart@@SAPAXIPAVUObject@@PBGK@Z @ 2132
??2AVehiclePart@@SAPAXIPAVUObject@@VFName@@K@Z @ 2133
??2AVehiclePart@@SAPAXIPAW4EInternal@@@Z @ 2134
??2AVertMeshActor@@SAPAXIPAVUObject@@PAGK@Z @ 2135
??2AVertMeshActor@@SAPAXIPAVUObject@@PBGK@Z @ 2136
??2AVertMeshActor@@SAPAXIPAVUObject@@VFName@@K@Z @ 2137
??2AVertMeshActor@@SAPAXIPAW4EInternal@@@Z @ 2138
??2AVignette@@SAPAXIPAVUObject@@PAGK@Z @ 2139
??2AVignette@@SAPAXIPAVUObject@@PBGK@Z @ 2140
??2AVignette@@SAPAXIPAVUObject@@VFName@@K@Z @ 2141
??2AVignette@@SAPAXIPAW4EInternal@@@Z @ 2142
??2AVoiceChatReplicationInfo@@SAPAXIPAVUObject@@PAGK@Z @ 2143
??2AVoiceChatReplicationInfo@@SAPAXIPAVUObject@@PBGK@Z @ 2144
??2AVoiceChatReplicationInfo@@SAPAXIPAVUObject@@VFName@@K@Z @ 2145
??2AVoiceChatReplicationInfo@@SAPAXIPAW4EInternal@@@Z @ 2146
??2AVoiceChatRoom@@SAPAXIPAVUObject@@PAGK@Z @ 2147
??2AVoiceChatRoom@@SAPAXIPAVUObject@@PBGK@Z @ 2148
??2AVoiceChatRoom@@SAPAXIPAVUObject@@VFName@@K@Z @ 2149
??2AVoiceChatRoom@@SAPAXIPAW4EInternal@@@Z @ 2150
??2AVolume@@SAPAXIPAVUObject@@PAGK@Z @ 2151
??2AVolume@@SAPAXIPAVUObject@@PBGK@Z @ 2152
??2AVolume@@SAPAXIPAVUObject@@VFName@@K@Z @ 2153
??2AVolume@@SAPAXIPAW4EInternal@@@Z @ 2154
??2AWarpZoneInfo@@SAPAXIPAVUObject@@PAGK@Z @ 2155
??2AWarpZoneInfo@@SAPAXIPAVUObject@@PBGK@Z @ 2156
??2AWarpZoneInfo@@SAPAXIPAVUObject@@VFName@@K@Z @ 2157
??2AWarpZoneInfo@@SAPAXIPAW4EInternal@@@Z @ 2158
??2AWarpZoneMarker@@SAPAXIPAVUObject@@PAGK@Z @ 2159
??2AWarpZoneMarker@@SAPAXIPAVUObject@@PBGK@Z @ 2160
??2AWarpZoneMarker@@SAPAXIPAVUObject@@VFName@@K@Z @ 2161
??2AWarpZoneMarker@@SAPAXIPAW4EInternal@@@Z @ 2162
??2AWeaponAttachment@@SAPAXIPAVUObject@@PAGK@Z @ 2163
??2AWeaponAttachment@@SAPAXIPAVUObject@@PBGK@Z @ 2164
??2AWeaponAttachment@@SAPAXIPAVUObject@@VFName@@K@Z @ 2165
??2AWeaponAttachment@@SAPAXIPAW4EInternal@@@Z @ 2166
??2AZoneInfo@@SAPAXIPAVUObject@@PAGK@Z @ 2167
??2AZoneInfo@@SAPAXIPAVUObject@@PBGK@Z @ 2168
??2AZoneInfo@@SAPAXIPAVUObject@@VFName@@K@Z @ 2169
??2AZoneInfo@@SAPAXIPAW4EInternal@@@Z @ 2170
??2AwAILevelBase@@SAPAXIPAVUObject@@PAGK@Z @ 2171
??2AwAILevelBase@@SAPAXIPAVUObject@@PBGK@Z @ 2172
??2AwAILevelBase@@SAPAXIPAVUObject@@VFName@@K@Z @ 2173
??2AwAILevelBase@@SAPAXIPAW4EInternal@@@Z @ 2174
??2AwAmmunition@@SAPAXIPAVUObject@@PAGK@Z @ 2175
??2AwAmmunition@@SAPAXIPAVUObject@@PBGK@Z @ 2176
??2AwAmmunition@@SAPAXIPAVUObject@@VFName@@K@Z @ 2177
??2AwAmmunition@@SAPAXIPAW4EInternal@@@Z @ 2178
??2AwArrangeTurret@@SAPAXIPAVUObject@@PAGK@Z @ 2179
??2AwArrangeTurret@@SAPAXIPAVUObject@@PBGK@Z @ 2180
??2AwArrangeTurret@@SAPAXIPAVUObject@@VFName@@K@Z @ 2181
??2AwArrangeTurret@@SAPAXIPAW4EInternal@@@Z @ 2182
??2AwEmitter@@SAPAXIPAVUObject@@PAGK@Z @ 2183
??2AwEmitter@@SAPAXIPAVUObject@@PBGK@Z @ 2184
??2AwEmitter@@SAPAXIPAVUObject@@VFName@@K@Z @ 2185
??2AwEmitter@@SAPAXIPAW4EInternal@@@Z @ 2186
??2AwGameStateStorageSender@@SAPAXIPAVUObject@@PAGK@Z @ 2187
??2AwGameStateStorageSender@@SAPAXIPAVUObject@@PBGK@Z @ 2188
??2AwGameStateStorageSender@@SAPAXIPAVUObject@@VFName@@K@Z @ 2189
??2AwGameStateStorageSender@@SAPAXIPAW4EInternal@@@Z @ 2190
??2AwPickUpBase@@SAPAXIPAVUObject@@PAGK@Z @ 2191
??2AwPickUpBase@@SAPAXIPAVUObject@@PBGK@Z @ 2192
??2AwPickUpBase@@SAPAXIPAVUObject@@VFName@@K@Z @ 2193
??2AwPickUpBase@@SAPAXIPAW4EInternal@@@Z @ 2194
??2AwProcMesh@@SAPAXIPAVUObject@@PAGK@Z @ 2195
??2AwProcMesh@@SAPAXIPAVUObject@@PBGK@Z @ 2196
??2AwProcMesh@@SAPAXIPAVUObject@@VFName@@K@Z @ 2197
??2AwProcMesh@@SAPAXIPAW4EInternal@@@Z @ 2198
??2AwWeapon@@SAPAXIPAVUObject@@PAGK@Z @ 2199
??2AwWeapon@@SAPAXIPAVUObject@@PBGK@Z @ 2200
??2AwWeapon@@SAPAXIPAVUObject@@VFName@@K@Z @ 2201
??2AwWeapon@@SAPAXIPAW4EInternal@@@Z @ 2202
??2AwWeaponPickup@@SAPAXIPAVUObject@@PAGK@Z @ 2203
??2AwWeaponPickup@@SAPAXIPAVUObject@@PBGK@Z @ 2204
??2AwWeaponPickup@@SAPAXIPAVUObject@@VFName@@K@Z @ 2205
??2AwWeaponPickup@@SAPAXIPAW4EInternal@@@Z @ 2206
??2AwWeatherEffect@@SAPAXIPAVUObject@@PAGK@Z @ 2207
??2AwWeatherEffect@@SAPAXIPAVUObject@@PBGK@Z @ 2208
??2AwWeatherEffect@@SAPAXIPAVUObject@@VFName@@K@Z @ 2209
??2AwWeatherEffect@@SAPAXIPAW4EInternal@@@Z @ 2210
??2UActionMoveCamera@@SAPAXIPAVUObject@@PAGK@Z @ 2211
??2UActionMoveCamera@@SAPAXIPAVUObject@@PBGK@Z @ 2212
??2UActionMoveCamera@@SAPAXIPAVUObject@@VFName@@K@Z @ 2213
??2UActionMoveCamera@@SAPAXIPAW4EInternal@@@Z @ 2214
??2UActionPause@@SAPAXIPAVUObject@@PAGK@Z @ 2215
??2UActionPause@@SAPAXIPAVUObject@@PBGK@Z @ 2216
??2UActionPause@@SAPAXIPAVUObject@@VFName@@K@Z @ 2217
??2UActionPause@@SAPAXIPAW4EInternal@@@Z @ 2218
??2UActorChannel@@SAPAXIPAVUObject@@PAGK@Z @ 2219
??2UActorChannel@@SAPAXIPAVUObject@@PBGK@Z @ 2220
??2UActorChannel@@SAPAXIPAVUObject@@VFName@@K@Z @ 2221
??2UActorChannel@@SAPAXIPAW4EInternal@@@Z @ 2222
??2UAdminBase@@SAPAXIPAVUObject@@PAGK@Z @ 2223
??2UAdminBase@@SAPAXIPAVUObject@@PBGK@Z @ 2224
??2UAdminBase@@SAPAXIPAVUObject@@VFName@@K@Z @ 2225
??2UAdminBase@@SAPAXIPAW4EInternal@@@Z @ 2226
??2UAnimNotify@@SAPAXIPAVUObject@@PAGK@Z @ 2227
??2UAnimNotify@@SAPAXIPAVUObject@@PBGK@Z @ 2228
??2UAnimNotify@@SAPAXIPAVUObject@@VFName@@K@Z @ 2229
??2UAnimNotify@@SAPAXIPAW4EInternal@@@Z @ 2230
??2UAnimNotify_DestroyEffect@@SAPAXIPAVUObject@@PAGK@Z @ 2231
??2UAnimNotify_DestroyEffect@@SAPAXIPAVUObject@@PBGK@Z @ 2232
??2UAnimNotify_DestroyEffect@@SAPAXIPAVUObject@@VFName@@K@Z @ 2233
??2UAnimNotify_DestroyEffect@@SAPAXIPAW4EInternal@@@Z @ 2234
??2UAnimNotify_Effect@@SAPAXIPAVUObject@@PAGK@Z @ 2235
??2UAnimNotify_Effect@@SAPAXIPAVUObject@@PBGK@Z @ 2236
??2UAnimNotify_Effect@@SAPAXIPAVUObject@@VFName@@K@Z @ 2237
??2UAnimNotify_Effect@@SAPAXIPAW4EInternal@@@Z @ 2238
??2UAnimNotify_LIPSinc@@SAPAXIPAVUObject@@PAGK@Z @ 2239
??2UAnimNotify_LIPSinc@@SAPAXIPAVUObject@@PBGK@Z @ 2240
??2UAnimNotify_LIPSinc@@SAPAXIPAVUObject@@VFName@@K@Z @ 2241
??2UAnimNotify_LIPSinc@@SAPAXIPAW4EInternal@@@Z @ 2242
??2UAnimNotify_MatSubAction@@SAPAXIPAVUObject@@PAGK@Z @ 2243
??2UAnimNotify_MatSubAction@@SAPAXIPAVUObject@@PBGK@Z @ 2244
??2UAnimNotify_MatSubAction@@SAPAXIPAVUObject@@VFName@@K@Z @ 2245
??2UAnimNotify_MatSubAction@@SAPAXIPAW4EInternal@@@Z @ 2246
??2UAnimNotify_Script@@SAPAXIPAVUObject@@PAGK@Z @ 2247
??2UAnimNotify_Script@@SAPAXIPAVUObject@@PBGK@Z @ 2248
??2UAnimNotify_Script@@SAPAXIPAVUObject@@VFName@@K@Z @ 2249
??2UAnimNotify_Script@@SAPAXIPAW4EInternal@@@Z @ 2250
??2UAnimNotify_Scripted@@SAPAXIPAVUObject@@PAGK@Z @ 2251
??2UAnimNotify_Scripted@@SAPAXIPAVUObject@@PBGK@Z @ 2252
??2UAnimNotify_Scripted@@SAPAXIPAVUObject@@VFName@@K@Z @ 2253
??2UAnimNotify_Scripted@@SAPAXIPAW4EInternal@@@Z @ 2254
??2UAnimNotify_Sound@@SAPAXIPAVUObject@@PAGK@Z @ 2255
??2UAnimNotify_Sound@@SAPAXIPAVUObject@@PBGK@Z @ 2256
??2UAnimNotify_Sound@@SAPAXIPAVUObject@@VFName@@K@Z @ 2257
??2UAnimNotify_Sound@@SAPAXIPAW4EInternal@@@Z @ 2258
??2UAnimation@@SAPAXIPAVUObject@@PAGK@Z @ 2259
??2UAnimation@@SAPAXIPAVUObject@@PBGK@Z @ 2260
??2UAnimation@@SAPAXIPAVUObject@@VFName@@K@Z @ 2261
??2UAnimation@@SAPAXIPAW4EInternal@@@Z @ 2262
??2UAudioSubsystem@@SAPAXIPAVUObject@@PAGK@Z @ 2263
??2UAudioSubsystem@@SAPAXIPAVUObject@@PBGK@Z @ 2264
??2UAudioSubsystem@@SAPAXIPAVUObject@@VFName@@K@Z @ 2265
??2UAudioSubsystem@@SAPAXIPAW4EInternal@@@Z @ 2266
??2UBTLoadingAdvancer@@SAPAXIPAVUObject@@PAGK@Z @ 2267
??2UBTLoadingAdvancer@@SAPAXIPAVUObject@@PBGK@Z @ 2268
??2UBTLoadingAdvancer@@SAPAXIPAVUObject@@VFName@@K@Z @ 2269
??2UBTLoadingAdvancer@@SAPAXIPAW4EInternal@@@Z @ 2270
??2UBTLoadingState@@SAPAXIPAVUObject@@PAGK@Z @ 2271
??2UBTLoadingState@@SAPAXIPAVUObject@@PBGK@Z @ 2272
??2UBTLoadingState@@SAPAXIPAVUObject@@VFName@@K@Z @ 2273
??2UBTLoadingState@@SAPAXIPAW4EInternal@@@Z @ 2274
??2UBTMapLoader@@SAPAXIPAVUObject@@PAGK@Z @ 2275
??2UBTMapLoader@@SAPAXIPAVUObject@@PBGK@Z @ 2276
??2UBTMapLoader@@SAPAXIPAVUObject@@VFName@@K@Z @ 2277
??2UBTMapLoader@@SAPAXIPAW4EInternal@@@Z @ 2278
??2UBTNetInterface@@SAPAXIPAVUObject@@PAGK@Z @ 2279
??2UBTNetInterface@@SAPAXIPAVUObject@@PBGK@Z @ 2280
??2UBTNetInterface@@SAPAXIPAVUObject@@VFName@@K@Z @ 2281
??2UBTNetInterface@@SAPAXIPAW4EInternal@@@Z @ 2282
??2UBTPingChecker@@SAPAXIPAVUObject@@PAGK@Z @ 2283
??2UBTPingChecker@@SAPAXIPAVUObject@@PBGK@Z @ 2284
??2UBTPingChecker@@SAPAXIPAVUObject@@VFName@@K@Z @ 2285
??2UBTPingChecker@@SAPAXIPAW4EInternal@@@Z @ 2286
??2UBTPingCheckerLinker@@SAPAXIPAVUObject@@PAGK@Z @ 2287
??2UBTPingCheckerLinker@@SAPAXIPAVUObject@@PBGK@Z @ 2288
??2UBTPingCheckerLinker@@SAPAXIPAVUObject@@VFName@@K@Z @ 2289
??2UBTPingCheckerLinker@@SAPAXIPAW4EInternal@@@Z @ 2290
??2UBTTcpLink_Channel_DS@@SAPAXIPAVUObject@@PAGK@Z @ 2291
??2UBTTcpLink_Channel_DS@@SAPAXIPAVUObject@@PBGK@Z @ 2292
??2UBTTcpLink_Channel_DS@@SAPAXIPAVUObject@@VFName@@K@Z @ 2293
??2UBTTcpLink_Channel_DS@@SAPAXIPAW4EInternal@@@Z @ 2294
??2UBTTcpLink_DStoDP_DS@@SAPAXIPAVUObject@@PAGK@Z @ 2295
??2UBTTcpLink_DStoDP_DS@@SAPAXIPAVUObject@@PBGK@Z @ 2296
??2UBTTcpLink_DStoDP_DS@@SAPAXIPAVUObject@@VFName@@K@Z @ 2297
??2UBTTcpLink_DStoDP_DS@@SAPAXIPAW4EInternal@@@Z @ 2298
??2UBaseGUIController@@SAPAXIPAVUObject@@PAGK@Z @ 2299
??2UBaseGUIController@@SAPAXIPAVUObject@@PBGK@Z @ 2300
??2UBaseGUIController@@SAPAXIPAVUObject@@VFName@@K@Z @ 2301
??2UBaseGUIController@@SAPAXIPAW4EInternal@@@Z @ 2302
??2UBeamEmitter@@SAPAXIPAVUObject@@PAGK@Z @ 2303
??2UBeamEmitter@@SAPAXIPAVUObject@@PBGK@Z @ 2304
??2UBeamEmitter@@SAPAXIPAVUObject@@VFName@@K@Z @ 2305
??2UBeamEmitter@@SAPAXIPAW4EInternal@@@Z @ 2306
??2UBitmapMaterial@@SAPAXIPAVUObject@@PAGK@Z @ 2307
??2UBitmapMaterial@@SAPAXIPAVUObject@@PBGK@Z @ 2308
??2UBitmapMaterial@@SAPAXIPAVUObject@@VFName@@K@Z @ 2309
??2UBitmapMaterial@@SAPAXIPAW4EInternal@@@Z @ 2310
??2UBlackWhite@@SAPAXIPAVUObject@@PAGK@Z @ 2311
??2UBlackWhite@@SAPAXIPAVUObject@@PBGK@Z @ 2312
??2UBlackWhite@@SAPAXIPAVUObject@@VFName@@K@Z @ 2313
??2UBlackWhite@@SAPAXIPAW4EInternal@@@Z @ 2314
??2UBlendShader@@SAPAXIPAVUObject@@PAGK@Z @ 2315
??2UBlendShader@@SAPAXIPAVUObject@@PBGK@Z @ 2316
??2UBlendShader@@SAPAXIPAVUObject@@VFName@@K@Z @ 2317
??2UBlendShader@@SAPAXIPAW4EInternal@@@Z @ 2318
??2UBtrTraceResult@@SAPAXIPAVUObject@@PAGK@Z @ 2319
??2UBtrTraceResult@@SAPAXIPAVUObject@@PBGK@Z @ 2320
??2UBtrTraceResult@@SAPAXIPAVUObject@@VFName@@K@Z @ 2321
??2UBtrTraceResult@@SAPAXIPAW4EInternal@@@Z @ 2322
??2UByteArray@@SAPAXIPAVUObject@@PAGK@Z @ 2323
??2UByteArray@@SAPAXIPAVUObject@@PBGK@Z @ 2324
??2UByteArray@@SAPAXIPAVUObject@@VFName@@K@Z @ 2325
??2UByteArray@@SAPAXIPAW4EInternal@@@Z @ 2326
??2UCacheManager@@SAPAXIPAVUObject@@PAGK@Z @ 2327
??2UCacheManager@@SAPAXIPAVUObject@@PBGK@Z @ 2328
??2UCacheManager@@SAPAXIPAVUObject@@VFName@@K@Z @ 2329
??2UCacheManager@@SAPAXIPAW4EInternal@@@Z @ 2330
??2UCameraEffect@@SAPAXIPAVUObject@@PAGK@Z @ 2331
??2UCameraEffect@@SAPAXIPAVUObject@@PBGK@Z @ 2332
??2UCameraEffect@@SAPAXIPAVUObject@@VFName@@K@Z @ 2333
??2UCameraEffect@@SAPAXIPAW4EInternal@@@Z @ 2334
??2UCameraOverlay@@SAPAXIPAVUObject@@PAGK@Z @ 2335
??2UCameraOverlay@@SAPAXIPAVUObject@@PBGK@Z @ 2336
??2UCameraOverlay@@SAPAXIPAVUObject@@VFName@@K@Z @ 2337
??2UCameraOverlay@@SAPAXIPAW4EInternal@@@Z @ 2338
??2UCanvas@@SAPAXIPAVUObject@@PAGK@Z @ 2339
??2UCanvas@@SAPAXIPAVUObject@@PBGK@Z @ 2340
??2UCanvas@@SAPAXIPAVUObject@@VFName@@K@Z @ 2341
??2UCanvas@@SAPAXIPAW4EInternal@@@Z @ 2342
??2UCascadedShadowMaps@@SAPAXIPAVUObject@@PAGK@Z @ 2343
??2UCascadedShadowMaps@@SAPAXIPAVUObject@@PBGK@Z @ 2344
??2UCascadedShadowMaps@@SAPAXIPAVUObject@@VFName@@K@Z @ 2345
??2UCascadedShadowMaps@@SAPAXIPAW4EInternal@@@Z @ 2346
??2UChannel@@SAPAXIPAVUObject@@PAGK@Z @ 2347
??2UChannel@@SAPAXIPAVUObject@@PBGK@Z @ 2348
??2UChannel@@SAPAXIPAVUObject@@VFName@@K@Z @ 2349
??2UChannel@@SAPAXIPAW4EInternal@@@Z @ 2350
??2UChannelDownload@@SAPAXIPAVUObject@@PAGK@Z @ 2351
??2UChannelDownload@@SAPAXIPAVUObject@@PBGK@Z @ 2352
??2UChannelDownload@@SAPAXIPAVUObject@@VFName@@K@Z @ 2353
??2UChannelDownload@@SAPAXIPAW4EInternal@@@Z @ 2354
??2UCheatManager@@SAPAXIPAVUObject@@PAGK@Z @ 2355
??2UCheatManager@@SAPAXIPAVUObject@@PBGK@Z @ 2356
??2UCheatManager@@SAPAXIPAVUObject@@VFName@@K@Z @ 2357
??2UCheatManager@@SAPAXIPAW4EInternal@@@Z @ 2358
??2UClient@@SAPAXIPAVUObject@@PAGK@Z @ 2359
??2UClient@@SAPAXIPAVUObject@@PBGK@Z @ 2360
??2UClient@@SAPAXIPAVUObject@@VFName@@K@Z @ 2361
??2UClient@@SAPAXIPAW4EInternal@@@Z @ 2362
??2UColorModifier@@SAPAXIPAVUObject@@PAGK@Z @ 2363
??2UColorModifier@@SAPAXIPAVUObject@@PBGK@Z @ 2364
??2UColorModifier@@SAPAXIPAVUObject@@VFName@@K@Z @ 2365
??2UColorModifier@@SAPAXIPAW4EInternal@@@Z @ 2366
??2UCombiner@@SAPAXIPAVUObject@@PAGK@Z @ 2367
??2UCombiner@@SAPAXIPAVUObject@@PBGK@Z @ 2368
??2UCombiner@@SAPAXIPAVUObject@@VFName@@K@Z @ 2369
??2UCombiner@@SAPAXIPAW4EInternal@@@Z @ 2370
??2UConsole@@SAPAXIPAVUObject@@PAGK@Z @ 2371
??2UConsole@@SAPAXIPAVUObject@@PBGK@Z @ 2372
??2UConsole@@SAPAXIPAVUObject@@VFName@@K@Z @ 2373
??2UConsole@@SAPAXIPAW4EInternal@@@Z @ 2374
??2UConstantColor@@SAPAXIPAVUObject@@PAGK@Z @ 2375
??2UConstantColor@@SAPAXIPAVUObject@@PBGK@Z @ 2376
??2UConstantColor@@SAPAXIPAVUObject@@VFName@@K@Z @ 2377
??2UConstantColor@@SAPAXIPAW4EInternal@@@Z @ 2378
??2UConstantMaterial@@SAPAXIPAVUObject@@PAGK@Z @ 2379
??2UConstantMaterial@@SAPAXIPAVUObject@@PBGK@Z @ 2380
??2UConstantMaterial@@SAPAXIPAVUObject@@VFName@@K@Z @ 2381
??2UConstantMaterial@@SAPAXIPAW4EInternal@@@Z @ 2382
??2UControlChannel@@SAPAXIPAVUObject@@PAGK@Z @ 2383
??2UControlChannel@@SAPAXIPAVUObject@@PBGK@Z @ 2384
??2UControlChannel@@SAPAXIPAVUObject@@VFName@@K@Z @ 2385
??2UControlChannel@@SAPAXIPAW4EInternal@@@Z @ 2386
??2UConvexVolume@@SAPAXIPAVUObject@@PAGK@Z @ 2387
??2UConvexVolume@@SAPAXIPAVUObject@@PBGK@Z @ 2388
??2UConvexVolume@@SAPAXIPAVUObject@@VFName@@K@Z @ 2389
??2UConvexVolume@@SAPAXIPAW4EInternal@@@Z @ 2390
??2UCrosshairPack@@SAPAXIPAVUObject@@PAGK@Z @ 2391
??2UCrosshairPack@@SAPAXIPAVUObject@@PBGK@Z @ 2392
??2UCrosshairPack@@SAPAXIPAVUObject@@VFName@@K@Z @ 2393
??2UCrosshairPack@@SAPAXIPAW4EInternal@@@Z @ 2394
??2UCubemap@@SAPAXIPAVUObject@@PAGK@Z @ 2395
??2UCubemap@@SAPAXIPAVUObject@@PBGK@Z @ 2396
??2UCubemap@@SAPAXIPAVUObject@@VFName@@K@Z @ 2397
??2UCubemap@@SAPAXIPAW4EInternal@@@Z @ 2398
??2UDOFEffect@@SAPAXIPAVUObject@@PAGK@Z @ 2399
??2UDOFEffect@@SAPAXIPAVUObject@@PBGK@Z @ 2400
??2UDOFEffect@@SAPAXIPAVUObject@@VFName@@K@Z @ 2401
??2UDOFEffect@@SAPAXIPAW4EInternal@@@Z @ 2402
??2UDecalShader@@SAPAXIPAVUObject@@PAGK@Z @ 2403
??2UDecalShader@@SAPAXIPAVUObject@@PBGK@Z @ 2404
??2UDecalShader@@SAPAXIPAVUObject@@VFName@@K@Z @ 2405
??2UDecalShader@@SAPAXIPAW4EInternal@@@Z @ 2406
??2UDemoRecConnection@@SAPAXIPAVUObject@@PAGK@Z @ 2407
??2UDemoRecConnection@@SAPAXIPAVUObject@@PBGK@Z @ 2408
??2UDemoRecConnection@@SAPAXIPAVUObject@@VFName@@K@Z @ 2409
??2UDemoRecConnection@@SAPAXIPAW4EInternal@@@Z @ 2410
??2UDemoRecDriver@@SAPAXIPAVUObject@@PAGK@Z @ 2411
??2UDemoRecDriver@@SAPAXIPAVUObject@@PBGK@Z @ 2412
??2UDemoRecDriver@@SAPAXIPAVUObject@@VFName@@K@Z @ 2413
??2UDemoRecDriver@@SAPAXIPAW4EInternal@@@Z @ 2414
??2UDistortEmitter@@SAPAXIPAVUObject@@PAGK@Z @ 2415
??2UDistortEmitter@@SAPAXIPAVUObject@@PBGK@Z @ 2416
??2UDistortEmitter@@SAPAXIPAVUObject@@VFName@@K@Z @ 2417
??2UDistortEmitter@@SAPAXIPAW4EInternal@@@Z @ 2418
??2UDownload@@SAPAXIPAVUObject@@PAGK@Z @ 2419
??2UDownload@@SAPAXIPAVUObject@@PBGK@Z @ 2420
??2UDownload@@SAPAXIPAVUObject@@VFName@@K@Z @ 2421
??2UDownload@@SAPAXIPAW4EInternal@@@Z @ 2422
??2UDownloadTexture@@SAPAXIPAVUObject@@PAGK@Z @ 2423
??2UDownloadTexture@@SAPAXIPAVUObject@@PBGK@Z @ 2424
??2UDownloadTexture@@SAPAXIPAVUObject@@VFName@@K@Z @ 2425
??2UDownloadTexture@@SAPAXIPAW4EInternal@@@Z @ 2426
??2UDripEffect@@SAPAXIPAVUObject@@PAGK@Z @ 2427
??2UDripEffect@@SAPAXIPAVUObject@@PBGK@Z @ 2428
??2UDripEffect@@SAPAXIPAVUObject@@VFName@@K@Z @ 2429
??2UDripEffect@@SAPAXIPAW4EInternal@@@Z @ 2430
??2UEngine@@SAPAXIPAVUObject@@PAGK@Z @ 2431
??2UEngine@@SAPAXIPAVUObject@@PBGK@Z @ 2432
??2UEngine@@SAPAXIPAVUObject@@VFName@@K@Z @ 2433
??2UEngine@@SAPAXIPAW4EInternal@@@Z @ 2434
??2UFXFile@@SAPAXIPAVUObject@@PAGK@Z @ 2435
??2UFXFile@@SAPAXIPAVUObject@@PBGK@Z @ 2436
??2UFXFile@@SAPAXIPAVUObject@@VFName@@K@Z @ 2437
??2UFXFile@@SAPAXIPAW4EInternal@@@Z @ 2438
??2UFadeBlackWhite@@SAPAXIPAVUObject@@PAGK@Z @ 2439
??2UFadeBlackWhite@@SAPAXIPAVUObject@@PBGK@Z @ 2440
??2UFadeBlackWhite@@SAPAXIPAVUObject@@VFName@@K@Z @ 2441
??2UFadeBlackWhite@@SAPAXIPAW4EInternal@@@Z @ 2442
??2UFadeColor@@SAPAXIPAVUObject@@PAGK@Z @ 2443
??2UFadeColor@@SAPAXIPAVUObject@@PBGK@Z @ 2444
??2UFadeColor@@SAPAXIPAVUObject@@VFName@@K@Z @ 2445
??2UFadeColor@@SAPAXIPAW4EInternal@@@Z @ 2446
??2UFileChannel@@SAPAXIPAVUObject@@PAGK@Z @ 2447
??2UFileChannel@@SAPAXIPAVUObject@@PBGK@Z @ 2448
??2UFileChannel@@SAPAXIPAVUObject@@VFName@@K@Z @ 2449
??2UFileChannel@@SAPAXIPAW4EInternal@@@Z @ 2450
??2UFinalBlend@@SAPAXIPAVUObject@@PAGK@Z @ 2451
??2UFinalBlend@@SAPAXIPAVUObject@@PBGK@Z @ 2452
??2UFinalBlend@@SAPAXIPAVUObject@@VFName@@K@Z @ 2453
??2UFinalBlend@@SAPAXIPAW4EInternal@@@Z @ 2454
??2UFinalEffect@@SAPAXIPAVUObject@@PAGK@Z @ 2455
??2UFinalEffect@@SAPAXIPAVUObject@@PBGK@Z @ 2456
??2UFinalEffect@@SAPAXIPAVUObject@@VFName@@K@Z @ 2457
??2UFinalEffect@@SAPAXIPAW4EInternal@@@Z @ 2458
??2UFluidSurfacePrimitive@@SAPAXIPAVUObject@@PAGK@Z @ 2459
??2UFluidSurfacePrimitive@@SAPAXIPAVUObject@@PBGK@Z @ 2460
??2UFluidSurfacePrimitive@@SAPAXIPAVUObject@@VFName@@K@Z @ 2461
??2UFluidSurfacePrimitive@@SAPAXIPAW4EInternal@@@Z @ 2462
??2UFont@@SAPAXIPAVUObject@@PAGK@Z @ 2463
??2UFont@@SAPAXIPAVUObject@@PBGK@Z @ 2464
??2UFont@@SAPAXIPAVUObject@@VFName@@K@Z @ 2465
??2UFont@@SAPAXIPAW4EInternal@@@Z @ 2466
??2UGMFile@@SAPAXIPAVUObject@@PAGK@Z @ 2467
??2UGMFile@@SAPAXIPAVUObject@@PBGK@Z @ 2468
??2UGMFile@@SAPAXIPAVUObject@@VFName@@K@Z @ 2469
??2UGMFile@@SAPAXIPAW4EInternal@@@Z @ 2470
??2UGameEngine@@SAPAXIPAVUObject@@PAGK@Z @ 2471
??2UGameEngine@@SAPAXIPAVUObject@@PBGK@Z @ 2472
??2UGameEngine@@SAPAXIPAVUObject@@VFName@@K@Z @ 2473
??2UGameEngine@@SAPAXIPAW4EInternal@@@Z @ 2474
??2UGameProfile@@SAPAXIPAVUObject@@PAGK@Z @ 2475
??2UGameProfile@@SAPAXIPAVUObject@@PBGK@Z @ 2476
??2UGameProfile@@SAPAXIPAVUObject@@VFName@@K@Z @ 2477
??2UGameProfile@@SAPAXIPAW4EInternal@@@Z @ 2478
??2UGlowEffect@@SAPAXIPAVUObject@@PAGK@Z @ 2479
??2UGlowEffect@@SAPAXIPAVUObject@@PBGK@Z @ 2480
??2UGlowEffect@@SAPAXIPAVUObject@@VFName@@K@Z @ 2481
??2UGlowEffect@@SAPAXIPAW4EInternal@@@Z @ 2482
??2UHardwareShader@@SAPAXIPAVUObject@@PAGK@Z @ 2483
??2UHardwareShader@@SAPAXIPAVUObject@@PBGK@Z @ 2484
??2UHardwareShader@@SAPAXIPAVUObject@@VFName@@K@Z @ 2485
??2UHardwareShader@@SAPAXIPAW4EInternal@@@Z @ 2486
??2UI3DL2Listener@@SAPAXIPAVUObject@@PAGK@Z @ 2487
??2UI3DL2Listener@@SAPAXIPAVUObject@@PBGK@Z @ 2488
??2UI3DL2Listener@@SAPAXIPAVUObject@@VFName@@K@Z @ 2489
??2UI3DL2Listener@@SAPAXIPAW4EInternal@@@Z @ 2490
??2UIndexBuffer@@SAPAXIPAVUObject@@PAGK@Z @ 2491
??2UIndexBuffer@@SAPAXIPAVUObject@@PBGK@Z @ 2492
??2UIndexBuffer@@SAPAXIPAVUObject@@VFName@@K@Z @ 2493
??2UIndexBuffer@@SAPAXIPAW4EInternal@@@Z @ 2494
??2UInput@@SAPAXIPAVUObject@@PAGK@Z @ 2495
??2UInput@@SAPAXIPAVUObject@@PBGK@Z @ 2496
??2UInput@@SAPAXIPAVUObject@@VFName@@K@Z @ 2497
??2UInput@@SAPAXIPAW4EInternal@@@Z @ 2498
??2UInteraction@@SAPAXIPAVUObject@@PAGK@Z @ 2499
??2UInteraction@@SAPAXIPAVUObject@@PBGK@Z @ 2500
??2UInteraction@@SAPAXIPAVUObject@@VFName@@K@Z @ 2501
??2UInteraction@@SAPAXIPAW4EInternal@@@Z @ 2502
??2UInteractionMaster@@SAPAXIPAVUObject@@PAGK@Z @ 2503
??2UInteractionMaster@@SAPAXIPAVUObject@@PBGK@Z @ 2504
??2UInteractionMaster@@SAPAXIPAVUObject@@VFName@@K@Z @ 2505
??2UInteractionMaster@@SAPAXIPAW4EInternal@@@Z @ 2506
??2UInteractions@@SAPAXIPAVUObject@@PAGK@Z @ 2507
??2UInteractions@@SAPAXIPAVUObject@@PBGK@Z @ 2508
??2UInteractions@@SAPAXIPAVUObject@@VFName@@K@Z @ 2509
??2UInteractions@@SAPAXIPAW4EInternal@@@Z @ 2510
??2UItemIterator@@SAPAXIPAVUObject@@PAGK@Z @ 2511
??2UItemIterator@@SAPAXIPAVUObject@@PBGK@Z @ 2512
??2UItemIterator@@SAPAXIPAVUObject@@VFName@@K@Z @ 2513
??2UItemIterator@@SAPAXIPAW4EInternal@@@Z @ 2514
??2UKMeshProps@@SAPAXIPAVUObject@@PAGK@Z @ 2515
??2UKMeshProps@@SAPAXIPAVUObject@@PBGK@Z @ 2516
??2UKMeshProps@@SAPAXIPAVUObject@@VFName@@K@Z @ 2517
??2UKMeshProps@@SAPAXIPAW4EInternal@@@Z @ 2518
??2UKarmaParams@@SAPAXIPAVUObject@@PAGK@Z @ 2519
??2UKarmaParams@@SAPAXIPAVUObject@@PBGK@Z @ 2520
??2UKarmaParams@@SAPAXIPAVUObject@@VFName@@K@Z @ 2521
??2UKarmaParams@@SAPAXIPAW4EInternal@@@Z @ 2522
??2UKarmaParamsCollision@@SAPAXIPAVUObject@@PAGK@Z @ 2523
??2UKarmaParamsCollision@@SAPAXIPAVUObject@@PBGK@Z @ 2524
??2UKarmaParamsCollision@@SAPAXIPAVUObject@@VFName@@K@Z @ 2525
??2UKarmaParamsCollision@@SAPAXIPAW4EInternal@@@Z @ 2526
??2UKarmaParamsRBFull@@SAPAXIPAVUObject@@PAGK@Z @ 2527
??2UKarmaParamsRBFull@@SAPAXIPAVUObject@@PBGK@Z @ 2528
??2UKarmaParamsRBFull@@SAPAXIPAVUObject@@VFName@@K@Z @ 2529
??2UKarmaParamsRBFull@@SAPAXIPAW4EInternal@@@Z @ 2530
??2UKarmaParamsSkel@@SAPAXIPAVUObject@@PAGK@Z @ 2531
??2UKarmaParamsSkel@@SAPAXIPAVUObject@@PBGK@Z @ 2532
??2UKarmaParamsSkel@@SAPAXIPAVUObject@@VFName@@K@Z @ 2533
??2UKarmaParamsSkel@@SAPAXIPAW4EInternal@@@Z @ 2534
??2ULevel@@SAPAXIPAVUObject@@PAGK@Z @ 2535
??2ULevel@@SAPAXIPAVUObject@@PBGK@Z @ 2536
??2ULevel@@SAPAXIPAVUObject@@VFName@@K@Z @ 2537
??2ULevel@@SAPAXIPAW4EInternal@@@Z @ 2538
??2ULevelBase@@SAPAXIPAVUObject@@PAGK@Z @ 2539
??2ULevelBase@@SAPAXIPAVUObject@@PBGK@Z @ 2540
??2ULevelBase@@SAPAXIPAVUObject@@VFName@@K@Z @ 2541
??2ULevelBase@@SAPAXIPAW4EInternal@@@Z @ 2542
??2ULevelSummary@@SAPAXIPAVUObject@@PAGK@Z @ 2543
??2ULevelSummary@@SAPAXIPAVUObject@@PBGK@Z @ 2544
??2ULevelSummary@@SAPAXIPAVUObject@@VFName@@K@Z @ 2545
??2ULevelSummary@@SAPAXIPAW4EInternal@@@Z @ 2546
??2ULodMesh@@SAPAXIPAVUObject@@PAGK@Z @ 2547
??2ULodMesh@@SAPAXIPAVUObject@@PBGK@Z @ 2548
??2ULodMesh@@SAPAXIPAVUObject@@VFName@@K@Z @ 2549
??2ULodMesh@@SAPAXIPAW4EInternal@@@Z @ 2550
??2ULodMeshInstance@@SAPAXIPAVUObject@@PAGK@Z @ 2551
??2ULodMeshInstance@@SAPAXIPAVUObject@@PBGK@Z @ 2552
??2ULodMeshInstance@@SAPAXIPAVUObject@@VFName@@K@Z @ 2553
??2ULodMeshInstance@@SAPAXIPAW4EInternal@@@Z @ 2554
??2ULogEntry@@SAPAXIPAVUObject@@PAGK@Z @ 2555
??2ULogEntry@@SAPAXIPAVUObject@@PBGK@Z @ 2556
??2ULogEntry@@SAPAXIPAVUObject@@VFName@@K@Z @ 2557
??2ULogEntry@@SAPAXIPAW4EInternal@@@Z @ 2558
??2UManifest@@SAPAXIPAVUObject@@PAGK@Z @ 2559
??2UManifest@@SAPAXIPAVUObject@@PBGK@Z @ 2560
??2UManifest@@SAPAXIPAVUObject@@VFName@@K@Z @ 2561
??2UManifest@@SAPAXIPAW4EInternal@@@Z @ 2562
??2UMatAction@@SAPAXIPAVUObject@@PAGK@Z @ 2563
??2UMatAction@@SAPAXIPAVUObject@@PBGK@Z @ 2564
??2UMatAction@@SAPAXIPAVUObject@@VFName@@K@Z @ 2565
??2UMatAction@@SAPAXIPAW4EInternal@@@Z @ 2566
??2UMatObject@@SAPAXIPAVUObject@@PAGK@Z @ 2567
??2UMatObject@@SAPAXIPAVUObject@@PBGK@Z @ 2568
??2UMatObject@@SAPAXIPAVUObject@@VFName@@K@Z @ 2569
??2UMatObject@@SAPAXIPAW4EInternal@@@Z @ 2570
??2UMatSubAction@@SAPAXIPAVUObject@@PAGK@Z @ 2571
??2UMatSubAction@@SAPAXIPAVUObject@@PBGK@Z @ 2572
??2UMatSubAction@@SAPAXIPAVUObject@@VFName@@K@Z @ 2573
??2UMatSubAction@@SAPAXIPAW4EInternal@@@Z @ 2574
??2UMaterial@@SAPAXIPAVUObject@@PAGK@Z @ 2575
??2UMaterial@@SAPAXIPAVUObject@@PBGK@Z @ 2576
??2UMaterial@@SAPAXIPAVUObject@@VFName@@K@Z @ 2577
??2UMaterial@@SAPAXIPAW4EInternal@@@Z @ 2578
??2UMaterialSequence@@SAPAXIPAVUObject@@PAGK@Z @ 2579
??2UMaterialSequence@@SAPAXIPAVUObject@@PBGK@Z @ 2580
??2UMaterialSequence@@SAPAXIPAVUObject@@VFName@@K@Z @ 2581
??2UMaterialSequence@@SAPAXIPAW4EInternal@@@Z @ 2582
??2UMaterialSwitch@@SAPAXIPAVUObject@@PAGK@Z @ 2583
??2UMaterialSwitch@@SAPAXIPAVUObject@@PBGK@Z @ 2584
??2UMaterialSwitch@@SAPAXIPAVUObject@@VFName@@K@Z @ 2585
??2UMaterialSwitch@@SAPAXIPAW4EInternal@@@Z @ 2586
??2UMesh@@SAPAXIPAVUObject@@PAGK@Z @ 2587
??2UMesh@@SAPAXIPAVUObject@@PBGK@Z @ 2588
??2UMesh@@SAPAXIPAVUObject@@VFName@@K@Z @ 2589
??2UMesh@@SAPAXIPAW4EInternal@@@Z @ 2590
??2UMeshAnimation@@SAPAXIPAVUObject@@PAGK@Z @ 2591
??2UMeshAnimation@@SAPAXIPAVUObject@@PBGK@Z @ 2592
??2UMeshAnimation@@SAPAXIPAVUObject@@VFName@@K@Z @ 2593
??2UMeshAnimation@@SAPAXIPAW4EInternal@@@Z @ 2594
??2UMeshEmitter@@SAPAXIPAVUObject@@PAGK@Z @ 2595
??2UMeshEmitter@@SAPAXIPAVUObject@@PBGK@Z @ 2596
??2UMeshEmitter@@SAPAXIPAVUObject@@VFName@@K@Z @ 2597
??2UMeshEmitter@@SAPAXIPAW4EInternal@@@Z @ 2598
??2UMeshInstance@@SAPAXIPAVUObject@@PAGK@Z @ 2599
??2UMeshInstance@@SAPAXIPAVUObject@@PBGK@Z @ 2600
??2UMeshInstance@@SAPAXIPAVUObject@@VFName@@K@Z @ 2601
??2UMeshInstance@@SAPAXIPAW4EInternal@@@Z @ 2602
??2UMeshObject@@SAPAXIPAVUObject@@PAGK@Z @ 2603
??2UMeshObject@@SAPAXIPAVUObject@@PBGK@Z @ 2604
??2UMeshObject@@SAPAXIPAVUObject@@VFName@@K@Z @ 2605
??2UMeshObject@@SAPAXIPAW4EInternal@@@Z @ 2606
??2UModel@@SAPAXIPAVUObject@@PAGK@Z @ 2607
??2UModel@@SAPAXIPAVUObject@@PBGK@Z @ 2608
??2UModel@@SAPAXIPAVUObject@@VFName@@K@Z @ 2609
??2UModel@@SAPAXIPAW4EInternal@@@Z @ 2610
??2UModifier@@SAPAXIPAVUObject@@PAGK@Z @ 2611
??2UModifier@@SAPAXIPAVUObject@@PBGK@Z @ 2612
??2UModifier@@SAPAXIPAVUObject@@VFName@@K@Z @ 2613
??2UModifier@@SAPAXIPAW4EInternal@@@Z @ 2614
??2UMotionBlur@@SAPAXIPAVUObject@@PAGK@Z @ 2615
??2UMotionBlur@@SAPAXIPAVUObject@@PBGK@Z @ 2616
??2UMotionBlur@@SAPAXIPAVUObject@@VFName@@K@Z @ 2617
??2UMotionBlur@@SAPAXIPAW4EInternal@@@Z @ 2618
??2UMotionBlurEffect@@SAPAXIPAVUObject@@PAGK@Z @ 2619
??2UMotionBlurEffect@@SAPAXIPAVUObject@@PBGK@Z @ 2620
??2UMotionBlurEffect@@SAPAXIPAVUObject@@VFName@@K@Z @ 2621
??2UMotionBlurEffect@@SAPAXIPAW4EInternal@@@Z @ 2622
??2UNetConnection@@SAPAXIPAVUObject@@PAGK@Z @ 2623
??2UNetConnection@@SAPAXIPAVUObject@@PBGK@Z @ 2624
??2UNetConnection@@SAPAXIPAVUObject@@VFName@@K@Z @ 2625
??2UNetConnection@@SAPAXIPAW4EInternal@@@Z @ 2626
??2UNetDriver@@SAPAXIPAVUObject@@PAGK@Z @ 2627
??2UNetDriver@@SAPAXIPAVUObject@@PBGK@Z @ 2628
??2UNetDriver@@SAPAXIPAVUObject@@VFName@@K@Z @ 2629
??2UNetDriver@@SAPAXIPAW4EInternal@@@Z @ 2630
??2UNullRenderDevice@@SAPAXIPAVUObject@@PAGK@Z @ 2631
??2UNullRenderDevice@@SAPAXIPAVUObject@@PBGK@Z @ 2632
??2UNullRenderDevice@@SAPAXIPAVUObject@@VFName@@K@Z @ 2633
??2UNullRenderDevice@@SAPAXIPAW4EInternal@@@Z @ 2634
??2UObjectPool@@SAPAXIPAVUObject@@PAGK@Z @ 2635
??2UObjectPool@@SAPAXIPAVUObject@@PBGK@Z @ 2636
??2UObjectPool@@SAPAXIPAVUObject@@VFName@@K@Z @ 2637
??2UObjectPool@@SAPAXIPAW4EInternal@@@Z @ 2638
??2UOpacityModifier@@SAPAXIPAVUObject@@PAGK@Z @ 2639
??2UOpacityModifier@@SAPAXIPAVUObject@@PBGK@Z @ 2640
??2UOpacityModifier@@SAPAXIPAVUObject@@VFName@@K@Z @ 2641
??2UOpacityModifier@@SAPAXIPAW4EInternal@@@Z @ 2642
??2UPackageCheckInfo@@SAPAXIPAVUObject@@PAGK@Z @ 2643
??2UPackageCheckInfo@@SAPAXIPAVUObject@@PBGK@Z @ 2644
??2UPackageCheckInfo@@SAPAXIPAVUObject@@VFName@@K@Z @ 2645
??2UPackageCheckInfo@@SAPAXIPAW4EInternal@@@Z @ 2646
??2UPackageMapLevel@@SAPAXIPAVUObject@@PAGK@Z @ 2647
??2UPackageMapLevel@@SAPAXIPAVUObject@@PBGK@Z @ 2648
??2UPackageMapLevel@@SAPAXIPAVUObject@@VFName@@K@Z @ 2649
??2UPackageMapLevel@@SAPAXIPAW4EInternal@@@Z @ 2650
??2UPalette@@SAPAXIPAVUObject@@PAGK@Z @ 2651
??2UPalette@@SAPAXIPAVUObject@@PBGK@Z @ 2652
??2UPalette@@SAPAXIPAVUObject@@VFName@@K@Z @ 2653
??2UPalette@@SAPAXIPAW4EInternal@@@Z @ 2654
??2UParticleEmitter@@SAPAXIPAVUObject@@PAGK@Z @ 2655
??2UParticleEmitter@@SAPAXIPAVUObject@@PBGK@Z @ 2656
??2UParticleEmitter@@SAPAXIPAVUObject@@VFName@@K@Z @ 2657
??2UParticleEmitter@@SAPAXIPAW4EInternal@@@Z @ 2658
??2UParticleMaterial@@SAPAXIPAVUObject@@PAGK@Z @ 2659
??2UParticleMaterial@@SAPAXIPAVUObject@@PBGK@Z @ 2660
??2UParticleMaterial@@SAPAXIPAVUObject@@VFName@@K@Z @ 2661
??2UParticleMaterial@@SAPAXIPAW4EInternal@@@Z @ 2662
??2UPlayInfo@@SAPAXIPAVUObject@@PAGK@Z @ 2663
??2UPlayInfo@@SAPAXIPAVUObject@@PBGK@Z @ 2664
??2UPlayInfo@@SAPAXIPAVUObject@@VFName@@K@Z @ 2665
??2UPlayInfo@@SAPAXIPAW4EInternal@@@Z @ 2666
??2UPlayer@@SAPAXIPAVUObject@@PAGK@Z @ 2667
??2UPlayer@@SAPAXIPAVUObject@@PBGK@Z @ 2668
??2UPlayer@@SAPAXIPAVUObject@@VFName@@K@Z @ 2669
??2UPlayer@@SAPAXIPAW4EInternal@@@Z @ 2670
??2UPlayerInput@@SAPAXIPAVUObject@@PAGK@Z @ 2671
??2UPlayerInput@@SAPAXIPAVUObject@@PBGK@Z @ 2672
??2UPlayerInput@@SAPAXIPAVUObject@@VFName@@K@Z @ 2673
??2UPlayerInput@@SAPAXIPAW4EInternal@@@Z @ 2674
??2UPolys@@SAPAXIPAVUObject@@PAGK@Z @ 2675
??2UPolys@@SAPAXIPAVUObject@@PBGK@Z @ 2676
??2UPolys@@SAPAXIPAVUObject@@VFName@@K@Z @ 2677
??2UPolys@@SAPAXIPAW4EInternal@@@Z @ 2678
??2UPostProcessEffect@@SAPAXIPAVUObject@@PAGK@Z @ 2679
??2UPostProcessEffect@@SAPAXIPAVUObject@@PBGK@Z @ 2680
??2UPostProcessEffect@@SAPAXIPAVUObject@@VFName@@K@Z @ 2681
??2UPostProcessEffect@@SAPAXIPAW4EInternal@@@Z @ 2682
??2UPrimitive@@SAPAXIPAVUObject@@PAGK@Z @ 2683
??2UPrimitive@@SAPAXIPAVUObject@@PBGK@Z @ 2684
??2UPrimitive@@SAPAXIPAVUObject@@VFName@@K@Z @ 2685
??2UPrimitive@@SAPAXIPAW4EInternal@@@Z @ 2686
??2UProceduralSound@@SAPAXIPAVUObject@@PAGK@Z @ 2687
??2UProceduralSound@@SAPAXIPAVUObject@@PBGK@Z @ 2688
??2UProceduralSound@@SAPAXIPAVUObject@@VFName@@K@Z @ 2689
??2UProceduralSound@@SAPAXIPAW4EInternal@@@Z @ 2690
??2UProjectorMaterial@@SAPAXIPAVUObject@@PAGK@Z @ 2691
??2UProjectorMaterial@@SAPAXIPAVUObject@@PBGK@Z @ 2692
??2UProjectorMaterial@@SAPAXIPAVUObject@@VFName@@K@Z @ 2693
??2UProjectorMaterial@@SAPAXIPAW4EInternal@@@Z @ 2694
??2UProjectorPrimitive@@SAPAXIPAVUObject@@PAGK@Z @ 2695
??2UProjectorPrimitive@@SAPAXIPAVUObject@@PBGK@Z @ 2696
??2UProjectorPrimitive@@SAPAXIPAVUObject@@VFName@@K@Z @ 2697
??2UProjectorPrimitive@@SAPAXIPAW4EInternal@@@Z @ 2698
??2UProxyBitmapMaterial@@SAPAXIPAVUObject@@PAGK@Z @ 2699
??2UProxyBitmapMaterial@@SAPAXIPAVUObject@@PBGK@Z @ 2700
??2UProxyBitmapMaterial@@SAPAXIPAVUObject@@VFName@@K@Z @ 2701
??2UProxyBitmapMaterial@@SAPAXIPAW4EInternal@@@Z @ 2702
??2UReachSpec@@SAPAXIPAVUObject@@PAGK@Z @ 2703
??2UReachSpec@@SAPAXIPAVUObject@@PBGK@Z @ 2704
??2UReachSpec@@SAPAXIPAVUObject@@VFName@@K@Z @ 2705
??2UReachSpec@@SAPAXIPAW4EInternal@@@Z @ 2706
??2URenderDevice@@SAPAXIPAVUObject@@PAGK@Z @ 2707
??2URenderDevice@@SAPAXIPAVUObject@@PBGK@Z @ 2708
??2URenderDevice@@SAPAXIPAVUObject@@VFName@@K@Z @ 2709
??2URenderDevice@@SAPAXIPAW4EInternal@@@Z @ 2710
??2URenderResource@@SAPAXIPAVUObject@@PAGK@Z @ 2711
??2URenderResource@@SAPAXIPAVUObject@@PBGK@Z @ 2712
??2URenderResource@@SAPAXIPAVUObject@@VFName@@K@Z @ 2713
??2URenderResource@@SAPAXIPAW4EInternal@@@Z @ 2714
??2URenderedMaterial@@SAPAXIPAVUObject@@PAGK@Z @ 2715
??2URenderedMaterial@@SAPAXIPAVUObject@@PBGK@Z @ 2716
??2URenderedMaterial@@SAPAXIPAVUObject@@VFName@@K@Z @ 2717
??2URenderedMaterial@@SAPAXIPAW4EInternal@@@Z @ 2718
??2USSAOEffect@@SAPAXIPAVUObject@@PAGK@Z @ 2719
??2USSAOEffect@@SAPAXIPAVUObject@@PBGK@Z @ 2720
??2USSAOEffect@@SAPAXIPAVUObject@@VFName@@K@Z @ 2721
??2USSAOEffect@@SAPAXIPAW4EInternal@@@Z @ 2722
??2USVehicleWheel@@SAPAXIPAVUObject@@PAGK@Z @ 2723
??2USVehicleWheel@@SAPAXIPAVUObject@@PBGK@Z @ 2724
??2USVehicleWheel@@SAPAXIPAVUObject@@VFName@@K@Z @ 2725
??2USVehicleWheel@@SAPAXIPAW4EInternal@@@Z @ 2726
??2UScriptedTexture@@SAPAXIPAVUObject@@PAGK@Z @ 2727
??2UScriptedTexture@@SAPAXIPAVUObject@@PBGK@Z @ 2728
??2UScriptedTexture@@SAPAXIPAVUObject@@VFName@@K@Z @ 2729
??2UScriptedTexture@@SAPAXIPAW4EInternal@@@Z @ 2730
??2UShader@@SAPAXIPAVUObject@@PAGK@Z @ 2731
??2UShader@@SAPAXIPAVUObject@@PBGK@Z @ 2732
??2UShader@@SAPAXIPAVUObject@@VFName@@K@Z @ 2733
??2UShader@@SAPAXIPAW4EInternal@@@Z @ 2734
??2UShadowBitmapMaterial@@SAPAXIPAVUObject@@PAGK@Z @ 2735
??2UShadowBitmapMaterial@@SAPAXIPAVUObject@@PBGK@Z @ 2736
??2UShadowBitmapMaterial@@SAPAXIPAVUObject@@VFName@@K@Z @ 2737
??2UShadowBitmapMaterial@@SAPAXIPAW4EInternal@@@Z @ 2738
??2USkeletalMesh@@SAPAXIPAVUObject@@PAGK@Z @ 2739
??2USkeletalMesh@@SAPAXIPAVUObject@@PBGK@Z @ 2740
??2USkeletalMesh@@SAPAXIPAVUObject@@VFName@@K@Z @ 2741
??2USkeletalMesh@@SAPAXIPAW4EInternal@@@Z @ 2742
??2USkeletalMeshInstance@@SAPAXIPAVUObject@@PAGK@Z @ 2743
??2USkeletalMeshInstance@@SAPAXIPAVUObject@@PBGK@Z @ 2744
??2USkeletalMeshInstance@@SAPAXIPAVUObject@@VFName@@K@Z @ 2745
??2USkeletalMeshInstance@@SAPAXIPAW4EInternal@@@Z @ 2746
??2USkinVertexBuffer@@SAPAXIPAVUObject@@PAGK@Z @ 2747
??2USkinVertexBuffer@@SAPAXIPAVUObject@@PBGK@Z @ 2748
??2USkinVertexBuffer@@SAPAXIPAVUObject@@VFName@@K@Z @ 2749
??2USkinVertexBuffer@@SAPAXIPAW4EInternal@@@Z @ 2750
??2USound@@SAPAXIPAVUObject@@PAGK@Z @ 2751
??2USound@@SAPAXIPAVUObject@@PBGK@Z @ 2752
??2USound@@SAPAXIPAVUObject@@VFName@@K@Z @ 2753
??2USound@@SAPAXIPAW4EInternal@@@Z @ 2754
??2USoundGroup@@SAPAXIPAVUObject@@PAGK@Z @ 2755
??2USoundGroup@@SAPAXIPAVUObject@@PBGK@Z @ 2756
??2USoundGroup@@SAPAXIPAVUObject@@VFName@@K@Z @ 2757
??2USoundGroup@@SAPAXIPAW4EInternal@@@Z @ 2758
??2USparkEmitter@@SAPAXIPAVUObject@@PAGK@Z @ 2759
??2USparkEmitter@@SAPAXIPAVUObject@@PBGK@Z @ 2760
??2USparkEmitter@@SAPAXIPAVUObject@@VFName@@K@Z @ 2761
??2USparkEmitter@@SAPAXIPAW4EInternal@@@Z @ 2762
??2USpline@@SAPAXIPAVUObject@@PAGK@Z @ 2763
??2USpline@@SAPAXIPAVUObject@@PBGK@Z @ 2764
??2USpline@@SAPAXIPAVUObject@@VFName@@K@Z @ 2765
??2USpline@@SAPAXIPAW4EInternal@@@Z @ 2766
??2USpriteEmitter@@SAPAXIPAVUObject@@PAGK@Z @ 2767
??2USpriteEmitter@@SAPAXIPAVUObject@@PBGK@Z @ 2768
??2USpriteEmitter@@SAPAXIPAVUObject@@VFName@@K@Z @ 2769
??2USpriteEmitter@@SAPAXIPAW4EInternal@@@Z @ 2770
??2UStaticMesh@@SAPAXIPAVUObject@@PAGK@Z @ 2771
??2UStaticMesh@@SAPAXIPAVUObject@@PBGK@Z @ 2772
??2UStaticMesh@@SAPAXIPAVUObject@@VFName@@K@Z @ 2773
??2UStaticMesh@@SAPAXIPAW4EInternal@@@Z @ 2774
??2UStaticMeshInstance@@SAPAXIPAVUObject@@PAGK@Z @ 2775
??2UStaticMeshInstance@@SAPAXIPAVUObject@@PBGK@Z @ 2776
??2UStaticMeshInstance@@SAPAXIPAVUObject@@VFName@@K@Z @ 2777
??2UStaticMeshInstance@@SAPAXIPAW4EInternal@@@Z @ 2778
??2UStream@@SAPAXIPAVUObject@@PAGK@Z @ 2779
??2UStream@@SAPAXIPAVUObject@@PBGK@Z @ 2780
??2UStream@@SAPAXIPAVUObject@@VFName@@K@Z @ 2781
??2UStream@@SAPAXIPAW4EInternal@@@Z @ 2782
??2UStreamBase@@SAPAXIPAVUObject@@PAGK@Z @ 2783
??2UStreamBase@@SAPAXIPAVUObject@@PBGK@Z @ 2784
??2UStreamBase@@SAPAXIPAVUObject@@VFName@@K@Z @ 2785
??2UStreamBase@@SAPAXIPAW4EInternal@@@Z @ 2786
??2UStreamInteraction@@SAPAXIPAVUObject@@PAGK@Z @ 2787
??2UStreamInteraction@@SAPAXIPAVUObject@@PBGK@Z @ 2788
??2UStreamInteraction@@SAPAXIPAVUObject@@VFName@@K@Z @ 2789
??2UStreamInteraction@@SAPAXIPAW4EInternal@@@Z @ 2790
??2UStreamInterface@@SAPAXIPAVUObject@@PAGK@Z @ 2791
??2UStreamInterface@@SAPAXIPAVUObject@@PBGK@Z @ 2792
??2UStreamInterface@@SAPAXIPAVUObject@@VFName@@K@Z @ 2793
??2UStreamInterface@@SAPAXIPAW4EInternal@@@Z @ 2794
??2UStreamTag@@SAPAXIPAVUObject@@PAGK@Z @ 2795
??2UStreamTag@@SAPAXIPAVUObject@@PBGK@Z @ 2796
??2UStreamTag@@SAPAXIPAVUObject@@VFName@@K@Z @ 2797
??2UStreamTag@@SAPAXIPAW4EInternal@@@Z @ 2798
??2USubActionCameraEffect@@SAPAXIPAVUObject@@PAGK@Z @ 2799
??2USubActionCameraEffect@@SAPAXIPAVUObject@@PBGK@Z @ 2800
??2USubActionCameraEffect@@SAPAXIPAVUObject@@VFName@@K@Z @ 2801
??2USubActionCameraEffect@@SAPAXIPAW4EInternal@@@Z @ 2802
??2USubActionCameraShake@@SAPAXIPAVUObject@@PAGK@Z @ 2803
??2USubActionCameraShake@@SAPAXIPAVUObject@@PBGK@Z @ 2804
??2USubActionCameraShake@@SAPAXIPAVUObject@@VFName@@K@Z @ 2805
??2USubActionCameraShake@@SAPAXIPAW4EInternal@@@Z @ 2806
??2USubActionFOV@@SAPAXIPAVUObject@@PAGK@Z @ 2807
??2USubActionFOV@@SAPAXIPAVUObject@@PBGK@Z @ 2808
??2USubActionFOV@@SAPAXIPAVUObject@@VFName@@K@Z @ 2809
??2USubActionFOV@@SAPAXIPAW4EInternal@@@Z @ 2810
??2USubActionFade@@SAPAXIPAVUObject@@PAGK@Z @ 2811
??2USubActionFade@@SAPAXIPAVUObject@@PBGK@Z @ 2812
??2USubActionFade@@SAPAXIPAVUObject@@VFName@@K@Z @ 2813
??2USubActionFade@@SAPAXIPAW4EInternal@@@Z @ 2814
??2USubActionGameSpeed@@SAPAXIPAVUObject@@PAGK@Z @ 2815
??2USubActionGameSpeed@@SAPAXIPAVUObject@@PBGK@Z @ 2816
??2USubActionGameSpeed@@SAPAXIPAVUObject@@VFName@@K@Z @ 2817
??2USubActionGameSpeed@@SAPAXIPAW4EInternal@@@Z @ 2818
??2USubActionOrientation@@SAPAXIPAVUObject@@PAGK@Z @ 2819
??2USubActionOrientation@@SAPAXIPAVUObject@@PBGK@Z @ 2820
??2USubActionOrientation@@SAPAXIPAVUObject@@VFName@@K@Z @ 2821
??2USubActionOrientation@@SAPAXIPAW4EInternal@@@Z @ 2822
??2USubActionSceneSpeed@@SAPAXIPAVUObject@@PAGK@Z @ 2823
??2USubActionSceneSpeed@@SAPAXIPAVUObject@@PBGK@Z @ 2824
??2USubActionSceneSpeed@@SAPAXIPAVUObject@@VFName@@K@Z @ 2825
??2USubActionSceneSpeed@@SAPAXIPAW4EInternal@@@Z @ 2826
??2USubActionSubTitle@@SAPAXIPAVUObject@@PAGK@Z @ 2827
??2USubActionSubTitle@@SAPAXIPAVUObject@@PBGK@Z @ 2828
??2USubActionSubTitle@@SAPAXIPAVUObject@@VFName@@K@Z @ 2829
??2USubActionSubTitle@@SAPAXIPAW4EInternal@@@Z @ 2830
??2USubActionTrigger@@SAPAXIPAVUObject@@PAGK@Z @ 2831
??2USubActionTrigger@@SAPAXIPAVUObject@@PBGK@Z @ 2832
??2USubActionTrigger@@SAPAXIPAVUObject@@VFName@@K@Z @ 2833
??2USubActionTrigger@@SAPAXIPAW4EInternal@@@Z @ 2834
??2UTerrainMaterial@@SAPAXIPAVUObject@@PAGK@Z @ 2835
??2UTerrainMaterial@@SAPAXIPAVUObject@@PBGK@Z @ 2836
??2UTerrainMaterial@@SAPAXIPAVUObject@@VFName@@K@Z @ 2837
??2UTerrainMaterial@@SAPAXIPAW4EInternal@@@Z @ 2838
??2UTerrainPrimitive@@SAPAXIPAVUObject@@PAGK@Z @ 2839
??2UTerrainPrimitive@@SAPAXIPAVUObject@@PBGK@Z @ 2840
??2UTerrainPrimitive@@SAPAXIPAVUObject@@VFName@@K@Z @ 2841
??2UTerrainPrimitive@@SAPAXIPAW4EInternal@@@Z @ 2842
??2UTerrainSector@@SAPAXIPAVUObject@@PAGK@Z @ 2843
??2UTerrainSector@@SAPAXIPAVUObject@@PBGK@Z @ 2844
??2UTerrainSector@@SAPAXIPAVUObject@@VFName@@K@Z @ 2845
??2UTerrainSector@@SAPAXIPAW4EInternal@@@Z @ 2846
??2UTexCoordMaterial@@SAPAXIPAVUObject@@PAGK@Z @ 2847
??2UTexCoordMaterial@@SAPAXIPAVUObject@@PBGK@Z @ 2848
??2UTexCoordMaterial@@SAPAXIPAVUObject@@VFName@@K@Z @ 2849
??2UTexCoordMaterial@@SAPAXIPAW4EInternal@@@Z @ 2850
??2UTexCoordSource@@SAPAXIPAVUObject@@PAGK@Z @ 2851
??2UTexCoordSource@@SAPAXIPAVUObject@@PBGK@Z @ 2852
??2UTexCoordSource@@SAPAXIPAVUObject@@VFName@@K@Z @ 2853
??2UTexCoordSource@@SAPAXIPAW4EInternal@@@Z @ 2854
??2UTexEnvMap@@SAPAXIPAVUObject@@PAGK@Z @ 2855
??2UTexEnvMap@@SAPAXIPAVUObject@@PBGK@Z @ 2856
??2UTexEnvMap@@SAPAXIPAVUObject@@VFName@@K@Z @ 2857
??2UTexEnvMap@@SAPAXIPAW4EInternal@@@Z @ 2858
??2UTexMatrix@@SAPAXIPAVUObject@@PAGK@Z @ 2859
??2UTexMatrix@@SAPAXIPAVUObject@@PBGK@Z @ 2860
??2UTexMatrix@@SAPAXIPAVUObject@@VFName@@K@Z @ 2861
??2UTexMatrix@@SAPAXIPAW4EInternal@@@Z @ 2862
??2UTexModifier@@SAPAXIPAVUObject@@PAGK@Z @ 2863
??2UTexModifier@@SAPAXIPAVUObject@@PBGK@Z @ 2864
??2UTexModifier@@SAPAXIPAVUObject@@VFName@@K@Z @ 2865
??2UTexModifier@@SAPAXIPAW4EInternal@@@Z @ 2866
??2UTexOscillator@@SAPAXIPAVUObject@@PAGK@Z @ 2867
??2UTexOscillator@@SAPAXIPAVUObject@@PBGK@Z @ 2868
??2UTexOscillator@@SAPAXIPAVUObject@@VFName@@K@Z @ 2869
??2UTexOscillator@@SAPAXIPAW4EInternal@@@Z @ 2870
??2UTexOscillatorTriggered@@SAPAXIPAVUObject@@PAGK@Z @ 2871
??2UTexOscillatorTriggered@@SAPAXIPAVUObject@@PBGK@Z @ 2872
??2UTexOscillatorTriggered@@SAPAXIPAVUObject@@VFName@@K@Z @ 2873
??2UTexOscillatorTriggered@@SAPAXIPAW4EInternal@@@Z @ 2874
??2UTexPanner@@SAPAXIPAVUObject@@PAGK@Z @ 2875
??2UTexPanner@@SAPAXIPAVUObject@@PBGK@Z @ 2876
??2UTexPanner@@SAPAXIPAVUObject@@VFName@@K@Z @ 2877
??2UTexPanner@@SAPAXIPAW4EInternal@@@Z @ 2878
??2UTexPannerTriggered@@SAPAXIPAVUObject@@PAGK@Z @ 2879
??2UTexPannerTriggered@@SAPAXIPAVUObject@@PBGK@Z @ 2880
??2UTexPannerTriggered@@SAPAXIPAVUObject@@VFName@@K@Z @ 2881
??2UTexPannerTriggered@@SAPAXIPAW4EInternal@@@Z @ 2882
??2UTexRotator@@SAPAXIPAVUObject@@PAGK@Z @ 2883
??2UTexRotator@@SAPAXIPAVUObject@@PBGK@Z @ 2884
??2UTexRotator@@SAPAXIPAVUObject@@VFName@@K@Z @ 2885
??2UTexRotator@@SAPAXIPAW4EInternal@@@Z @ 2886
??2UTexScaler@@SAPAXIPAVUObject@@PAGK@Z @ 2887
??2UTexScaler@@SAPAXIPAVUObject@@PBGK@Z @ 2888
??2UTexScaler@@SAPAXIPAVUObject@@VFName@@K@Z @ 2889
??2UTexScaler@@SAPAXIPAW4EInternal@@@Z @ 2890
??2UTextToSpeechAlias@@SAPAXIPAVUObject@@PAGK@Z @ 2891
??2UTextToSpeechAlias@@SAPAXIPAVUObject@@PBGK@Z @ 2892
??2UTextToSpeechAlias@@SAPAXIPAVUObject@@VFName@@K@Z @ 2893
??2UTextToSpeechAlias@@SAPAXIPAW4EInternal@@@Z @ 2894
??2UTexture@@SAPAXIPAVUObject@@PAGK@Z @ 2895
??2UTexture@@SAPAXIPAVUObject@@PBGK@Z @ 2896
??2UTexture@@SAPAXIPAVUObject@@VFName@@K@Z @ 2897
??2UTexture@@SAPAXIPAW4EInternal@@@Z @ 2898
??2UTickChecker@@SAPAXIPAVUObject@@PAGK@Z @ 2899
??2UTickChecker@@SAPAXIPAVUObject@@PBGK@Z @ 2900
??2UTickChecker@@SAPAXIPAVUObject@@VFName@@K@Z @ 2901
??2UTickChecker@@SAPAXIPAW4EInternal@@@Z @ 2902
??2UTrailEmitter@@SAPAXIPAVUObject@@PAGK@Z @ 2903
??2UTrailEmitter@@SAPAXIPAVUObject@@PBGK@Z @ 2904
??2UTrailEmitter@@SAPAXIPAVUObject@@VFName@@K@Z @ 2905
??2UTrailEmitter@@SAPAXIPAW4EInternal@@@Z @ 2906
??2UUserzoneInfo@@SAPAXIPAVUObject@@PAGK@Z @ 2907
??2UUserzoneInfo@@SAPAXIPAVUObject@@PBGK@Z @ 2908
??2UUserzoneInfo@@SAPAXIPAVUObject@@VFName@@K@Z @ 2909
??2UUserzoneInfo@@SAPAXIPAW4EInternal@@@Z @ 2910
??2UVariableTexPanner@@SAPAXIPAVUObject@@PAGK@Z @ 2911
??2UVariableTexPanner@@SAPAXIPAVUObject@@PBGK@Z @ 2912
??2UVariableTexPanner@@SAPAXIPAVUObject@@VFName@@K@Z @ 2913
??2UVariableTexPanner@@SAPAXIPAW4EInternal@@@Z @ 2914
??2UVertMesh@@SAPAXIPAVUObject@@PAGK@Z @ 2915
??2UVertMesh@@SAPAXIPAVUObject@@PBGK@Z @ 2916
??2UVertMesh@@SAPAXIPAVUObject@@VFName@@K@Z @ 2917
??2UVertMesh@@SAPAXIPAW4EInternal@@@Z @ 2918
??2UVertMeshInstance@@SAPAXIPAVUObject@@PAGK@Z @ 2919
??2UVertMeshInstance@@SAPAXIPAVUObject@@PBGK@Z @ 2920
??2UVertMeshInstance@@SAPAXIPAVUObject@@VFName@@K@Z @ 2921
??2UVertMeshInstance@@SAPAXIPAW4EInternal@@@Z @ 2922
??2UVertexBuffer@@SAPAXIPAVUObject@@PAGK@Z @ 2923
??2UVertexBuffer@@SAPAXIPAVUObject@@PBGK@Z @ 2924
??2UVertexBuffer@@SAPAXIPAVUObject@@VFName@@K@Z @ 2925
??2UVertexBuffer@@SAPAXIPAW4EInternal@@@Z @ 2926
??2UVertexColor@@SAPAXIPAVUObject@@PAGK@Z @ 2927
??2UVertexColor@@SAPAXIPAVUObject@@PBGK@Z @ 2928
??2UVertexColor@@SAPAXIPAVUObject@@VFName@@K@Z @ 2929
??2UVertexColor@@SAPAXIPAW4EInternal@@@Z @ 2930
??2UVertexStreamBase@@SAPAXIPAVUObject@@PAGK@Z @ 2931
??2UVertexStreamBase@@SAPAXIPAVUObject@@PBGK@Z @ 2932
??2UVertexStreamBase@@SAPAXIPAVUObject@@VFName@@K@Z @ 2933
??2UVertexStreamBase@@SAPAXIPAW4EInternal@@@Z @ 2934
??2UVertexStreamCOLOR@@SAPAXIPAVUObject@@PAGK@Z @ 2935
??2UVertexStreamCOLOR@@SAPAXIPAVUObject@@PBGK@Z @ 2936
??2UVertexStreamCOLOR@@SAPAXIPAVUObject@@VFName@@K@Z @ 2937
??2UVertexStreamCOLOR@@SAPAXIPAW4EInternal@@@Z @ 2938
??2UVertexStreamPosNormTex@@SAPAXIPAVUObject@@PAGK@Z @ 2939
??2UVertexStreamPosNormTex@@SAPAXIPAVUObject@@PBGK@Z @ 2940
??2UVertexStreamPosNormTex@@SAPAXIPAVUObject@@VFName@@K@Z @ 2941
??2UVertexStreamPosNormTex@@SAPAXIPAW4EInternal@@@Z @ 2942
??2UVertexStreamUV@@SAPAXIPAVUObject@@PAGK@Z @ 2943
??2UVertexStreamUV@@SAPAXIPAVUObject@@PBGK@Z @ 2944
??2UVertexStreamUV@@SAPAXIPAVUObject@@VFName@@K@Z @ 2945
??2UVertexStreamUV@@SAPAXIPAW4EInternal@@@Z @ 2946
??2UVertexStreamVECTOR@@SAPAXIPAVUObject@@PAGK@Z @ 2947
??2UVertexStreamVECTOR@@SAPAXIPAVUObject@@PBGK@Z @ 2948
??2UVertexStreamVECTOR@@SAPAXIPAVUObject@@VFName@@K@Z @ 2949
??2UVertexStreamVECTOR@@SAPAXIPAW4EInternal@@@Z @ 2950
??2UViewport@@SAPAXIPAVUObject@@PAGK@Z @ 2951
??2UViewport@@SAPAXIPAVUObject@@PBGK@Z @ 2952
??2UViewport@@SAPAXIPAVUObject@@VFName@@K@Z @ 2953
??2UViewport@@SAPAXIPAW4EInternal@@@Z @ 2954
??2UVisibilityItem@@SAPAXIPAVUObject@@PAGK@Z @ 2955
??2UVisibilityItem@@SAPAXIPAVUObject@@PBGK@Z @ 2956
??2UVisibilityItem@@SAPAXIPAVUObject@@VFName@@K@Z @ 2957
??2UVisibilityItem@@SAPAXIPAW4EInternal@@@Z @ 2958
??2UVisibilityItemArray@@SAPAXIPAVUObject@@PAGK@Z @ 2959
??2UVisibilityItemArray@@SAPAXIPAVUObject@@PBGK@Z @ 2960
??2UVisibilityItemArray@@SAPAXIPAVUObject@@VFName@@K@Z @ 2961
??2UVisibilityItemArray@@SAPAXIPAW4EInternal@@@Z @ 2962
??2UVoiceChannel@@SAPAXIPAVUObject@@PAGK@Z @ 2963
??2UVoiceChannel@@SAPAXIPAVUObject@@PBGK@Z @ 2964
??2UVoiceChannel@@SAPAXIPAVUObject@@VFName@@K@Z @ 2965
??2UVoiceChannel@@SAPAXIPAW4EInternal@@@Z @ 2966
??2UWMFile@@SAPAXIPAVUObject@@PAGK@Z @ 2967
??2UWMFile@@SAPAXIPAVUObject@@PBGK@Z @ 2968
??2UWMFile@@SAPAXIPAVUObject@@VFName@@K@Z @ 2969
??2UWMFile@@SAPAXIPAW4EInternal@@@Z @ 2970
??2UWebLog@@SAPAXIPAVUObject@@PAGK@Z @ 2971
??2UWebLog@@SAPAXIPAVUObject@@PBGK@Z @ 2972
??2UWebLog@@SAPAXIPAVUObject@@VFName@@K@Z @ 2973
??2UWebLog@@SAPAXIPAW4EInternal@@@Z @ 2974
??2UWebzenShopItemListDownloader@@SAPAXIPAVUObject@@PAGK@Z @ 2975
??2UWebzenShopItemListDownloader@@SAPAXIPAVUObject@@PBGK@Z @ 2976
??2UWebzenShopItemListDownloader@@SAPAXIPAVUObject@@VFName@@K@Z @ 2977
??2UWebzenShopItemListDownloader@@SAPAXIPAW4EInternal@@@Z @ 2978
??2UwBTLoadingScreenDrawer@@SAPAXIPAVUObject@@PAGK@Z @ 2979
??2UwBTLoadingScreenDrawer@@SAPAXIPAVUObject@@PBGK@Z @ 2980
??2UwBTLoadingScreenDrawer@@SAPAXIPAVUObject@@VFName@@K@Z @ 2981
??2UwBTLoadingScreenDrawer@@SAPAXIPAW4EInternal@@@Z @ 2982
??2UwBtrIni@@SAPAXIPAVUObject@@PAGK@Z @ 2983
??2UwBtrIni@@SAPAXIPAVUObject@@PBGK@Z @ 2984
??2UwBtrIni@@SAPAXIPAVUObject@@VFName@@K@Z @ 2985
??2UwBtrIni@@SAPAXIPAW4EInternal@@@Z @ 2986
??2UwCharacterManager@@SAPAXIPAVUObject@@PAGK@Z @ 2987
??2UwCharacterManager@@SAPAXIPAVUObject@@PBGK@Z @ 2988
??2UwCharacterManager@@SAPAXIPAVUObject@@VFName@@K@Z @ 2989
??2UwCharacterManager@@SAPAXIPAW4EInternal@@@Z @ 2990
??2UwClanLevelInfoParam@@SAPAXIPAVUObject@@PAGK@Z @ 2991
??2UwClanLevelInfoParam@@SAPAXIPAVUObject@@PBGK@Z @ 2992
??2UwClanLevelInfoParam@@SAPAXIPAVUObject@@VFName@@K@Z @ 2993
??2UwClanLevelInfoParam@@SAPAXIPAW4EInternal@@@Z @ 2994
??2UwClanMarkParam@@SAPAXIPAVUObject@@PAGK@Z @ 2995
??2UwClanMarkParam@@SAPAXIPAVUObject@@PBGK@Z @ 2996
??2UwClanMarkParam@@SAPAXIPAVUObject@@VFName@@K@Z @ 2997
??2UwClanMarkParam@@SAPAXIPAW4EInternal@@@Z @ 2998
??2UwDailyQuestParam@@SAPAXIPAVUObject@@PAGK@Z @ 2999
??2UwDailyQuestParam@@SAPAXIPAVUObject@@PBGK@Z @ 3000
??2UwDailyQuestParam@@SAPAXIPAVUObject@@VFName@@K@Z @ 3001
??2UwDailyQuestParam@@SAPAXIPAW4EInternal@@@Z @ 3002
??2UwDefenceGameParam@@SAPAXIPAVUObject@@PAGK@Z @ 3003
??2UwDefenceGameParam@@SAPAXIPAVUObject@@PBGK@Z @ 3004
??2UwDefenceGameParam@@SAPAXIPAVUObject@@VFName@@K@Z @ 3005
??2UwDefenceGameParam@@SAPAXIPAW4EInternal@@@Z @ 3006
??2UwGameManager@@SAPAXIPAVUObject@@PAGK@Z @ 3007
??2UwGameManager@@SAPAXIPAVUObject@@PBGK@Z @ 3008
??2UwGameManager@@SAPAXIPAVUObject@@VFName@@K@Z @ 3009
??2UwGameManager@@SAPAXIPAW4EInternal@@@Z @ 3010
??2UwInstantFire@@SAPAXIPAVUObject@@PAGK@Z @ 3011
??2UwInstantFire@@SAPAXIPAVUObject@@PBGK@Z @ 3012
??2UwInstantFire@@SAPAXIPAVUObject@@VFName@@K@Z @ 3013
??2UwInstantFire@@SAPAXIPAW4EInternal@@@Z @ 3014
??2UwInventory@@SAPAXIPAVUObject@@PAGK@Z @ 3015
??2UwInventory@@SAPAXIPAVUObject@@PBGK@Z @ 3016
??2UwInventory@@SAPAXIPAVUObject@@VFName@@K@Z @ 3017
??2UwInventory@@SAPAXIPAW4EInternal@@@Z @ 3018
??2UwItemBaseParam@@SAPAXIPAVUObject@@PAGK@Z @ 3019
??2UwItemBaseParam@@SAPAXIPAVUObject@@PBGK@Z @ 3020
??2UwItemBaseParam@@SAPAXIPAVUObject@@VFName@@K@Z @ 3021
??2UwItemBaseParam@@SAPAXIPAW4EInternal@@@Z @ 3022
??2UwItemBoxParam@@SAPAXIPAVUObject@@PAGK@Z @ 3023
??2UwItemBoxParam@@SAPAXIPAVUObject@@PBGK@Z @ 3024
??2UwItemBoxParam@@SAPAXIPAVUObject@@VFName@@K@Z @ 3025
??2UwItemBoxParam@@SAPAXIPAW4EInternal@@@Z @ 3026
??2UwItemResourceParam@@SAPAXIPAVUObject@@PAGK@Z @ 3027
??2UwItemResourceParam@@SAPAXIPAVUObject@@PBGK@Z @ 3028
??2UwItemResourceParam@@SAPAXIPAVUObject@@VFName@@K@Z @ 3029
??2UwItemResourceParam@@SAPAXIPAW4EInternal@@@Z @ 3030
??2UwLevelInfoParam@@SAPAXIPAVUObject@@PAGK@Z @ 3031
??2UwLevelInfoParam@@SAPAXIPAVUObject@@PBGK@Z @ 3032
??2UwLevelInfoParam@@SAPAXIPAVUObject@@VFName@@K@Z @ 3033
??2UwLevelInfoParam@@SAPAXIPAW4EInternal@@@Z @ 3034
??2UwMapInfo@@SAPAXIPAVUObject@@PAGK@Z @ 3035
??2UwMapInfo@@SAPAXIPAVUObject@@PBGK@Z @ 3036
??2UwMapInfo@@SAPAXIPAVUObject@@VFName@@K@Z @ 3037
??2UwMapInfo@@SAPAXIPAW4EInternal@@@Z @ 3038
??2UwMatchMaker@@SAPAXIPAVUObject@@PAGK@Z @ 3039
??2UwMatchMaker@@SAPAXIPAVUObject@@PBGK@Z @ 3040
??2UwMatchMaker@@SAPAXIPAVUObject@@VFName@@K@Z @ 3041
??2UwMatchMaker@@SAPAXIPAW4EInternal@@@Z @ 3042
??2UwModeDOAParam@@SAPAXIPAVUObject@@PAGK@Z @ 3043
??2UwModeDOAParam@@SAPAXIPAVUObject@@PBGK@Z @ 3044
??2UwModeDOAParam@@SAPAXIPAVUObject@@VFName@@K@Z @ 3045
??2UwModeDOAParam@@SAPAXIPAW4EInternal@@@Z @ 3046
??2UwMyPlayerStatus@@SAPAXIPAVUObject@@PAGK@Z @ 3047
??2UwMyPlayerStatus@@SAPAXIPAVUObject@@PBGK@Z @ 3048
??2UwMyPlayerStatus@@SAPAXIPAVUObject@@VFName@@K@Z @ 3049
??2UwMyPlayerStatus@@SAPAXIPAW4EInternal@@@Z @ 3050
??2UwNPCActionGroupParam@@SAPAXIPAVUObject@@PAGK@Z @ 3051
??2UwNPCActionGroupParam@@SAPAXIPAVUObject@@PBGK@Z @ 3052
??2UwNPCActionGroupParam@@SAPAXIPAVUObject@@VFName@@K@Z @ 3053
??2UwNPCActionGroupParam@@SAPAXIPAW4EInternal@@@Z @ 3054
??2UwNPCItemGroupParam@@SAPAXIPAVUObject@@PAGK@Z @ 3055
??2UwNPCItemGroupParam@@SAPAXIPAVUObject@@PBGK@Z @ 3056
??2UwNPCItemGroupParam@@SAPAXIPAVUObject@@VFName@@K@Z @ 3057
??2UwNPCItemGroupParam@@SAPAXIPAW4EInternal@@@Z @ 3058
??2UwNPCNameGroupParam@@SAPAXIPAVUObject@@PAGK@Z @ 3059
??2UwNPCNameGroupParam@@SAPAXIPAVUObject@@PBGK@Z @ 3060
??2UwNPCNameGroupParam@@SAPAXIPAVUObject@@VFName@@K@Z @ 3061
??2UwNPCNameGroupParam@@SAPAXIPAW4EInternal@@@Z @ 3062
??2UwNPCParam@@SAPAXIPAVUObject@@PAGK@Z @ 3063
??2UwNPCParam@@SAPAXIPAVUObject@@PBGK@Z @ 3064
??2UwNPCParam@@SAPAXIPAVUObject@@VFName@@K@Z @ 3065
??2UwNPCParam@@SAPAXIPAW4EInternal@@@Z @ 3066
??2UwNPCSpawnParam@@SAPAXIPAVUObject@@PAGK@Z @ 3067
??2UwNPCSpawnParam@@SAPAXIPAVUObject@@PBGK@Z @ 3068
??2UwNPCSpawnParam@@SAPAXIPAVUObject@@VFName@@K@Z @ 3069
??2UwNPCSpawnParam@@SAPAXIPAW4EInternal@@@Z @ 3070
??2UwPaintGroupParam@@SAPAXIPAVUObject@@PAGK@Z @ 3071
??2UwPaintGroupParam@@SAPAXIPAVUObject@@PBGK@Z @ 3072
??2UwPaintGroupParam@@SAPAXIPAVUObject@@VFName@@K@Z @ 3073
??2UwPaintGroupParam@@SAPAXIPAW4EInternal@@@Z @ 3074
??2UwPartsGroupParam@@SAPAXIPAVUObject@@PAGK@Z @ 3075
??2UwPartsGroupParam@@SAPAXIPAVUObject@@PBGK@Z @ 3076
??2UwPartsGroupParam@@SAPAXIPAVUObject@@VFName@@K@Z @ 3077
??2UwPartsGroupParam@@SAPAXIPAW4EInternal@@@Z @ 3078
??2UwPromotionParam@@SAPAXIPAVUObject@@PAGK@Z @ 3079
??2UwPromotionParam@@SAPAXIPAVUObject@@PBGK@Z @ 3080
??2UwPromotionParam@@SAPAXIPAVUObject@@VFName@@K@Z @ 3081
??2UwPromotionParam@@SAPAXIPAW4EInternal@@@Z @ 3082
??2UwQuestParam@@SAPAXIPAVUObject@@PAGK@Z @ 3083
??2UwQuestParam@@SAPAXIPAVUObject@@PBGK@Z @ 3084
??2UwQuestParam@@SAPAXIPAVUObject@@VFName@@K@Z @ 3085
??2UwQuestParam@@SAPAXIPAW4EInternal@@@Z @ 3086
??2UwRandBoxParam@@SAPAXIPAVUObject@@PAGK@Z @ 3087
??2UwRandBoxParam@@SAPAXIPAVUObject@@PBGK@Z @ 3088
??2UwRandBoxParam@@SAPAXIPAVUObject@@VFName@@K@Z @ 3089
??2UwRandBoxParam@@SAPAXIPAW4EInternal@@@Z @ 3090
??2UwSkillBaseParam@@SAPAXIPAVUObject@@PAGK@Z @ 3091
??2UwSkillBaseParam@@SAPAXIPAVUObject@@PBGK@Z @ 3092
??2UwSkillBaseParam@@SAPAXIPAVUObject@@VFName@@K@Z @ 3093
??2UwSkillBaseParam@@SAPAXIPAW4EInternal@@@Z @ 3094
??2UwSkills@@SAPAXIPAVUObject@@PAGK@Z @ 3095
??2UwSkills@@SAPAXIPAVUObject@@PBGK@Z @ 3096
??2UwSkills@@SAPAXIPAVUObject@@VFName@@K@Z @ 3097
??2UwSkills@@SAPAXIPAW4EInternal@@@Z @ 3098
??2UwWeaponBaseParams@@SAPAXIPAVUObject@@PAGK@Z @ 3099
??2UwWeaponBaseParams@@SAPAXIPAVUObject@@PBGK@Z @ 3100
??2UwWeaponBaseParams@@SAPAXIPAVUObject@@VFName@@K@Z @ 3101
??2UwWeaponBaseParams@@SAPAXIPAW4EInternal@@@Z @ 3102
??2UwWeaponCustomInfoParam@@SAPAXIPAVUObject@@PAGK@Z @ 3103
??2UwWeaponCustomInfoParam@@SAPAXIPAVUObject@@PBGK@Z @ 3104
??2UwWeaponCustomInfoParam@@SAPAXIPAVUObject@@VFName@@K@Z @ 3105
??2UwWeaponCustomInfoParam@@SAPAXIPAW4EInternal@@@Z @ 3106
??2UwWeaponCustomPartsParam@@SAPAXIPAVUObject@@PAGK@Z @ 3107
??2UwWeaponCustomPartsParam@@SAPAXIPAVUObject@@PBGK@Z @ 3108
??2UwWeaponCustomPartsParam@@SAPAXIPAVUObject@@VFName@@K@Z @ 3109
??2UwWeaponCustomPartsParam@@SAPAXIPAW4EInternal@@@Z @ 3110
??2UwWeaponFire@@SAPAXIPAVUObject@@PAGK@Z @ 3111
??2UwWeaponFire@@SAPAXIPAVUObject@@PBGK@Z @ 3112
??2UwWeaponFire@@SAPAXIPAVUObject@@VFName@@K@Z @ 3113
??2UwWeaponFire@@SAPAXIPAW4EInternal@@@Z @ 3114
??2UwWeaponManager@@SAPAXIPAVUObject@@PAGK@Z @ 3115
??2UwWeaponManager@@SAPAXIPAVUObject@@PBGK@Z @ 3116
??2UwWeaponManager@@SAPAXIPAVUObject@@VFName@@K@Z @ 3117
??2UwWeaponManager@@SAPAXIPAW4EInternal@@@Z @ 3118
??2UwWeaponParams@@SAPAXIPAVUObject@@PAGK@Z @ 3119
??2UwWeaponParams@@SAPAXIPAVUObject@@PBGK@Z @ 3120
??2UwWeaponParams@@SAPAXIPAVUObject@@VFName@@K@Z @ 3121
??2UwWeaponParams@@SAPAXIPAW4EInternal@@@Z @ 3122
??4?$TArray@E@@QAEAAV0@ABV0@@Z @ 3123
??4?$TLazyArray@E@@QAEAAV0@ABV0@@Z @ 3124
??4AAIController@@QAEAAV0@ABV0@@Z @ 3125
??4AAIMarker@@QAEAAV0@ABV0@@Z @ 3126
??4AAIScript@@QAEAAV0@ABV0@@Z @ 3127
??4AActor@@QAEAAV0@ABV0@@Z @ 3128
??4AAmbientLightVolume@@QAEAAV0@ABV0@@Z @ 3129
??4AAmbientSound@@QAEAAV0@ABV0@@Z @ 3130
??4AAmmo@@QAEAAV0@ABV0@@Z @ 3131
??4AAnnouncerVoice@@QAEAAV0@ABV0@@Z @ 3132
??4AAntiPortalActor@@QAEAAV0@ABV0@@Z @ 3133
??4AAutoDoor@@QAEAAV0@ABV0@@Z @ 3134
??4AAutoLadder@@QAEAAV0@ABV0@@Z @ 3135
??4AAvoidMarker@@QAEAAV0@ABV0@@Z @ 3136
??4ABlockingVolume@@QAEAAV0@ABV0@@Z @ 3137
??4ABrush@@QAEAAV0@ABV0@@Z @ 3138
??4ACamera@@QAEAAV0@ABV0@@Z @ 3139
??4AClipMarker@@QAEAAV0@ABV0@@Z @ 3140
??4AController@@QAEAAV0@ABV0@@Z @ 3141
??4ACubemapVolume@@QAEAAV0@ABV0@@Z @ 3142
??4ADamageType@@QAEAAV0@ABV0@@Z @ 3143
??4ADecoVolumeObject@@QAEAAV0@ABV0@@Z @ 3144
??4ADecoration@@QAEAAV0@ABV0@@Z @ 3145
??4ADecorationList@@QAEAAV0@ABV0@@Z @ 3146
??4ADefaultPhysicsVolume@@QAEAAV0@ABV0@@Z @ 3147
??4ADoor@@QAEAAV0@ABV0@@Z @ 3148
??4AEmitter@@QAEAAV0@ABV0@@Z @ 3149
??4AFileLog@@QAEAAV0@ABV0@@Z @ 3150
??4AFluidSurfaceInfo@@QAEAAV0@ABV0@@Z @ 3151
??4AFluidSurfaceOscillator@@QAEAAV0@ABV0@@Z @ 3152
??4AFlyingPathNode@@QAEAAV0@ABV0@@Z @ 3153
??4AGameInfo@@QAEAAV0@ABV0@@Z @ 3154
??4AGameReplicationInfo@@QAEAAV0@ABV0@@Z @ 3155
??4AGameStats@@QAEAAV0@ABV0@@Z @ 3156
??4AHUD@@QAEAAV0@ABV0@@Z @ 3157
??4AHoverPathNode@@QAEAAV0@ABV0@@Z @ 3158
??4AInfo@@QAEAAV0@ABV0@@Z @ 3159
??4AInternetInfo@@QAEAAV0@ABV0@@Z @ 3160
??4AInterpolationPoint@@QAEAAV0@ABV0@@Z @ 3161
??4AInventory@@QAEAAV0@ABV0@@Z @ 3162
??4AInventoryAttachment@@QAEAAV0@ABV0@@Z @ 3163
??4AInventorySpot@@QAEAAV0@ABV0@@Z @ 3164
??4AJumpDest@@QAEAAV0@ABV0@@Z @ 3165
??4AJumpPad@@QAEAAV0@ABV0@@Z @ 3166
??4AKActor@@QAEAAV0@ABV0@@Z @ 3167
??4AKBSJoint@@QAEAAV0@ABV0@@Z @ 3168
??4AKCarWheelJoint@@QAEAAV0@ABV0@@Z @ 3169
??4AKConeLimit@@QAEAAV0@ABV0@@Z @ 3170
??4AKConstraint@@QAEAAV0@ABV0@@Z @ 3171
??4AKHinge@@QAEAAV0@ABV0@@Z @ 3172
??4AKRepulsor@@QAEAAV0@ABV0@@Z @ 3173
??4AKTire@@QAEAAV0@ABV0@@Z @ 3174
??4AKVehicle@@QAEAAV0@ABV0@@Z @ 3175
??4AKeypoint@@QAEAAV0@ABV0@@Z @ 3176
??4ALadder@@QAEAAV0@ABV0@@Z @ 3177
??4ALadderVolume@@QAEAAV0@ABV0@@Z @ 3178
??4ALevelInfo@@QAEAAV0@ABV0@@Z @ 3179
??4ALevelLoadingView@@QAEAAV0@ABV0@@Z @ 3180
??4ALiftCenter@@QAEAAV0@ABV0@@Z @ 3181
??4ALiftExit@@QAEAAV0@ABV0@@Z @ 3182
??4ALight@@QAEAAV0@ABV0@@Z @ 3183
??4ALineOfSightTrigger@@QAEAAV0@ABV0@@Z @ 3184
??4ALinkAntiportalVolume@@QAEAAV0@ABV0@@Z @ 3185
??4ALinkedReplicationInfo@@QAEAAV0@ABV0@@Z @ 3186
??4ALookTarget@@QAEAAV0@ABV0@@Z @ 3187
??4AMaplistManagerBase@@QAEAAV0@ABV0@@Z @ 3188
??4AMatDemoActor@@QAEAAV0@ABV0@@Z @ 3189
??4AMover@@QAEAAV0@ABV0@@Z @ 3190
??4AMutator@@QAEAAV0@ABV0@@Z @ 3191
??4ANavigationPoint@@QAEAAV0@ABV0@@Z @ 3192
??4ANote@@QAEAAV0@ABV0@@Z @ 3193
??4APathNode@@QAEAAV0@ABV0@@Z @ 3194
??4APawn@@QAEAAV0@ABV0@@Z @ 3195
??4APhysicsVolume@@QAEAAV0@ABV0@@Z @ 3196
??4APickup@@QAEAAV0@ABV0@@Z @ 3197
??4APlayerChatManager@@QAEAAV0@ABV0@@Z @ 3198
??4APlayerController@@QAEAAV0@ABV0@@Z @ 3199
??4APlayerReplicationInfo@@QAEAAV0@ABV0@@Z @ 3200
??4APlayerStart@@QAEAAV0@ABV0@@Z @ 3201
??4APlayerStart_SD@@QAEAAV0@ABV0@@Z @ 3202
??4APolyMarker@@QAEAAV0@ABV0@@Z @ 3203
??4APotentialClimbWatcher@@QAEAAV0@ABV0@@Z @ 3204
??4APowerups@@QAEAAV0@ABV0@@Z @ 3205
??4APrecacheHack@@QAEAAV0@ABV0@@Z @ 3206
??4AProjectile@@QAEAAV0@ABV0@@Z @ 3207
??4AProjector@@QAEAAV0@ABV0@@Z @ 3208
??4AReplicationInfo@@QAEAAV0@ABV0@@Z @ 3209
??4ARoadPathNode@@QAEAAV0@ABV0@@Z @ 3210
??4ASVehicle@@QAEAAV0@ABV0@@Z @ 3211
??4ASVehicleFactory@@QAEAAV0@ABV0@@Z @ 3212
??4ASVehicleTrigger@@QAEAAV0@ABV0@@Z @ 3213
??4ASavedMove@@QAEAAV0@ABV0@@Z @ 3214
??4ASceneManager@@QAEAAV0@ABV0@@Z @ 3215
??4ASceneSubtitles@@QAEAAV0@ABV0@@Z @ 3216
??4AScout@@QAEAAV0@ABV0@@Z @ 3217
??4ASecurity@@QAEAAV0@ABV0@@Z @ 3218
??4ASkyZoneInfo@@QAEAAV0@ABV0@@Z @ 3219
??4ASmallNavigationPoint@@QAEAAV0@ABV0@@Z @ 3220
??4AStaticMeshActor@@QAEAAV0@ABV0@@Z @ 3221
??4ATeamInfo@@QAEAAV0@ABV0@@Z @ 3222
??4ATeleporter@@QAEAAV0@ABV0@@Z @ 3223
??4ATerrainInfo@@QAEAAV0@ABV0@@Z @ 3224
??4ATonemappingVolume@@QAEAAV0@ABV0@@Z @ 3225
??4ATrigger@@QAEAAV0@ABV0@@Z @ 3226
??4ATriggers@@QAEAAV0@ABV0@@Z @ 3227
??4AVehicle@@QAEAAV0@ABV0@@Z @ 3228
??4AVehiclePart@@QAEAAV0@ABV0@@Z @ 3229
??4AVertMeshActor@@QAEAAV0@ABV0@@Z @ 3230
??4AVignette@@QAEAAV0@ABV0@@Z @ 3231
??4AVoiceChatReplicationInfo@@QAEAAV0@ABV0@@Z @ 3232
??4AVoiceChatRoom@@QAEAAV0@ABV0@@Z @ 3233
??4AVolume@@QAEAAV0@ABV0@@Z @ 3234
??4AWarpZoneInfo@@QAEAAV0@ABV0@@Z @ 3235
??4AWarpZoneMarker@@QAEAAV0@ABV0@@Z @ 3236
??4AWeaponAttachment@@QAEAAV0@ABV0@@Z @ 3237
??4AZoneInfo@@QAEAAV0@ABV0@@Z @ 3238
??4AmbientCube@@QAEAAU0@ABU0@@Z @ 3239
??4AwAILevelBase@@QAEAAV0@ABV0@@Z @ 3240
??4AwAmmunition@@QAEAAV0@ABV0@@Z @ 3241
??4AwArrangeTurret@@QAEAAV0@ABV0@@Z @ 3242
??4AwEmitter@@QAEAAV0@ABV0@@Z @ 3243
??4AwGameStateStorageSender@@QAEAAV0@ABV0@@Z @ 3244
??4AwPickUpBase@@QAEAAV0@ABV0@@Z @ 3245
??4AwProcMesh@@QAEAAV0@ABV0@@Z @ 3246
??4AwWeapon@@QAEAAV0@ABV0@@Z @ 3247
??4AwWeaponPickup@@QAEAAV0@ABV0@@Z @ 3248
??4AwWeatherEffect@@QAEAAV0@ABV0@@Z @ 3249
??4FActorSceneNode@@QAEAAV0@ABV0@@Z @ 3250
??4FAnimMeshVertexStream@@QAEAAV0@ABV0@@Z @ 3251
??4FAnnouncerRecord@@QAEAAU0@ABU0@@Z @ 3252
??4FBSPTangentBinormal@@QAEAAU0@ABU0@@Z @ 3253
??4FBSPTangentBinormalStream@@QAEAAV0@ABV0@@Z @ 3254
??4FBezier@@QAEAAV0@ABV0@@Z @ 3255
??4FBlendWeightAndIndex@@QAEAAU0@ABU0@@Z @ 3256
??4FBlendWeightAndIndexStream@@QAEAAV0@ABV0@@Z @ 3257
??4FBlockStruct@@QAEAAU0@ABU0@@Z @ 3258
??4FBlowFish@@QAEAAV0@ABV0@@Z @ 3259
??4FBootyInfo@@QAEAAU0@ABU0@@Z @ 3260
??4FBspSection@@QAEAAV0@ABV0@@Z @ 3261
??4FBspVertex@@QAEAAU0@ABU0@@Z @ 3262
??4FBspVertexStream@@QAEAAV0@ABV0@@Z @ 3263
??4FCalCoordsW@@QAEAAU0@ABU0@@Z @ 3264
??4FCameraSceneNode@@QAEAAV0@ABV0@@Z @ 3265
??4FCanvasUtil@@QAEAAV0@ABV0@@Z @ 3266
??4FCanvasVertex@@QAEAAV0@ABV0@@Z @ 3267
??4FClanLevelInfoParam@@QAEAAV0@ABV0@@Z @ 3268
??4FClanMarkParam@@QAEAAV0@ABV0@@Z @ 3269
??4FClanStruct@@QAEAAU0@ABU0@@Z @ 3270
??4FClientAdjustment@@QAEAAU0@ABU0@@Z @ 3271
??4FCollisionHash@@QAEAAV0@ABV0@@Z @ 3272
??4FCollisionOctree@@QAEAAV0@ABV0@@Z @ 3273
??4FColor@@QAEAAV0@ABV0@@Z @ 3274
??4FColorPreset@@QAEAAU0@ABU0@@Z @ 3275
??4FConsoleMessage@@QAEAAU0@ABU0@@Z @ 3276
??4FConvexVolume@@QAEAAV0@ABV0@@Z @ 3277
??4FCrosshairItem@@QAEAAU0@ABU0@@Z @ 3278
??4FCrosshairRecord@@QAEAAU0@ABU0@@Z @ 3279
??4FDXTCompressionOptions@@QAEAAU0@ABU0@@Z @ 3280
??4FDailyQuestParam@@QAEAAV0@ABV0@@Z @ 3281
??4FDefenceGameParam@@QAEAAV0@ABV0@@Z @ 3282
??4FDiamondIndexBuffer@@QAEAAV0@ABV0@@Z @ 3283
??4FDiamondVertexStream@@QAEAAV0@ABV0@@Z @ 3284
??4FDigitSet@@QAEAAU0@ABU0@@Z @ 3285
??4FDirectionalLightMapSceneNode@@QAEAAV0@ABV0@@Z @ 3286
??4FDisplayMode@@QAEAAU0@ABU0@@Z @ 3287
??4FDynamicActor@@QAEAAV0@ABV0@@Z @ 3288
??4FDynamicLight@@QAEAAV0@ABV0@@Z @ 3289
??4FEngineStats@@QAEAAV0@ABV0@@Z @ 3290
??4FEquippedItemInfo@@QAEAAU0@ABU0@@Z @ 3291
??4FEquippedQSlotInfo@@QAEAAU0@ABU0@@Z @ 3292
??4FEquippedSkillInfo@@QAEAAU0@ABU0@@Z @ 3293
??4FEventTimerStruct@@QAEAAU0@ABU0@@Z @ 3294
??4FFilePath@@QAEAAU0@ABU0@@Z @ 3295
??4FFontCharacter@@QAEAAU0@ABU0@@Z @ 3296
??4FFrameHeader@@QAEAAU0@ABU0@@Z @ 3297
??4FFriendStruct@@QAEAAU0@ABU0@@Z @ 3298
??4FGP20Product@@QAEAAU0@ABU0@@Z @ 3299
??4FGameRecord@@QAEAAU0@ABU0@@Z @ 3300
??4FHitCause@@QAEAAU0@ABU0@@Z @ 3301
??4FHitFXData@@QAEAAU0@ABU0@@Z @ 3302
??4FHitObserver@@QAEAAV0@ABV0@@Z @ 3303
??4FID3Field@@QAEAAU0@ABU0@@Z @ 3304
??4FID3Tag@@QAEAAU0@ABU0@@Z @ 3305
??4FID3TagV1@@QAEAAU0@ABU0@@Z @ 3306
??4FID3TagV2@@QAEAAU0@ABU0@@Z @ 3307
??4FID3V2ExtendedTagHeader@@QAEAAU0@ABU0@@Z @ 3308
??4FID3V2Frame@@QAEAAU0@ABU0@@Z @ 3309
??4FID3V2TagHeader@@QAEAAU0@ABU0@@Z @ 3310
??4FID3V2TagVersion@@QAEAAU0@ABU0@@Z @ 3311
??4FInBunch@@QAEAAV0@ABV0@@Z @ 3312
??4FItemBaseParam@@QAEAAV0@ABV0@@Z @ 3313
??4FItemBoxParam@@QAEAAV0@ABV0@@Z @ 3314
??4FItemResourceParam@@QAEAAV0@ABV0@@Z @ 3315
??4FKAggregateGeom@@QAEAAV0@ABV0@@Z @ 3316
??4FKBoxElem@@QAEAAV0@ABV0@@Z @ 3317
??4FKConvexElem@@QAEAAV0@ABV0@@Z @ 3318
??4FKCylinderElem@@QAEAAV0@ABV0@@Z @ 3319
??4FKSphereElem@@QAEAAV0@ABV0@@Z @ 3320
??4FKeyValuePair@@QAEAAU0@ABU0@@Z @ 3321
??4FLeafRenderInfo@@QAEAAU0@ABU0@@Z @ 3322
??4FLevelColorPreset@@QAEAAU0@ABU0@@Z @ 3323
??4FLevelInfoParam@@QAEAAV0@ABV0@@Z @ 3324
??4FLevelSceneNode@@QAEAAV0@ABV0@@Z @ 3325
??4FLightMap@@QAEAAV0@ABV0@@Z @ 3326
??4FLightMapIndex@@QAEAAV0@ABV0@@Z @ 3327
??4FLightMapSceneNode@@QAEAAV0@ABV0@@Z @ 3328
??4FLightMapTexture@@QAEAAV0@ABV0@@Z @ 3329
??4FLineBatcher@@QAEAAV0@ABV0@@Z @ 3330
??4FLineVertex@@QAEAAV0@ABV0@@Z @ 3331
??4FListener@@QAEAAV0@ABV0@@Z @ 3332
??4FLoadingMessageItem@@QAEAAU0@ABU0@@Z @ 3333
??4FMapInfo@@QAEAAV0@ABV0@@Z @ 3334
??4FMapRecord@@QAEAAU0@ABU0@@Z @ 3335
??4FMaterialSequenceItem@@QAEAAU0@ABU0@@Z @ 3336
??4FMatineeTools@@QAEAAV0@ABV0@@Z @ 3337
??4FMiniMapSceneNode@@QAEAAV0@ABV0@@Z @ 3338
??4FMipmap@@QAEAAU0@ABU0@@Z @ 3339
??4FMipmapBase@@QAEAAU0@ABU0@@Z @ 3340
??4FMirrorSceneNode@@QAEAAV0@ABV0@@Z @ 3341
??4FMissionItem@@QAEAAU0@ABU0@@Z @ 3342
??4FModeDOAParam@@QAEAAV0@ABV0@@Z @ 3343
??4FMutatorRecord@@QAEAAU0@ABU0@@Z @ 3344
??4FMyMatchState@@QAEAAU0@ABU0@@Z @ 3345
??4FNPCActionGroupParam@@QAEAAV0@ABV0@@Z @ 3346
??4FNPCItemGroupParam@@QAEAAV0@ABV0@@Z @ 3347
??4FNPCNameGroupParam@@QAEAAV0@ABV0@@Z @ 3348
??4FNPCParam@@QAEAAV0@ABV0@@Z @ 3349
??4FNPCSpawnParam@@QAEAAV0@ABV0@@Z @ 3350
??4FNetworkNotify@@QAEAAV0@ABV0@@Z @ 3351
??4FNumericWidget@@QAEAAU0@ABU0@@Z @ 3352
??4FOcclusionQuery@@QAEAAV0@ABV0@@Z @ 3353
??4FOctreeNode@@QAEAAV0@ABV0@@Z @ 3354
??4FOrientation@@QAEAAU0@U0@@Z @ 3355
??4FOtherLoadingStateItem@@QAEAAU0@ABU0@@Z @ 3356
??4FOutBunch@@QAEAAV0@ABV0@@Z @ 3357
??4FPCBangStruct@@QAEAAU0@ABU0@@Z @ 3358
??4FPaintGroupParam@@QAEAAV0@ABV0@@Z @ 3359
??4FPartsGroupParam@@QAEAAV0@ABV0@@Z @ 3360
??4FPathBuilder@@QAEAAV0@ABV0@@Z @ 3361
??4FPingTime@@QAEAAU0@ABU0@@Z @ 3362
??4FPlaneAmbientCube@@QAEAAU0@ABU0@@Z @ 3363
??4FPlayInfoData@@QAEAAU0@ABU0@@Z @ 3364
??4FPlayerDamageInfo@@QAEAAU0@ABU0@@Z @ 3365
??4FPlayerNameInfo@@QAEAAU0@ABU0@@Z @ 3366
??4FPlayerPartsInfo@@QAEAAU0@ABU0@@Z @ 3367
??4FPlayerProperty@@QAEAAU0@ABU0@@Z @ 3368
??4FPlayerResponseLine@@QAEAAU0@ABU0@@Z @ 3369
??4FPlayerSceneNode@@QAEAAV0@ABV0@@Z @ 3370
??4FPlayerScore@@QAEAAU0@ABU0@@Z @ 3371
??4FPointLightMapSceneNode@@QAEAAV0@ABV0@@Z @ 3372
??4FPointRegion@@QAEAAU0@ABU0@@Z @ 3373
??4FPoly@@QAEAAV0@ABV0@@Z @ 3374
??4FPostProcessCanvasUtil@@QAEAAV0@ABV0@@Z @ 3375
??4FProcMeshVertex@@QAEAAU0@ABU0@@Z @ 3376
??4FPromotionParam@@QAEAAV0@ABV0@@Z @ 3377
??4FQuestItem@@QAEAAU0@ABU0@@Z @ 3378
??4FQuestParam@@QAEAAV0@ABV0@@Z @ 3379
??4FRadiositySceneNode@@QAEAAV0@ABV0@@Z @ 3380
??4FRandBoxParam@@QAEAAV0@ABV0@@Z @ 3381
??4FRaw32BitIndexBuffer@@QAEAAV0@ABV0@@Z @ 3382
??4FRawColorStream@@QAEAAV0@ABV0@@Z @ 3383
??4FRawIndexBuffer@@QAEAAV0@ABV0@@Z @ 3384
??4FReachSpec@@QAEAAV0@ABV0@@Z @ 3385
??4FRebuildOptions@@QAE?AV0@V0@@Z @ 3386
??4FRebuildTools@@QAEAAV0@ABV0@@Z @ 3387
??4FRenderInterface@@QAEAAV0@ABV0@@Z @ 3388
??4FResultData@@QAEAAU0@ABU0@@Z @ 3389
??4FResultInfo@@QAEAAU0@ABU0@@Z @ 3390
??4FRotatorF@@QAEAAV0@ABV0@@Z @ 3391
??4FSDefenceGameParam@@QAEAAU0@ABU0@@Z @ 3392
??4FSEAXEffect@@QAEAAU0@ABU0@@Z @ 3393
??4FSUserGroupInfo@@QAEAAU0@ABU0@@Z @ 3394
??4FSVehicleIcon@@QAEAAU0@ABU0@@Z @ 3395
??4FSceneNode@@QAEAAV0@ABV0@@Z @ 3396
??4FScriptedPortalSceneNode@@QAEAAV0@ABV0@@Z @ 3397
??4FServerResponseLine@@QAEAAU0@ABU0@@Z @ 3398
??4FShadowMeshVertexStream@@QAEAAV0@ABV0@@Z @ 3399
??4FShadowSceneNode@@QAEAAV0@ABV0@@Z @ 3400
??4FSkeletalMeshBoundStream@@QAEAAV0@ABV0@@Z @ 3401
??4FSkeletalMeshTangentBinormal@@QAEAAU0@ABU0@@Z @ 3402
??4FSkeletalMeshTangentBinormalStream@@QAEAAV0@ABV0@@Z @ 3403
??4FSkillBaseParam@@QAEAAV0@ABV0@@Z @ 3404
??4FSkinVertexStream@@QAEAAV0@ABV0@@Z @ 3405
??4FSkySceneNode@@QAEAAV0@ABV0@@Z @ 3406
??4FSolidColorTexture@@QAEAAV0@ABV0@@Z @ 3407
??4FSoundData@@QAEAAV0@ABV0@@Z @ 3408
??4FSoundEmitter@@QAEAAU0@ABU0@@Z @ 3409
??4FSoundSource@@QAEAAV0@ABV0@@Z @ 3410
??4FSpeechReplacement@@QAEAAU0@ABU0@@Z @ 3411
??4FSpriteWidget@@QAEAAU0@ABU0@@Z @ 3412
??4FStandard@@QAEAAU0@ABU0@@Z @ 3413
??4FStatGraph@@QAEAAV0@ABV0@@Z @ 3414
??4FStatGraphLine@@QAEAAV0@ABV0@@Z @ 3415
??4FStaticCubemap@@QAEAAV0@ABV0@@Z @ 3416
??4FStaticDownloadTexture@@QAEAAV0@ABV0@@Z @ 3417
??4FStaticLightMapTexture@@QAEAAV0@ABV0@@Z @ 3418
??4FStaticMeshBatch@@QAEAAV0@ABV0@@Z @ 3419
??4FStaticMeshBatchIndexBuffer@@QAEAAV0@ABV0@@Z @ 3420
??4FStaticMeshBatchNormalVertex@@QAEAAU0@ABU0@@Z @ 3421
??4FStaticMeshBatchShaderVertex@@QAEAAU0@ABU0@@Z @ 3422
??4FStaticMeshBatchVertex@@QAEAAU0@ABU0@@Z @ 3423
??4FStaticMeshBatchVertexStream@@QAEAAV0@ABV0@@Z @ 3424
??4FStaticMeshBoundVertex@@QAEAAU0@ABU0@@Z @ 3425
??4FStaticMeshBoundVertexStream@@QAEAAV0@ABV0@@Z @ 3426
??4FStaticMeshCollisionNode@@QAEAAU0@ABU0@@Z @ 3427
??4FStaticMeshCollisionTriangle@@QAEAAU0@ABU0@@Z @ 3428
??4FStaticMeshColorStream@@QAEAAV0@ABV0@@Z @ 3429
??4FStaticMeshDirectionalLightcolor@@QAEAAU0@ABU0@@Z @ 3430
??4FStaticMeshDirectionalLightcolorStream@@QAEAAV0@ABV0@@Z @ 3431
??4FStaticMeshLOD@UStaticMesh@@QAEAAV01@ABV01@@Z @ 3432
??4FStaticMeshMaterial@@QAEAAV0@ABV0@@Z @ 3433
??4FStaticMeshSection@@QAEAAV0@ABV0@@Z @ 3434
??4FStaticMeshTangentBinormal@@QAEAAU0@ABU0@@Z @ 3435
??4FStaticMeshTangentBinormalStream@@QAEAAV0@ABV0@@Z @ 3436
??4FStaticMeshTriangle@@QAEAAU0@ABU0@@Z @ 3437
??4FStaticMeshUV@@QAEAAU0@ABU0@@Z @ 3438
??4FStaticMeshUVStream@@QAEAAV0@ABV0@@Z @ 3439
??4FStaticMeshVertex@@QAEAAU0@ABU0@@Z @ 3440
??4FStaticMeshVertexStream@@QAEAAV0@ABV0@@Z @ 3441
??4FStaticProjectorInfo@@QAEAAU0@ABU0@@Z @ 3442
??4FStaticProjectorUV@@QAEAAU0@ABU0@@Z @ 3443
??4FStaticProjectorVertex@@QAEAAU0@ABU0@@Z @ 3444
??4FStaticTexture@@QAEAAV0@ABV0@@Z @ 3445
??4FStats@@QAEAAV0@ABV0@@Z @ 3446
??4FStoredChatPassword@@QAEAAU0@ABU0@@Z @ 3447
??4FStreamingManagerBase@@QAEAAU0@ABU0@@Z @ 3448
??4FStreamingManagerCollection@@QAEAAU0@ABU0@@Z @ 3449
??4FStreamingManagerTexture@@QAEAAU0@ABU0@@Z @ 3450
??4FStreamingTexture@@QAEAAU0@ABU0@@Z @ 3451
??4FTeamScore@@QAEAAU0@ABU0@@Z @ 3452
??4FTempLineBatcher@@QAEAAV0@ABV0@@Z @ 3453
??4FTencentLoginInfo@@QAEAAU0@ABU0@@Z @ 3454
??4FTerrainDirectionalLightcolor@@QAEAAU0@ABU0@@Z @ 3455
??4FTerrainDirectionalLightcolorStream@@QAEAAV0@ABV0@@Z @ 3456
??4FTerrainMaterialLayer@@QAEAAU0@ABU0@@Z @ 3457
??4FTerrainTools@@QAEAAV0@ABV0@@Z @ 3458
??4FTexelInfo@@QAEAAU0@ABU0@@Z @ 3459
??4FToneElement@@QAEAAU0@ABU0@@Z @ 3460
??4FURL@@QAEAAV0@ABV0@@Z @ 3461
??4FVehicleRecord@@QAEAAU0@ABU0@@Z @ 3462
??4FVoiceChatCodec@@QAEAAU0@ABU0@@Z @ 3463
??4FWarpZoneSceneNode@@QAEAAV0@ABV0@@Z @ 3464
??4FWaterDrop@@QAEAAU0@ABU0@@Z @ 3465
??4FWaveModInfo@@QAEAAV0@ABV0@@Z @ 3466
??4FWeaponBaseParam@@QAEAAV0@ABV0@@Z @ 3467
??4FWeaponCustomInfoParam@@QAEAAV0@ABV0@@Z @ 3468
??4FWeaponCustomPartsParam@@QAEAAV0@ABV0@@Z @ 3469
??4FWeaponPart@@QAEAAU0@ABU0@@Z @ 3470
??4FWeaponRecord@@QAEAAU0@ABU0@@Z @ 3471
??4FWeatherPcl@@QAEAAU0@ABU0@@Z @ 3472
??4FWebzenInven@@QAEAAU0@ABU0@@Z @ 3473
??4FWebzenShopCategory@@QAEAAU0@ABU0@@Z @ 3474
??4FWebzenShopPackage@@QAEAAU0@ABU0@@Z @ 3475
??4FWebzenShopProduct@@QAEAAU0@ABU0@@Z @ 3476
??4FZoneProperties@@QAEAAV0@ABV0@@Z @ 3477
??4FZoneRenderInfo@@QAEAAU0@ABU0@@Z @ 3478
??4FsItem@@QAEAAU0@ABU0@@Z @ 3479
??4FsQuickSlot@@QAEAAU0@ABU0@@Z @ 3480
??4FsSkill@@QAEAAU0@ABU0@@Z @ 3481
??4FsStartWeaponInfo@@QAEAAU0@ABU0@@Z @ 3482
??4FstMultiBulletPerFire@@QAEAAU0@ABU0@@Z @ 3483
??4HActor@@QAEAAU0@ABU0@@Z @ 3484
??4HBspSurf@@QAEAAU0@ABU0@@Z @ 3485
??4HCoords@@QAEAAU0@ABU0@@Z @ 3486
??4HHitProxy@@QAEAAU0@ABU0@@Z @ 3487
??4HMaterialTree@@QAEAAU0@ABU0@@Z @ 3488
??4HMatineeAction@@QAEAAU0@ABU0@@Z @ 3489
??4HMatineeScene@@QAEAAU0@ABU0@@Z @ 3490
??4HMatineeSubAction@@QAEAAU0@ABU0@@Z @ 3491
??4HMatineeTimePath@@QAEAAU0@ABU0@@Z @ 3492
??4HTerrain@@QAEAAU0@ABU0@@Z @ 3493
??4HTerrainToolLayer@@QAEAAU0@ABU0@@Z @ 3494
??4UActionMoveCamera@@QAEAAV0@ABV0@@Z @ 3495
??4UActionPause@@QAEAAV0@ABV0@@Z @ 3496
??4UActorChannel@@QAEAAV0@ABV0@@Z @ 3497
??4UAdminBase@@QAEAAV0@ABV0@@Z @ 3498
??4UAnimNotify@@QAEAAV0@ABV0@@Z @ 3499
??4UAnimNotify_DestroyEffect@@QAEAAV0@ABV0@@Z @ 3500
??4UAnimNotify_Effect@@QAEAAV0@ABV0@@Z @ 3501
??4UAnimNotify_LIPSinc@@QAEAAV0@ABV0@@Z @ 3502
??4UAnimNotify_MatSubAction@@QAEAAV0@ABV0@@Z @ 3503
??4UAnimNotify_Script@@QAEAAV0@ABV0@@Z @ 3504
??4UAnimNotify_Scripted@@QAEAAV0@ABV0@@Z @ 3505
??4UAnimNotify_Sound@@QAEAAV0@ABV0@@Z @ 3506
??4UAnimation@@QAEAAV0@ABV0@@Z @ 3507
??4UAudioSubsystem@@QAEAAV0@ABV0@@Z @ 3508
??4UBTLoadingAdvancer@@QAEAAV0@ABV0@@Z @ 3509
??4UBTLoadingState@@QAEAAV0@ABV0@@Z @ 3510
??4UBTMapLoader@@QAEAAV0@ABV0@@Z @ 3511
??4UBTNetInterface@@QAEAAV0@ABV0@@Z @ 3512
??4UBTPingChecker@@QAEAAV0@ABV0@@Z @ 3513
??4UBTPingCheckerLinker@@QAEAAV0@ABV0@@Z @ 3514
??4UBTTcpLink_Channel_DS@@QAEAAV0@ABV0@@Z @ 3515
??4UBTTcpLink_DStoDP_DS@@QAEAAV0@ABV0@@Z @ 3516
??4UBaseGUIController@@QAEAAV0@ABV0@@Z @ 3517
??4UBeamEmitter@@QAEAAV0@ABV0@@Z @ 3518
??4UBitmapMaterial@@QAEAAV0@ABV0@@Z @ 3519
??4UBlackWhite@@QAEAAV0@ABV0@@Z @ 3520
??4UBlendShader@@QAEAAV0@ABV0@@Z @ 3521
??4UBtrTraceResult@@QAEAAV0@ABV0@@Z @ 3522
??4UByteArray@@QAEAAV0@ABV0@@Z @ 3523
??4UCacheManager@@QAEAAV0@ABV0@@Z @ 3524
??4UCameraEffect@@QAEAAV0@ABV0@@Z @ 3525
??4UCameraOverlay@@QAEAAV0@ABV0@@Z @ 3526
??4UCanvas@@QAEAAV0@ABV0@@Z @ 3527
??4UCascadedShadowMaps@@QAEAAV0@ABV0@@Z @ 3528
??4UChannel@@QAEAAV0@ABV0@@Z @ 3529
??4UChannelDownload@@QAEAAV0@ABV0@@Z @ 3530
??4UCheatManager@@QAEAAV0@ABV0@@Z @ 3531
??4UClient@@QAEAAV0@ABV0@@Z @ 3532
??4UColorModifier@@QAEAAV0@ABV0@@Z @ 3533
??4UCombiner@@QAEAAV0@ABV0@@Z @ 3534
??4UConsole@@QAEAAV0@ABV0@@Z @ 3535
??4UConstantColor@@QAEAAV0@ABV0@@Z @ 3536
??4UConstantMaterial@@QAEAAV0@ABV0@@Z @ 3537
??4UControlChannel@@QAEAAV0@ABV0@@Z @ 3538
??4UConvexVolume@@QAEAAV0@ABV0@@Z @ 3539
??4UCrosshairPack@@QAEAAV0@ABV0@@Z @ 3540
??4UCubemap@@QAEAAV0@ABV0@@Z @ 3541
??4UDOFEffect@@QAEAAV0@ABV0@@Z @ 3542
??4UDecalShader@@QAEAAV0@ABV0@@Z @ 3543
??4UDemoRecConnection@@QAEAAV0@ABV0@@Z @ 3544
??4UDemoRecDriver@@QAEAAV0@ABV0@@Z @ 3545
??4UDistortEmitter@@QAEAAV0@ABV0@@Z @ 3546
??4UDownload@@QAEAAV0@ABV0@@Z @ 3547
??4UDownloadTexture@@QAEAAV0@ABV0@@Z @ 3548
??4UDripEffect@@QAEAAV0@ABV0@@Z @ 3549
??4UEngine@@QAEAAV0@ABV0@@Z @ 3550
??4UFXFile@@QAEAAV0@ABV0@@Z @ 3551
??4UFadeBlackWhite@@QAEAAV0@ABV0@@Z @ 3552
??4UFadeColor@@QAEAAV0@ABV0@@Z @ 3553
??4UFileChannel@@QAEAAV0@ABV0@@Z @ 3554
??4UFinalBlend@@QAEAAV0@ABV0@@Z @ 3555
??4UFinalEffect@@QAEAAV0@ABV0@@Z @ 3556
??4UFluidSurfacePrimitive@@QAEAAV0@ABV0@@Z @ 3557
??4UFont@@QAEAAV0@ABV0@@Z @ 3558
??4UGMFile@@QAEAAV0@ABV0@@Z @ 3559
??4UGameEngine@@QAEAAV0@ABV0@@Z @ 3560
??4UGameProfile@@QAEAAV0@ABV0@@Z @ 3561
??4UGlowEffect@@QAEAAV0@ABV0@@Z @ 3562
??4UHShieldManager@@QAEAAV0@ABV0@@Z @ 3563
??4UHardwareShader@@QAEAAV0@ABV0@@Z @ 3564
??4UI3DL2Listener@@QAEAAV0@ABV0@@Z @ 3565
??4UIndexBuffer@@QAEAAV0@ABV0@@Z @ 3566
??4UInput@@QAEAAV0@ABV0@@Z @ 3567
??4UInteraction@@QAEAAV0@ABV0@@Z @ 3568
??4UInteractionMaster@@QAEAAV0@ABV0@@Z @ 3569
??4UInteractions@@QAEAAV0@ABV0@@Z @ 3570
??4UItemIterator@@QAEAAV0@ABV0@@Z @ 3571
??4UKMeshProps@@QAEAAV0@ABV0@@Z @ 3572
??4UKarmaParams@@QAEAAV0@ABV0@@Z @ 3573
??4UKarmaParamsCollision@@QAEAAV0@ABV0@@Z @ 3574
??4UKarmaParamsRBFull@@QAEAAV0@ABV0@@Z @ 3575
??4UKarmaParamsSkel@@QAEAAV0@ABV0@@Z @ 3576
??4ULevel@@QAEAAV0@ABV0@@Z @ 3577
??4ULevelBase@@QAEAAV0@ABV0@@Z @ 3578
??4ULevelSummary@@QAEAAV0@ABV0@@Z @ 3579
??4ULodMesh@@QAEAAV0@ABV0@@Z @ 3580
??4ULodMeshInstance@@QAEAAV0@ABV0@@Z @ 3581
??4ULogEntry@@QAEAAV0@ABV0@@Z @ 3582
??4UManifest@@QAEAAV0@ABV0@@Z @ 3583
??4UMatAction@@QAEAAV0@ABV0@@Z @ 3584
??4UMatObject@@QAEAAV0@ABV0@@Z @ 3585
??4UMatSubAction@@QAEAAV0@ABV0@@Z @ 3586
??4UMaterial@@QAEAAV0@ABV0@@Z @ 3587
??4UMaterialSequence@@QAEAAV0@ABV0@@Z @ 3588
??4UMaterialSwitch@@QAEAAV0@ABV0@@Z @ 3589
??4UMesh@@QAEAAV0@ABV0@@Z @ 3590
??4UMeshAnimation@@QAEAAV0@ABV0@@Z @ 3591
??4UMeshEmitter@@QAEAAV0@ABV0@@Z @ 3592
??4UMeshInstance@@QAEAAV0@ABV0@@Z @ 3593
??4UMeshObject@@QAEAAV0@ABV0@@Z @ 3594
??4UModel@@QAEAAV0@ABV0@@Z @ 3595
??4UModifier@@QAEAAV0@ABV0@@Z @ 3596
??4UMotionBlur@@QAEAAV0@ABV0@@Z @ 3597
??4UMotionBlurEffect@@QAEAAV0@ABV0@@Z @ 3598
??4UNetConnection@@QAEAAV0@ABV0@@Z @ 3599
??4UNetDriver@@QAEAAV0@ABV0@@Z @ 3600
??4UNullRenderDevice@@QAEAAV0@ABV0@@Z @ 3601
??4UObjectPool@@QAEAAV0@ABV0@@Z @ 3602
??4UOpacityModifier@@QAEAAV0@ABV0@@Z @ 3603
??4UPackageCheckInfo@@QAEAAV0@ABV0@@Z @ 3604
??4UPackageMapLevel@@QAEAAV0@ABV0@@Z @ 3605
??4UPalette@@QAEAAV0@ABV0@@Z @ 3606
??4UParticleEmitter@@QAEAAV0@ABV0@@Z @ 3607
??4UParticleMaterial@@QAEAAV0@ABV0@@Z @ 3608
??4UPlayInfo@@QAEAAV0@ABV0@@Z @ 3609
??4UPlayer@@QAEAAV0@ABV0@@Z @ 3610
??4UPlayerInput@@QAEAAV0@ABV0@@Z @ 3611
??4UPolys@@QAEAAV0@ABV0@@Z @ 3612
??4UPostProcessEffect@@QAEAAV0@ABV0@@Z @ 3613
??4UPrimitive@@QAEAAV0@ABV0@@Z @ 3614
??4UProceduralSound@@QAEAAV0@ABV0@@Z @ 3615
??4UProjectorMaterial@@QAEAAV0@ABV0@@Z @ 3616
??4UProjectorPrimitive@@QAEAAV0@ABV0@@Z @ 3617
??4UProxyBitmapMaterial@@QAEAAV0@ABV0@@Z @ 3618
??4UReachSpec@@QAEAAV0@ABV0@@Z @ 3619
??4URenderDevice@@QAEAAV0@ABV0@@Z @ 3620
??4URenderResource@@QAEAAV0@ABV0@@Z @ 3621
??4URenderedMaterial@@QAEAAV0@ABV0@@Z @ 3622
??4USSAOEffect@@QAEAAV0@ABV0@@Z @ 3623
??4USVehicleWheel@@QAEAAV0@ABV0@@Z @ 3624
??4UScriptedTexture@@QAEAAV0@ABV0@@Z @ 3625
??4UShader@@QAEAAV0@ABV0@@Z @ 3626
??4UShadowBitmapMaterial@@QAEAAV0@ABV0@@Z @ 3627
??4USkeletalMesh@@QAEAAV0@ABV0@@Z @ 3628
??4USkeletalMeshInstance@@QAEAAV0@ABV0@@Z @ 3629
??4USkinVertexBuffer@@QAEAAV0@ABV0@@Z @ 3630
??4USound@@QAEAAV0@ABV0@@Z @ 3631
??4USoundGroup@@QAEAAV0@ABV0@@Z @ 3632
??4USparkEmitter@@QAEAAV0@ABV0@@Z @ 3633
??4USpline@@QAEAAV0@ABV0@@Z @ 3634
??4USpriteEmitter@@QAEAAV0@ABV0@@Z @ 3635
??4UStaticMesh@@QAEAAV0@ABV0@@Z @ 3636
??4UStaticMeshInstance@@QAEAAV0@ABV0@@Z @ 3637
??4UStream@@QAEAAV0@ABV0@@Z @ 3638
??4UStreamBase@@QAEAAV0@ABV0@@Z @ 3639
??4UStreamInteraction@@QAEAAV0@ABV0@@Z @ 3640
??4UStreamInterface@@QAEAAV0@ABV0@@Z @ 3641
??4UStreamTag@@QAEAAV0@ABV0@@Z @ 3642
??4USubActionCameraEffect@@QAEAAV0@ABV0@@Z @ 3643
??4USubActionCameraShake@@QAEAAV0@ABV0@@Z @ 3644
??4USubActionFOV@@QAEAAV0@ABV0@@Z @ 3645
??4USubActionFade@@QAEAAV0@ABV0@@Z @ 3646
??4USubActionGameSpeed@@QAEAAV0@ABV0@@Z @ 3647
??4USubActionOrientation@@QAEAAV0@ABV0@@Z @ 3648
??4USubActionSceneSpeed@@QAEAAV0@ABV0@@Z @ 3649
??4USubActionSubTitle@@QAEAAV0@ABV0@@Z @ 3650
??4USubActionTrigger@@QAEAAV0@ABV0@@Z @ 3651
??4UTerrainBrush@@QAEAAV0@ABV0@@Z @ 3652
??4UTerrainBrushColor@@QAEAAV0@ABV0@@Z @ 3653
??4UTerrainBrushEdgeTurn@@QAEAAV0@ABV0@@Z @ 3654
??4UTerrainBrushFlatten@@QAEAAV0@ABV0@@Z @ 3655
??4UTerrainBrushNoise@@QAEAAV0@ABV0@@Z @ 3656
??4UTerrainBrushPaint@@QAEAAV0@ABV0@@Z @ 3657
??4UTerrainBrushSelect@@QAEAAV0@ABV0@@Z @ 3658
??4UTerrainBrushSmooth@@QAEAAV0@ABV0@@Z @ 3659
??4UTerrainBrushTexPan@@QAEAAV0@ABV0@@Z @ 3660
??4UTerrainBrushTexRotate@@QAEAAV0@ABV0@@Z @ 3661
??4UTerrainBrushTexScale@@QAEAAV0@ABV0@@Z @ 3662
??4UTerrainBrushVertexEdit@@QAEAAV0@ABV0@@Z @ 3663
??4UTerrainBrushVisibility@@QAEAAV0@ABV0@@Z @ 3664
??4UTerrainMaterial@@QAEAAV0@ABV0@@Z @ 3665
??4UTerrainPrimitive@@QAEAAV0@ABV0@@Z @ 3666
??4UTerrainSector@@QAEAAV0@ABV0@@Z @ 3667
??4UTexCoordMaterial@@QAEAAV0@ABV0@@Z @ 3668
??4UTexCoordSource@@QAEAAV0@ABV0@@Z @ 3669
??4UTexEnvMap@@QAEAAV0@ABV0@@Z @ 3670
??4UTexMatrix@@QAEAAV0@ABV0@@Z @ 3671
??4UTexModifier@@QAEAAV0@ABV0@@Z @ 3672
??4UTexOscillator@@QAEAAV0@ABV0@@Z @ 3673
??4UTexOscillatorTriggered@@QAEAAV0@ABV0@@Z @ 3674
??4UTexPanner@@QAEAAV0@ABV0@@Z @ 3675
??4UTexPannerTriggered@@QAEAAV0@ABV0@@Z @ 3676
??4UTexRotator@@QAEAAV0@ABV0@@Z @ 3677
??4UTexScaler@@QAEAAV0@ABV0@@Z @ 3678
??4UTextToSpeechAlias@@QAEAAV0@ABV0@@Z @ 3679
??4UTexture@@QAEAAV0@ABV0@@Z @ 3680
??4UTickChecker@@QAEAAV0@ABV0@@Z @ 3681
??4UTrailEmitter@@QAEAAV0@ABV0@@Z @ 3682
??4UUserzoneInfo@@QAEAAV0@ABV0@@Z @ 3683
??4UVariableTexPanner@@QAEAAV0@ABV0@@Z @ 3684
??4UVertMesh@@QAEAAV0@ABV0@@Z @ 3685
??4UVertMeshInstance@@QAEAAV0@ABV0@@Z @ 3686
??4UVertexBuffer@@QAEAAV0@ABV0@@Z @ 3687
??4UVertexColor@@QAEAAV0@ABV0@@Z @ 3688
??4UVertexStreamBase@@QAEAAV0@ABV0@@Z @ 3689
??4UVertexStreamCOLOR@@QAEAAV0@ABV0@@Z @ 3690
??4UVertexStreamPosNormTex@@QAEAAV0@ABV0@@Z @ 3691
??4UVertexStreamUV@@QAEAAV0@ABV0@@Z @ 3692
??4UVertexStreamVECTOR@@QAEAAV0@ABV0@@Z @ 3693
??4UViewport@@QAEAAV0@ABV0@@Z @ 3694
??4UVisibilityItem@@QAEAAV0@ABV0@@Z @ 3695
??4UVisibilityItemArray@@QAEAAV0@ABV0@@Z @ 3696
??4UVoiceChannel@@QAEAAV0@ABV0@@Z @ 3697
??4UWMFile@@QAEAAV0@ABV0@@Z @ 3698
??4UWebLog@@QAEAAV0@ABV0@@Z @ 3699
??4UWebzenShopItemListDownloader@@QAEAAV0@ABV0@@Z @ 3700
??4UwBTLoadingScreenDrawer@@QAEAAV0@ABV0@@Z @ 3701
??4UwBtrIni@@QAEAAV0@ABV0@@Z @ 3702
??4UwCharacterManager@@QAEAAV0@ABV0@@Z @ 3703
??4UwClanLevelInfoParam@@QAEAAV0@ABV0@@Z @ 3704
??4UwClanMarkParam@@QAEAAV0@ABV0@@Z @ 3705
??4UwDailyQuestParam@@QAEAAV0@ABV0@@Z @ 3706
??4UwDefenceGameParam@@QAEAAV0@ABV0@@Z @ 3707
??4UwGameManager@@QAEAAV0@ABV0@@Z @ 3708
??4UwInstantFire@@QAEAAV0@ABV0@@Z @ 3709
??4UwInventory@@QAEAAV0@ABV0@@Z @ 3710
??4UwItemBaseParam@@QAEAAV0@ABV0@@Z @ 3711
??4UwItemBoxParam@@QAEAAV0@ABV0@@Z @ 3712
??4UwItemResourceParam@@QAEAAV0@ABV0@@Z @ 3713
??4UwLevelInfoParam@@QAEAAV0@ABV0@@Z @ 3714
??4UwMapInfo@@QAEAAV0@ABV0@@Z @ 3715
??4UwMatchMaker@@QAEAAV0@ABV0@@Z @ 3716
??4UwModeDOAParam@@QAEAAV0@ABV0@@Z @ 3717
??4UwMyPlayerStatus@@QAEAAV0@ABV0@@Z @ 3718
??4UwNPCActionGroupParam@@QAEAAV0@ABV0@@Z @ 3719
??4UwNPCItemGroupParam@@QAEAAV0@ABV0@@Z @ 3720
??4UwNPCNameGroupParam@@QAEAAV0@ABV0@@Z @ 3721
??4UwNPCParam@@QAEAAV0@ABV0@@Z @ 3722
??4UwNPCSpawnParam@@QAEAAV0@ABV0@@Z @ 3723
??4UwPaintGroupParam@@QAEAAV0@ABV0@@Z @ 3724
??4UwPartsGroupParam@@QAEAAV0@ABV0@@Z @ 3725
??4UwPromotionParam@@QAEAAV0@ABV0@@Z @ 3726
??4UwQuestParam@@QAEAAV0@ABV0@@Z @ 3727
??4UwRandBoxParam@@QAEAAV0@ABV0@@Z @ 3728
??4UwSkillBaseParam@@QAEAAV0@ABV0@@Z @ 3729
??4UwSkills@@QAEAAV0@ABV0@@Z @ 3730
??4UwWeaponBaseParams@@QAEAAV0@ABV0@@Z @ 3731
??4UwWeaponCustomInfoParam@@QAEAAV0@ABV0@@Z @ 3732
??4UwWeaponCustomPartsParam@@QAEAAV0@ABV0@@Z @ 3733
??4UwWeaponFire@@QAEAAV0@ABV0@@Z @ 3734
??4UwWeaponManager@@QAEAAV0@ABV0@@Z @ 3735
??4UwWeaponParams@@QAEAAV0@ABV0@@Z @ 3736
??6@YAAAVFArchive@@AAV0@AAUFBSPTangentBinormal@@@Z @ 3737
??6@YAAAVFArchive@@AAV0@AAUFBlendWeightAndIndex@@@Z @ 3738
??6@YAAAVFArchive@@AAV0@AAUFBspVertex@@@Z @ 3739
??6@YAAAVFArchive@@AAV0@AAUFDisplayMode@@@Z @ 3740
??6@YAAAVFArchive@@AAV0@AAUFKeyValuePair@@@Z @ 3741
??6@YAAAVFArchive@@AAV0@AAUFLoadingMessageItem@@@Z @ 3742
??6@YAAAVFArchive@@AAV0@AAUFMissionItem@@@Z @ 3743
??6@YAAAVFArchive@@AAV0@AAUFOtherLoadingStateItem@@@Z @ 3744
??6@YAAAVFArchive@@AAV0@AAUFPlayerResponseLine@@@Z @ 3745
??6@YAAAVFArchive@@AAV0@AAUFPosNormTexData@@@Z @ 3746
??6@YAAAVFArchive@@AAV0@AAUFQuestItem@@@Z @ 3747
??6@YAAAVFArchive@@AAV0@AAUFSUserGroupInfo@@@Z @ 3748
??6@YAAAVFArchive@@AAV0@AAUFServerResponseLine@@@Z @ 3749
??6@YAAAVFArchive@@AAV0@AAUFSkeletalMeshTangentBinormal@@@Z @ 3750
??6@YAAAVFArchive@@AAV0@AAUFSkinVertex@@@Z @ 3751
??6@YAAAVFArchive@@AAV0@AAUFStaticMeshBoundVertex@@@Z @ 3752
??6@YAAAVFArchive@@AAV0@AAUFStaticMeshCollisionNode@@@Z @ 3753
??6@YAAAVFArchive@@AAV0@AAUFStaticMeshCollisionTriangle@@@Z @ 3754
??6@YAAAVFArchive@@AAV0@AAUFStaticMeshDirectionalLightcolor@@@Z @ 3755
??6@YAAAVFArchive@@AAV0@AAUFStaticMeshTangentBinormal@@@Z @ 3756
??6@YAAAVFArchive@@AAV0@AAUFStaticMeshUV@@@Z @ 3757
??6@YAAAVFArchive@@AAV0@AAUFStaticMeshVertex@@@Z @ 3758
??6@YAAAVFArchive@@AAV0@AAUFTerrainDirectionalLightcolor@@@Z @ 3759
??6@YAAAVFArchive@@AAV0@AAUFTerrainVertex@@@Z @ 3760
??6@YAAAVFArchive@@AAV0@AAUFUV2Data@@@Z @ 3761
??6@YAAAVFArchive@@AAV0@AAUFUntransformedVertex@@@Z @ 3762
??6@YAAAVFArchive@@AAV0@AAUFkDOP@@@Z @ 3763
??6@YAAAVFArchive@@AAV0@AAUFkDOPCollisionTriangle@@@Z @ 3764
??6@YAAAVFArchive@@AAV0@AAUFkDOPNode@@@Z @ 3765
??6@YAAAVFArchive@@AAV0@AAUFkDOPTree@@@Z @ 3766
??6@YAAAVFArchive@@AAV0@AAVFAnimMeshVertexStream@@@Z @ 3767
??6@YAAAVFArchive@@AAV0@AAVFBSPTangentBinormalStream@@@Z @ 3768
??6@YAAAVFArchive@@AAV0@AAVFBlendWeightAndIndexStream@@@Z @ 3769
??6@YAAAVFArchive@@AAV0@AAVFBspNode@@@Z @ 3770
??6@YAAAVFArchive@@AAV0@AAVFBspSection@@@Z @ 3771
??6@YAAAVFArchive@@AAV0@AAVFBspSurf@@@Z @ 3772
??6@YAAAVFArchive@@AAV0@AAVFBspVertexStream@@@Z @ 3773
??6@YAAAVFArchive@@AAV0@AAVFLightMap@@@Z @ 3774
??6@YAAAVFArchive@@AAV0@AAVFLightMapTexture@@@Z @ 3775
??6@YAAAVFArchive@@AAV0@AAVFPoly@@@Z @ 3776
??6@YAAAVFArchive@@AAV0@AAVFRaw32BitIndexBuffer@@@Z @ 3777
??6@YAAAVFArchive@@AAV0@AAVFRawColorStream@@@Z @ 3778
??6@YAAAVFArchive@@AAV0@AAVFRawIndexBuffer@@@Z @ 3779
??6@YAAAVFArchive@@AAV0@AAVFShadowMeshVertexStream@@@Z @ 3780
??6@YAAAVFArchive@@AAV0@AAVFSkeletalMeshTangentBinormalStream@@@Z @ 3781
??6@YAAAVFArchive@@AAV0@AAVFSkinVertexStream@@@Z @ 3782
??6@YAAAVFArchive@@AAV0@AAVFStaticLightMapTexture@@@Z @ 3783
??6@YAAAVFArchive@@AAV0@AAVFStaticMeshBoundVertexStream@@@Z @ 3784
??6@YAAAVFArchive@@AAV0@AAVFStaticMeshDirectionalLightcolorStream@@@Z @ 3785
??6@YAAAVFArchive@@AAV0@AAVFStaticMeshLOD@UStaticMesh@@@Z @ 3786
??6@YAAAVFArchive@@AAV0@AAVFStaticMeshLightInfo@@@Z @ 3787
??6@YAAAVFArchive@@AAV0@AAVFStaticMeshMaterial@@@Z @ 3788
??6@YAAAVFArchive@@AAV0@AAVFStaticMeshSection@@@Z @ 3789
??6@YAAAVFArchive@@AAV0@AAVFStaticMeshTangentBinormalStream@@@Z @ 3790
??6@YAAAVFArchive@@AAV0@AAVFStaticMeshUVStream@@@Z @ 3791
??6@YAAAVFArchive@@AAV0@AAVFStaticMeshVertexStream@@@Z @ 3792
??6@YAAAVFArchive@@AAV0@AAVFTerrainDirectionalLightcolorStream@@@Z @ 3793
??6@YAAAVFArchive@@AAV0@AAVFTerrainVertexStream@@@Z @ 3794
??6@YAAAVFArchive@@AAV0@AAVFURL@@@Z @ 3795
??6@YAAAVFArchive@@AAV0@PAUFProjectorRenderInfo@@@Z @ 3796
??6@YAAAVFArchive@@AAV0@PAUFStaticProjectorInfo@@@Z @ 3797
??6FInBunch@@UAEAAVFArchive@@AAPAVUObject@@@Z @ 3798
??6FInBunch@@UAEAAVFArchive@@AAVFName@@@Z @ 3799
??6FOutBunch@@UAEAAVFArchive@@AAPAVUObject@@@Z @ 3800
??6FOutBunch@@UAEAAVFArchive@@AAVFName@@@Z @ 3801
??8FColor@@QBEHABV0@@Z @ 3802
??8FPoly@@QAEHV0@@Z @ 3803
??8FStatGraphLine@@QBEHABV0@@Z @ 3804
??8FURL@@QBEHABV0@@Z @ 3805
??8FWaterDrop@@QBEHABU0@@Z @ 3806
??8UReachSpec@@QAEHABV0@@Z @ 3807
??9FColor@@QBEHABV0@@Z @ 3808
??9FOrientation@@QBEHABU0@@Z @ 3809
??9FPoly@@QAEHV0@@Z @ 3810
??BFColor@@QBE?AVFPlane@@XZ @ 3811
??BFColor@@QBE?AVFVector@@XZ @ 3812
??BFColor@@QBEKXZ @ 3813
??DFRotatorF@@QBE?AV0@M@Z @ 3814
??GFRotatorF@@QBE?AV0@V0@@Z @ 3815
??H?$TArray@E@@QAEAAV0@ABV0@@Z @ 3816
??HFRotatorF@@QBE?AV0@V0@@Z @ 3817
??HUReachSpec@@QBEPAV0@ABV0@@Z @ 3818
??NUReachSpec@@QAEHABV0@@Z @ 3819
??R?$TArray@E@@QAEAAEH@Z @ 3820
??R?$TArray@E@@QBEABEH@Z @ 3821
??XFRotatorF@@QAE?AV0@M@Z @ 3822
??Y?$TArray@E@@QAEAAV0@ABV0@@Z @ 3823
??YFColor@@QAEXV0@@Z @ 3824
??YFRotatorF@@QAE?AV0@V0@@Z @ 3825
??ZFRotatorF@@QAE?AV0@V0@@Z @ 3826
??_7?$TLazyArray@E@@6B@ @ 3827
??_7AAIController@@6B@ @ 3828
??_7AAIMarker@@6B@ @ 3829
??_7AAIScript@@6B@ @ 3830
??_7AActor@@6B@ @ 3831
??_7AAmbientLightVolume@@6B@ @ 3832
??_7AAmbientSound@@6B@ @ 3833
??_7AAmmo@@6B@ @ 3834
??_7AAnnouncerVoice@@6B@ @ 3835
??_7AAntiPortalActor@@6B@ @ 3836
??_7AAutoDoor@@6B@ @ 3837
??_7AAutoLadder@@6B@ @ 3838
??_7AAvoidMarker@@6B@ @ 3839
??_7ABlockingVolume@@6B@ @ 3840
??_7ABrush@@6B@ @ 3841
??_7ACamera@@6B@ @ 3842
??_7AClipMarker@@6B@ @ 3843
??_7AController@@6B@ @ 3844
??_7ACubemapVolume@@6B@ @ 3845
??_7ADamageType@@6B@ @ 3846
??_7ADecoVolumeObject@@6B@ @ 3847
??_7ADecoration@@6B@ @ 3848
??_7ADecorationList@@6B@ @ 3849
??_7ADefaultPhysicsVolume@@6B@ @ 3850
??_7ADoor@@6B@ @ 3851
??_7AEmitter@@6B@ @ 3852
??_7AFileLog@@6B@ @ 3853
??_7AFluidSurfaceInfo@@6B@ @ 3854
??_7AFluidSurfaceOscillator@@6B@ @ 3855
??_7AFlyingPathNode@@6B@ @ 3856
??_7AGameInfo@@6B@ @ 3857
??_7AGameReplicationInfo@@6B@ @ 3858
??_7AGameStats@@6B@ @ 3859
??_7AHUD@@6B@ @ 3860
??_7AHoverPathNode@@6B@ @ 3861
??_7AInfo@@6B@ @ 3862
??_7AInternetInfo@@6B@ @ 3863
??_7AInterpolationPoint@@6B@ @ 3864
??_7AInventory@@6B@ @ 3865
??_7AInventoryAttachment@@6B@ @ 3866
??_7AInventorySpot@@6B@ @ 3867
??_7AJumpDest@@6B@ @ 3868
??_7AJumpPad@@6B@ @ 3869
??_7AKActor@@6B@ @ 3870
??_7AKBSJoint@@6B@ @ 3871
??_7AKCarWheelJoint@@6B@ @ 3872
??_7AKConeLimit@@6B@ @ 3873
??_7AKConstraint@@6B@ @ 3874
??_7AKHinge@@6B@ @ 3875
??_7AKRepulsor@@6B@ @ 3876
??_7AKTire@@6B@ @ 3877
??_7AKVehicle@@6B@ @ 3878
??_7AKeypoint@@6B@ @ 3879
??_7ALadder@@6B@ @ 3880
??_7ALadderVolume@@6B@ @ 3881
??_7ALevelInfo@@6B@ @ 3882
??_7ALevelLoadingView@@6B@ @ 3883
??_7ALiftCenter@@6B@ @ 3884
??_7ALiftExit@@6B@ @ 3885
??_7ALight@@6B@ @ 3886
??_7ALineOfSightTrigger@@6B@ @ 3887
??_7ALinkAntiportalVolume@@6B@ @ 3888
??_7ALinkedReplicationInfo@@6B@ @ 3889
??_7ALookTarget@@6B@ @ 3890
??_7AMaplistManagerBase@@6B@ @ 3891
??_7AMatDemoActor@@6B@ @ 3892
??_7AMover@@6B@ @ 3893
??_7AMutator@@6B@ @ 3894
??_7ANavigationPoint@@6B@ @ 3895
??_7ANote@@6B@ @ 3896
??_7APathNode@@6B@ @ 3897
??_7APawn@@6B@ @ 3898
??_7APhysicsVolume@@6B@ @ 3899
??_7APickup@@6B@ @ 3900
??_7APlayerChatManager@@6B@ @ 3901
??_7APlayerController@@6B@ @ 3902
??_7APlayerReplicationInfo@@6B@ @ 3903
??_7APlayerStart@@6B@ @ 3904
??_7APlayerStart_SD@@6B@ @ 3905
??_7APolyMarker@@6B@ @ 3906
??_7APotentialClimbWatcher@@6B@ @ 3907
??_7APowerups@@6B@ @ 3908
??_7APrecacheHack@@6B@ @ 3909
??_7AProjectile@@6B@ @ 3910
??_7AProjector@@6B@ @ 3911
??_7AReplicationInfo@@6B@ @ 3912
??_7ARoadPathNode@@6B@ @ 3913
??_7ASVehicle@@6B@ @ 3914
??_7ASVehicleFactory@@6B@ @ 3915
??_7ASVehicleTrigger@@6B@ @ 3916
??_7ASavedMove@@6B@ @ 3917
??_7ASceneManager@@6B@ @ 3918
??_7ASceneSubtitles@@6B@ @ 3919
??_7AScout@@6B@ @ 3920
??_7ASecurity@@6B@ @ 3921
??_7ASkyZoneInfo@@6B@ @ 3922
??_7ASmallNavigationPoint@@6B@ @ 3923
??_7AStaticMeshActor@@6B@ @ 3924
??_7ATeamInfo@@6B@ @ 3925
??_7ATeleporter@@6B@ @ 3926
??_7ATerrainInfo@@6B@ @ 3927
??_7ATonemappingVolume@@6B@ @ 3928
??_7ATrigger@@6B@ @ 3929
??_7ATriggers@@6B@ @ 3930
??_7AVehicle@@6B@ @ 3931
??_7AVehiclePart@@6B@ @ 3932
??_7AVertMeshActor@@6B@ @ 3933
??_7AVignette@@6B@ @ 3934
??_7AVoiceChatReplicationInfo@@6B@ @ 3935
??_7AVoiceChatRoom@@6B@ @ 3936
??_7AVolume@@6B@ @ 3937
??_7AWarpZoneInfo@@6B@ @ 3938
??_7AWarpZoneMarker@@6B@ @ 3939
??_7AWeaponAttachment@@6B@ @ 3940
??_7AZoneInfo@@6B@ @ 3941
??_7AwAILevelBase@@6B@ @ 3942
??_7AwAmmunition@@6B@ @ 3943
??_7AwArrangeTurret@@6B@ @ 3944
??_7AwEmitter@@6B@ @ 3945
??_7AwGameStateStorageSender@@6B@ @ 3946
??_7AwPickUpBase@@6B@ @ 3947
??_7AwProcMesh@@6B@ @ 3948
??_7AwWeapon@@6B@ @ 3949
??_7AwWeaponPickup@@6B@ @ 3950
??_7AwWeatherEffect@@6B@ @ 3951
??_7FActorSceneNode@@6B@ @ 3952
??_7FAnimMeshVertexStream@@6B@ @ 3953
??_7FBSPTangentBinormalStream@@6B@ @ 3954
??_7FBezier@@6B@ @ 3955
??_7FBlendWeightAndIndexStream@@6B@ @ 3956
??_7FBspVertexStream@@6B@ @ 3957
??_7FCameraSceneNode@@6B@ @ 3958
??_7FCanvasUtil@@6B@ @ 3959
??_7FCollisionHash@@6B@ @ 3960
??_7FCollisionOctree@@6B@ @ 3961
??_7FDiamondIndexBuffer@@6B@ @ 3962
??_7FDiamondVertexStream@@6B@ @ 3963
??_7FDirectionalLightMapSceneNode@@6B@ @ 3964
??_7FHitObserver@@6B@ @ 3965
??_7FID3Tag@@6B@ @ 3966
??_7FID3TagV1@@6B@ @ 3967
??_7FID3TagV2@@6B@ @ 3968
??_7FInBunch@@6B@ @ 3969
??_7FLevelSceneNode@@6B@ @ 3970
??_7FLightMap@@6B@ @ 3971
??_7FLightMapSceneNode@@6B@ @ 3972
??_7FLightMapTexture@@6B@ @ 3973
??_7FLineBatcher@@6B@ @ 3974
??_7FListener@@6B@ @ 3975
??_7FMatineeTools@@6B@ @ 3976
??_7FMiniMapSceneNode@@6B@ @ 3977
??_7FMirrorSceneNode@@6B@ @ 3978
??_7FNetworkNotify@@6B@ @ 3979
??_7FOutBunch@@6B@ @ 3980
??_7FPlayerSceneNode@@6B@ @ 3981
??_7FPointLightMapSceneNode@@6B@ @ 3982
??_7FPostProcessCanvasUtil@@6B@ @ 3983
??_7FRadiositySceneNode@@6B@ @ 3984
??_7FRaw32BitIndexBuffer@@6B@ @ 3985
??_7FRawColorStream@@6B@ @ 3986
??_7FRawIndexBuffer@@6B@ @ 3987
??_7FRenderInterface@@6B@ @ 3988
??_7FSceneNode@@6B@ @ 3989
??_7FScriptedPortalSceneNode@@6B@ @ 3990
??_7FShadowMeshVertexStream@@6B@ @ 3991
??_7FShadowSceneNode@@6B@ @ 3992
??_7FSkeletalMeshBoundStream@@6B@ @ 3993
??_7FSkeletalMeshTangentBinormalStream@@6B@ @ 3994
??_7FSkinVertexStream@@6B@ @ 3995
??_7FSkySceneNode@@6B@ @ 3996
??_7FSolidColorTexture@@6B@ @ 3997
??_7FSoundData@@6B@ @ 3998
??_7FSoundSource@@6B@ @ 3999
??_7FStaticCubemap@@6B@ @ 4000
??_7FStaticDownloadTexture@@6B@ @ 4001
??_7FStaticLightMapTexture@@6B@ @ 4002
??_7FStaticMeshBatchIndexBuffer@@6B@ @ 4003
??_7FStaticMeshBatchVertexStream@@6B@ @ 4004
??_7FStaticMeshBoundVertexStream@@6B@ @ 4005
??_7FStaticMeshColorStream@@6B@ @ 4006
??_7FStaticMeshDirectionalLightcolorStream@@6B@ @ 4007
??_7FStaticMeshTangentBinormalStream@@6B@ @ 4008
??_7FStaticMeshUVStream@@6B@ @ 4009
??_7FStaticMeshVertexStream@@6B@ @ 4010
??_7FStaticTexture@@6B@ @ 4011
??_7FStreamingManagerBase@@6B@ @ 4012
??_7FStreamingManagerCollection@@6B@ @ 4013
??_7FStreamingManagerTexture@@6B@ @ 4014
??_7FTerrainDirectionalLightcolorStream@@6B@ @ 4015
??_7FTerrainTools@@6B@ @ 4016
??_7FWarpZoneSceneNode@@6B@ @ 4017
??_7HActor@@6B@ @ 4018
??_7HBspSurf@@6B@ @ 4019
??_7HCoords@@6B@ @ 4020
??_7HHitProxy@@6B@ @ 4021
??_7HMaterialTree@@6B@ @ 4022
??_7HMatineeAction@@6B@ @ 4023
??_7HMatineeScene@@6B@ @ 4024
??_7HMatineeSubAction@@6B@ @ 4025
??_7HMatineeTimePath@@6B@ @ 4026
??_7HTerrain@@6B@ @ 4027
??_7HTerrainToolLayer@@6B@ @ 4028
??_7UActionMoveCamera@@6B@ @ 4029
??_7UActionPause@@6B@ @ 4030
??_7UActorChannel@@6B@ @ 4031
??_7UAdminBase@@6B@ @ 4032
??_7UAnimNotify@@6B@ @ 4033
??_7UAnimNotify_DestroyEffect@@6B@ @ 4034
??_7UAnimNotify_Effect@@6B@ @ 4035
??_7UAnimNotify_LIPSinc@@6B@ @ 4036
??_7UAnimNotify_MatSubAction@@6B@ @ 4037
??_7UAnimNotify_Script@@6B@ @ 4038
??_7UAnimNotify_Scripted@@6B@ @ 4039
??_7UAnimNotify_Sound@@6B@ @ 4040
??_7UAnimation@@6B@ @ 4041
??_7UAudioSubsystem@@6BFExec@@@ @ 4042
??_7UAudioSubsystem@@6BUObject@@@ @ 4043
??_7UBTLoadingAdvancer@@6B@ @ 4044
??_7UBTLoadingState@@6B@ @ 4045
??_7UBTMapLoader@@6B@ @ 4046
??_7UBTNetInterface@@6B@ @ 4047
??_7UBTPingChecker@@6B@ @ 4048
??_7UBTPingCheckerLinker@@6B@ @ 4049
??_7UBTTcpLink_Channel_DS@@6B@ @ 4050
??_7UBTTcpLink_DStoDP_DS@@6B@ @ 4051
??_7UBaseGUIController@@6B@ @ 4052
??_7UBeamEmitter@@6B@ @ 4053
??_7UBitmapMaterial@@6B@ @ 4054
??_7UBlackWhite@@6B@ @ 4055
??_7UBlendShader@@6B@ @ 4056
??_7UBtrTraceResult@@6B@ @ 4057
??_7UByteArray@@6B@ @ 4058
??_7UCacheManager@@6B@ @ 4059
??_7UCameraEffect@@6B@ @ 4060
??_7UCameraOverlay@@6B@ @ 4061
??_7UCanvas@@6B@ @ 4062
??_7UCascadedShadowMaps@@6B@ @ 4063
??_7UChannel@@6B@ @ 4064
??_7UChannelDownload@@6B@ @ 4065
??_7UCheatManager@@6B@ @ 4066
??_7UClient@@6B@ @ 4067
??_7UColorModifier@@6B@ @ 4068
??_7UCombiner@@6B@ @ 4069
??_7UConsole@@6B@ @ 4070
??_7UConstantColor@@6B@ @ 4071
??_7UConstantMaterial@@6B@ @ 4072
??_7UControlChannel@@6BFOutputDevice@@@ @ 4073
??_7UControlChannel@@6BUChannel@@@ @ 4074
??_7UConvexVolume@@6B@ @ 4075
??_7UCrosshairPack@@6B@ @ 4076
??_7UCubemap@@6B@ @ 4077
??_7UDOFEffect@@6B@ @ 4078
??_7UDecalShader@@6B@ @ 4079
??_7UDemoRecConnection@@6BFExec@@@ @ 4080
??_7UDemoRecConnection@@6BFOutputDevice@@@ @ 4081
??_7UDemoRecConnection@@6BUObject@@@ @ 4082
??_7UDemoRecDriver@@6BFExec@@@ @ 4083
??_7UDemoRecDriver@@6BUObject@@@ @ 4084
??_7UDistortEmitter@@6B@ @ 4085
??_7UDownload@@6B@ @ 4086
??_7UDownloadTexture@@6B@ @ 4087
??_7UDripEffect@@6B@ @ 4088
??_7UEngine@@6BFExec@@@ @ 4089
??_7UEngine@@6BUObject@@@ @ 4090
??_7UFXFile@@6B@ @ 4091
??_7UFadeBlackWhite@@6B@ @ 4092
??_7UFadeColor@@6B@ @ 4093
??_7UFileChannel@@6B@ @ 4094
??_7UFinalBlend@@6B@ @ 4095
??_7UFinalEffect@@6B@ @ 4096
??_7UFluidSurfacePrimitive@@6B@ @ 4097
??_7UFont@@6B@ @ 4098
??_7UGMFile@@6B@ @ 4099
??_7UGameEngine@@6BFExec@@@ @ 4100
??_7UGameEngine@@6BUObject@@@ @ 4101
??_7UGameProfile@@6B@ @ 4102
??_7UGlowEffect@@6B@ @ 4103
??_7UHardwareShader@@6B@ @ 4104
??_7UI3DL2Listener@@6B@ @ 4105
??_7UIndexBuffer@@6B@ @ 4106
??_7UInput@@6BFExec@@@ @ 4107
??_7UInput@@6BUObject@@@ @ 4108
??_7UInteraction@@6B@ @ 4109
??_7UInteractionMaster@@6B@ @ 4110
??_7UInteractions@@6B@ @ 4111
??_7UItemIterator@@6B@ @ 4112
??_7UKMeshProps@@6B@ @ 4113
??_7UKarmaParams@@6B@ @ 4114
??_7UKarmaParamsCollision@@6B@ @ 4115
??_7UKarmaParamsRBFull@@6B@ @ 4116
??_7UKarmaParamsSkel@@6B@ @ 4117
??_7ULevel@@6BFNetworkNotify@@@ @ 4118
??_7ULevel@@6BUObject@@@ @ 4119
??_7ULevelBase@@6BFNetworkNotify@@@ @ 4120
??_7ULevelBase@@6BUObject@@@ @ 4121
??_7ULevelSummary@@6B@ @ 4122
??_7ULodMesh@@6B@ @ 4123
??_7ULodMeshInstance@@6B@ @ 4124
??_7ULogEntry@@6B@ @ 4125
??_7UManifest@@6B@ @ 4126
??_7UMatAction@@6B@ @ 4127
??_7UMatObject@@6B@ @ 4128
??_7UMatSubAction@@6B@ @ 4129
??_7UMaterial@@6B@ @ 4130
??_7UMaterialSequence@@6B@ @ 4131
??_7UMaterialSwitch@@6B@ @ 4132
??_7UMesh@@6B@ @ 4133
??_7UMeshAnimation@@6B@ @ 4134
??_7UMeshEmitter@@6B@ @ 4135
??_7UMeshInstance@@6B@ @ 4136
??_7UMeshObject@@6B@ @ 4137
??_7UModel@@6B@ @ 4138
??_7UModifier@@6B@ @ 4139
??_7UMotionBlur@@6B@ @ 4140
??_7UMotionBlurEffect@@6B@ @ 4141
??_7UNetConnection@@6BFExec@@@ @ 4142
??_7UNetConnection@@6BFOutputDevice@@@ @ 4143
??_7UNetConnection@@6BUObject@@@ @ 4144
??_7UNetDriver@@6BFExec@@@ @ 4145
??_7UNetDriver@@6BUObject@@@ @ 4146
??_7UNullRenderDevice@@6BFExec@@@ @ 4147
??_7UNullRenderDevice@@6BUObject@@@ @ 4148
??_7UObjectPool@@6B@ @ 4149
??_7UOpacityModifier@@6B@ @ 4150
??_7UPackageCheckInfo@@6B@ @ 4151
??_7UPackageMapLevel@@6B@ @ 4152
??_7UPalette@@6B@ @ 4153
??_7UParticleEmitter@@6B@ @ 4154
??_7UParticleMaterial@@6B@ @ 4155
??_7UPlayInfo@@6B@ @ 4156
??_7UPlayer@@6BFExec@@@ @ 4157
??_7UPlayer@@6BFOutputDevice@@@ @ 4158
??_7UPlayer@@6BUObject@@@ @ 4159
??_7UPlayerInput@@6B@ @ 4160
??_7UPolys@@6B@ @ 4161
??_7UPostProcessEffect@@6B@ @ 4162
??_7UPrimitive@@6B@ @ 4163
??_7UProceduralSound@@6B@ @ 4164
??_7UProjectorMaterial@@6B@ @ 4165
??_7UProjectorPrimitive@@6B@ @ 4166
??_7UProxyBitmapMaterial@@6B@ @ 4167
??_7UReachSpec@@6B@ @ 4168
??_7URenderDevice@@6BFExec@@@ @ 4169
??_7URenderDevice@@6BUObject@@@ @ 4170
??_7URenderResource@@6B@ @ 4171
??_7URenderedMaterial@@6B@ @ 4172
??_7USSAOEffect@@6B@ @ 4173
??_7USVehicleWheel@@6B@ @ 4174
??_7UScriptedTexture@@6B@ @ 4175
??_7UShader@@6B@ @ 4176
??_7UShadowBitmapMaterial@@6B@ @ 4177
??_7USkeletalMesh@@6B@ @ 4178
??_7USkeletalMeshInstance@@6B@ @ 4179
??_7USkinVertexBuffer@@6B@ @ 4180
??_7USound@@6B@ @ 4181
??_7USoundGroup@@6B@ @ 4182
??_7USparkEmitter@@6B@ @ 4183
??_7USpline@@6B@ @ 4184
??_7USpriteEmitter@@6B@ @ 4185
??_7UStaticMesh@@6B@ @ 4186
??_7UStaticMeshInstance@@6B@ @ 4187
??_7UStream@@6B@ @ 4188
??_7UStreamBase@@6B@ @ 4189
??_7UStreamInteraction@@6B@ @ 4190
??_7UStreamInterface@@6B@ @ 4191
??_7UStreamTag@@6B@ @ 4192
??_7USubActionCameraEffect@@6B@ @ 4193
??_7USubActionCameraShake@@6B@ @ 4194
??_7USubActionFOV@@6B@ @ 4195
??_7USubActionFade@@6B@ @ 4196
??_7USubActionGameSpeed@@6B@ @ 4197
??_7USubActionOrientation@@6B@ @ 4198
??_7USubActionSceneSpeed@@6B@ @ 4199
??_7USubActionSubTitle@@6B@ @ 4200
??_7USubActionTrigger@@6B@ @ 4201
??_7UTerrainBrush@@6B@ @ 4202
??_7UTerrainBrushColor@@6B@ @ 4203
??_7UTerrainBrushEdgeTurn@@6B@ @ 4204
??_7UTerrainBrushFlatten@@6B@ @ 4205
??_7UTerrainBrushNoise@@6B@ @ 4206
??_7UTerrainBrushPaint@@6B@ @ 4207
??_7UTerrainBrushSelect@@6B@ @ 4208
??_7UTerrainBrushSmooth@@6B@ @ 4209
??_7UTerrainBrushTexPan@@6B@ @ 4210
??_7UTerrainBrushTexRotate@@6B@ @ 4211
??_7UTerrainBrushTexScale@@6B@ @ 4212
??_7UTerrainBrushVertexEdit@@6B@ @ 4213
??_7UTerrainBrushVisibility@@6B@ @ 4214
??_7UTerrainMaterial@@6B@ @ 4215
??_7UTerrainPrimitive@@6B@ @ 4216
??_7UTerrainSector@@6B@ @ 4217
??_7UTexCoordMaterial@@6B@ @ 4218
??_7UTexCoordSource@@6B@ @ 4219
??_7UTexEnvMap@@6B@ @ 4220
??_7UTexMatrix@@6B@ @ 4221
??_7UTexModifier@@6B@ @ 4222
??_7UTexOscillator@@6B@ @ 4223
??_7UTexOscillatorTriggered@@6B@ @ 4224
??_7UTexPanner@@6B@ @ 4225
??_7UTexPannerTriggered@@6B@ @ 4226
??_7UTexRotator@@6B@ @ 4227
??_7UTexScaler@@6B@ @ 4228
??_7UTextToSpeechAlias@@6B@ @ 4229
??_7UTexture@@6B@ @ 4230
??_7UTickChecker@@6B@ @ 4231
??_7UTrailEmitter@@6B@ @ 4232
??_7UUserzoneInfo@@6B@ @ 4233
??_7UVariableTexPanner@@6B@ @ 4234
??_7UVertMesh@@6B@ @ 4235
??_7UVertMeshInstance@@6B@ @ 4236
??_7UVertexBuffer@@6B@ @ 4237
??_7UVertexColor@@6B@ @ 4238
??_7UVertexStreamBase@@6B@ @ 4239
??_7UVertexStreamCOLOR@@6B@ @ 4240
??_7UVertexStreamPosNormTex@@6B@ @ 4241
??_7UVertexStreamUV@@6B@ @ 4242
??_7UVertexStreamVECTOR@@6B@ @ 4243
??_7UViewport@@6BFExec@@@ @ 4244
??_7UViewport@@6BFOutputDevice@@@ @ 4245
??_7UViewport@@6BUObject@@@ @ 4246
??_7UVisibilityItem@@6B@ @ 4247
??_7UVisibilityItemArray@@6B@ @ 4248
??_7UVoiceChannel@@6B@ @ 4249
??_7UWMFile@@6B@ @ 4250
??_7UWebLog@@6B@ @ 4251
??_7UWebzenShopItemListDownloader@@6B@ @ 4252
??_7UwBTLoadingScreenDrawer@@6B@ @ 4253
??_7UwBtrIni@@6B@ @ 4254
??_7UwCharacterManager@@6B@ @ 4255
??_7UwClanLevelInfoParam@@6B@ @ 4256
??_7UwClanMarkParam@@6B@ @ 4257
??_7UwDailyQuestParam@@6B@ @ 4258
??_7UwDefenceGameParam@@6B@ @ 4259
??_7UwGameManager@@6B@ @ 4260
??_7UwInstantFire@@6B@ @ 4261
??_7UwInventory@@6B@ @ 4262
??_7UwItemBaseParam@@6B@ @ 4263
??_7UwItemBoxParam@@6B@ @ 4264
??_7UwItemResourceParam@@6B@ @ 4265
??_7UwLevelInfoParam@@6B@ @ 4266
??_7UwMapInfo@@6B@ @ 4267
??_7UwMatchMaker@@6B@ @ 4268
??_7UwModeDOAParam@@6B@ @ 4269
??_7UwMyPlayerStatus@@6B@ @ 4270
??_7UwNPCActionGroupParam@@6B@ @ 4271
??_7UwNPCItemGroupParam@@6B@ @ 4272
??_7UwNPCNameGroupParam@@6B@ @ 4273
??_7UwNPCParam@@6B@ @ 4274
??_7UwNPCSpawnParam@@6B@ @ 4275
??_7UwPaintGroupParam@@6B@ @ 4276
??_7UwPartsGroupParam@@6B@ @ 4277
??_7UwPromotionParam@@6B@ @ 4278
??_7UwQuestParam@@6B@ @ 4279
??_7UwRandBoxParam@@6B@ @ 4280
??_7UwSkillBaseParam@@6B@ @ 4281
??_7UwSkills@@6B@ @ 4282
??_7UwWeaponBaseParams@@6B@ @ 4283
??_7UwWeaponCustomInfoParam@@6B@ @ 4284
??_7UwWeaponCustomPartsParam@@6B@ @ 4285
??_7UwWeaponFire@@6B@ @ 4286
??_7UwWeaponManager@@6B@ @ 4287
??_7UwWeaponParams@@6B@ @ 4288
??_F?$TLazyArray@E@@QAEXXZ @ 4289
??_FFDynamicLight@@QAEXXZ @ 4290
??_FFFrameHeader@@QAEXXZ @ 4291
??_FFID3Field@@QAEXXZ @ 4292
??_FFID3TagV1@@QAEXXZ @ 4293
??_FFID3V2ExtendedTagHeader@@QAEXXZ @ 4294
??_FFID3V2Frame@@QAEXXZ @ 4295
??_FFStaticMeshLOD@UStaticMesh@@QAEXXZ @ 4296
??_FFURL@@QAEXXZ @ 4297
?Abandon@AProjector@@UAEXXZ @ 4298
?AcceptNearbyPath@AAIController@@UAEHPAVAActor@@@Z @ 4299
?AcceptNearbyPath@AController@@UAEHPAVAActor@@@Z @ 4300
?ActiveVertStreamSize@USkeletalMeshInstance@@UAEHXZ @ 4301
?ActorEncroachmentCheck@FCollisionHash@@UAEPAUFCheckResult@@AAVFMemStack@@PAVAActor@@VFVector@@VFRotator@@KK@Z @ 4302
?ActorEncroachmentCheck@FCollisionOctree@@UAEPAUFCheckResult@@AAVFMemStack@@PAVAActor@@VFVector@@VFRotator@@KK@Z @ 4303
?ActorEncroachmentCheck@FOctreeNode@@QAEXPAVFCollisionOctree@@PBVFPlane@@@Z @ 4304
?ActorLineCheck@FCollisionHash@@UAEPAUFCheckResult@@AAVFMemStack@@ABVFVector@@11KKPAVAActor@@@Z @ 4305
?ActorLineCheck@FCollisionOctree@@UAEPAUFCheckResult@@AAVFMemStack@@ABVFVector@@11KKPAVAActor@@@Z @ 4306
?ActorNonZeroExtentLineCheck@FOctreeNode@@QAEXPAVFCollisionOctree@@PBVFPlane@@@Z @ 4307
?ActorOverlapCheck@FCollisionHash@@UAEPAUFCheckResult@@AAVFMemStack@@PAVAActor@@PAVFBox@@H@Z @ 4308
?ActorOverlapCheck@FCollisionOctree@@UAEPAUFCheckResult@@AAVFMemStack@@PAVAActor@@PAVFBox@@H@Z @ 4309
?ActorOverlapCheck@FOctreeNode@@QAEXPAVFCollisionOctree@@PBVFPlane@@@Z @ 4310
?ActorPointCheck@FCollisionHash@@UAEPAUFCheckResult@@AAVFMemStack@@ABVFVector@@1KKH@Z @ 4311
?ActorPointCheck@FCollisionOctree@@UAEPAUFCheckResult@@AAVFMemStack@@ABVFVector@@1KKH@Z @ 4312
?ActorPointCheck@FOctreeNode@@QAEXPAVFCollisionOctree@@PBVFPlane@@@Z @ 4313
?ActorRadiusCheck@FCollisionHash@@UAEPAUFCheckResult@@AAVFMemStack@@ABVFVector@@MK@Z @ 4314
?ActorRadiusCheck@FCollisionOctree@@UAEPAUFCheckResult@@AAVFMemStack@@ABVFVector@@MK@Z @ 4315
?ActorRadiusCheck@FOctreeNode@@QAEXPAVFCollisionOctree@@PBVFPlane@@@Z @ 4316
?ActorZeroExtentLineCheck@FOctreeNode@@QAEXPAVFCollisionOctree@@MMMMMMPBVFPlane@@@Z @ 4317
?ActualizeAnimLinkups@USkeletalMeshInstance@@UAEXXZ @ 4318
?Add@?$TArray@E@@QAEHH@Z @ 4319
?AddActor@FCollisionHash@@UAEXPAVAActor@@@Z @ 4320
?AddActor@FCollisionOctree@@UAEXPAVAActor@@@Z @ 4321
?AddAntiportals@AActor@@QAEXXZ @ 4322
?AddBox@FTempLineBatcher@@QAEXVFBox@@VFColor@@@Z @ 4323
?AddCircle@FTempLineBatcher@@QAEXVFVector@@00VFColor@@MH@Z @ 4324
?AddDataPoint@FStatGraph@@QAEXVFString@@MH@Z @ 4325
?AddElement@FStaticMeshBatch@@QAEHPAVAActor@@H@Z @ 4326
?AddEntry@UManifest@@QAEXABVFString@@@Z @ 4327
?AddFrame@FID3TagV2@@QAEHAAVFArchive@@K@Z @ 4328
?AddItem@?$TArray@E@@QAEHABE@Z @ 4329
?AddLine@FStatGraph@@QAEXVFString@@VFColor@@MM@Z @ 4330
?AddLine@FTempLineBatcher@@QAEXVFVector@@0VFColor@@@Z @ 4331
?AddLineAutoRange@FStatGraph@@QAEXVFString@@VFColor@@@Z @ 4332
?AddMD5@UGameEngine@@QAEXPBG0H@Z @ 4333
?AddMyMarker@AAIScript@@UAEHPAVAActor@@@Z @ 4334
?AddMyMarker@AActor@@UAEHPAV1@@Z @ 4335
?AddMyMarker@ALadderVolume@@UAEHPAVAActor@@@Z @ 4336
?AddMyMarker@AMover@@UAEHPAVAActor@@@Z @ 4337
?AddMyMarker@ANavigationPoint@@UAEHPAVAActor@@@Z @ 4338
?AddMyMarker@APathNode@@UAEHPAVAActor@@@Z @ 4339
?AddMyMarker@APickup@@UAEHPAVAActor@@@Z @ 4340
?AddMyMarker@ASVehicleFactory@@UAEHPAVAActor@@@Z @ 4341
?AddMyMarker@AVehicle@@UAEHPAVAActor@@@Z @ 4342
?AddMyMarker@AWarpZoneInfo@@UAEHPAVAActor@@@Z @ 4343
?AddMyMarker@AwPickUpBase@@UAEHPAVAActor@@@Z @ 4344
?AddOption@FURL@@QAEXPBG@Z @ 4345
?AddRemoteAddrForSendDummyPacket@UBTLoadingAdvancer@@QAEHHAAVFString@@H@Z @ 4346
?AddRemoteAddrForSendDummyPacket@UNetDriver@@UAEHHAAVFString@@H@Z @ 4347
?AddSphere@FTempLineBatcher@@QAEXVFVector@@VFColor@@MH@Z @ 4348
?AddStayingLine@FTempLineBatcher@@QAEXVFVector@@0VFColor@@@Z @ 4349
?AddStreamingManager@FStreamingManagerCollection@@QAEXPAUFStreamingManagerBase@@@Z @ 4350
?AddStreamingTexture@FStreamingManagerBase@@UAEXPAVUTexture@@@Z @ 4351
?AddStreamingTexture@FStreamingManagerCollection@@UAEXPAVUTexture@@@Z @ 4352
?AddStreamingTexture@FStreamingManagerTexture@@UAEXPAVUTexture@@@Z @ 4353
?AddUniqueItem@?$TArray@E@@QAEHABE@Z @ 4354
?AddViewInformation@FStreamingManagerBase@@QAEXABVFVector@@MM@Z @ 4355
?AddViewSlaveLocation@FStreamingManagerBase@@QAEXABVFVector@@@Z @ 4356
?AddZeroed@?$TArray@E@@QAEHH@Z @ 4357
?AdjustAlignedActors@FTerrainTools@@QAEXXZ @ 4358
?AdjustFlight@AVehicle@@UAEHMHMPAVAActor@@@Z @ 4359
?AdjustFromWall@AAIController@@UAEXVFVector@@PAVAActor@@@Z @ 4360
?AdjustFromWall@AController@@UAEXVFVector@@PAVAActor@@@Z @ 4361
?AdjustMovement@UMeshAnimation@@UAEHVFName@@VFCoords@@@Z @ 4362
?AdjustNetConnection@UGameEngine@@QAEXPAVULevel@@@Z @ 4363
?AirSteering@AAIController@@UAEXM@Z @ 4364
?AirSteering@AController@@UAEXM@Z @ 4365
?AllowMusicPlayback@UAudioSubsystem@@QAEXH@Z @ 4366
?AllowVoiceTransmission@UVoiceChannel@@QBEHPAVAPlayerController@@AAUFVoiceInfo@@@Z @ 4367
?AnimForcePose@UMeshInstance@@UAEHVFName@@MMH@Z @ 4368
?AnimForcePose@USkeletalMeshInstance@@UAEHVFName@@MMH@Z @ 4369
?AnimForcePose@UVertMeshInstance@@UAEHVFName@@MMH@Z @ 4370
?AnimGetFrameCount@UMeshInstance@@UAEMPAX@Z @ 4371
?AnimGetFrameCount@USkeletalMeshInstance@@UAEMPAX@Z @ 4372
?AnimGetFrameCount@UVertMeshInstance@@UAEMPAX@Z @ 4373
?AnimGetGroup@UMeshInstance@@UAE?AVFName@@PAX@Z @ 4374
?AnimGetGroup@USkeletalMeshInstance@@UAE?AVFName@@PAX@Z @ 4375
?AnimGetGroup@UVertMeshInstance@@UAE?AVFName@@PAX@Z @ 4376
?AnimGetName@UMeshInstance@@UAE?AVFName@@PAX@Z @ 4377
?AnimGetName@USkeletalMeshInstance@@UAE?AVFName@@PAX@Z @ 4378
?AnimGetName@UVertMeshInstance@@UAE?AVFName@@PAX@Z @ 4379
?AnimGetNotifyCount@UMeshInstance@@UAEHPAX@Z @ 4380
?AnimGetNotifyCount@USkeletalMeshInstance@@UAEHPAX@Z @ 4381
?AnimGetNotifyCount@UVertMeshInstance@@UAEHPAX@Z @ 4382
?AnimGetNotifyObject@UMeshInstance@@UAEPAVUAnimNotify@@PAXH@Z @ 4383
?AnimGetNotifyObject@USkeletalMeshInstance@@UAEPAVUAnimNotify@@PAXH@Z @ 4384
?AnimGetNotifyObject@UVertMeshInstance@@UAEPAVUAnimNotify@@PAXH@Z @ 4385
?AnimGetNotifyText@UMeshInstance@@UAEPBGPAXH@Z @ 4386
?AnimGetNotifyText@USkeletalMeshInstance@@UAEPBGPAXH@Z @ 4387
?AnimGetNotifyText@UVertMeshInstance@@UAEPBGPAXH@Z @ 4388
?AnimGetNotifyTime@UMeshInstance@@UAEMPAXH@Z @ 4389
?AnimGetNotifyTime@USkeletalMeshInstance@@UAEMPAXH@Z @ 4390
?AnimGetNotifyTime@UVertMeshInstance@@UAEMPAXH@Z @ 4391
?AnimGetRate@UMeshInstance@@UAEMPAX@Z @ 4392
?AnimGetRate@USkeletalMeshInstance@@UAEMPAX@Z @ 4393
?AnimGetRate@UVertMeshInstance@@UAEMPAX@Z @ 4394
?AnimIsInGroup@UMeshInstance@@UAEHPAXVFName@@@Z @ 4395
?AnimIsInGroup@USkeletalMeshInstance@@UAEHPAXVFName@@@Z @ 4396
?AnimIsInGroup@UVertMeshInstance@@UAEHPAXVFName@@@Z @ 4397
?AnimStopLooping@UMeshInstance@@UAEHH@Z @ 4398
?AnimStopLooping@USkeletalMeshInstance@@UAEHH@Z @ 4399
?AnimStopLooping@UVertMeshInstance@@UAEHH@Z @ 4400
?AnotherDummyFunctionToBreakCompatibility@UEngine@@UAEHH@Z @ 4401
?Area@FPoly@@QAEMXZ @ 4402
?ArithOp@UTexture@@UAEXPAV1@W4ETextureArithOp@@@Z @ 4403
?AssertInSequenced@UChannel@@QAEXXZ @ 4404
?AssertValid@UNetConnection@@UAEXXZ @ 4405
?AssertValid@UNetDriver@@UAEXXZ @ 4406
?AssociatedLevelGeometry@AActor@@UAEPAV1@XZ @ 4407
?AssociatedLevelGeometry@ADoor@@UAEPAVAActor@@XZ @ 4408
?Attach@AProjector@@UAEXM@Z @ 4409
?AttachProjector@AActor@@QAEXPAVAProjector@@@Z @ 4410
?AttachProjector@UModel@@QAEXHPAUFProjectorRenderInfo@@PAVFPlane@@@Z @ 4411
?AttachProjector@UTerrainSector@@QAEXPAVAProjector@@PAUFProjectorRenderInfo@@HHHH@Z @ 4412
?AttachToBone@AActor@@QAEHPAV1@VFName@@@Z @ 4413
?Audio@USound@@2PAVUAudioSubsystem@@A @ 4414
?BF_De@FBlowFish@@AAEXPATBF_Word@@0@Z @ 4415
?BF_En@FBlowFish@@AAEXPATBF_Word@@0@Z @ 4416
?BeginPainting@UTerrainBrush@@QAEHPAPAVUTexture@@PAPAVATerrainInfo@@@Z @ 4417
?BeginPrimitive@FCanvasUtil@@QAEXW4EPrimitiveType@@PAVUMaterial@@@Z @ 4418
?BeginQueryIssue@FRenderInterface@@UAEXH@Z @ 4419
?BeginTouch@AActor@@QAEXPAV1@@Z @ 4420
?BestMatch@UPalette@@QAEEVFColor@@H@Z @ 4421
?BigAnchor@AFlyingPathNode@@UAEHPAVAPawn@@VFVector@@@Z @ 4422
?BigAnchor@ANavigationPoint@@UAEHPAVAPawn@@VFVector@@@Z @ 4423
?BlendToAlpha@USkeletalMeshInstance@@QAEXHMM@Z @ 4424
?BlockAltTab@UViewport@@UAEXXZ @ 4425
?BlockTillAllRequestsFinished@FStreamingManagerCollection@@UAEXM@Z @ 4426
?BlockTillAllRequestsFinished@FStreamingManagerTexture@@UAEXM@Z @ 4427
?BlockedByVehicle@APickup@@QAEHXZ @ 4428
?Blur@UCubemap@@UAEXMHM@Z @ 4429
?Blur@UTexture@@UAEXMHM@Z @ 4430
?BlurLightMap@UModel@@UAEXPAVAActor@@@Z @ 4431
?BlurLightMap@UPrimitive@@UAEXPAVAActor@@@Z @ 4432
?BlurLightMap@UStaticMesh@@UAEXPAVAActor@@@Z @ 4433
?BlurTexelsInPolygon@UModel@@QAEXPAVFLightMapTexture@@PAUFBspVertex@@HMMMM@Z @ 4434
?BlurTexture@UModel@@QAEXHPAVUTexture@@@Z @ 4435
?BlurTexture@UStaticMesh@@QAEXPAVUTexture@@@Z @ 4436
?BotOnlyPath@UReachSpec@@QAEHXZ @ 4437
?BoundProjectileVelocity@AActor@@UAEXXZ @ 4438
?BoundProjectileVelocity@AProjectile@@UAEXXZ @ 4439
?BoxCheck@FConvexVolume@@QAEEABVFVector@@0@Z @ 4440
?BoxLeaves@UModel@@QAE?AV?$TArray@H@@VFBox@@@Z @ 4441
?BreakCompatibility@UEngine@@UAEXXZ @ 4442
?Brighten@FColor@@QAE?AV1@H@Z @ 4443
?Brightness@FColor@@QBEHXZ @ 4444
?Browse@UGameEngine@@UAEHVFURL@@PBV?$TMap@VFString@@V1@@@AAVFString@@@Z @ 4445
?Brush@ULevel@@QAEPAVABrush@@XZ @ 4446
?BtrTextSizeImp@UCanvas@@QAEXABVFString@@HPAM1@Z @ 4447
?BtrTextSizeImpLH@UCanvas@@QAEXABVFString@@HPAM1@Z @ 4448
?BtrTextSizeImpOLD@UCanvas@@QAEXABVFString@@HPAM1@Z @ 4449
?Build@UStaticMesh@@QAEXHPAVFVector@@H@Z @ 4450
?BuildAmbientLightVolume@AAmbientLightVolume@@QAEXPAVULevel@@VFString@@@Z @ 4451
?BuildBound@UModel@@QAEXXZ @ 4452
?BuildCoords@ABrush@@QAEMPAVFModelCoords@@0@Z @ 4453
?BuildMasterMap@UGameEngine@@QAEXPAVUPackageMap@@PAVULevel@@@Z @ 4454
?BuildRenderData@ULevel@@UAEXXZ @ 4455
?BuildRenderData@UModel@@QAEXXZ @ 4456
?BuildServerMasterMap@UGameEngine@@UAEXPAVUNetDriver@@PAVULevel@@@Z @ 4457
?BuildStaticMeshBatchesData@ULevel@@UAEXXZ @ 4458
?ByteToString@FID3TagV1@@QBEXPBEAAVFString@@H@Z @ 4459
?CacheBlockers@AwWeatherEffect@@QAEXXZ @ 4460
?CacheInt@@YAHAAV?$TArray@VFString@@@@ABVFString@@@Z @ 4461
?CacheInt@@YAHPAV?$TArray@VFString@@@@0ABVFString@@@Z @ 4462
?CacheInt@@YAHPAVFString@@0ABV1@H@Z @ 4463
?CacheInt@@YAHPAVFString@@ABV1@H@Z @ 4464
?CacheNetRelevancy@APawn@@QAEHHPAVAPlayerController@@PAVAActor@@@Z @ 4465
?CacheOptimize@FRawIndexBuffer@@UAEXXZ @ 4466
?CalWorldViewProjMatrix@FRenderInterface@@UAEXPBVFMatrix@@00PAV2@@Z @ 4467
?CalcAmbientOcclusionLightMap@UStaticMesh@@QAEXPAVAActor@@@Z @ 4468
?CalcAmbientOcclusionVertexColor@UStaticMesh@@QAEXPAVAActor@@@Z @ 4469
?CalcBlendFlags@@YAKEPAVAActor@@@Z @ 4470
?CalcContactRegion@UKarmaParamsCollision@@QAEXXZ @ 4471
?CalcCoords@ATerrainInfo@@QAEXXZ @ 4472
?CalcDirectionalLightcolors@UStaticMesh@@QAEXVFString@@PAVAActor@@HHHPAVUViewport@@H@Z @ 4473
?CalcDirectionalLightmaps@UStaticMesh@@QAEXVFString@@PAVAActor@@HHHPAVUViewport@@@Z @ 4474
?CalcIncidentLight@AAmbientLightVolume@@QAE?AVFColor@@PAVUViewport@@VFVector@@1PAVAActor@@@Z @ 4475
?CalcIncidentLight@UModel@@QAE?AVFColor@@PAVUViewport@@PAVAActor@@VFVector@@21@Z @ 4476
?CalcIncidentLight@UStaticMesh@@QAE?AVFColor@@PAVUViewport@@PAVAActor@@VFVector@@21@Z @ 4477
?CalcIncidentLight@UTerrainPrimitive@@QAE?AVFColor@@PAVUViewport@@PAVAActor@@VFVector@@21@Z @ 4478
?CalcIncidentLightForDirectionalLightmaps@UModel@@QAE?AVFColor@@PAVUViewport@@PAVAActor@@VFVector@@2@Z @ 4479
?CalcInfluence@ALevelInfo@@QAEMPAVAActor@@HMPAVANavigationPoint@@@Z @ 4480
?CalcLayerTexCoords@ATerrainInfo@@QAEXXZ @ 4481
?CalcLightMapTexelsInfo@UStaticMesh@@QAEHHH@Z @ 4482
?CalcLightmapTexelPosition@UModel@@QAEXPAVFLightMapTexture@@PAUFBspVertex@@HPAHHMMMMHPAUFBSPTangentBinormal@@@Z @ 4483
?CalcMatrix@AProjector@@UAEXXZ @ 4484
?CalcMeshData@AwProcMesh@@QAEXXZ @ 4485
?CalcMovingAverage@FStats@@QAEXHK@Z @ 4486
?CalcNormal@FPoly@@QAEHH@Z @ 4487
?CalcPriority@FStreamingTexture@@QAEMXZ @ 4488
?CalcShadowMapMatrices@UCascadedShadowMaps@@QAEXHAAVFMatrix@@00VFVector@@PAVFSceneNode@@MM@Z @ 4489
?CalcShadowMappingSplitDepths@UCascadedShadowMaps@@QAEXPAM@Z @ 4490
?CalcSplinePos@USpline@@QAEHMAAVFVector@@00@Z @ 4491
?CalcTangentSpaceForTexel@UModel@@QAEXPAUFBspVertex@@PAUFBSPTangentBinormal@@PAHMMAAVFVector@@33@Z @ 4492
?CalculateNormals@USkeletalMesh@@QAEXAAV?$TArray@VFVector@@@@H@Z @ 4493
?CalculateRadiusMultiplier@ULevel@@UAEMHH@Z @ 4494
?CalculateViewProj@UCascadedShadowMaps@@QAEXAAVFMatrix@@0PAVFLevelSceneNode@@MM@Z @ 4495
?CanCrouchWalk@APawn@@QAEHABVFVector@@0PAVAActor@@@Z @ 4496
?CanHear@AController@@QAEHVFVector@@MPAVAActor@@@Z @ 4497
?CanHearSound@AController@@QAEHVFVector@@PAVAActor@@MPAM@Z @ 4498
?CanReach@ANavigationPoint@@QAEHPAV1@MH@Z @ 4499
?CanSerializeObject@UPackageMapLevel@@UAEHPAVUObject@@@Z @ 4500
?CancelPending@UGameEngine@@UAEXXZ @ 4501
?CancelServerPending@UGameEngine@@UAEXXZ @ 4502
?CaptureDevice@UAudioSubsystem@@2PAVFAudioCaptureDevice@@A @ 4503
?ChallengeResponse@UEngine@@UAEHH@Z @ 4504
?ChallengeResponse@UGameEngine@@UAEHH@Z @ 4505
?ChangeDisplayRes@UViewport@@UAEXHH@Z @ 4506
?ChangeIndex@UFinalEffect@@QAEXE@Z @ 4507
?ChangeOrientation@ASceneManager@@QAEXUFOrientation@@@Z @ 4508
?ChangeToClient@ULevel@@QAEHPBG@Z @ 4509
?ChangeToClient@UNetDriver@@UAEHPAVFURL@@PBGW4ETravelType@@@Z @ 4510
?ChangeToServer@ULevel@@QAEHPBG@Z @ 4511
?ChangeToServer@UNetDriver@@UAEHPAVFURL@@PBGW4ETravelType@@@Z @ 4512
?Changed@UHardwareShader@@QAEXXZ @ 4513
?ChannelClasses@UChannel@@2PAPAVUClass@@A @ 4514
?CheckActorLocations@FCollisionHash@@UAEXPAVULevel@@@Z @ 4515
?CheckActorLocations@FCollisionOctree@@UAEXPAVULevel@@@Z @ 4516
?CheckActorNotReferenced@FCollisionHash@@UAEXPAVAActor@@@Z @ 4517
?CheckActorNotReferenced@FCollisionOctree@@UAEXPAVAActor@@@Z @ 4518
?CheckActorNotReferenced@FOctreeNode@@QAEXPAVAActor@@@Z @ 4519
?CheckAnimFinished@AActor@@UAEHH@Z @ 4520
?CheckAnimFinished@AController@@UAEHH@Z @ 4521
?CheckAnimFinished@UMeshInstance@@UAEHH@Z @ 4522
?CheckCircularReferences@UBlendShader@@UAEHAAV?$TArray@PAVUMaterial@@@@@Z @ 4523
?CheckCircularReferences@UCombiner@@UAEHAAV?$TArray@PAVUMaterial@@@@@Z @ 4524
?CheckCircularReferences@UDecalShader@@UAEHAAV?$TArray@PAVUMaterial@@@@@Z @ 4525
?CheckCircularReferences@UMaterial@@UAEHAAV?$TArray@PAVUMaterial@@@@@Z @ 4526
?CheckCircularReferences@UMaterialSequence@@UAEHAAV?$TArray@PAVUMaterial@@@@@Z @ 4527
?CheckCircularReferences@UMaterialSwitch@@UAEHAAV?$TArray@PAVUMaterial@@@@@Z @ 4528
?CheckCircularReferences@UModifier@@UAEHAAV?$TArray@PAVUMaterial@@@@@Z @ 4529
?CheckCircularReferences@UShader@@UAEHAAV?$TArray@PAVUMaterial@@@@@Z @ 4530
?CheckComputeDataOnLoad@ATerrainInfo@@QAEXXZ @ 4531
?CheckDefaultGameType@ULevel@@QAEXPBG@Z @ 4532
?CheckDetour@APawn@@QAEPAVANavigationPoint@@PAV2@0H@Z @ 4533
?CheckEncroachment@ULevel@@UAEHPAVAActor@@VFVector@@VFRotator@@H@Z @ 4534
?CheckEnemyVisible@AController@@QAEXXZ @ 4535
?CheckFallback@UBlendShader@@UAEPAVUMaterial@@XZ @ 4536
?CheckFallback@UDecalShader@@UAEPAVUMaterial@@XZ @ 4537
?CheckFallback@UMaterial@@UAEPAV1@XZ @ 4538
?CheckFallback@UShader@@UAEPAVUMaterial@@XZ @ 4539
?CheckFallback@UTerrainMaterial@@UAEPAVUMaterial@@XZ @ 4540
?CheckFears@AController@@QAEXXZ @ 4541
?CheckForErrors@AActor@@UAEXXZ @ 4542
?CheckForErrors@ABrush@@UAEXXZ @ 4543
?CheckForErrors@AKConstraint@@UAEXXZ @ 4544
?CheckForErrors@ALevelInfo@@UAEXXZ @ 4545
?CheckForErrors@ANavigationPoint@@UAEXXZ @ 4546
?CheckForErrors@ANote@@UAEXXZ @ 4547
?CheckForErrors@APawn@@UAEXXZ @ 4548
?CheckForErrors@APhysicsVolume@@UAEXXZ @ 4549
?CheckForErrors@APickup@@UAEXXZ @ 4550
?CheckForErrors@ASceneManager@@UAEXXZ @ 4551
?CheckForErrors@ATerrainInfo@@UAEXXZ @ 4552
?CheckForErrors@AwPickUpBase@@UAEXXZ @ 4553
?CheckForErrors@UStaticMesh@@UAEXXZ @ 4554
?CheckForLedges@APawn@@QAE?AVFVector@@V2@00AAH1@Z @ 4555
?CheckForProjectors@AEmitter@@UAEHXZ @ 4556
?CheckForProneEnable@APawn@@QAEHXZ @ 4557
?CheckForProneMove@APawn@@QAE?AVFVector@@V2@00@Z @ 4558
?CheckForProneRotate@APawn@@QAEHHH@Z @ 4559
?CheckForRogues@UGameEngine@@QAEHXZ @ 4560
?CheckHearSound@AController@@UAEXPAVAActor@@HPAVUSound@@VFVector@@MHH@Z @ 4561
?CheckHearSound@APlayerController@@UAEXPAVAActor@@HPAVUSound@@VFVector@@MHH@Z @ 4562
?CheckIsEmpty@FCollisionHash@@UAEXXZ @ 4563
?CheckIsEmpty@FCollisionOctree@@UAEXXZ @ 4564
?CheckIsEmpty@FOctreeNode@@QAEXXZ @ 4565
?CheckNoiseHearing@AActor@@QAEXM@Z @ 4566
?CheckOwnerUpdated@AActor@@UAEHXZ @ 4567
?CheckOwnerUpdated@AKConstraint@@UAEHXZ @ 4568
?CheckOwnerUpdated@APawn@@UAEHXZ @ 4569
?CheckSlice@ULevel@@UAEHAAVFVector@@V2@AAH@Z @ 4570
?CheckSpeedHackImp2@APlayerController@@QAE_NM@Z @ 4571
?CheckSpeedHackImp@APlayerController@@QAEXMPAX@Z @ 4572
?CheckSymmetry@ANavigationPoint@@UAEXPAV1@@Z @ 4573
?CheckSymmetry@APathNode@@UAEXPAVANavigationPoint@@@Z @ 4574
?CleanUp@?$TArray@E@@QAEXXZ @ 4575
?CleanUp@UBeamEmitter@@UAEXXZ @ 4576
?CleanUp@UDistortEmitter@@UAEXXZ @ 4577
?CleanUp@UParticleEmitter@@UAEXXZ @ 4578
?CleanUp@USparkEmitter@@UAEXXZ @ 4579
?CleanUp@USpriteEmitter@@UAEXXZ @ 4580
?CleanUp@UTrailEmitter@@UAEXXZ @ 4581
?CleanUpGLevel@UGameEngine@@UAEXABVFURL@@H@Z @ 4582
?CleanUpPruned@ANavigationPoint@@QAEXXZ @ 4583
?CleanupDestroyed@ULevel@@UAEXH@Z @ 4584
?CleanupPreviewActors@ASceneManager@@QAEXXZ @ 4585
?CleanupSubObjects@AActor@@UAEXXZ @ 4586
?CleanupSubObjects@APlayerController@@UAEXXZ @ 4587
?CleanupSubObjects@AwWeapon@@UAEXXZ @ 4588
?Clear@FMipmap@@QAEXXZ @ 4589
?Clear@FRenderInterface@@UAEXHHVFColor@@HMHK@Z @ 4590
?Clear@FStats@@QAEXXZ @ 4591
?Clear@UTexture@@UAEXK@Z @ 4592
?Clear@UTexture@@UAEXVFColor@@@Z @ 4593
?ClearDirectionalLightMapEdge@UStaticMesh@@QAEXPAPAVUTexture@@@Z @ 4594
?ClearFallbacks@UMaterial@@SAXXZ @ 4595
?ClearForPathFinding@ANavigationPoint@@UAEXXZ @ 4596
?ClearLightMapEdge@UModel@@QAEXHPAVUTexture@@@Z @ 4597
?ClearLightMapEdge@UModel@@QAEXXZ @ 4598
?ClearLightMapEdge@UStaticMesh@@QAEXPAVUTexture@@@Z @ 4599
?ClearMarker@AAIScript@@UAEXXZ @ 4600
?ClearMarker@AActor@@UAEXXZ @ 4601
?ClearMarker@AMover@@UAEXXZ @ 4602
?ClearMarker@APickup@@UAEXXZ @ 4603
?ClearMarker@AwPickUpBase@@UAEXXZ @ 4604
?ClearNatCheckStater@UNetDriver@@UAEHE@Z @ 4605
?ClearOctreeData@AActor@@QAEXXZ @ 4606
?ClearPaths@AJumpDest@@UAEXXZ @ 4607
?ClearPaths@ALadder@@UAEXXZ @ 4608
?ClearPaths@ANavigationPoint@@UAEXXZ @ 4609
?ClearRenderData@AActor@@QAEXXZ @ 4610
?ClearRenderData@UModel@@QAEXPAVURenderDevice@@@Z @ 4611
?ClearSerpentine@APawn@@QAEXXZ @ 4612
?ClearSkelAnims@USkeletalMeshInstance@@QAEXXZ @ 4613
?ClearStayingLines@FTempLineBatcher@@QAEXXZ @ 4614
?Click@FHitObserver@@UAEXABUFHitCause@@ABUHHitProxy@@@Z @ 4615
?Click@HHitProxy@@UAEXABUFHitCause@@@Z @ 4616
?Click@UGameEngine@@UAEXPAVUViewport@@KMM@Z @ 4617
?Click@UTexture@@UAEXKMM@Z @ 4618
?ClientInit@UGameEngine@@UAEXABVFURL@@@Z @ 4619
?ClipPolygon@FConvexVolume@@QAE?AVFPoly@@V2@@Z @ 4620
?ClippedPrint@UCanvas@@UAEXPAVUFont@@MMHPBG@Z @ 4621
?ClippedStrLen@UCanvas@@UAEXPAVUFont@@MMAAM1PBG@Z @ 4622
?Close@UActorChannel@@UAEXXZ @ 4623
?Close@UCacheManager@@IAEXXZ @ 4624
?Close@UChannel@@UAEXXZ @ 4625
?CloseWebInClient@UViewport@@UAEXXZ @ 4626
?CodecFrameSize@UAudioSubsystem@@2PAHA @ 4627
?CodecFrequency@UAudioSubsystem@@2PAHA @ 4628
?CodecPacketSize@UAudioSubsystem@@2PAHA @ 4629
?CodecPacketTime@UAudioSubsystem@@2PAHA @ 4630
?CollisionTag@FCollisionHash@@2HA @ 4631
?CombineLayerWeights@ATerrainInfo@@QAEXXZ @ 4632
?CompactActors@ULevel@@UAEXXZ @ 4633
?Compress@UTexture@@QAEHW4ETextureFormat@@HPAUFDXTCompressionOptions@@@Z @ 4634
?CompressLightmaps@UModel@@QAEXH@Z @ 4635
?ConformBones@UMeshAnimation@@UAEXPAV1@PAVUSkeletalMesh@@@Z @ 4636
?ConformSkeletonTo@USkeletalMesh@@QAEHPAV1@H@Z @ 4637
?ConstantTimeTick@UTexture@@UAEXXZ @ 4638
?ConvertDXT@UTexture@@QAE?AW4ETextureFormat@@HHHPAPAE@Z @ 4639
?ConvertDXT@UTexture@@QAE?AW4ETextureFormat@@XZ @ 4640
?ConvertHeightmapFormat@ATerrainInfo@@QAEXXZ @ 4641
?ConvertPolyFlagsToMaterial@UMaterial@@QAEPAV1@PAV1@K@Z @ 4642
?ConvexVolumeMultiCheck@UModel@@QAEHAAVFBox@@PAVFPlane@@HVFVector@@AAV?$TArray@H@@@Z @ 4643
?CopyAnimation@USkeletalMeshInstance@@QAEXHH@Z @ 4644
?CopyPosRotScaleFrom@ABrush@@UAEXPAV1@@Z @ 4645
?CountBytes@?$TArray@E@@QAEXAAVFArchive@@@Z @ 4646
?CreateAuthenticationKey@ULodMesh@@UAEKH@Z @ 4647
?CreateAuthenticationKey@USkeletalMesh@@UAEKH@Z @ 4648
?CreateAuthenticationKey@UStaticMesh@@QAEKH@Z @ 4649
?CreateChannel@UNetConnection@@QAEPAVUChannel@@W4EChannelType@@HH@Z @ 4650
?CreateColorRange@UTexture@@QAEXXZ @ 4651
?CreateDLColorStream@UTerrainSector@@QAEXXZ @ 4652
?CreateFileManager@UCacheManager@@QBEPAVFCacheFileManager@@K@Z @ 4653
?CreateGameInfo@ULevel@@QAEHPAVUPackageMap@@@Z @ 4654
?CreateMapEntry@UCacheManager@@ABEHPBVULevelSummary@@AAVFString@@@Z @ 4655
?CreateMips@UTexture@@QAEXHHHVFColor@@@Z @ 4656
?CreateNatChecker@UNetDriver@@UAEHPAVUGameEngine@@@Z @ 4657
?CreateNetDriver@UBTLoadingAdvancer@@QAEHPAGH@Z @ 4658
?CreateNetDriver@UBTLoadingState@@UAEHPAGH@Z @ 4659
?CreatePackageEntry@UCacheManager@@ABEHPAVUClass@@AAVFString@@@Z @ 4660
?CreatePackageEntry@UCacheManager@@ABEHPBVAAnnouncerVoice@@AAVFString@@@Z @ 4661
?CreatePackageEntry@UCacheManager@@ABEHPBVAGameInfo@@AAVFString@@@Z @ 4662
?CreatePackageEntry@UCacheManager@@ABEHPBVAMutator@@AAVFString@@@Z @ 4663
?CreatePackageEntry@UCacheManager@@ABEHPBVAVehicle@@AAVFString@@@Z @ 4664
?CreatePackageEntry@UCacheManager@@ABEHPBVAwWeapon@@AAVFString@@@Z @ 4665
?CreatePackageEntry@UCacheManager@@ABEHPBVUCrosshairPack@@AAVFString@@@Z @ 4666
?CreatePostProcessByOption@FPlayerSceneNode@@UAEXPAVFRenderInterface@@@Z @ 4667
?CreateStream@UStreamInterface@@AAEPAVUStream@@AAVFString@@H@Z @ 4668
?CreateTracker@UCacheManager@@QBEPAVFCacheTracker@@XZ @ 4669
?Crouch@APawn@@QAEXH@Z @ 4670
?CurrentSkelAnim@USkeletalMeshInstance@@UAEPAVUMeshAnimation@@H@Z @ 4671
?DSServerTravel@UGameEngine@@QAEXPAG@Z @ 4672
?DWColor@FColor@@QAEAAKXZ @ 4673
?DWColor@FColor@@QBEABKXZ @ 4674
?Decompress@UTexture@@QAEHW4ETextureFormat@@@Z @ 4675
?Decrypt@FBlowFish@@QAEXPAXHVFString@@@Z @ 4676
?DecryptWithCDKeyHash@@YA?AVFString@@PBG00@Z @ 4677
?DefaultHost@FURL@@2VFString@@A @ 4678
?DefaultLOD@UTexture@@QAEHXZ @ 4679
?DefaultLocalMap@FURL@@2VFString@@A @ 4680
?DefaultMD5@UGameEngine@@QAEXXZ @ 4681
?DefaultMap@FURL@@2VFString@@A @ 4682
?DefaultMapExt@FURL@@2VFString@@A @ 4683
?DefaultName@FURL@@2VFString@@A @ 4684
?DefaultNetBrowseMap@FURL@@2VFString@@A @ 4685
?DefaultPort@FURL@@2HA @ 4686
?DefaultPortal@FURL@@2VFString@@A @ 4687
?DefaultProtocol@FURL@@2VFString@@A @ 4688
?DefaultProtocolDescription@FURL@@2VFString@@A @ 4689
?DefaultSaveExt@FURL@@2VFString@@A @ 4690
?DelayScriptReplication@AActor@@UAEHM@Z @ 4691
?DelayScriptReplication@APawn@@UAEHM@Z @ 4692
?Delete@FRebuildTools@@QAEXVFString@@@Z @ 4693
?DeletePathSamples@ASceneManager@@QAEXXZ @ 4694
?Deproject@FSceneNode@@QAE?AVFVector@@VFPlane@@@Z @ 4695
?Describe@UActorChannel@@UAE?AVFString@@XZ @ 4696
?Describe@UChannel@@UAE?AVFString@@XZ @ 4697
?Describe@UControlChannel@@UAE?AVFString@@XZ @ 4698
?Describe@UFileChannel@@UAE?AVFString@@XZ @ 4699
?Destroy@AActor@@UAEXXZ @ 4700
?Destroy@AAmbientLightVolume@@UAEXXZ @ 4701
?Destroy@AFileLog@@UAEXXZ @ 4702
?Destroy@AFluidSurfaceInfo@@UAEXXZ @ 4703
?Destroy@AFluidSurfaceOscillator@@UAEXXZ @ 4704
?Destroy@AKRepulsor@@UAEXXZ @ 4705
?Destroy@ANavigationPoint@@UAEXXZ @ 4706
?Destroy@AProjector@@UAEXXZ @ 4707
?Destroy@ASVehicle@@UAEXXZ @ 4708
?Destroy@ATerrainInfo@@UAEXXZ @ 4709
?Destroy@AwEmitter@@UAEXXZ @ 4710
?Destroy@AwProcMesh@@UAEXXZ @ 4711
?Destroy@AwWeatherEffect@@UAEXXZ @ 4712
?Destroy@FStreamingManagerTexture@@QAEXXZ @ 4713
?Destroy@UActorChannel@@UAEXXZ @ 4714
?Destroy@UBTLoadingAdvancer@@UAEXXZ @ 4715
?Destroy@UBTLoadingState@@UAEXXZ @ 4716
?Destroy@UBTMapLoader@@UAEXXZ @ 4717
?Destroy@UBTNetInterface@@UAEXXZ @ 4718
?Destroy@UCacheManager@@UAEXXZ @ 4719
?Destroy@UCanvas@@UAEXXZ @ 4720
?Destroy@UCascadedShadowMaps@@UAEXXZ @ 4721
?Destroy@UChannel@@UAEXXZ @ 4722
?Destroy@UChannelDownload@@UAEXXZ @ 4723
?Destroy@UClient@@UAEXXZ @ 4724
?Destroy@UControlChannel@@UAEXXZ @ 4725
?Destroy@UCubemap@@UAEXXZ @ 4726
?Destroy@UDOFEffect@@UAEXXZ @ 4727
?Destroy@UDownload@@UAEXXZ @ 4728
?Destroy@UDownloadTexture@@UAEXXZ @ 4729
?Destroy@UDripEffect@@UAEXXZ @ 4730
?Destroy@UEngine@@UAEXXZ @ 4731
?Destroy@UFileChannel@@UAEXXZ @ 4732
?Destroy@UFinalEffect@@UAEXXZ @ 4733
?Destroy@UFont@@UAEXXZ @ 4734
?Destroy@UGameEngine@@UAEXXZ @ 4735
?Destroy@UGlowEffect@@UAEXXZ @ 4736
?Destroy@UHardwareShader@@UAEXXZ @ 4737
?Destroy@UItemIterator@@UAEXXZ @ 4738
?Destroy@UKarmaParams@@UAEXXZ @ 4739
?Destroy@ULevel@@UAEXXZ @ 4740
?Destroy@ULevelBase@@UAEXXZ @ 4741
?Destroy@UModel@@UAEXXZ @ 4742
?Destroy@UMotionBlur@@UAEXXZ @ 4743
?Destroy@UMotionBlurEffect@@UAEXXZ @ 4744
?Destroy@UNetConnection@@UAEXXZ @ 4745
?Destroy@UNetDriver@@UAEXXZ @ 4746
?Destroy@UParticleEmitter@@UAEXXZ @ 4747
?Destroy@UPlayer@@UAEXXZ @ 4748
?Destroy@UProceduralSound@@UAEXXZ @ 4749
?Destroy@UProjectorPrimitive@@UAEXXZ @ 4750
?Destroy@USSAOEffect@@UAEXXZ @ 4751
?Destroy@UScriptedTexture@@UAEXXZ @ 4752
?Destroy@UShadowBitmapMaterial@@UAEXXZ @ 4753
?Destroy@USkeletalMesh@@UAEXXZ @ 4754
?Destroy@USkeletalMeshInstance@@UAEXXZ @ 4755
?Destroy@USound@@UAEXXZ @ 4756
?Destroy@USoundGroup@@UAEXXZ @ 4757
?Destroy@UStaticMesh@@UAEXXZ @ 4758
?Destroy@UStreamInteraction@@UAEXXZ @ 4759
?Destroy@UTerrainSector@@UAEXXZ @ 4760
?Destroy@UTexture@@UAEXXZ @ 4761
?Destroy@UTickChecker@@UAEXXZ @ 4762
?Destroy@UViewport@@UAEXXZ @ 4763
?Destroy@UVoiceChannel@@UAEXXZ @ 4764
?Destroy@UWebzenShopItemListDownloader@@UAEXXZ @ 4765
?DestroyActor@ULevel@@UAEHPAVAActor@@H@Z @ 4766
?DestroyClientLocalPackageMap@UBTMapLoader@@QAEXXZ @ 4767
?DestroyNative@UItemIterator@@QAEXXZ @ 4768
?DestroyNative@UwCharacterManager@@QAEXXZ @ 4769
?DestroyNative@UwGameManager@@QAEXXZ @ 4770
?DestroyNative@UwWeaponManager@@QAEXXZ @ 4771
?DestroyNetDriver@ULevelBase@@QAEXXZ @ 4772
?Detach@AProjector@@UAEXH@Z @ 4773
?DetachFromBone@AActor@@QAEHPAV1@@Z @ 4774
?DetachProjector@AActor@@QAEXPAVAProjector@@@Z @ 4775
?DetailChange@ULevel@@UAEXW4EDetailMode@@@Z @ 4776
?DirectAxis@UInput@@UAEXW4EInputKey@@MM@Z @ 4777
?DisableResourceStreaming@FStreamingManagerCollection@@QAEXXZ @ 4778
?DisconnectClientConnection@UNetDriver@@UAEHK@Z @ 4779
?DisconnectConnection@UGameEngine@@UAEXXZ @ 4780
?DisconnectGame@UGameEngine@@UAEXVFString@@HH@Z @ 4781
?DisplayCopyright@UInteractionMaster@@QAEXXZ @ 4782
?DissociateViewport@UGameEngine@@UAEXH@Z @ 4783
?DistanceToHashPlane@FCollisionHash@@AAEMHMMH@Z @ 4784
?DoCleanup@AActor@@UAEXXZ @ 4785
?DoCleanup@AWeaponAttachment@@UAEXXZ @ 4786
?DoCleanup@AwWeapon@@UAEXXZ @ 4787
?DoesLineIntersect@FPoly@@QAEHVFVector@@0PAV2@@Z @ 4788
?DownloadDone@UDownload@@UAEXXZ @ 4789
?DownloadError@UDownload@@UAEXPBG@Z @ 4790
?Draw2DLine@UCanvas@@QAEXMMMMVFColor@@@Z @ 4791
?Draw2DPoint@UCanvas@@QAEXMMVFColor@@@Z @ 4792
?Draw@FOctreeNode@@QAEXVFColor@@HPBVFPlane@@@Z @ 4793
?Draw@UGameEngine@@UAEXPAVUViewport@@HPAEPAH@Z @ 4794
?Draw@UKMeshProps@@QAEXPAVFRenderInterface@@H@Z @ 4795
?DrawActor@UCanvas@@QAEXPAVAActor@@HHM@Z @ 4796
?DrawBox@FLineBatcher@@QAEXVFBox@@VFColor@@@Z @ 4797
?DrawCircle@FLineBatcher@@QAEXVFVector@@00VFColor@@MH@Z @ 4798
?DrawConvexVolume@FLineBatcher@@QAEXVFConvexVolume@@VFColor@@@Z @ 4799
?DrawCylinder@FLineBatcher@@QAEXPAVFRenderInterface@@VFVector@@111VFColor@@MMH@Z @ 4800
?DrawDirectionalArrow@FLineBatcher@@QAEXVFVector@@VFRotator@@VFColor@@M@Z @ 4801
?DrawDynQuads@FRenderInterface@@UAEXH@Z @ 4802
?DrawFlaggedActors@FOctreeNode@@QAEXPAVFCollisionOctree@@PBVFPlane@@@Z @ 4803
?DrawIcon@UCanvas@@UAEXPAVUMaterial@@MMMMMVFPlane@@1@Z @ 4804
?DrawLine@FCanvasUtil@@QAEXMMMMVFColor@@@Z @ 4805
?DrawLine@FLineBatcher@@QAEXVFVector@@0VFColor@@@Z @ 4806
?DrawPattern@UCanvas@@UAEXPAVUMaterial@@MMMMMMMMVFPlane@@1@Z @ 4807
?DrawPoint@FCanvasUtil@@QAEXMMMMMVFColor@@@Z @ 4808
?DrawPoint@FLineBatcher@@QAEXPAVFSceneNode@@VFVector@@VFColor@@@Z @ 4809
?DrawQuads@FRenderInterface@@UAEXHH@Z @ 4810
?DrawScreenActor@UCanvas@@QAEXPAVAActor@@HHM@Z @ 4811
?DrawScreenActorWithViewport@UCanvas@@QAEXPAVAActor@@HHHHMHHM@Z @ 4812
?DrawSphere@FLineBatcher@@QAEXVFVector@@VFColor@@MH@Z @ 4813
?DrawString@FCanvasUtil@@QAEHHHPBGPAVUFont@@VFColor@@H@Z @ 4814
?DrawTextHK@UCanvas@@QAEXHHHHHPBG_NEE@Z @ 4815
?DrawTextJustified@UCanvas@@UAAXEMMMMPBGZZ @ 4816
?DrawTile@FCanvasUtil@@QAEXMMMMMMMMMPAVUMaterial@@VFColor@@@Z @ 4817
?DrawTile@FCanvasUtil@@QAEXVFVector@@000MMMMPAVUMaterial@@VFColor@@@Z @ 4818
?DrawTile@FPostProcessCanvasUtil@@QAEXMMMMMMMMMPAVUMaterial@@VFColor@@W4EVertexShader@@PAD@Z @ 4819
?DrawTile@UCanvas@@UAEXPAVUMaterial@@MMMMMMMMMVFPlane@@1@Z @ 4820
?DrawTileBound@UCanvas@@UAEXPAVUMaterial@@MMMM@Z @ 4821
?DrawTileJustified@UCanvas@@UAEXPAVUMaterial@@MMMME@Z @ 4822
?DrawTileScaleBound@UCanvas@@UAEXPAVUMaterial@@MMMM@Z @ 4823
?DrawTileScaled@UCanvas@@UAEXPAVUMaterial@@MMMM@Z @ 4824
?DrawTileStretched2@UCanvas@@UAEXPAVUMaterial@@MMMMMM@Z @ 4825
?DrawTileStretched@UCanvas@@UAEXPAVUMaterial@@MMMM@Z @ 4826
?DrawTileStretchedOrScaled@UCanvas@@UAEXPAVUMaterial@@MMMMMM@Z @ 4827
?DrawTileWithMatrix@UCanvas@@UAEXPAVUMaterial@@MMMMMMMMMVFPlane@@1VFMatrix@@@Z @ 4828
?DrawVolume@UMeshInstance@@UAEXPAVAActor@@PAVFRenderInterface@@VFVector@@@Z @ 4829
?DumpFrame@FID3V2Frame@@QAEXXZ @ 4830
?DumpTag@FID3TagV1@@UAEXXZ @ 4831
?DumpTag@FID3TagV2@@UAEXXZ @ 4832
?ENGINE_AIHearSound@@3VFName@@A @ 4833
?ENGINE_Accept@@3VFName@@A @ 4834
?ENGINE_AcceptInventory@@3VFName@@A @ 4835
?ENGINE_AcceptPlayInfoProperty@@3VFName@@A @ 4836
?ENGINE_AcceptVoice@@3VFName@@A @ 4837
?ENGINE_AccomplishMission100Percent@@3VFName@@A @ 4838
?ENGINE_AccomplishMission25Percent@@3VFName@@A @ 4839
?ENGINE_AccomplishMission50Percent@@3VFName@@A @ 4840
?ENGINE_AccomplishMission75Percent@@3VFName@@A @ 4841
?ENGINE_ActorEntered@@3VFName@@A @ 4842
?ENGINE_ActorEnteredVolume@@3VFName@@A @ 4843
?ENGINE_ActorLeaving@@3VFName@@A @ 4844
?ENGINE_ActorLeavingVolume@@3VFName@@A @ 4845
?ENGINE_AddBasePlayers@@3VFName@@A @ 4846
?ENGINE_AddCalcTime@@3VFName@@A @ 4847
?ENGINE_AddCameraEffect@@3VFName@@A @ 4848
?ENGINE_AddInteraction@@3VFName@@A @ 4849
?ENGINE_AddPostProcessEffect@@3VFName@@A @ 4850
?ENGINE_AdjustView@@3VFName@@A @ 4851
?ENGINE_AllowClassRemoval@@3VFName@@A @ 4852
?ENGINE_AllowDetourTo@@3VFName@@A @ 4853
?ENGINE_AnimEnd@@3VFName@@A @ 4854
?ENGINE_AnnouncementPlayed@@3VFName@@A @ 4855
?ENGINE_Attach@@3VFName@@A @ 4856
?ENGINE_AutoLoadMenus@@3VFName@@A @ 4857
?ENGINE_BaseChange@@3VFName@@A @ 4858
?ENGINE_BeginEvent@@3VFName@@A @ 4859
?ENGINE_BeginPlay@@3VFName@@A @ 4860
?ENGINE_BreathTimer@@3VFName@@A @ 4861
?ENGINE_Broadcast@@3VFName@@A @ 4862
?ENGINE_BroadcastLocalized@@3VFName@@A @ 4863
?ENGINE_BroadcastLocalizedMessage@@3VFName@@A @ 4864
?ENGINE_Bump@@3VFName@@A @ 4865
?ENGINE_CMDHK@@3VFName@@A @ 4866
?ENGINE_CalcFireNoiseTime@@3VFName@@A @ 4867
?ENGINE_ChangeAnimation@@3VFName@@A @ 4868
?ENGINE_ChatRoomMessage@@3VFName@@A @ 4869
?ENGINE_CheckEndGameCondition@@3VFName@@A @ 4870
?ENGINE_CheckProneAni@@3VFName@@A @ 4871
?ENGINE_ClearOtherLoadingState@@3VFName@@A @ 4872
?ENGINE_ClickCloseWndBtn@@3VFName@@A @ 4873
?ENGINE_ClientCloseMenu@@3VFName@@A @ 4874
?ENGINE_ClientHearSound@@3VFName@@A @ 4875
?ENGINE_ClientMessage@@3VFName@@A @ 4876
?ENGINE_ClientNameChange@@3VFName@@A @ 4877
?ENGINE_ClientNetworkMessage@@3VFName@@A @ 4878
?ENGINE_ClientOpenMenu@@3VFName@@A @ 4879
?ENGINE_ClientReplaceMenu@@3VFName@@A @ 4880
?ENGINE_ClientReset@@3VFName@@A @ 4881
?ENGINE_ClientSetPlayerScoreInfo@@3VFName@@A @ 4882
?ENGINE_ClientSetViewTargetZZ@@3VFName@@A @ 4883
?ENGINE_ClientSetViewTarget_NATIVE@@3VFName@@A @ 4884
?ENGINE_ClientSetWeaponInfo@@3VFName@@A @ 4885
?ENGINE_ClientStartFire@@3VFName@@A @ 4886
?ENGINE_ClientStopFire@@3VFName@@A @ 4887
?ENGINE_ClientTravel@@3VFName@@A @ 4888
?ENGINE_ClientTrigger@@3VFName@@A @ 4889
?ENGINE_ClientValidate@@3VFName@@A @ 4890
?ENGINE_CloseAll@@3VFName@@A @ 4891
?ENGINE_CloseMenu@@3VFName@@A @ 4892
?ENGINE_CollisionSound@@3VFName@@A @ 4893
?ENGINE_ConnectFailure@@3VFName@@A @ 4894
?ENGINE_ConvertToFileExtension@@3VFName@@A @ 4895
?ENGINE_ConvertToFileType@@3VFName@@A @ 4896
?ENGINE_CreateBackGroundImage@@3VFName@@A @ 4897
?ENGINE_CreateGameStateStorageSender@@3VFName@@A @ 4898
?ENGINE_CreatePingChecker@@3VFName@@A @ 4899
?ENGINE_DamageLog@@3VFName@@A @ 4900
?ENGINE_DelayedWarning@@3VFName@@A @ 4901
?ENGINE_DemoPlaySound@@3VFName@@A @ 4902
?ENGINE_Desireability@@3VFName@@A @ 4903
?ENGINE_DestroyBackGroundImage@@3VFName@@A @ 4904
?ENGINE_DestroyGameStateStorageSender@@3VFName@@A @ 4905
?ENGINE_DestroyPlayerReplicationInfo@@3VFName@@A @ 4906
?ENGINE_DestroyScript@@3VFName@@A @ 4907
?ENGINE_Destroyed@@3VFName@@A @ 4908
?ENGINE_Detach@@3VFName@@A @ 4909
?ENGINE_DetailChange@@3VFName@@A @ 4910
?ENGINE_DetourWeight@@3VFName@@A @ 4911
?ENGINE_DisableInteraction@@3VFName@@A @ 4912
?ENGINE_DisableInteractions@@3VFName@@A @ 4913
?ENGINE_DrawLoadingScreen@@3VFName@@A @ 4914
?ENGINE_DrawOtherLoadingState@@3VFName@@A @ 4915
?ENGINE_DrawVignette@@3VFName@@A @ 4916
?ENGINE_DrivingStatusChanged@@3VFName@@A @ 4917
?ENGINE_EnableInteraction@@3VFName@@A @ 4918
?ENGINE_EnableInteractions@@3VFName@@A @ 4919
?ENGINE_EncroachedBy@@3VFName@@A @ 4920
?ENGINE_EncroachingOn@@3VFName@@A @ 4921
?ENGINE_EndCrouch@@3VFName@@A @ 4922
?ENGINE_EndEvent@@3VFName@@A @ 4923
?ENGINE_EndLoading@@3VFName@@A @ 4924
?ENGINE_EndMatch@@3VFName@@A @ 4925
?ENGINE_EndProne@@3VFName@@A @ 4926
?ENGINE_EndedRotation@@3VFName@@A @ 4927
?ENGINE_EnemyNotVisible@@3VFName@@A @ 4928
?ENGINE_EventForceBegin@@3VFName@@A @ 4929
?ENGINE_Falling@@3VFName@@A @ 4930
?ENGINE_FellOutOfWorld@@3VFName@@A @ 4931
?ENGINE_FillPrecacheMaterialsArray@@3VFName@@A @ 4932
?ENGINE_FillPrecacheSkeletalMeshesArray@@3VFName@@A @ 4933
?ENGINE_FillPrecacheStaticMeshesArray@@3VFName@@A @ 4934
?ENGINE_FinishedInterpolation@@3VFName@@A @ 4935
?ENGINE_ForceBeginPlay@@3VFName@@A @ 4936
?ENGINE_ForceGameOver@@3VFName@@A @ 4937
?ENGINE_ForceGenerate@@3VFName@@A @ 4938
?ENGINE_ForcePostBeginPlay@@3VFName@@A @ 4939
?ENGINE_ForcePostNetBeginPlay@@3VFName@@A @ 4940
?ENGINE_ForcePreBeginPlay@@3VFName@@A @ 4941
?ENGINE_ForceSetGRIInitialState@@3VFName@@A @ 4942
?ENGINE_ForceSetInitialState@@3VFName@@A @ 4943
?ENGINE_ForcedAddPRI@@3VFName@@A @ 4944
?ENGINE_ForcedChangeTeam@@3VFName@@A @ 4945
?ENGINE_ForcedRemovePRI@@3VFName@@A @ 4946
?ENGINE_ForcedStartMatch@@3VFName@@A @ 4947
?ENGINE_GainedChild@@3VFName@@A @ 4948
?ENGINE_GameEnding@@3VFName@@A @ 4949
?ENGINE_Generate@@3VFName@@A @ 4950
?ENGINE_GetAmmoCount@@3VFName@@A @ 4951
?ENGINE_GetBaseParam@@3VFName@@A @ 4952
?ENGINE_GetBeaconText@@3VFName@@A @ 4953
?ENGINE_GetChannelCount@@3VFName@@A @ 4954
?ENGINE_GetChannelIndex@@3VFName@@A @ 4955
?ENGINE_GetDescriptionText@@3VFName@@A @ 4956
?ENGINE_GetHostBlocking@@3VFName@@A @ 4957
?ENGINE_GetLoadingImage@@3VFName@@A @ 4958
?ENGINE_GetMaxCalcTime@@3VFName@@A @ 4959
?ENGINE_GetMiniMapInfoImage@@3VFName@@A @ 4960
?ENGINE_GetNameCallSign@@3VFName@@A @ 4961
?ENGINE_GetNearFlag@@3VFName@@A @ 4962
?ENGINE_GetPathRoot@@3VFName@@A @ 4963
?ENGINE_GetScreenPos@@3VFName@@A @ 4964
?ENGINE_GetSecurityLevel@@3VFName@@A @ 4965
?ENGINE_GetSound@@3VFName@@A @ 4966
?ENGINE_GivePawn@@3VFName@@A @ 4967
?ENGINE_GotoDefaultState@@3VFName@@A @ 4968
?ENGINE_HasExtension@@3VFName@@A @ 4969
?ENGINE_HeadVolumeChange@@3VFName@@A @ 4970
?ENGINE_HearNoise@@3VFName@@A @ 4971
?ENGINE_HitWall@@3VFName@@A @ 4972
?ENGINE_Init@@3VFName@@A @ 4973
?ENGINE_InitGame@@3VFName@@A @ 4974
?ENGINE_InitHK@@3VFName@@A @ 4975
?ENGINE_InitInputSystem@@3VFName@@A @ 4976
?ENGINE_InitMyPlayer@@3VFName@@A @ 4977
?ENGINE_InitPrecacheItems@@3VFName@@A @ 4978
?ENGINE_InitScript@@3VFName@@A @ 4979
?ENGINE_InitWeaponPrecacheClasses@@3VFName@@A @ 4980
?ENGINE_Initialize@@3VFName@@A @ 4981
?ENGINE_InitializeController@@3VFName@@A @ 4982
?ENGINE_InitializeMapSettings_DS_Server@@3VFName@@A @ 4983
?ENGINE_Initialized@@3VFName@@A @ 4984
?ENGINE_IsLoading@@3VFName@@A @ 4985
?ENGINE_IsMember@@3VFName@@A @ 4986
?ENGINE_IsSDRespawnTime@@3VFName@@A @ 4987
?ENGINE_IsVehicleEmpty@@3VFName@@A @ 4988
?ENGINE_KApplyForce@@3VFName@@A @ 4989
?ENGINE_KDriverLeave@@3VFName@@A @ 4990
?ENGINE_KForceExceed@@3VFName@@A @ 4991
?ENGINE_KImpact@@3VFName@@A @ 4992
?ENGINE_KSkelConvulse@@3VFName@@A @ 4993
?ENGINE_KUpdateState@@3VFName@@A @ 4994
?ENGINE_KVehicleUpdateParams@@3VFName@@A @ 4995
?ENGINE_KVelDropBelow@@3VFName@@A @ 4996
?ENGINE_KeyFrameReached@@3VFName@@A @ 4997
?ENGINE_KickIdler@@3VFName@@A @ 4998
?ENGINE_KickWarning@@3VFName@@A @ 4999
?ENGINE_KilledBy@@3VFName@@A @ 5000
?ENGINE_LIPSincAnimEnd@@3VFName@@A @ 5001
?ENGINE_Landed@@3VFName@@A @ 5002
?ENGINE_LightUpdate@@3VFName@@A @ 5003
?ENGINE_LoadLevelMark@@3VFName@@A @ 5004
?ENGINE_LoadWeaponRes@@3VFName@@A @ 5005
?ENGINE_LockOnWarning@@3VFName@@A @ 5006
?ENGINE_Login@@3VFName@@A @ 5007
?ENGINE_LongFall@@3VFName@@A @ 5008
?ENGINE_LostChild@@3VFName@@A @ 5009
?ENGINE_MayDodgeToMoveTarget@@3VFName@@A @ 5010
?ENGINE_MayFall@@3VFName@@A @ 5011
?ENGINE_MissedDodge@@3VFName@@A @ 5012
?ENGINE_ModeDoFire@@3VFName@@A @ 5013
?ENGINE_ModeHoldFire@@3VFName@@A @ 5014
?ENGINE_ModeTick@@3VFName@@A @ 5015
?ENGINE_ModifyVelocity@@3VFName@@A @ 5016
?ENGINE_MonitoredPawnAlert@@3VFName@@A @ 5017
?ENGINE_MoveAutonomous@@3VFName@@A @ 5018
?ENGINE_NativeConsoleOpen@@3VFName@@A @ 5019
?ENGINE_NeedToOffIME@@3VFName@@A @ 5020
?ENGINE_NeedsFlip@@3VFName@@A @ 5021
?ENGINE_NeedsMenuResolution@@3VFName@@A @ 5022
?ENGINE_NoTranslocatorKeyPressed@@3VFName@@A @ 5023
?ENGINE_NotReachableBy@@3VFName@@A @ 5024
?ENGINE_Notify@@3VFName@@A @ 5025
?ENGINE_NotifyBump@@3VFName@@A @ 5026
?ENGINE_NotifyEndLoading@@3VFName@@A @ 5027
?ENGINE_NotifyEnemyLockedOn@@3VFName@@A @ 5028
?ENGINE_NotifyEnemyLostLock@@3VFName@@A @ 5029
?ENGINE_NotifyFallingHitWall@@3VFName@@A @ 5030
?ENGINE_NotifyHeadVolumeChange@@3VFName@@A @ 5031
?ENGINE_NotifyHitMover@@3VFName@@A @ 5032
?ENGINE_NotifyHitWall@@3VFName@@A @ 5033
?ENGINE_NotifyJumpApex@@3VFName@@A @ 5034
?ENGINE_NotifyLanded@@3VFName@@A @ 5035
?ENGINE_NotifyLevelChange@@3VFName@@A @ 5036
?ENGINE_NotifyMissedJump@@3VFName@@A @ 5037
?ENGINE_NotifyMusicChange@@3VFName@@A @ 5038
?ENGINE_NotifyPhysicsVolumeChange@@3VFName@@A @ 5039
?ENGINE_NotifyPostLanded@@3VFName@@A @ 5040
?ENGINE_NotifyRecordException@@3VFName@@A @ 5041
?ENGINE_NotifyReloaded@@3VFName@@A @ 5042
?ENGINE_OnAdjustVolume@@3VFName@@A @ 5043
?ENGINE_OnAdminReply@@3VFName@@A @ 5044
?ENGINE_OnBuildMOTD@@3VFName@@A @ 5045
?ENGINE_OnDisconnect@@3VFName@@A @ 5046
?ENGINE_OnIME_Notify@@3VFName@@A @ 5047
?ENGINE_OnPostRender@@3VFName@@A @ 5048
?ENGINE_OnReachedDestination@@3VFName@@A @ 5049
?ENGINE_OnRecivedPing@@3VFName@@A @ 5050
?ENGINE_OnRefresh@@3VFName@@A @ 5051
?ENGINE_OnReqSuccessStartGame@@3VFName@@A @ 5052
?ENGINE_OnStreamChanged@@3VFName@@A @ 5053
?ENGINE_OnStreamingStopped@@3VFName@@A @ 5054
?ENGINE_OpenMenu@@3VFName@@A @ 5055
?ENGINE_OverrideDownload@@3VFName@@A @ 5056
?ENGINE_ParseDirectories@@3VFName@@A @ 5057
?ENGINE_ParseExtension@@3VFName@@A @ 5058
?ENGINE_ParsePath@@3VFName@@A @ 5059
?ENGINE_PawnEnteredVolume@@3VFName@@A @ 5060
?ENGINE_PawnLeavingVolume@@3VFName@@A @ 5061
?ENGINE_PhysicsChangedFor@@3VFName@@A @ 5062
?ENGINE_PhysicsVolumeChange@@3VFName@@A @ 5063
?ENGINE_PlayDying@@3VFName@@A @ 5064
?ENGINE_PlayFalling@@3VFName@@A @ 5065
?ENGINE_PlayJump@@3VFName@@A @ 5066
?ENGINE_PlayLandedSound@@3VFName@@A @ 5067
?ENGINE_PlayLandingAnimation@@3VFName@@A @ 5068
?ENGINE_PlayTurretIdleAnim@@3VFName@@A @ 5069
?ENGINE_PlayerCalcView@@3VFName@@A @ 5070
?ENGINE_PlayerInput@@3VFName@@A @ 5071
?ENGINE_PlayerSeesMe@@3VFName@@A @ 5072
?ENGINE_PlayerTick@@3VFName@@A @ 5073
?ENGINE_PostBeginPlay@@3VFName@@A @ 5074
?ENGINE_PostLoadSavedGame@@3VFName@@A @ 5075
?ENGINE_PostLogin@@3VFName@@A @ 5076
?ENGINE_PostNetBeginPlay@@3VFName@@A @ 5077
?ENGINE_PostNetReceive@@3VFName@@A @ 5078
?ENGINE_PostRender2D@@3VFName@@A @ 5079
?ENGINE_PostRender@@3VFName@@A @ 5080
?ENGINE_PostRenderActors@@3VFName@@A @ 5081
?ENGINE_PostTeleport@@3VFName@@A @ 5082
?ENGINE_PostTouch@@3VFName@@A @ 5083
?ENGINE_PreBeginPlay@@3VFName@@A @ 5084
?ENGINE_PreClientTravel@@3VFName@@A @ 5085
?ENGINE_PreLogin@@3VFName@@A @ 5086
?ENGINE_PreSaveGame@@3VFName@@A @ 5087
?ENGINE_PreSpawned@@3VFName@@A @ 5088
?ENGINE_PreTeleport@@3VFName@@A @ 5089
?ENGINE_PrecacheInit@@3VFName@@A @ 5090
?ENGINE_PrepareForMove@@3VFName@@A @ 5091
?ENGINE_Process_KeyEvent@@3VFName@@A @ 5092
?ENGINE_Process_KeyType@@3VFName@@A @ 5093
?ENGINE_Process_Message@@3VFName@@A @ 5094
?ENGINE_Process_PostRender@@3VFName@@A @ 5095
?ENGINE_Process_PreRender@@3VFName@@A @ 5096
?ENGINE_Process_Tick@@3VFName@@A @ 5097
?ENGINE_ProgressCommand@@3VFName@@A @ 5098
?ENGINE_QuestLog@@3VFName@@A @ 5099
?ENGINE_RanInto@@3VFName@@A @ 5100
?ENGINE_ReadyToFire@@3VFName@@A @ 5101
?ENGINE_ReceiveLocalizedMessage@@3VFName@@A @ 5102
?ENGINE_ReceiveLocalizedMessageWithKillerInfo@@3VFName@@A @ 5103
?ENGINE_ReceiveMessage_QuestType1@@3VFName@@A @ 5104
?ENGINE_ReceiveMessage_QuestType2@@3VFName@@A @ 5105
?ENGINE_ReceiveMessage_QuestType3@@3VFName@@A @ 5106
?ENGINE_ReceiveMessage_QuestType4@@3VFName@@A @ 5107
?ENGINE_ReceiveWarning@@3VFName@@A @ 5108
?ENGINE_ReceivedPingAck@@3VFName@@A @ 5109
?ENGINE_RecoverFromBadStateCode@@3VFName@@A @ 5110
?ENGINE_RegistMap@@3VFName@@A @ 5111
?ENGINE_RegisterTurret@@3VFName@@A @ 5112
?ENGINE_RemoveBasePlayers@@3VFName@@A @ 5113
?ENGINE_RemoveCameraEffect@@3VFName@@A @ 5114
?ENGINE_RemoveInteraction@@3VFName@@A @ 5115
?ENGINE_RemovePostProcessEffect@@3VFName@@A @ 5116
?ENGINE_RenderTexture@@3VFName@@A @ 5117
?ENGINE_ReplaceMenu@@3VFName@@A @ 5118
?ENGINE_ReqSuccessStartGame@@3VFName@@A @ 5119
?ENGINE_SVehicleUpdateParams@@3VFName@@A @ 5120
?ENGINE_SceneAbort@@3VFName@@A @ 5121
?ENGINE_SceneEnded@@3VFName@@A @ 5122
?ENGINE_SceneStarted@@3VFName@@A @ 5123
?ENGINE_SeeMonster@@3VFName@@A @ 5124
?ENGINE_SeePlayer@@3VFName@@A @ 5125
?ENGINE_SendAllUserGameStateDataToInterventionUser@@3VFName@@A @ 5126
?ENGINE_SendClientAdjustment@@3VFName@@A @ 5127
?ENGINE_SendPingToChannelServer@@3VFName@@A @ 5128
?ENGINE_SendPingToOtherUser@@3VFName@@A @ 5129
?ENGINE_SendText@@3VFName@@A @ 5130
?ENGINE_ServerCallback@@3VFName@@A @ 5131
?ENGINE_ServerSetPlayerScoreInfo@@3VFName@@A @ 5132
?ENGINE_ServerSetWeaponInfo@@3VFName@@A @ 5133
?ENGINE_ServerStartFire@@3VFName@@A @ 5134
?ENGINE_ServerTravel@@3VFName@@A @ 5135
?ENGINE_ServerValidationResponse@@3VFName@@A @ 5136
?ENGINE_SetAmbientShake@@3VFName@@A @ 5137
?ENGINE_SetAnimAction@@3VFName@@A @ 5138
?ENGINE_SetChangingHostFlag@@3VFName@@A @ 5139
?ENGINE_SetFocusTo@@3VFName@@A @ 5140
?ENGINE_SetGRIInitialState@@3VFName@@A @ 5141
?ENGINE_SetGrammar@@3VFName@@A @ 5142
?ENGINE_SetHandle@@3VFName@@A @ 5143
?ENGINE_SetHeadScale@@3VFName@@A @ 5144
?ENGINE_SetHostBlocking@@3VFName@@A @ 5145
?ENGINE_SetInitialState@@3VFName@@A @ 5146
?ENGINE_SetNoUpdateAllGSSS@@3VFName@@A @ 5147
?ENGINE_SetOldTeamInfo@@3VFName@@A @ 5148
?ENGINE_SetPlayerID@@3VFName@@A @ 5149
?ENGINE_SetPrecached@@3VFName@@A @ 5150
?ENGINE_SetProgressMessage@@3VFName@@A @ 5151
?ENGINE_SetProgressTime@@3VFName@@A @ 5152
?ENGINE_SetRequiredGameResolution@@3VFName@@A @ 5153
?ENGINE_SetShadowLight@@3VFName@@A @ 5154
?ENGINE_SetSprinting@@3VFName@@A @ 5155
?ENGINE_SetTurretIdleAnimFrame@@3VFName@@A @ 5156
?ENGINE_SetWheelsScale@@3VFName@@A @ 5157
?ENGINE_SetupSpecialPathAbilities@@3VFName@@A @ 5158
?ENGINE_ShakeViewEvent@@3VFName@@A @ 5159
?ENGINE_SimpleLogin@@3VFName@@A @ 5160
?ENGINE_SoakStop@@3VFName@@A @ 5161
?ENGINE_SpawnParticle@@3VFName@@A @ 5162
?ENGINE_SpecialCost@@3VFName@@A @ 5163
?ENGINE_SpecialHandling@@3VFName@@A @ 5164
?ENGINE_Stalled@@3VFName@@A @ 5165
?ENGINE_StartClientDemoRec@@3VFName@@A @ 5166
?ENGINE_StartCrouch@@3VFName@@A @ 5167
?ENGINE_StartDriving@@3VFName@@A @ 5168
?ENGINE_StartLoading@@3VFName@@A @ 5169
?ENGINE_StartProne@@3VFName@@A @ 5170
?ENGINE_StopDriving@@3VFName@@A @ 5171
?ENGINE_StopFire@@3VFName@@A @ 5172
?ENGINE_StopPlayFiring@@3VFName@@A @ 5173
?ENGINE_StorePlayerScoreInfo@@3VFName@@A @ 5174
?ENGINE_StoreWeaponInfo@@3VFName@@A @ 5175
?ENGINE_StreamFinished@@3VFName@@A @ 5176
?ENGINE_SuggestMovePreparation@@3VFName@@A @ 5177
?ENGINE_SunLightDirectionUpdate@@3VFName@@A @ 5178
?ENGINE_SuperDesireability@@3VFName@@A @ 5179
?ENGINE_TakeDamage@@3VFName@@A @ 5180
?ENGINE_TakeHeadRoundBullet@@3VFName@@A @ 5181
?ENGINE_TakeWaterDamage@@3VFName@@A @ 5182
?ENGINE_TeamChanged@@3VFName@@A @ 5183
?ENGINE_TeamMessage@@3VFName@@A @ 5184
?ENGINE_ThirdPersonEffects@@3VFName@@A @ 5185
?ENGINE_Tick@@3VFName@@A @ 5186
?ENGINE_Timer@@3VFName@@A @ 5187
?ENGINE_TornOff@@3VFName@@A @ 5188
?ENGINE_Touch@@3VFName@@A @ 5189
?ENGINE_TravelPostAccept@@3VFName@@A @ 5190
?ENGINE_TravelPreAccept@@3VFName@@A @ 5191
?ENGINE_Trigger@@3VFName@@A @ 5192
?ENGINE_TriggerEvent@@3VFName@@A @ 5193
?ENGINE_UnPressButtons@@3VFName@@A @ 5194
?ENGINE_UnStalled@@3VFName@@A @ 5195
?ENGINE_UnTouch@@3VFName@@A @ 5196
?ENGINE_UnTrigger@@3VFName@@A @ 5197
?ENGINE_UpdateBlockList@@3VFName@@A @ 5198
?ENGINE_UpdateCharInfo@@3VFName@@A @ 5199
?ENGINE_UpdateCharacter@@3VFName@@A @ 5200
?ENGINE_UpdateClanInfo@@3VFName@@A @ 5201
?ENGINE_UpdateClanList@@3VFName@@A @ 5202
?ENGINE_UpdateEquipItemInfo@@3VFName@@A @ 5203
?ENGINE_UpdateEyeHeight@@3VFName@@A @ 5204
?ENGINE_UpdateFriendList@@3VFName@@A @ 5205
?ENGINE_UpdateGameRoomInfo@@3VFName@@A @ 5206
?ENGINE_UpdateHit@@3VFName@@A @ 5207
?ENGINE_UpdateItemList@@3VFName@@A @ 5208
?ENGINE_UpdateLastKnownPosAndTime@@3VFName@@A @ 5209
?ENGINE_UpdateMoneyInfo@@3VFName@@A @ 5210
?ENGINE_UpdateMyLoadingState@@3VFName@@A @ 5211
?ENGINE_UpdateOtherLoadingState@@3VFName@@A @ 5212
?ENGINE_UpdatePCBangInfo@@3VFName@@A @ 5213
?ENGINE_UpdatePCBangList@@3VFName@@A @ 5214
?ENGINE_UpdatePenetrateHit@@3VFName@@A @ 5215
?ENGINE_UpdatePositionInfo@@3VFName@@A @ 5216
?ENGINE_UpdateProgress@@3VFName@@A @ 5217
?ENGINE_UpdateQuestList@@3VFName@@A @ 5218
?ENGINE_UpdateQuickSlotBoxList@@3VFName@@A @ 5219
?ENGINE_UpdateRankingInfo@@3VFName@@A @ 5220
?ENGINE_UpdateRecv_CharInfo@@3VFName@@A @ 5221
?ENGINE_UpdateServerTime@@3VFName@@A @ 5222
?ENGINE_UpdateSkillBoxList@@3VFName@@A @ 5223
?ENGINE_UpdateSunLight@@3VFName@@A @ 5224
?ENGINE_UpdateTiltForceFeedback@@3VFName@@A @ 5225
?ENGINE_UpdateVehicle@@3VFName@@A @ 5226
?ENGINE_UpdateWebzenItemList@@3VFName@@A @ 5227
?ENGINE_UpdateWebzenShopItemList@@3VFName@@A @ 5228
?ENGINE_UpdateWebzenShopVerInfo@@3VFName@@A @ 5229
?ENGINE_UsedBy@@3VFName@@A @ 5230
?ENGINE_VehicleDestroyed@@3VFName@@A @ 5231
?ENGINE_VehicleLocked@@3VFName@@A @ 5232
?ENGINE_VehiclePossessed@@3VFName@@A @ 5233
?ENGINE_VehicleStateReceived@@3VFName@@A @ 5234
?ENGINE_VehicleUnPossessed@@3VFName@@A @ 5235
?ENGINE_VerifyLock@@3VFName@@A @ 5236
?ENGINE_ViewportInitialized@@3VFName@@A @ 5237
?ENGINE_VoiceCommand@@3VFName@@A @ 5238
?ENGINE_WeaponTick@@3VFName@@A @ 5239
?ENGINE_WorldSpaceOverlays@@3VFName@@A @ 5240
?ENGINE_ZoneChange@@3VFName@@A @ 5241
?ENGINE_alllog@@3VFName@@A @ 5242
?ENGINE_clearResultArray@@3VFName@@A @ 5243
?ENGINE_clog@@3VFName@@A @ 5244
?ENGINE_ctlog@@3VFName@@A @ 5245
?ENGINE_dblog@@3VFName@@A @ 5246
?ENGINE_dele_UpdateEventTimer@@3VFName@@A @ 5247
?ENGINE_fClientHearSound@@3VFName@@A @ 5248
?ENGINE_getResult@@3VFName@@A @ 5249
?ENGINE_rpclog@@3VFName@@A @ 5250
?ENGINE_wLoadOut@@3VFName@@A @ 5251
?EdCallback@UEngine@@UAEXKHK@Z @ 5252
?EditorDestroyActor@ULevel@@QAEHPAVAActor@@@Z @ 5253
?Empty@?$TArray@E@@QAEXH@Z @ 5254
?EmptyElements@FKAggregateGeom@@QAEXXZ @ 5255
?EmptyModel@UModel@@QAEXHH@Z @ 5256
?EnableChannelNotify@USkeletalMeshInstance@@QAEHHH@Z @ 5257
?EnableResourceStreaming@FStreamingManagerCollection@@QAEXXZ @ 5258
?Encompasses@AVolume@@QAEHVFVector@@@Z @ 5259
?EncroachingWorldGeometry@ULevel@@UAEHAAUFCheckResult@@VFVector@@1KPAVALevelInfo@@@Z @ 5260
?Encrypt@FBlowFish@@QAEXPAXHVFString@@@Z @ 5261
?EncryptWithCDKeyHash@@YA?AVFString@@PBG0@Z @ 5262
?EndCache@UCanvas@@QAEXXZ @ 5263
?EndLoading@UBTLoadingAdvancer@@QAEHXZ @ 5264
?EndPainting@UTerrainBrush@@QAEXPAVUTexture@@PAVATerrainInfo@@@Z @ 5265
?EndQueryIssue@FRenderInterface@@UAEXH@Z @ 5266
?EndTouch@AActor@@QAEXPAV1@H@Z @ 5267
?ErrorHandling@UBTLoadingAdvancer@@QAEHXZ @ 5268
?Evaluate@FBezier@@QAEMPAVFVector@@HPAV?$TArray@VFVector@@@@@Z @ 5269
?Exec@FStatGraph@@QAEHPBGAAVFOutputDevice@@@Z @ 5270
?Exec@FStreamingManagerBase@@UAEHPBGAAVFOutputDevice@@@Z @ 5271
?Exec@FStreamingManagerCollection@@UAEHPBGAAVFOutputDevice@@@Z @ 5272
?Exec@FStreamingManagerTexture@@UAEHPBGAAVFOutputDevice@@@Z @ 5273
?Exec@UAudioSubsystem@@UAEHPBGAAVFOutputDevice@@@Z @ 5274
?Exec@UClient@@UAEHPBGAAVFOutputDevice@@@Z @ 5275
?Exec@UDemoRecDriver@@UAEHPBGAAVFOutputDevice@@@Z @ 5276
?Exec@UEngine@@UAEHPBGAAVFOutputDevice@@@Z @ 5277
?Exec@UGameEngine@@UAEHPBGAAVFOutputDevice@@@Z @ 5278
?Exec@UInput@@UAEHPBGAAVFOutputDevice@@@Z @ 5279
?Exec@UInteractionMaster@@QAEHPBGAAVFOutputDevice@@@Z @ 5280
?Exec@ULevel@@UAEHPBGAAVFOutputDevice@@@Z @ 5281
?Exec@UNetConnection@@UAEHPBGAAVFOutputDevice@@@Z @ 5282
?Exec@UNetDriver@@UAEHPBGAAVFOutputDevice@@@Z @ 5283
?Exec@UNullRenderDevice@@UAEHPBGAAVFOutputDevice@@@Z @ 5284
?Exec@UPlayer@@UAEHPBGAAVFOutputDevice@@@Z @ 5285
?Exec@UViewport@@UAEHPBGAAVFOutputDevice@@@Z @ 5286
?ExecInputCommands@UInput@@MAEXPBGAAVFOutputDevice@@@Z @ 5287
?ExecMacro@UViewport@@QAEXPBGAAVFOutputDevice@@@Z @ 5288
?Execute@UTerrainBrush@@UAEXH@Z @ 5289
?Execute@UTerrainBrushColor@@UAEXH@Z @ 5290
?Execute@UTerrainBrushEdgeTurn@@UAEXH@Z @ 5291
?Execute@UTerrainBrushFlatten@@UAEXH@Z @ 5292
?Execute@UTerrainBrushNoise@@UAEXH@Z @ 5293
?Execute@UTerrainBrushPaint@@UAEXH@Z @ 5294
?Execute@UTerrainBrushSelect@@UAEXH@Z @ 5295
?Execute@UTerrainBrushSmooth@@UAEXH@Z @ 5296
?Execute@UTerrainBrushVisibility@@UAEXH@Z @ 5297
?ExecuteHits@UViewport@@QAEXABUFHitCause@@PAEHPAGPAVFColor@@PAPAVAActor@@@Z @ 5298
?ExecutingBadStateCode@AActor@@UAEXAAUFFrame@@@Z @ 5299
?Exit@UNullRenderDevice@@UAEXPAVUViewport@@@Z @ 5300
?ExitHShield@UHShieldManager@@QAEXXZ @ 5301
?ExportCacheMap@@YAHAAV?$TArray@VFString@@@@@Z @ 5302
?ExportCacheMap@@YAHPBG@Z @ 5303
?ExportCacheMaps@UCacheManager@@IBEXABV?$TArray@VFString@@@@PBG@Z @ 5304
?ExportCacheMaps@UCacheManager@@IBEXABV?$TArray@VFString@@@@PBGAAV2@@Z @ 5305
?ExportCacheMaps@UCacheManager@@IBEXABVFString@@PBG@Z @ 5306
?ExportCacheMaps@UCacheManager@@IBEXABVFString@@PBGAAV?$TArray@VFString@@@@@Z @ 5307
?ExportCachePackage@@YAHAAV?$TArray@VFString@@@@@Z @ 5308
?ExportCachePackage@@YAHPBG@Z @ 5309
?ExportCachePackages@UCacheManager@@IBEXABV?$TArray@VFString@@@@PBG@Z @ 5310
?ExportCachePackages@UCacheManager@@IBEXABV?$TArray@VFString@@@@PBGAAV2@@Z @ 5311
?ExportCachePackages@UCacheManager@@IBEXABVFString@@PBG@Z @ 5312
?ExportCachePackages@UCacheManager@@IBEXABVFString@@PBGAAV?$TArray@VFString@@@@@Z @ 5313
?ExtractRigidParts@USkeletalMesh@@QAEXHHHH@Z @ 5314
?FBrightness@FColor@@QBEMXZ @ 5315
?FGetHSV@@YA?AVFPlane@@EEE@Z @ 5316
?Faces@FPoly@@QBEHABV1@@Z @ 5317
?FarMoveActor@ULevel@@UAEHPAVAActor@@VFVector@@HHH@Z @ 5318
?FastLineCheck@UModel@@QAEEABVFVector@@0@Z @ 5319
?FastTraceImp@AActor@@QAEKABVFVector@@0@Z @ 5320
?FillColors@UModel@@QAEXAAPAVUTexture@@PAV2@HHHHHH@Z @ 5321
?FillColors@UStaticMesh@@QAEXAAPAVUTexture@@PAV2@HHHHHH@Z @ 5322
?FillIndexBuffer@AFluidSurfaceInfo@@QAEXPAX@Z @ 5323
?FillShadowMaps@UCascadedShadowMaps@@QAEPAVFRenderTarget@@PAVFRenderInterface@@PAVFLevelSceneNode@@VFVector@@@Z @ 5324
?FillVertexBuffer@AFluidSurfaceInfo@@QAEXPAX@Z @ 5325
?FillVertexBuffer@UDistortEmitter@@UAEHPAVFDistortParticleVertex@@PAVFLevelSceneNode@@@Z @ 5326
?FillVertexBuffer@USpriteEmitter@@UAEHPAVFSpriteParticleVertex@@PAVFLevelSceneNode@@@Z @ 5327
?FilterActor@FLevelSceneNode@@UAEHPAVAActor@@@Z @ 5328
?FilterActor@FLightMapSceneNode@@UAEHPAVAActor@@@Z @ 5329
?FilterActor@FRadiositySceneNode@@UAEHPAVAActor@@@Z @ 5330
?FilterAttachment@FLevelSceneNode@@UAEHPAVAActor@@@Z @ 5331
?FilterAttachment@FRadiositySceneNode@@UAEHPAVAActor@@@Z @ 5332
?FilterAttachment@FShadowSceneNode@@UAEHPAVAActor@@@Z @ 5333
?FilterProjector@FLevelSceneNode@@UAEHPAVAProjector@@@Z @ 5334
?FilterProjector@FRadiositySceneNode@@UAEHPAVAProjector@@@Z @ 5335
?FilterTest@FOctreeNode@@QAEXPAVFBox@@HPAV?$TArray@PAVFOctreeNode@@@@PBVFPlane@@@Z @ 5336
?Finalize@FPoly@@QAEHH@Z @ 5337
?FindActorsToAlign@FTerrainTools@@QAEXXZ @ 5338
?FindAlternatePath@ANavigationPoint@@QAEHPAVUReachSpec@@H@Z @ 5339
?FindAnimObjectForSequence@USkeletalMeshInstance@@UAEPAVUMeshAnimation@@VFName@@@Z @ 5340
?FindAxisName@UInput@@MBEPAMPAVAActor@@PBG@Z @ 5341
?FindBase@AActor@@QAEXXZ @ 5342
?FindBase@ADoor@@UAEXXZ @ 5343
?FindBase@ALiftCenter@@UAEXXZ @ 5344
?FindBase@ANavigationPoint@@UAEXXZ @ 5345
?FindBestJump@APawn@@QAE?AW4ETestMoveResult@@VFVector@@@Z @ 5346
?FindBlockingNormal@FPathBuilder@@AAEXAAVFVector@@@Z @ 5347
?FindBoneCollisionSphere@USkeletalMesh@@QAEPAUFSkelBoneSphere@@VFName@@@Z @ 5348
?FindButtonName@UInput@@MBEPAEPAVAActor@@PBG@Z @ 5349
?FindCenter@ALadderVolume@@QAE?AVFVector@@XZ @ 5350
?FindEntry@UManifest@@QAEHABVFString@@@Z @ 5351
?FindItem@?$TArray@E@@QBEHABEAAH@Z @ 5352
?FindItemIndex@?$TArray@E@@QBEHABE@Z @ 5353
?FindJumpUp@APawn@@QAE?AW4ETestMoveResult@@VFVector@@@Z @ 5354
?FindKeyName@UInput@@UBEHPBGAAW4EInputKey@@@Z @ 5355
?FindNearestPoint@UStaticMesh@@QAEHPAVFVector@@V2@@Z @ 5356
?FindNearestVertex@UModel@@QBEMABVFVector@@AAV2@MAAH@Z @ 5357
?FindPath@AController@@QAEPAVAActor@@VFVector@@PAV2@H@Z @ 5358
?FindSlopeRotation@AActor@@UAE?AVFRotator@@VFVector@@V2@@Z @ 5359
?FindSlopeRotation@APawn@@UAE?AVFRotator@@VFVector@@V2@@Z @ 5360
?FindSource@UAudioSubsystem@@UAEHXZ @ 5361
?FindSpot@ULevel@@UAEHVFVector@@AAV2@@Z @ 5362
?FindTop@ALadderVolume@@QAE?AVFVector@@V2@@Z @ 5363
?FinishLog@AFileLog@@QAEXXZ @ 5364
?FireWallHack@UViewport@@UAEHH@Z @ 5365
?Fix@FPoly@@QAEHXZ @ 5366
?FixPalette@UPalette@@QAEXXZ @ 5367
?FixUpLevel@UGameEngine@@QAEXXZ @ 5368
?FlipFaces@USkeletalMesh@@QAEXXZ @ 5369
?Flush@FCanvasUtil@@QAEXXZ @ 5370
?Flush@FLineBatcher@@QAEXK@Z @ 5371
?Flush@FPostProcessCanvasUtil@@QAEXXZ @ 5372
?Flush@UAudioSubsystem@@UAEXXZ @ 5373
?Flush@UClient@@UAEXH@Z @ 5374
?Flush@UEngine@@UAEXH@Z @ 5375
?Flush@UNullRenderDevice@@UAEXPAVUViewport@@@Z @ 5376
?FlushNet@UDemoRecConnection@@UAEXXZ @ 5377
?FlushNet@UNetConnection@@UAEXXZ @ 5378
?FlushResource@UNullRenderDevice@@UAEX_K@Z @ 5379
?ForceAnimRate@USkeletalMeshInstance@@QAEXHM@Z @ 5380
?ForceBoneRefresh@USkeletalMeshInstance@@UAEXXZ @ 5381
?ForceEndLoading@UBTLoadingAdvancer@@QAEHXZ @ 5382
?ForceGetFrame@USkeletalMeshInstance@@QAEXXZ @ 5383
?ForcePrecacheDraw@UGameEngine@@QAEXPAVUViewport@@HPAEPAH@Z @ 5384
?FreezeAnimAt@UMeshInstance@@UAEHMH@Z @ 5385
?FreezeAnimAt@USkeletalMeshInstance@@UAEHMH@Z @ 5386
?GCache@@3VFMemCache@@A @ 5387
?GEngineMem@@3VFMemStack@@A @ 5388
?GEngineStats@@3VFEngineStats@@A @ 5389
?GGlobalTempObjects@@3PAVUGlobalTempObjects@@A @ 5390
?GHSManager@@3PAVUHShieldManager@@A @ 5391
?GMatineeTools@@3VFMatineeTools@@A @ 5392
?GNewCollisionHash@@YAPAVFCollisionHashBase@@XZ @ 5393
?GRebuildTools@@3VFRebuildTools@@A @ 5394
?GStatGraph@@3PAVFStatGraph@@A @ 5395
?GStats@@3VFStats@@A @ 5396
?GStreamingManager@@3PAUFStreamingManagerCollection@@A @ 5397
?GTempLineBatcher@@3PAVFTempLineBatcher@@A @ 5398
?GTerrainTools@@3VFTerrainTools@@A @ 5399
?GTextureStreamingManager@@3PAUFStreamingManagerTexture@@A @ 5400
?GUIActive@UGameEngine@@UBEHPBVUClient@@@Z @ 5401
?GaussBlur@UModel@@QAEXHMMHHAAV?$TArray@VFColor@@@@0@Z @ 5402
?GaussBlur@UStaticMesh@@QAEXHMMHHAAV?$TArray@VFColor@@@@0@Z @ 5403
?GaussBlur@UTexture@@QAEXHMMHHAAV?$TArray@VFColor@@@@0@Z @ 5404
?GenerateLodModel@USkeletalMesh@@QAEXHMMHH@Z @ 5405
?GenerateTriangles@UTerrainSector@@QAEXH@Z @ 5406
?GenerateWaterDrop@UDripEffect@@QAEXPAVUViewport@@@Z @ 5407
?Get4WayDirection@APawn@@AAEHXZ @ 5408
?Get5WayDirection@APawn@@AAEHXZ @ 5409
?Get8WayDirection@APawn@@AAEHXZ @ 5410
?Get@UBitmapMaterial@@UAEPAV1@NPAVUViewport@@@Z @ 5411
?Get@UDownloadTexture@@UAEPAVUBitmapMaterial@@NPAVUViewport@@@Z @ 5412
?Get@UProxyBitmapMaterial@@UAEPAVUBitmapMaterial@@NPAVUViewport@@@Z @ 5413
?Get@UScriptedTexture@@UAEPAVUBitmapMaterial@@NPAVUViewport@@@Z @ 5414
?Get@UShadowBitmapMaterial@@UAEPAVUBitmapMaterial@@NPAVUViewport@@@Z @ 5415
?Get@UTexture@@UAEPAVUBitmapMaterial@@NPAVUViewport@@@Z @ 5416
?GetAInventorySpot@AInventorySpot@@UAEPAV1@XZ @ 5417
?GetAInventorySpot@ANavigationPoint@@UAEPAVAInventorySpot@@XZ @ 5418
?GetAMover@AActor@@UAEPAVAMover@@XZ @ 5419
?GetAMover@AMover@@UAEPAV1@XZ @ 5420
?GetAPawn@AActor@@UAEPAVAPawn@@XZ @ 5421
?GetAPawn@APawn@@UAEPAV1@XZ @ 5422
?GetAPlayerController@AActor@@UAEPAVAPlayerController@@XZ @ 5423
?GetAPlayerController@APlayerController@@UAEPAV1@XZ @ 5424
?GetAProjectile@AActor@@UAEPAVAProjectile@@XZ @ 5425
?GetAProjectile@AProjectile@@UAEPAV1@XZ @ 5426
?GetActionFromIP@FMatineeTools@@QAEPAVUMatAction@@PAVASceneManager@@PAVAInterpolationPoint@@@Z @ 5427
?GetActionFromPct@ASceneManager@@QAEPAVUMatAction@@M@Z @ 5428
?GetActionIdx@FMatineeTools@@QAEHPAVASceneManager@@PAVUMatAction@@@Z @ 5429
?GetActionPctFromScenePct@ASceneManager@@QAEMM@Z @ 5430
?GetActiveAnimFrame@UMeshInstance@@UAEMH@Z @ 5431
?GetActiveAnimFrame@USkeletalMeshInstance@@UAEMH@Z @ 5432
?GetActiveAnimFrame@UVertMeshInstance@@UAEMH@Z @ 5433
?GetActiveAnimRate@UMeshInstance@@UAEMH@Z @ 5434
?GetActiveAnimRate@USkeletalMeshInstance@@UAEMH@Z @ 5435
?GetActiveAnimRate@UVertMeshInstance@@UAEMH@Z @ 5436
?GetActiveAnimSequence@UMeshInstance@@UAE?AVFName@@H@Z @ 5437
?GetActiveAnimSequence@USkeletalMeshInstance@@UAE?AVFName@@H@Z @ 5438
?GetActiveAnimSequence@UVertMeshInstance@@UAE?AVFName@@H@Z @ 5439
?GetActor@HActor@@UAEPAVAActor@@XZ @ 5440
?GetActor@HHitProxy@@UAEPAVAActor@@XZ @ 5441
?GetActor@HTerrain@@UAEPAVAActor@@XZ @ 5442
?GetActor@UActorChannel@@QAEPAVAActor@@XZ @ 5443
?GetActor@ULodMeshInstance@@UAEPAVAActor@@XZ @ 5444
?GetActor@UMeshInstance@@UAEPAVAActor@@XZ @ 5445
?GetActorExtent@FCollisionHash@@QAEXPAVAActor@@AAH11111@Z @ 5446
?GetActorIndex@ULevel@@QAEHPAVAActor@@@Z @ 5447
?GetActorRenderData@AActor@@QAEPAVFDynamicActor@@XZ @ 5448
?GetActorSceneNode@FActorSceneNode@@UAEPAV1@XZ @ 5449
?GetActorSceneNode@FSceneNode@@UAEPAVFActorSceneNode@@XZ @ 5450
?GetAdjust@FTerrainTools@@QAEHXZ @ 5451
?GetAmbientCube@AAmbientLightVolume@@QAEPAUAmbientCube@@VFVector@@@Z @ 5452
?GetAmbientLightingActor@AActor@@QAEPAV1@XZ @ 5453
?GetAmbientVolume@AActor@@UAEMM@Z @ 5454
?GetAmbientVolume@APawn@@UAEMM@Z @ 5455
?GetAnimChannelCount@USkeletalMeshInstance@@QAEHXZ @ 5456
?GetAnimCount@UMeshInstance@@UAEHXZ @ 5457
?GetAnimCount@USkeletalMeshInstance@@UAEHXZ @ 5458
?GetAnimCount@UVertMeshInstance@@UAEHXZ @ 5459
?GetAnimFrame@USkeletalMeshInstance@@QAEMH@Z @ 5460
?GetAnimIndexed@UMeshInstance@@UAEPAXH@Z @ 5461
?GetAnimIndexed@USkeletalMeshInstance@@UAEPAXH@Z @ 5462
?GetAnimIndexed@UVertMeshInstance@@UAEPAXH@Z @ 5463
?GetAnimNamed@UMeshInstance@@UAEPAXVFName@@@Z @ 5464
?GetAnimNamed@USkeletalMeshInstance@@UAEPAXVFName@@@Z @ 5465
?GetAnimNamed@UVertMeshInstance@@UAEPAXVFName@@@Z @ 5466
?GetAnimRateOnChannel@USkeletalMeshInstance@@QAEMH@Z @ 5467
?GetAnimSeq@ULodMeshInstance@@QAEPAUFMeshAnimSeq@@VFName@@@Z @ 5468
?GetAnimSeq@UMeshAnimation@@UAEPAUFMeshAnimSeq@@VFName@@@Z @ 5469
?GetAnimSeq@UVertMeshInstance@@QAEPAUFMeshAnimSeq@@VFName@@@Z @ 5470
?GetAnimSequence@USkeletalMeshInstance@@QAE?AVFName@@H@Z @ 5471
?GetAnnouncerRecord@UCacheManager@@QAEHPBGAAUFAnnouncerRecord@@@Z @ 5472
?GetAspectRatio@URenderDevice@@UAEMXZ @ 5473
?GetAttachCount@UMeshInstance@@UAEHXZ @ 5474
?GetAttachIdx@UMeshInstance@@UAEHHAAVFName@@AAVFMatrix@@@Z @ 5475
?GetAttachMatrix@UMeshInstance@@UAEHVFName@@AAVFMatrix@@@Z @ 5476
?GetAttachedEffect@FDynamicActor@@QAEHAAV?$TArray@PAVFDynamicActor@@@@@Z @ 5477
?GetAverageColor@URenderDevice@@UAE?AVFColor@@HHHHH@Z @ 5478
?GetBindKeyInput@UInput@@QAEXXZ @ 5479
?GetBlendAlpha@USkeletalMeshInstance@@QAEMH@Z @ 5480
?GetBoneCoords@USkeletalMeshInstance@@QAE?AVFCoords@@K@Z @ 5481
?GetBoneRotation@USkeletalMeshInstance@@QAE?AVFRotator@@KH@Z @ 5482
?GetBoneRotation@USkeletalMeshInstance@@QAE?AVFRotator@@VFName@@H@Z @ 5483
?GetCDKeyHash@@YA?AVFString@@XZ @ 5484
?GetCDKeyResponse@@YA?AVFString@@PBG@Z @ 5485
?GetCache@UCacheManager@@SAPAV1@XZ @ 5486
?GetCacheId@FAnimMeshVertexStream@@UAE_KXZ @ 5487
?GetCacheId@FBSPTangentBinormalStream@@UAE_KXZ @ 5488
?GetCacheId@FBlendWeightAndIndexStream@@UAE_KXZ @ 5489
?GetCacheId@FBspVertexStream@@UAE_KXZ @ 5490
?GetCacheId@FCanvasUtil@@UAE_KXZ @ 5491
?GetCacheId@FDiamondIndexBuffer@@UAE_KXZ @ 5492
?GetCacheId@FDiamondVertexStream@@UAE_KXZ @ 5493
?GetCacheId@FLightMap@@UAE_KXZ @ 5494
?GetCacheId@FLightMapTexture@@UAE_KXZ @ 5495
?GetCacheId@FLineBatcher@@UAE_KXZ @ 5496
?GetCacheId@FPostProcessCanvasUtil@@UAE_KXZ @ 5497
?GetCacheId@FRaw32BitIndexBuffer@@UAE_KXZ @ 5498
?GetCacheId@FRawColorStream@@UAE_KXZ @ 5499
?GetCacheId@FRawIndexBuffer@@UAE_KXZ @ 5500
?GetCacheId@FShadowMeshVertexStream@@UAE_KXZ @ 5501
?GetCacheId@FSkeletalMeshBoundStream@@UAE_KXZ @ 5502
?GetCacheId@FSkeletalMeshTangentBinormalStream@@UAE_KXZ @ 5503
?GetCacheId@FSkinVertexStream@@UAE_KXZ @ 5504
?GetCacheId@FSolidColorTexture@@UAE_KXZ @ 5505
?GetCacheId@FStaticCubemap@@UAE_KXZ @ 5506
?GetCacheId@FStaticDownloadTexture@@UAE_KXZ @ 5507
?GetCacheId@FStaticLightMapTexture@@UAE_KXZ @ 5508
?GetCacheId@FStaticMeshBatchIndexBuffer@@UAE_KXZ @ 5509
?GetCacheId@FStaticMeshBatchVertexStream@@UAE_KXZ @ 5510
?GetCacheId@FStaticMeshBoundVertexStream@@UAE_KXZ @ 5511
?GetCacheId@FStaticMeshDirectionalLightcolorStream@@UAE_KXZ @ 5512
?GetCacheId@FStaticMeshTangentBinormalStream@@UAE_KXZ @ 5513
?GetCacheId@FStaticMeshUVStream@@UAE_KXZ @ 5514
?GetCacheId@FStaticMeshVertexStream@@UAE_KXZ @ 5515
?GetCacheId@FStaticTexture@@UAE_KXZ @ 5516
?GetCacheId@FTerrainDirectionalLightcolorStream@@UAE_KXZ @ 5517
?GetCameraLocationImp@UCanvas@@QAEXPAVFVector@@PAVFRotator@@@Z @ 5518
?GetCameraSceneNode@FCameraSceneNode@@UAEPAV1@XZ @ 5519
?GetCameraSceneNode@FSceneNode@@UAEPAVFCameraSceneNode@@XZ @ 5520
?GetCharacterManager@UEngine@@UAEPAVUwCharacterManager@@XZ @ 5521
?GetCharacterManager@UGameEngine@@UAEPAVUwCharacterManager@@XZ @ 5522
?GetChild@FLightMapTexture@@UAEPAVFTexture@@HPAH0@Z @ 5523
?GetClampedBitmap@AFluidSurfaceInfo@@QAEHHH@Z @ 5524
?GetClientConnection@UNetDriver@@UAEPAVUNetConnection@@K@Z @ 5525
?GetClosestVertex@ATerrainInfo@@QAEHAAVFVector@@PAV2@PAH2@Z @ 5526
?GetCollisionBoundingBox@UConvexVolume@@UBE?AVFBox@@PBVAActor@@@Z @ 5527
?GetCollisionBoundingBox@UFluidSurfacePrimitive@@UBE?AVFBox@@PBVAActor@@@Z @ 5528
?GetCollisionBoundingBox@UMeshInstance@@UAE?AVFBox@@PBVAActor@@@Z @ 5529
?GetCollisionBoundingBox@UModel@@UBE?AVFBox@@PBVAActor@@@Z @ 5530
?GetCollisionBoundingBox@UPrimitive@@UBE?AVFBox@@PBVAActor@@@Z @ 5531
?GetCollisionBoundingBox@UProjectorPrimitive@@UBE?AVFBox@@PBVAActor@@@Z @ 5532
?GetCollisionBoundingBox@USkeletalMesh@@UBE?AVFBox@@PBVAActor@@@Z @ 5533
?GetCollisionBoundingBox@UStaticMesh@@UBE?AVFBox@@PBVAActor@@@Z @ 5534
?GetColor@UConstantColor@@UAE?AVFColor@@M@Z @ 5535
?GetColor@UConstantMaterial@@UAE?AVFColor@@M@Z @ 5536
?GetColor@UFadeColor@@UAE?AVFColor@@M@Z @ 5537
?GetColors@UTexture@@QAEPAVFColor@@XZ @ 5538
?GetColorsIndex@UTexture@@QAEKXZ @ 5539
?GetCompletedDummyUserCount@UNetDriver@@UAEHXZ @ 5540
?GetComponents@FAnimMeshVertexStream@@UAEHPAUFVertexComponent@@@Z @ 5541
?GetComponents@FBSPTangentBinormalStream@@UAEHPAUFVertexComponent@@@Z @ 5542
?GetComponents@FBlendWeightAndIndexStream@@UAEHPAUFVertexComponent@@@Z @ 5543
?GetComponents@FBspVertexStream@@UAEHPAUFVertexComponent@@@Z @ 5544
?GetComponents@FCanvasUtil@@UAEHPAUFVertexComponent@@@Z @ 5545
?GetComponents@FDiamondVertexStream@@UAEHPAUFVertexComponent@@@Z @ 5546
?GetComponents@FLineBatcher@@UAEHPAUFVertexComponent@@@Z @ 5547
?GetComponents@FPostProcessCanvasUtil@@UAEHPAUFVertexComponent@@@Z @ 5548
?GetComponents@FRawColorStream@@UAEHPAUFVertexComponent@@@Z @ 5549
?GetComponents@FShadowMeshVertexStream@@UAEHPAUFVertexComponent@@@Z @ 5550
?GetComponents@FSkeletalMeshBoundStream@@UAEHPAUFVertexComponent@@@Z @ 5551
?GetComponents@FSkeletalMeshTangentBinormalStream@@UAEHPAUFVertexComponent@@@Z @ 5552
?GetComponents@FSkinVertexStream@@UAEHPAUFVertexComponent@@@Z @ 5553
?GetComponents@FStaticMeshBatchVertexStream@@UAEHPAUFVertexComponent@@@Z @ 5554
?GetComponents@FStaticMeshBoundVertexStream@@UAEHPAUFVertexComponent@@@Z @ 5555
?GetComponents@FStaticMeshColorStream@@UAEHPAUFVertexComponent@@@Z @ 5556
?GetComponents@FStaticMeshDirectionalLightcolorStream@@UAEHPAUFVertexComponent@@@Z @ 5557
?GetComponents@FStaticMeshTangentBinormalStream@@UAEHPAUFVertexComponent@@@Z @ 5558
?GetComponents@FStaticMeshUVStream@@UAEHPAUFVertexComponent@@@Z @ 5559
?GetComponents@FStaticMeshVertexStream@@UAEHPAUFVertexComponent@@@Z @ 5560
?GetComponents@FTerrainDirectionalLightcolorStream@@UAEHPAUFVertexComponent@@@Z @ 5561
?GetComputedAmbientCube@AAmbientLightVolume@@QAE?AUAmbientCube@@VFVector@@PAVFRenderInterface@@@Z @ 5562
?GetContents@FDiamondIndexBuffer@@UAEXPAX@Z @ 5563
?GetContents@FRaw32BitIndexBuffer@@UAEXPAX@Z @ 5564
?GetContents@FRawIndexBuffer@@UAEXPAX@Z @ 5565
?GetContents@FStaticMeshBatchIndexBuffer@@UAEXPAX@Z @ 5566
?GetCriticalSection@FStaticTexture@@UAEPAVFCriticalSection@@XZ @ 5567
?GetCurrent@FMatineeTools@@QAEPAVASceneManager@@XZ @ 5568
?GetCurrent@FRebuildTools@@QAEPAVFRebuildOptions@@XZ @ 5569
?GetCurrentAction@FMatineeTools@@QAEPAVUMatAction@@XZ @ 5570
?GetCurrentLoadingStep@UBTLoadingAdvancer@@QAEHXZ @ 5571
?GetCurrentState@UBTLoadingAdvancer@@QAEHXZ @ 5572
?GetCurrentSubAction@FMatineeTools@@QAEPAVUMatSubAction@@XZ @ 5573
?GetCurrentTerrainInfo@FTerrainTools@@QAEPAVATerrainInfo@@XZ @ 5574
?GetCylinderExtent@AActor@@QBE?AVFVector@@XZ @ 5575
?GetData@UProceduralSound@@UAEAAVFSoundData@@XZ @ 5576
?GetData@USound@@UAEAAVFSoundData@@XZ @ 5577
?GetData@USoundGroup@@UAEAAVFSoundData@@XZ @ 5578
?GetData@UVertexBuffer@@UAEPAXXZ @ 5579
?GetData@UVertexStreamCOLOR@@UAEPAXXZ @ 5580
?GetData@UVertexStreamPosNormTex@@UAEPAXXZ @ 5581
?GetData@UVertexStreamUV@@UAEPAXXZ @ 5582
?GetData@UVertexStreamVECTOR@@UAEPAXXZ @ 5583
?GetDataSize@UVertexBuffer@@UAEHXZ @ 5584
?GetDataSize@UVertexStreamCOLOR@@UAEHXZ @ 5585
?GetDataSize@UVertexStreamPosNormTex@@UAEHXZ @ 5586
?GetDataSize@UVertexStreamUV@@UAEHXZ @ 5587
?GetDataSize@UVertexStreamVECTOR@@UAEHXZ @ 5588
?GetDefaultPhysicsVolume@ALevelInfo@@QAEPAVAPhysicsVolume@@XZ @ 5589
?GetDesktopHorzRes@URenderDevice@@UAEHXZ @ 5590
?GetDesktopVertRes@URenderDevice@@UAEHXZ @ 5591
?GetDestination@AActor@@UAE?AVFVector@@PAVAController@@@Z @ 5592
?GetDestination@AVehicle@@UAE?AVFVector@@PAVAController@@@Z @ 5593
?GetDriver@UDemoRecConnection@@QAEPAVUDemoRecDriver@@XZ @ 5594
?GetDriver@UNetConnection@@QAEPAVUNetDriver@@XZ @ 5595
?GetDuration@UAudioSubsystem@@QAEMH@Z @ 5596
?GetDuration@UProceduralSound@@UAEMXZ @ 5597
?GetDuration@USound@@UAEMXZ @ 5598
?GetDuration@USoundGroup@@UAEMXZ @ 5599
?GetEdgeTurnBitmap@ATerrainInfo@@QAEHHH@Z @ 5600
?GetElementCount@FKAggregateGeom@@QAEHXZ @ 5601
?GetEncroachCenter@UModel@@UAE?AVFVector@@PAVAActor@@@Z @ 5602
?GetEncroachCenter@UPrimitive@@UAE?AVFVector@@PAVAActor@@@Z @ 5603
?GetEncroachCenter@UProjectorPrimitive@@UAE?AVFVector@@PAVAActor@@@Z @ 5604
?GetEncroachCenter@UStaticMesh@@UAE?AVFVector@@PAVAActor@@@Z @ 5605
?GetEncroachExtent@UModel@@UAE?AVFVector@@PAVAActor@@@Z @ 5606
?GetEncroachExtent@UPrimitive@@UAE?AVFVector@@PAVAActor@@@Z @ 5607
?GetEncroachExtent@UProjectorPrimitive@@UAE?AVFVector@@PAVAActor@@@Z @ 5608
?GetEncroachExtent@UStaticMesh@@UAE?AVFVector@@PAVAActor@@@Z @ 5609
?GetEngine@FNetworkNotify@@UAEPAVUEngine@@XZ @ 5610
?GetEngine@ULevelBase@@UAEPAVUEngine@@XZ @ 5611
?GetExecFromBrushName@FTerrainTools@@QAE?AVFString@@AAV2@@Z @ 5612
?GetExpandedCylinderExtent@APawn@@QBE?AVFVector@@XZ @ 5613
?GetFROTATOR@@YAHPBG0AAVFRotator@@H@Z @ 5614
?GetFROTATOR@@YAHPBGAAVFRotator@@H@Z @ 5615
?GetFVECTOR@@YAHPBG0AAVFVector@@@Z @ 5616
?GetFVECTOR@@YAHPBGAAVFVector@@@Z @ 5617
?GetFace@FStaticCubemap@@UAEPAVFTexture@@H@Z @ 5618
?GetFileManager@UCacheManager@@QAEPBVFCacheFileManager@@XZ @ 5619
?GetFileType@UProceduralSound@@UAE?AVFName@@XZ @ 5620
?GetFileType@USound@@UAE?AVFName@@XZ @ 5621
?GetFileType@USoundGroup@@UAE?AVFName@@XZ @ 5622
?GetFilename@UProceduralSound@@UAEPBGXZ @ 5623
?GetFilename@USound@@UAEPBGXZ @ 5624
?GetFilename@USoundGroup@@UAEPBGXZ @ 5625
?GetFirstMip@FLightMap@@UAEHXZ @ 5626
?GetFirstMip@FLightMapTexture@@UAEHXZ @ 5627
?GetFirstMip@FSolidColorTexture@@UAEHXZ @ 5628
?GetFirstMip@FStaticCubemap@@UAEHXZ @ 5629
?GetFirstMip@FStaticDownloadTexture@@UAEHXZ @ 5630
?GetFirstMip@FStaticLightMapTexture@@UAEHXZ @ 5631
?GetFirstMip@FStaticTexture@@UAEHXZ @ 5632
?GetFlags@UProceduralSound@@UAEHXZ @ 5633
?GetFlags@USound@@UAEHXZ @ 5634
?GetFlags@USoundGroup@@UAEHXZ @ 5635
?GetFlashRenderTarget@FRenderInterface@@UAEPAVFRenderTarget@@XZ @ 5636
?GetFmodEventProj@UAudioSubsystem@@UAEPAXXZ @ 5637
?GetFormat@FLightMap@@UAE?AW4ETextureFormat@@XZ @ 5638
?GetFormat@FLightMapTexture@@UAE?AW4ETextureFormat@@XZ @ 5639
?GetFormat@FSolidColorTexture@@UAE?AW4ETextureFormat@@XZ @ 5640
?GetFormat@FStaticCubemap@@UAE?AW4ETextureFormat@@XZ @ 5641
?GetFormat@FStaticDownloadTexture@@UAE?AW4ETextureFormat@@XZ @ 5642
?GetFormat@FStaticLightMapTexture@@UAE?AW4ETextureFormat@@XZ @ 5643
?GetFormat@FStaticTexture@@UAE?AW4ETextureFormat@@XZ @ 5644
?GetFormatDesc@UTexture@@QAE?AVFString@@XZ @ 5645
?GetFrame@ULodMeshInstance@@UAEXPAVAActor@@PAVFLevelSceneNode@@PAVFVector@@HAAHK@Z @ 5646
?GetFrame@UMeshInstance@@UAEXPAVAActor@@PAVFLevelSceneNode@@PAVFVector@@HAAHK@Z @ 5647
?GetFrame@USkeletalMeshInstance@@UAEXPAVAActor@@PAVFLevelSceneNode@@PAVFVector@@HAAHK@Z @ 5648
?GetFrame@UVertMeshInstance@@UAEXPAVAActor@@PAVFLevelSceneNode@@PAVFVector@@HAAHK@Z @ 5649
?GetFrameTypes@UStreamInteraction@@SAPAUFrameTypeList@@XZ @ 5650
?GetFromName@FRebuildTools@@QAEPAVFRebuildOptions@@VFString@@@Z @ 5651
?GetGameManager@UEngine@@UAEPAVUwGameManager@@XZ @ 5652
?GetGameManager@UGameEngine@@UAEPAVUwGameManager@@XZ @ 5653
?GetGameRecord@UCacheManager@@QAEHPBGAAUFGameRecord@@@Z @ 5654
?GetGlobalVertex@ATerrainInfo@@QAEHHH@Z @ 5655
?GetGlobalVertex@UTerrainSector@@QAEHHH@Z @ 5656
?GetHandle@UProceduralSound@@UAEPAXXZ @ 5657
?GetHandle@USound@@UAEPAXXZ @ 5658
?GetHandle@USoundGroup@@UAEPAXXZ @ 5659
?GetHashIndices@FCollisionHash@@QAEXVFVector@@AAH11@Z @ 5660
?GetHashLink@FCollisionHash@@QAEAAPAUFCollisionLink@1@HHHAAH@Z @ 5661
?GetHeight@FLightMap@@UAEHXZ @ 5662
?GetHeight@FLightMapTexture@@UAEHXZ @ 5663
?GetHeight@FSolidColorTexture@@UAEHXZ @ 5664
?GetHeight@FStaticCubemap@@UAEHXZ @ 5665
?GetHeight@FStaticDownloadTexture@@UAEHXZ @ 5666
?GetHeight@FStaticLightMapTexture@@UAEHXZ @ 5667
?GetHeight@FStaticTexture@@UAEHXZ @ 5668
?GetHeightmap@ATerrainInfo@@QAEGHH@Z @ 5669
?GetHitActor@AActor@@QAEPAV1@XZ @ 5670
?GetID@FFrameHeader@@QBEPBGPAG@Z @ 5671
?GetID@FID3V2Frame@@QBEPBGPAG@Z @ 5672
?GetIdxFromName@FRebuildTools@@QAEHVFString@@@Z @ 5673
?GetIndexSize@FDiamondIndexBuffer@@UAEHXZ @ 5674
?GetIndexSize@FRaw32BitIndexBuffer@@UAEHXZ @ 5675
?GetIndexSize@FRawIndexBuffer@@UAEHXZ @ 5676
?GetIndexSize@FStaticMeshBatchIndexBuffer@@UAEHXZ @ 5677
?GetInnerRadius@FTerrainTools@@QAEHXZ @ 5678
?GetInputAction@UInput@@QAE?AW4EInputAction@@XZ @ 5679
?GetInputDelta@UInput@@QAEMXZ @ 5680
?GetIsHost@FNetworkNotify@@UAEHXZ @ 5681
?GetIsHost@ULevelBase@@UAEHXZ @ 5682
?GetIsLoading@UBTMapLoader@@QAEHXZ @ 5683
?GetItemIndex@UItemIterator@@QAEHH@Z @ 5684
?GetItemIterator@UEngine@@UAEPAVUItemIterator@@XZ @ 5685
?GetItemIterator@UGameEngine@@UAEPAVUItemIterator@@XZ @ 5686
?GetKeyName@UInput@@UBEPBGW4EInputKey@@@Z @ 5687
?GetKeySleepTime@UInput@@QAEMXZ @ 5688
?GetLODMeshNum@UStaticMesh@@QAEHXZ @ 5689
?GetLastLodIndex@UStaticMeshInstance@@QAEHXZ @ 5690
?GetLastUpdateTime@UTexture@@QAENXZ @ 5691
?GetLayerAlpha@ATerrainInfo@@QAEEHHHPAVUTexture@@@Z @ 5692
?GetLevel@AActor@@QBEPAVULevel@@XZ @ 5693
?GetLevel@UDemoRecDriver@@QAEPAVULevel@@XZ @ 5694
?GetLevelInfo@ULevel@@QAEPAVALevelInfo@@XZ @ 5695
?GetLevelSceneNode@FLevelSceneNode@@UAEPAV1@XZ @ 5696
?GetLevelSceneNode@FSceneNode@@UAEPAVFLevelSceneNode@@XZ @ 5697
?GetLightRenderData@AActor@@QAEPAVFDynamicLight@@XZ @ 5698
?GetListener@UAudioSubsystem@@QAEPAVFListener@@XZ @ 5699
?GetLocalPlayerController@ALevelInfo@@QAEPAVAPlayerController@@XZ @ 5700
?GetLocalVertex@UTerrainSector@@QAEHHH@Z @ 5701
?GetLocalizedKeyName@UInput@@UBEPBGW4EInputKey@@@Z @ 5702
?GetLocation@ASceneManager@@QAE?AVFVector@@PAV?$TArray@VFVector@@@@M@Z @ 5703
?GetLodSceneNode@FSceneNode@@UAEPAV1@XZ @ 5704
?GetLodSceneNode@FScriptedPortalSceneNode@@UAEPAVFSceneNode@@XZ @ 5705
?GetLodSceneNode@FShadowSceneNode@@UAEPAVFSceneNode@@XZ @ 5706
?GetMapRecord@UCacheManager@@QAEHPBGAAUFMapRecord@@@Z @ 5707
?GetMatchMaker@UEngine@@QAEPAVUwMatchMaker@@XZ @ 5708
?GetMaterial@ULodMeshInstance@@UAEPAVUMaterial@@HPAVAActor@@@Z @ 5709
?GetMaterial@UMeshInstance@@UAEPAVUMaterial@@HPAVAActor@@@Z @ 5710
?GetMaterial@USkeletalMeshInstance@@UAEPAVUMaterial@@HPAVAActor@@@Z @ 5711
?GetMaterial@UVertMeshInstance@@UAEPAVUMaterial@@HPAVAActor@@@Z @ 5712
?GetMatrix@UTexEnvMap@@UAEPAVFMatrix@@M@Z @ 5713
?GetMatrix@UTexMatrix@@UAEPAVFMatrix@@M@Z @ 5714
?GetMatrix@UTexModifier@@UAEPAVFMatrix@@M@Z @ 5715
?GetMatrix@UTexOscillator@@UAEPAVFMatrix@@M@Z @ 5716
?GetMatrix@UTexOscillatorTriggered@@UAEPAVFMatrix@@M@Z @ 5717
?GetMatrix@UTexPanner@@UAEPAVFMatrix@@M@Z @ 5718
?GetMatrix@UTexPannerTriggered@@UAEPAVFMatrix@@M@Z @ 5719
?GetMatrix@UTexRotator@@UAEPAVFMatrix@@M@Z @ 5720
?GetMatrix@UTexScaler@@UAEPAVFMatrix@@M@Z @ 5721
?GetMatrix@UVariableTexPanner@@UAEPAVFMatrix@@M@Z @ 5722
?GetMatrixReflect@FRenderInterface@@UAEXPBVFVector@@PAVFMatrix@@@Z @ 5723
?GetMaxGroundSpeed@APawn@@QAEMXZ @ 5724
?GetMaxSpeed@APawn@@QAEMXZ @ 5725
?GetMaxTickRate@UEngine@@UAEMXZ @ 5726
?GetMaxTickRate@UGameEngine@@UAEMXZ @ 5727
?GetMesh@ULodMeshInstance@@UAEPAVUMesh@@XZ @ 5728
?GetMesh@UMeshInstance@@UAEPAVUMesh@@XZ @ 5729
?GetMeshJointsAndNormals@USkeletalMeshInstance@@QAEHPAVAActor@@PAV?$TArray@VFVector@@@@H@Z @ 5730
?GetMeshVerts@ULodMeshInstance@@UAEXPAVAActor@@PAVFVector@@HAAH@Z @ 5731
?GetMeshVerts@USkeletalMeshInstance@@UAEXPAVAActor@@PAVFVector@@HAAH@Z @ 5732
?GetMeshVerts@UVertMeshInstance@@UAEXPAVAActor@@PAVFVector@@HAAH@Z @ 5733
?GetMeshVertsAndNormals@USkeletalMeshInstance@@QAEHPAVAActor@@PAV?$TArray@VFVector@@@@@Z @ 5734
?GetMip@UTexture@@QAEPAUFMipmapBase@@H@Z @ 5735
?GetMirrorAxis@FTerrainTools@@QAEHXZ @ 5736
?GetMirrorSceneNode@FMirrorSceneNode@@UAEPAV1@XZ @ 5737
?GetMirrorSceneNode@FSceneNode@@UAEPAVFMirrorSceneNode@@XZ @ 5738
?GetMovement@UMeshAnimation@@UAEPAVMotionChunk@@VFName@@@Z @ 5739
?GetMutatorRecord@UCacheManager@@QAEHPBGAAUFMutatorRecord@@@Z @ 5740
?GetName@FRebuildOptions@@QAE?AVFString@@XZ @ 5741
?GetName@HActor@@UBEPBGXZ @ 5742
?GetName@HBspSurf@@UBEPBGXZ @ 5743
?GetName@HCoords@@UBEPBGXZ @ 5744
?GetName@HHitProxy@@UBEPBGXZ @ 5745
?GetName@HMaterialTree@@UBEPBGXZ @ 5746
?GetName@HMatineeAction@@UBEPBGXZ @ 5747
?GetName@HMatineeScene@@UBEPBGXZ @ 5748
?GetName@HMatineeSubAction@@UBEPBGXZ @ 5749
?GetName@HMatineeTimePath@@UBEPBGXZ @ 5750
?GetName@HTerrain@@UBEPBGXZ @ 5751
?GetName@HTerrainToolLayer@@UBEPBGXZ @ 5752
?GetNearestIndex@AFluidSurfaceInfo@@QAEXABVFVector@@AAH1@Z @ 5753
?GetNetBuoyancy@AActor@@QAEXAAM0@Z @ 5754
?GetNetDriver@UGameEngine@@UAEPAVUNetDriver@@XZ @ 5755
?GetNetPriority@AActor@@UAEMAAVFVector@@0PAV1@MM@Z @ 5756
?GetNetPriority@APawn@@UAEMAAVFVector@@0PAVAActor@@MM@Z @ 5757
?GetNextAction@FMatineeTools@@QAEPAVUMatAction@@PAVASceneManager@@PAV2@@Z @ 5758
?GetNextMovementAction@FMatineeTools@@QAEPAVUMatAction@@PAVASceneManager@@PAV2@@Z @ 5759
?GetNumChildren@FLightMapTexture@@UAEHXZ @ 5760
?GetNumMips@FLightMap@@UAEHXZ @ 5761
?GetNumMips@FLightMapTexture@@UAEHXZ @ 5762
?GetNumMips@FSolidColorTexture@@UAEHXZ @ 5763
?GetNumMips@FStaticCubemap@@UAEHXZ @ 5764
?GetNumMips@FStaticDownloadTexture@@UAEHXZ @ 5765
?GetNumMips@FStaticLightMapTexture@@UAEHXZ @ 5766
?GetNumMips@FStaticTexture@@UAEHXZ @ 5767
?GetNumMips@UTexture@@QAEHXZ @ 5768
?GetNumSources@UAudioSubsystem@@UAEHXZ @ 5769
?GetNumViews@FStreamingManagerBase@@QBEHXZ @ 5770
?GetOptimizedRepList@AActor@@UAEPAHPAEPAUFPropertyRetirement@@PAHPAVUPackageMap@@PAVUActorChannel@@@Z @ 5771
?GetOptimizedRepList@AController@@UAEPAHPAEPAUFPropertyRetirement@@PAHPAVUPackageMap@@PAVUActorChannel@@@Z @ 5772
?GetOptimizedRepList@AGameReplicationInfo@@UAEPAHPAEPAUFPropertyRetirement@@PAHPAVUPackageMap@@PAVUActorChannel@@@Z @ 5773
?GetOptimizedRepList@AInventory@@UAEPAHPAEPAUFPropertyRetirement@@PAHPAVUPackageMap@@PAVUActorChannel@@@Z @ 5774
?GetOptimizedRepList@AInventoryAttachment@@UAEPAHPAEPAUFPropertyRetirement@@PAHPAVUPackageMap@@PAVUActorChannel@@@Z @ 5775
?GetOptimizedRepList@ALevelInfo@@UAEPAHPAEPAUFPropertyRetirement@@PAHPAVUPackageMap@@PAVUActorChannel@@@Z @ 5776
?GetOptimizedRepList@AMover@@UAEPAHPAEPAUFPropertyRetirement@@PAHPAVUPackageMap@@PAVUActorChannel@@@Z @ 5777
?GetOptimizedRepList@APawn@@UAEPAHPAEPAUFPropertyRetirement@@PAHPAVUPackageMap@@PAVUActorChannel@@@Z @ 5778
?GetOptimizedRepList@APhysicsVolume@@UAEPAHPAEPAUFPropertyRetirement@@PAHPAVUPackageMap@@PAVUActorChannel@@@Z @ 5779
?GetOptimizedRepList@APickup@@UAEPAHPAEPAUFPropertyRetirement@@PAHPAVUPackageMap@@PAVUActorChannel@@@Z @ 5780
?GetOptimizedRepList@APlayerController@@UAEPAHPAEPAUFPropertyRetirement@@PAHPAVUPackageMap@@PAVUActorChannel@@@Z @ 5781
?GetOptimizedRepList@APlayerReplicationInfo@@UAEPAHPAEPAUFPropertyRetirement@@PAHPAVUPackageMap@@PAVUActorChannel@@@Z @ 5782
?GetOptimizedRepList@APowerups@@UAEPAHPAEPAUFPropertyRetirement@@PAHPAVUPackageMap@@PAVUActorChannel@@@Z @ 5783
?GetOptimizedRepList@AReplicationInfo@@UAEPAHPAEPAUFPropertyRetirement@@PAHPAVUPackageMap@@PAVUActorChannel@@@Z @ 5784
?GetOptimizedRepList@ATeamInfo@@UAEPAHPAEPAUFPropertyRetirement@@PAHPAVUPackageMap@@PAVUActorChannel@@@Z @ 5785
?GetOptimizedRepList@AVehicle@@UAEPAHPAEPAUFPropertyRetirement@@PAHPAVUPackageMap@@PAVUActorChannel@@@Z @ 5786
?GetOptimizedRepList@AVoiceChatReplicationInfo@@UAEPAHPAEPAUFPropertyRetirement@@PAHPAVUPackageMap@@PAVUActorChannel@@@Z @ 5787
?GetOptimizedRepList@AWeaponAttachment@@UAEPAHPAEPAUFPropertyRetirement@@PAHPAVUPackageMap@@PAVUActorChannel@@@Z @ 5788
?GetOptimizedRepList@AwAmmunition@@UAEPAHPAEPAUFPropertyRetirement@@PAHPAVUPackageMap@@PAVUActorChannel@@@Z @ 5789
?GetOptimizedRepList@AwWeapon@@UAEPAHPAEPAUFPropertyRetirement@@PAHPAVUPackageMap@@PAVUActorChannel@@@Z @ 5790
?GetOptimizedRepList@AwWeaponPickup@@UAEPAHPAEPAUFPropertyRetirement@@PAHPAVUPackageMap@@PAVUActorChannel@@@Z @ 5791
?GetOption@FURL@@QBEPBGPBG0@Z @ 5792
?GetOrientationDesc@FMatineeTools@@QAE?AVFString@@H@Z @ 5793
?GetOriginalSize@UProceduralSound@@UAEHXZ @ 5794
?GetOriginalSize@USound@@UAEHXZ @ 5795
?GetOriginalSize@USoundGroup@@UAEHXZ @ 5796
?GetOuterRadius@FTerrainTools@@QAEHXZ @ 5797
?GetOuterUClient@UViewport@@QBEPAVUClient@@XZ @ 5798
?GetPaddingSize@FID3V2ExtendedTagHeader@@QBEHXZ @ 5799
?GetParams@UGMFile@@QAEXPAVUwGameManager@@@Z @ 5800
?GetParams@UWMFile@@QAEXPAVUwWeaponManager@@@Z @ 5801
?GetPartGroupIndex@UItemIterator@@QAEHH@Z @ 5802
?GetPartialSize@FAnimMeshVertexStream@@UAEHXZ @ 5803
?GetParticleTarget@FRenderInterface@@UAEPAVFRenderTarget@@XZ @ 5804
?GetPathStyle@FMatineeTools@@QAEHPAVUMatAction@@@Z @ 5805
?GetPawn@ULevel@@QAEPAVAPawn@@VFString@@@Z @ 5806
?GetPawnWithLog@ULevel@@QAEPAVAPawn@@VFString@@@Z @ 5807
?GetPeriod@FSoundData@@QAEMXZ @ 5808
?GetPhysicsVolume@ALevelInfo@@QAEPAVAPhysicsVolume@@VFVector@@PAVAActor@@H@Z @ 5809
?GetPixelShaderVersion@URenderDevice@@UAEHXZ @ 5810
?GetPlayerPawn@AActor@@QBEPAVAPawn@@XZ @ 5811
?GetPrevAction@FMatineeTools@@QAEPAVUMatAction@@PAVASceneManager@@PAV2@@Z @ 5812
?GetPrimitive@AActor@@UAEPAVUPrimitive@@XZ @ 5813
?GetPrimitive@ABrush@@UAEPAVUPrimitive@@XZ @ 5814
?GetPrimitive@AFluidSurfaceInfo@@UAEPAVUPrimitive@@XZ @ 5815
?GetPrimitive@AProjector@@UAEPAVUPrimitive@@XZ @ 5816
?GetPrimitive@ATerrainInfo@@UAEPAVUPrimitive@@XZ @ 5817
?GetProjectorBase@AActor@@UAEPAV1@XZ @ 5818
?GetProjectorBase@AwWeapon@@UAEPAVAActor@@XZ @ 5819
?GetQuadDomMaterialBitmap@ATerrainInfo@@QAEPAVUMaterial@@HH@Z @ 5820
?GetQuadVisibilityBitmap@ATerrainInfo@@QAEHHH@Z @ 5821
?GetQueryData@FRenderInterface@@UAEKH@Z @ 5822
?GetRadius@UProceduralSound@@UAEMXZ @ 5823
?GetRadius@USound@@UAEMXZ @ 5824
?GetRadius@USoundGroup@@UAEMXZ @ 5825
?GetRawStreamData@FAnimMeshVertexStream@@UAEXPAPAXH@Z @ 5826
?GetRawStreamData@FBSPTangentBinormalStream@@UAEXPAPAXH@Z @ 5827
?GetRawStreamData@FBlendWeightAndIndexStream@@UAEXPAPAXH@Z @ 5828
?GetRawStreamData@FBspVertexStream@@UAEXPAPAXH@Z @ 5829
?GetRawStreamData@FCanvasUtil@@UAEXPAPAXH@Z @ 5830
?GetRawStreamData@FDiamondVertexStream@@UAEXPAPAXH@Z @ 5831
?GetRawStreamData@FLineBatcher@@UAEXPAPAXH@Z @ 5832
?GetRawStreamData@FPostProcessCanvasUtil@@UAEXPAPAXH@Z @ 5833
?GetRawStreamData@FRawColorStream@@UAEXPAPAXH@Z @ 5834
?GetRawStreamData@FShadowMeshVertexStream@@UAEXPAPAXH@Z @ 5835
?GetRawStreamData@FSkeletalMeshBoundStream@@UAEXPAPAXH@Z @ 5836
?GetRawStreamData@FSkeletalMeshTangentBinormalStream@@UAEXPAPAXH@Z @ 5837
?GetRawStreamData@FSkinVertexStream@@UAEXPAPAXH@Z @ 5838
?GetRawStreamData@FStaticMeshBatchVertexStream@@UAEXPAPAXH@Z @ 5839
?GetRawStreamData@FStaticMeshBoundVertexStream@@UAEXPAPAXH@Z @ 5840
?GetRawStreamData@FStaticMeshDirectionalLightcolorStream@@UAEXPAPAXH@Z @ 5841
?GetRawStreamData@FStaticMeshTangentBinormalStream@@UAEXPAPAXH@Z @ 5842
?GetRawStreamData@FStaticMeshUVStream@@UAEXPAPAXH@Z @ 5843
?GetRawStreamData@FStaticMeshVertexStream@@UAEXPAPAXH@Z @ 5844
?GetRawStreamData@FTerrainDirectionalLightcolorStream@@UAEXPAPAXH@Z @ 5845
?GetRawTextureData@FLightMap@@UAEPAXH@Z @ 5846
?GetRawTextureData@FSolidColorTexture@@UAEPAXH@Z @ 5847
?GetRawTextureData@FStaticLightMapTexture@@UAEPAXH@Z @ 5848
?GetRawTextureData@FStaticTexture@@UAEPAXH@Z @ 5849
?GetReachSpecTo@ANavigationPoint@@QAEPAVUReachSpec@@PAV1@@Z @ 5850
?GetRecords@UCacheManager@@QAEPBXPBG@Z @ 5851
?GetRect@UTerrainBrush@@UAE?AVFBox@@XZ @ 5852
?GetRect@UTerrainBrushEdgeTurn@@UAE?AVFBox@@XZ @ 5853
?GetRect@UTerrainBrushSelect@@UAE?AVFBox@@XZ @ 5854
?GetRect@UTerrainBrushVisibility@@UAE?AVFBox@@XZ @ 5855
?GetRenderBoundingBox@UConvexVolume@@UAE?AVFBox@@PBVAActor@@@Z @ 5856
?GetRenderBoundingBox@UFluidSurfacePrimitive@@UAE?AVFBox@@PBVAActor@@@Z @ 5857
?GetRenderBoundingBox@UMeshInstance@@UAE?AVFBox@@PBVAActor@@@Z @ 5858
?GetRenderBoundingBox@UModel@@UAE?AVFBox@@PBVAActor@@@Z @ 5859
?GetRenderBoundingBox@UPrimitive@@UAE?AVFBox@@PBVAActor@@@Z @ 5860
?GetRenderBoundingBox@USkeletalMesh@@UAE?AVFBox@@PBVAActor@@@Z @ 5861
?GetRenderBoundingBox@USkeletalMeshInstance@@UAE?AVFBox@@PBVAActor@@@Z @ 5862
?GetRenderBoundingBox@UStaticMesh@@UAE?AVFBox@@PBVAActor@@@Z @ 5863
?GetRenderBoundingBox@UTerrainPrimitive@@QAE?AVFBox@@PBVAActor@@H@Z @ 5864
?GetRenderBoundingBox@UVertMesh@@UAE?AVFBox@@PBVAActor@@@Z @ 5865
?GetRenderBoundingBox@UVertMeshInstance@@UAE?AVFBox@@PBVAActor@@@Z @ 5866
?GetRenderBoundingSphere@UFluidSurfacePrimitive@@UAE?AVFSphere@@PBVAActor@@@Z @ 5867
?GetRenderBoundingSphere@UMeshInstance@@UAE?AVFSphere@@PBVAActor@@@Z @ 5868
?GetRenderBoundingSphere@UPrimitive@@UAE?AVFSphere@@PBVAActor@@@Z @ 5869
?GetRenderBoundingSphere@USkeletalMesh@@UAE?AVFSphere@@PBVAActor@@@Z @ 5870
?GetRenderBoundingSphere@USkeletalMeshInstance@@UAE?AVFSphere@@PBVAActor@@@Z @ 5871
?GetRenderBoundingSphere@UStaticMesh@@UAE?AVFSphere@@PBVAActor@@@Z @ 5872
?GetRenderBoundingSphere@UVertMesh@@UAE?AVFSphere@@PBVAActor@@@Z @ 5873
?GetRenderBoundingSphere@UVertMeshInstance@@UAE?AVFSphere@@PBVAActor@@@Z @ 5874
?GetRenderCaps@UNullRenderDevice@@UAEPAUFRenderCaps@@XZ @ 5875
?GetRenderCombinationNum@ATerrainInfo@@QAEHAAV?$TArray@H@@W4ETerrainRenderMethod@@@Z @ 5876
?GetRenderDevice@FRenderInterface@@UAEPAVURenderDevice@@XZ @ 5877
?GetRenderInterface@UCubemap@@UAEPAVFBaseTexture@@XZ @ 5878
?GetRenderInterface@UDownloadTexture@@UAEPAVFBaseTexture@@XZ @ 5879
?GetRenderInterface@UProxyBitmapMaterial@@UAEPAVFBaseTexture@@XZ @ 5880
?GetRenderInterface@URenderDevice@@UAEPAVFRenderInterface@@XZ @ 5881
?GetRenderInterface@UScriptedTexture@@UAEPAVFBaseTexture@@XZ @ 5882
?GetRenderInterface@UShadowBitmapMaterial@@UAEPAVFBaseTexture@@XZ @ 5883
?GetRenderInterface@UTexture@@UAEPAVFBaseTexture@@XZ @ 5884
?GetRenderTarget@FRenderInterface@@UAEPAVFRenderTarget@@H@Z @ 5885
?GetRequestMyAddressTime@UNetDriver@@UAENXZ @ 5886
?GetRevision@FAnimMeshVertexStream@@UAEHXZ @ 5887
?GetRevision@FBSPTangentBinormalStream@@UAEHXZ @ 5888
?GetRevision@FBlendWeightAndIndexStream@@UAEHXZ @ 5889
?GetRevision@FBspVertexStream@@UAEHXZ @ 5890
?GetRevision@FCanvasUtil@@UAEHXZ @ 5891
?GetRevision@FDiamondIndexBuffer@@UAEHXZ @ 5892
?GetRevision@FDiamondVertexStream@@UAEHXZ @ 5893
?GetRevision@FLightMap@@UAEHXZ @ 5894
?GetRevision@FLightMapTexture@@UAEHXZ @ 5895
?GetRevision@FLineBatcher@@UAEHXZ @ 5896
?GetRevision@FPostProcessCanvasUtil@@UAEHXZ @ 5897
?GetRevision@FRaw32BitIndexBuffer@@UAEHXZ @ 5898
?GetRevision@FRawColorStream@@UAEHXZ @ 5899
?GetRevision@FRawIndexBuffer@@UAEHXZ @ 5900
?GetRevision@FShadowMeshVertexStream@@UAEHXZ @ 5901
?GetRevision@FSkeletalMeshBoundStream@@UAEHXZ @ 5902
?GetRevision@FSkeletalMeshTangentBinormalStream@@UAEHXZ @ 5903
?GetRevision@FSkinVertexStream@@UAEHXZ @ 5904
?GetRevision@FSolidColorTexture@@UAEHXZ @ 5905
?GetRevision@FStaticCubemap@@UAEHXZ @ 5906
?GetRevision@FStaticDownloadTexture@@UAEHXZ @ 5907
?GetRevision@FStaticLightMapTexture@@UAEHXZ @ 5908
?GetRevision@FStaticMeshBatchIndexBuffer@@UAEHXZ @ 5909
?GetRevision@FStaticMeshBatchVertexStream@@UAEHXZ @ 5910
?GetRevision@FStaticMeshBoundVertexStream@@UAEHXZ @ 5911
?GetRevision@FStaticMeshDirectionalLightcolorStream@@UAEHXZ @ 5912
?GetRevision@FStaticMeshTangentBinormalStream@@UAEHXZ @ 5913
?GetRevision@FStaticMeshUVStream@@UAEHXZ @ 5914
?GetRevision@FStaticMeshVertexStream@@UAEHXZ @ 5915
?GetRevision@FStaticTexture@@UAEHXZ @ 5916
?GetRevision@FTerrainDirectionalLightcolorStream@@UAEHXZ @ 5917
?GetRootLocation@AActor@@UAE?AVFVector@@XZ @ 5918
?GetRootLocation@USkeletalMeshInstance@@QAE?AVFVector@@XZ @ 5919
?GetRootLocationDelta@USkeletalMeshInstance@@QAE?AVFVector@@XZ @ 5920
?GetRootRotation@USkeletalMeshInstance@@QAE?AVFRotator@@XZ @ 5921
?GetRootRotationDelta@USkeletalMeshInstance@@QAE?AVFRotator@@XZ @ 5922
?GetRotation@ASceneManager@@QAE?AVFRotator@@PAV?$TArray@VFVector@@@@MVFVector@@V2@PAVUMatAction@@H@Z @ 5923
?GetRunSpeedAniRatio@APawn@@AAEMEEH@Z @ 5924
?GetSUBSTRING@@YAHPBG0PAGH@Z @ 5925
?GetSamples@FMatineeTools@@QAEXPAVASceneManager@@PAVUMatAction@@PAV?$TArray@VFVector@@@@@Z @ 5926
?GetScissorRect@FRenderInterface@@UAEXAAH000@Z @ 5927
?GetSelectedVerticesBounds@ATerrainInfo@@QAE?AVFBox@@XZ @ 5928
?GetSendMyAddressTime@UNetDriver@@UAENXZ @ 5929
?GetServer@UViewport@@UAEPAXXZ @ 5930
?GetServerConnectionAddress@UNetDriver@@UAEHAAVFString@@@Z @ 5931
?GetShadowMap@FRenderInterface@@UAEXAAPAVFBaseTexture@@PAVFMatrix@@PAM@Z @ 5932
?GetSize@FAnimMeshVertexStream@@UAEHXZ @ 5933
?GetSize@FBSPTangentBinormalStream@@UAEHXZ @ 5934
?GetSize@FBlendWeightAndIndexStream@@UAEHXZ @ 5935
?GetSize@FBspVertexStream@@UAEHXZ @ 5936
?GetSize@FCanvasUtil@@UAEHXZ @ 5937
?GetSize@FDiamondIndexBuffer@@UAEHXZ @ 5938
?GetSize@FDiamondVertexStream@@UAEHXZ @ 5939
?GetSize@FFrameHeader@@QBEHXZ @ 5940
?GetSize@FID3TagV2@@QBEHXZ @ 5941
?GetSize@FID3V2ExtendedTagHeader@@QBEHXZ @ 5942
?GetSize@FID3V2Frame@@QBEHXZ @ 5943
?GetSize@FID3V2TagHeader@@QBEHXZ @ 5944
?GetSize@FLineBatcher@@UAEHXZ @ 5945
?GetSize@FPostProcessCanvasUtil@@UAEHXZ @ 5946
?GetSize@FRaw32BitIndexBuffer@@UAEHXZ @ 5947
?GetSize@FRawColorStream@@UAEHXZ @ 5948
?GetSize@FRawIndexBuffer@@UAEHXZ @ 5949
?GetSize@FShadowMeshVertexStream@@UAEHXZ @ 5950
?GetSize@FSkeletalMeshBoundStream@@UAEHXZ @ 5951
?GetSize@FSkeletalMeshTangentBinormalStream@@UAEHXZ @ 5952
?GetSize@FSkinVertexStream@@UAEHXZ @ 5953
?GetSize@FStaticMeshBatchIndexBuffer@@UAEHXZ @ 5954
?GetSize@FStaticMeshBatchVertexStream@@UAEHXZ @ 5955
?GetSize@FStaticMeshBoundVertexStream@@UAEHXZ @ 5956
?GetSize@FStaticMeshDirectionalLightcolorStream@@UAEHXZ @ 5957
?GetSize@FStaticMeshTangentBinormalStream@@UAEHXZ @ 5958
?GetSize@FStaticMeshUVStream@@UAEHXZ @ 5959
?GetSize@FStaticMeshVertexStream@@UAEHXZ @ 5960
?GetSize@FStreamingTexture@@QBEHH@Z @ 5961
?GetSize@FTerrainDirectionalLightcolorStream@@UAEHXZ @ 5962
?GetSkillIndex@UItemIterator@@QAEHH@Z @ 5963
?GetSkin@AActor@@UAEPAVUMaterial@@H@Z @ 5964
?GetSkin@UStaticMesh@@QAEPAVUMaterial@@PAVAActor@@H@Z @ 5965
?GetSkyGlowTarget@FRenderInterface@@UAEPAVFRenderTarget@@XZ @ 5966
?GetSkySceneNode@FSceneNode@@UAEPAVFSkySceneNode@@XZ @ 5967
?GetSkySceneNode@FSkySceneNode@@UAEPAV1@XZ @ 5968
?GetSmoothNormal@UModel@@QAE?AVFVector@@AAVFBspNode@@V2@1M@Z @ 5969
?GetSource@UAudioSubsystem@@UAEPAVFSoundSource@@H@Z @ 5970
?GetStatString@UMatSubAction@@UAE?AVFString@@XZ @ 5971
?GetStatString@USubActionCameraEffect@@UAE?AVFString@@XZ @ 5972
?GetStatString@USubActionCameraShake@@UAE?AVFString@@XZ @ 5973
?GetStatString@USubActionFOV@@UAE?AVFString@@XZ @ 5974
?GetStatString@USubActionFade@@UAE?AVFString@@XZ @ 5975
?GetStatString@USubActionGameSpeed@@UAE?AVFString@@XZ @ 5976
?GetStatString@USubActionOrientation@@UAE?AVFString@@XZ @ 5977
?GetStatString@USubActionSceneSpeed@@UAE?AVFString@@XZ @ 5978
?GetStatString@USubActionSubTitle@@UAE?AVFString@@XZ @ 5979
?GetStatString@USubActionTrigger@@UAE?AVFString@@XZ @ 5980
?GetStatus@ULodMeshInstance@@UAEHXZ @ 5981
?GetStatus@UMeshInstance@@UAEHXZ @ 5982
?GetStatusDesc@UMatSubAction@@QAE?AVFString@@XZ @ 5983
?GetStreamData@FAnimMeshVertexStream@@UAEXPAX@Z @ 5984
?GetStreamData@FBSPTangentBinormalStream@@UAEXPAX@Z @ 5985
?GetStreamData@FBlendWeightAndIndexStream@@UAEXPAX@Z @ 5986
?GetStreamData@FBspVertexStream@@UAEXPAX@Z @ 5987
?GetStreamData@FCanvasUtil@@UAEXPAX@Z @ 5988
?GetStreamData@FDiamondVertexStream@@UAEXPAX@Z @ 5989
?GetStreamData@FLineBatcher@@UAEXPAX@Z @ 5990
?GetStreamData@FPostProcessCanvasUtil@@UAEXPAX@Z @ 5991
?GetStreamData@FRawColorStream@@UAEXPAX@Z @ 5992
?GetStreamData@FShadowMeshVertexStream@@UAEXPAX@Z @ 5993
?GetStreamData@FSkeletalMeshBoundStream@@UAEXPAX@Z @ 5994
?GetStreamData@FSkeletalMeshTangentBinormalStream@@UAEXPAX@Z @ 5995
?GetStreamData@FSkinVertexStream@@UAEXPAX@Z @ 5996
?GetStreamData@FStaticMeshBatchVertexStream@@UAEXPAX@Z @ 5997
?GetStreamData@FStaticMeshBoundVertexStream@@UAEXPAX@Z @ 5998
?GetStreamData@FStaticMeshDirectionalLightcolorStream@@UAEXPAX@Z @ 5999
?GetStreamData@FStaticMeshTangentBinormalStream@@UAEXPAX@Z @ 6000
?GetStreamData@FStaticMeshUVStream@@UAEXPAX@Z @ 6001
?GetStreamData@FStaticMeshVertexStream@@UAEXPAX@Z @ 6002
?GetStreamData@FTerrainDirectionalLightcolorStream@@UAEXPAX@Z @ 6003
?GetStrength@FTerrainTools@@QAEHXZ @ 6004
?GetStride@FAnimMeshVertexStream@@UAEHXZ @ 6005
?GetStride@FBSPTangentBinormalStream@@UAEHXZ @ 6006
?GetStride@FBlendWeightAndIndexStream@@UAEHXZ @ 6007
?GetStride@FBspVertexStream@@UAEHXZ @ 6008
?GetStride@FCanvasUtil@@UAEHXZ @ 6009
?GetStride@FDiamondVertexStream@@UAEHXZ @ 6010
?GetStride@FLineBatcher@@UAEHXZ @ 6011
?GetStride@FPostProcessCanvasUtil@@UAEHXZ @ 6012
?GetStride@FRawColorStream@@UAEHXZ @ 6013
?GetStride@FShadowMeshVertexStream@@UAEHXZ @ 6014
?GetStride@FSkeletalMeshBoundStream@@UAEHXZ @ 6015
?GetStride@FSkeletalMeshTangentBinormalStream@@UAEHXZ @ 6016
?GetStride@FSkinVertexStream@@UAEHXZ @ 6017
?GetStride@FStaticMeshBatchVertexStream@@UAEHXZ @ 6018
?GetStride@FStaticMeshBoundVertexStream@@UAEHXZ @ 6019
?GetStride@FStaticMeshDirectionalLightcolorStream@@UAEHXZ @ 6020
?GetStride@FStaticMeshTangentBinormalStream@@UAEHXZ @ 6021
?GetStride@FStaticMeshUVStream@@UAEHXZ @ 6022
?GetStride@FStaticMeshVertexStream@@UAEHXZ @ 6023
?GetStride@FTerrainDirectionalLightcolorStream@@UAEHXZ @ 6024
?GetSubActionIdx@FMatineeTools@@QAEHPAVUMatSubAction@@@Z @ 6025
?GetSunLightColor@FRenderInterface@@UAE?AVFPlane@@XZ @ 6026
?GetSunLightDirection@FRenderInterface@@UAE?AVFVector@@XZ @ 6027
?GetTagCoords@USkeletalMeshInstance@@QAE?AVFCoords@@VFName@@@Z @ 6028
?GetTeamNumNativeImp@AController@@QAEHXZ @ 6029
?GetTeamNumNativeImp@APawn@@QAEHXZ @ 6030
?GetTexel3DInfo@UModel@@QAEHHMMAAVFVector@@0@Z @ 6031
?GetTexel@UTexture@@QAE?AVFColor@@MMMM@Z @ 6032
?GetTexelColor@FLightMapTexture@@QAE?AVFColor@@HH@Z @ 6033
?GetTexelPtr@UTexture@@QAEPAVFColor@@XZ @ 6034
?GetTextureColor@ATerrainInfo@@QAE?AVFColor@@HHPAVUTexture@@@Z @ 6035
?GetTextureData@FLightMap@@UAEXHPAXHW4ETextureFormat@@H@Z @ 6036
?GetTextureData@FSolidColorTexture@@UAEXHPAXHW4ETextureFormat@@H@Z @ 6037
?GetTextureData@FStaticLightMapTexture@@UAEXHPAXHW4ETextureFormat@@H@Z @ 6038
?GetTextureData@FStaticTexture@@UAEXHPAXHW4ETextureFormat@@H@Z @ 6039
?GetTextureLODBias@UClient@@QAEHW4ELODSet@@@Z @ 6040
?GetTextureSize@FPoly@@QAE?AVFVector@@XZ @ 6041
?GetTextureStreamingFactor@FDynamicActor@@QAEMPAVFLevelSceneNode@@@Z @ 6042
?GetTopOwner@AActor@@QAEPAV1@XZ @ 6043
?GetTopPlayerController@AActor@@UAEPAVAPlayerController@@XZ @ 6044
?GetTotalSceneTime@ASceneManager@@QAEMXZ @ 6045
?GetTracker@UCacheManager@@QBEPBVFCacheTracker@@XZ @ 6046
?GetTransientSource@UAudioSubsystem@@UAEPAVFSoundSource@@XZ @ 6047
?GetUClamp@FLightMap@@UAE?AW4ETexClampMode@@XZ @ 6048
?GetUClamp@FLightMapTexture@@UAE?AW4ETexClampMode@@XZ @ 6049
?GetUClamp@FSolidColorTexture@@UAE?AW4ETexClampMode@@XZ @ 6050
?GetUClamp@FStaticCubemap@@UAE?AW4ETexClampMode@@XZ @ 6051
?GetUClamp@FStaticDownloadTexture@@UAE?AW4ETexClampMode@@XZ @ 6052
?GetUClamp@FStaticLightMapTexture@@UAE?AW4ETexClampMode@@XZ @ 6053
?GetUClamp@FStaticTexture@@UAE?AW4ETexClampMode@@XZ @ 6054
?GetUDownloadTexture@FStaticDownloadTexture@@UAEPAVUDownloadTexture@@XZ @ 6055
?GetUSkeletalMesh@UMesh@@UAEPAVUSkeletalMesh@@XZ @ 6056
?GetUSkeletalMesh@USkeletalMesh@@UAEPAV1@XZ @ 6057
?GetUSkeletalMeshInstance@UMeshInstance@@UAEPAVUSkeletalMeshInstance@@XZ @ 6058
?GetUSkeletalMeshInstance@USkeletalMeshInstance@@UAEPAV1@XZ @ 6059
?GetUTexture@FLightMap@@UAEPAVUTexture@@XZ @ 6060
?GetUTexture@FSolidColorTexture@@UAEPAVUTexture@@XZ @ 6061
?GetUTexture@FStaticLightMapTexture@@UAEPAVUTexture@@XZ @ 6062
?GetUTexture@FStaticTexture@@UAEPAVUTexture@@XZ @ 6063
?GetVClamp@FLightMap@@UAE?AW4ETexClampMode@@XZ @ 6064
?GetVClamp@FLightMapTexture@@UAE?AW4ETexClampMode@@XZ @ 6065
?GetVClamp@FSolidColorTexture@@UAE?AW4ETexClampMode@@XZ @ 6066
?GetVClamp@FStaticCubemap@@UAE?AW4ETexClampMode@@XZ @ 6067
?GetVClamp@FStaticDownloadTexture@@UAE?AW4ETexClampMode@@XZ @ 6068
?GetVClamp@FStaticLightMapTexture@@UAE?AW4ETexClampMode@@XZ @ 6069
?GetVClamp@FStaticTexture@@UAE?AW4ETexClampMode@@XZ @ 6070
?GetValidated@UFinalBlend@@UAEHXZ @ 6071
?GetValidated@UMaterial@@UAEHXZ @ 6072
?GetValidated@UTexModifier@@UAEHXZ @ 6073
?GetVehicleBase@APawn@@UAEPAV1@XZ @ 6074
?GetVehicleRecord@UCacheManager@@QAEHPBGAAUFVehicleRecord@@@Z @ 6075
?GetVelocityScale@UProceduralSound@@UAEMXZ @ 6076
?GetVelocityScale@USound@@UAEMXZ @ 6077
?GetVelocityScale@USoundGroup@@UAEMXZ @ 6078
?GetVertexNormal@ATerrainInfo@@QAE?AVFVector@@HH@Z @ 6079
?GetVertexPosLocal@AFluidSurfaceInfo@@QAE?AVFVector@@HH@Z @ 6080
?GetVertexPosWorld@AFluidSurfaceInfo@@QAE?AVFVector@@HH@Z @ 6081
?GetVertexShaderVersion@URenderDevice@@UAEHXZ @ 6082
?GetViewFrustum@FDirectionalLightMapSceneNode@@UAE?AVFConvexVolume@@XZ @ 6083
?GetViewFrustum@FLevelSceneNode@@UAE?AVFConvexVolume@@XZ @ 6084
?GetViewFrustum@FPointLightMapSceneNode@@UAE?AVFConvexVolume@@XZ @ 6085
?GetViewInformation@FStreamingManagerBase@@QBEABUFStreamingViewInfo@@H@Z @ 6086
?GetViewRotation@AActor@@QAE?AVFRotator@@XZ @ 6087
?GetViewTarget@AController@@UAEPAVAActor@@XZ @ 6088
?GetViewTarget@APlayerController@@UAEPAVAActor@@XZ @ 6089
?GetViewport@FRenderInterface@@UAEXAAH000@Z @ 6090
?GetViewport@UAudioSubsystem@@QAEPAVUViewport@@XZ @ 6091
?GetViewportOfAudio@UGameEngine@@UAEPAVUViewport@@XZ @ 6092
?GetWarpZoneSceneNode@FSceneNode@@UAEPAVFWarpZoneSceneNode@@XZ @ 6093
?GetWarpZoneSceneNode@FWarpZoneSceneNode@@UAEPAV1@XZ @ 6094
?GetWeaponCustomInfoIndex@UItemIterator@@QAEHH@Z @ 6095
?GetWeaponCustomPartsIndex@UItemIterator@@QAEHH@Z @ 6096
?GetWeaponManager@UEngine@@UAEPAVUwWeaponManager@@XZ @ 6097
?GetWeaponManager@UGameEngine@@UAEPAVUwWeaponManager@@XZ @ 6098
?GetWeaponRecord@UCacheManager@@QAEHPBGAAUFWeaponRecord@@@Z @ 6099
?GetWidth@FLightMap@@UAEHXZ @ 6100
?GetWidth@FLightMapTexture@@UAEHXZ @ 6101
?GetWidth@FSolidColorTexture@@UAEHXZ @ 6102
?GetWidth@FStaticCubemap@@UAEHXZ @ 6103
?GetWidth@FStaticDownloadTexture@@UAEHXZ @ 6104
?GetWidth@FStaticLightMapTexture@@UAEHXZ @ 6105
?GetWidth@FStaticTexture@@UAEHXZ @ 6106
?GetZoneActor@ULevel@@QAEPAVAZoneInfo@@H@Z @ 6107
?GotoNextStep@UBTLoadingAdvancer@@QAEHH@Z @ 6108
?HS_AhnHSUpdate@UHShieldManager@@QAEHABUAHNHS_EXT_ERRORINFOW@@PAG@Z @ 6109
?HS_Init@UHShieldManager@@QAEHPAG@Z @ 6110
?HS_SetUserID@UHShieldManager@@QAEXPAG@Z @ 6111
?HS_StartMonitoring@UHShieldManager@@QAEHAAUAHNHS_EXT_ERRORINFOW@@PAG@Z @ 6112
?HS_StartService@UHShieldManager@@QAEHXZ @ 6113
?HS_StopService@UHShieldManager@@QAEHXZ @ 6114
?HS_UnInit@UHShieldManager@@QAEHXZ @ 6115
?HS_UserSetting@UHShieldManager@@QAEHPAG@Z @ 6116
?HalveData@FWaveModInfo@@QAEXXZ @ 6117
?HalveReduce16to8@FWaveModInfo@@QAEXXZ @ 6118
?HandleActorForce@UParticleEmitter@@UAEXPAVAActor@@M@Z @ 6119
?HandleClientPlayer@UDemoRecConnection@@UAEXPAVAPlayerController@@@Z @ 6120
?HandleClientPlayer@UNetConnection@@UAEXPAVAPlayerController@@@Z @ 6121
?HandleSpecial@AController@@QAEPAVAActor@@PAV2@@Z @ 6122
?HasAssociatedLevelGeometry@AActor@@UAEHPAV1@@Z @ 6123
?HasAssociatedLevelGeometry@ADoor@@UAEHPAVAActor@@@Z @ 6124
?HasFallback@UBlendShader@@UAEHXZ @ 6125
?HasFallback@UDecalShader@@UAEHXZ @ 6126
?HasFallback@UMaterial@@UAEHXZ @ 6127
?HasFallback@UShader@@UAEHXZ @ 6128
?HasFallback@UTerrainMaterial@@UAEHXZ @ 6129
?HasOption@FURL@@QBEHPBG@Z @ 6130
?HasV1Tag@UStreamTag@@IBEHPAVFArchive@@@Z @ 6131
?HasV2Tag@UStreamTag@@IBEHPAVFArchive@@@Z @ 6132
?HashX@FCollisionHash@@2PAHA @ 6133
?HashY@FCollisionHash@@2PAHA @ 6134
?HashZ@FCollisionHash@@2PAHA @ 6135
?HeightmapToWorld@ATerrainInfo@@QAE?AVFVector@@V2@@Z @ 6136
?HiColor4444@FColor@@QBEGXZ @ 6137
?HiColor555@FColor@@QBEGXZ @ 6138
?HiColor565@FColor@@QBEGXZ @ 6139
?HitGoal@APawn@@QAE?AW4ETestMoveResult@@PAVAActor@@@Z @ 6140
?HurtByVolume@APawn@@UAEHPAVAActor@@@Z @ 6141
?HurtByVolume@AScout@@UAEHPAVAActor@@@Z @ 6142
?IME_Notify@UEngine@@UAEXHGVFString@@HH@Z @ 6143
?Illuminate@UModel@@UAEXPAVAActor@@H@Z @ 6144
?Illuminate@UPrimitive@@UAEXPAVAActor@@H@Z @ 6145
?Illuminate@UStaticMesh@@UAEXPAVAActor@@H@Z @ 6146
?Illuminate@UTerrainPrimitive@@UAEXPAVAActor@@H@Z @ 6147
?Init@AFluidSurfaceInfo@@QAEXXZ @ 6148
?Init@FEngineStats@@QAEXXZ @ 6149
?Init@FMatineeTools@@QAEXXZ @ 6150
?Init@FPoly@@QAEXXZ @ 6151
?Init@FRebuildOptions@@QAEXXZ @ 6152
?Init@FRebuildTools@@QAEXXZ @ 6153
?Init@FSoundSource@@UAEXPAVAActor@@HPAVUSound@@VFString@@VFVector@@MMMHM@Z @ 6154
?Init@FTerrainTools@@QAEXXZ @ 6155
?Init@UActorChannel@@UAEXPAVUNetConnection@@HH@Z @ 6156
?Init@UAudioSubsystem@@UAEHXZ @ 6157
?Init@UCanvas@@UAEXPAVUViewport@@@Z @ 6158
?Init@UChannel@@UAEXPAVUNetConnection@@HH@Z @ 6159
?Init@UClient@@UAEXPAVUEngine@@@Z @ 6160
?Init@UControlChannel@@UAEXPAVUNetConnection@@HH@Z @ 6161
?Init@UEngine@@UAEXXZ @ 6162
?Init@UFileChannel@@UAEXPAVUNetConnection@@HH@Z @ 6163
?Init@UGameEngine@@UAEXXZ @ 6164
?Init@UInput@@UAEXPAVUViewport@@@Z @ 6165
?Init@UNullRenderDevice@@UAEHXZ @ 6166
?Init@UReachSpec@@QAEXXZ @ 6167
?Init@UTexture@@UAEXHH@Z @ 6168
?Init@UVoiceChannel@@UAEXPAVUNetConnection@@HH@Z @ 6169
?Init@UwCharacterManager@@QAEXXZ @ 6170
?Init@UwGameManager@@QAEXPAVUGameEngine@@@Z @ 6171
?Init@UwWeaponManager@@QAEXXZ @ 6172
?InitAudio@UEngine@@QAEXXZ @ 6173
?InitBase@UDemoRecDriver@@QAEHHPAVFNetworkNotify@@AAVFURL@@AAVFString@@@Z @ 6174
?InitBaseValues@UGameEngine@@QAEXXZ @ 6175
?InitCache@UCacheManager@@QAEXPBG@Z @ 6176
?InitCacheManager@UCacheManager@@QAEXK@Z @ 6177
?InitClientNatChecker@UBTLoadingAdvancer@@QAEHHVFString@@HEE@Z @ 6178
?InitClientNatChecker@UNetDriver@@UAEHHAAVFString@@HEE@Z @ 6179
?InitConnect@UDemoRecDriver@@UAEHPAVFNetworkNotify@@AAVFURL@@AAVFString@@H@Z @ 6180
?InitConnect@UNetDriver@@UAEHPAVFNetworkNotify@@AAVFURL@@AAVFString@@H@Z @ 6181
?InitDistanceFogLOD@ALevelInfo@@QAEXXZ @ 6182
?InitDuplicate@UHardwareShader@@QAEXXZ @ 6183
?InitExecution@AActor@@UAEXXZ @ 6184
?InitForDigestion@UMeshAnimation@@UAEXXZ @ 6185
?InitForPathFinding@ADoor@@UAEXXZ @ 6186
?InitForPathFinding@AFlyingPathNode@@UAEXXZ @ 6187
?InitForPathFinding@ALadder@@UAEXXZ @ 6188
?InitForPathFinding@ANavigationPoint@@UAEXXZ @ 6189
?InitForPathing@AScout@@QAEXXZ @ 6190
?InitHostNatChecker@UBTLoadingAdvancer@@QAEHHVFString@@HEE@Z @ 6191
?InitHostNatChecker@UNetDriver@@UAEHHAAVFString@@AAHEE@Z @ 6192
?InitLevelLoadingCount@UGameEngine@@UAEXAAVFString@@@Z @ 6193
?InitLightMapTexelsInfo@UStaticMesh@@QAEHXZ @ 6194
?InitListen@UDemoRecDriver@@UAEHPAVFNetworkNotify@@AAVFURL@@AAVFString@@@Z @ 6195
?InitListen@UNetDriver@@UAEHPAVFNetworkNotify@@AAVFURL@@AAVFString@@@Z @ 6196
?InitLoading@UBTLoadingAdvancer@@QAEHXZ @ 6197
?InitNewNetConnection@UGameEngine@@QAE?AVFString@@V?$TArray@VFString@@@@HH@Z @ 6198
?InitOut@UNetConnection@@UAEXXZ @ 6199
?InitParticle@AwEmitter@@QAEXH@Z @ 6200
?InitParticle@AwWeatherEffect@@QAEXAAUFWeatherPcl@@@Z @ 6201
?InitPosRotScale@ABrush@@UAEXXZ @ 6202
?InitRemoteAddr@UNetConnection@@UAEXAAVFString@@H@Z @ 6203
?InitSkeletalPhysics@UMeshInstance@@UAE_NXZ @ 6204
?InitSpecial@UGameEngine@@QAE?AVFString@@PBG@Z @ 6205
?InitTexelsInfo@UModel@@QAEHH@Z @ 6206
?InitTexelsInfoTangentSpace@UModel@@QAEHXZ @ 6207
?Inited@FCollisionHash@@2HA @ 6208
?Initialize@AEmitter@@UAEXXZ @ 6209
?Initialize@AwEmitter@@QAEXXZ @ 6210
?Initialize@UBeamEmitter@@UAEXH@Z @ 6211
?Initialize@UDistortEmitter@@UAEXH@Z @ 6212
?Initialize@UMeshEmitter@@UAEXH@Z @ 6213
?Initialize@UParticleEmitter@@UAEXH@Z @ 6214
?Initialize@USparkEmitter@@UAEXH@Z @ 6215
?Initialize@USpriteEmitter@@UAEXH@Z @ 6216
?Initialize@UTrailEmitter@@UAEXH@Z @ 6217
?InitializePreviewActors@ASceneManager@@QAEXXZ @ 6218
?Initialized@UCacheManager@@QBEHPBG@Z @ 6219
?InputEvent@UEngine@@UAEHPAVUViewport@@W4EInputKey@@W4EInputAction@@M@Z @ 6220
?Insert@?$TArray@E@@QAEXHH@Z @ 6221
?InsertLodModel@USkeletalMesh@@QAEXHPAV1@MH@Z @ 6222
?InsertVertex@FPoly@@QAEXHVFVector@@@Z @ 6223
?InsertZeroed@?$TArray@E@@QAEXHH@Z @ 6224
?InstantPaintProgressEx@UGameEngine@@QAEXPAVUMaterial@@MMMM@Z @ 6225
?InstantPaintText@UGameEngine@@QAEXEMMMMAAVFColor@@HPBG@Z @ 6226
?IntegrateNewPackages@UCacheManager@@AAEXPBG@Z @ 6227
?InternalConstructor@AAIController@@SAXPAX@Z @ 6228
?InternalConstructor@AAIMarker@@SAXPAX@Z @ 6229
?InternalConstructor@AAIScript@@SAXPAX@Z @ 6230
?InternalConstructor@AActor@@SAXPAX@Z @ 6231
?InternalConstructor@AAmbientLightVolume@@SAXPAX@Z @ 6232
?InternalConstructor@AAmbientSound@@SAXPAX@Z @ 6233
?InternalConstructor@AAmmo@@SAXPAX@Z @ 6234
?InternalConstructor@AAnnouncerVoice@@SAXPAX@Z @ 6235
?InternalConstructor@AAntiPortalActor@@SAXPAX@Z @ 6236
?InternalConstructor@AAutoDoor@@SAXPAX@Z @ 6237
?InternalConstructor@AAutoLadder@@SAXPAX@Z @ 6238
?InternalConstructor@AAvoidMarker@@SAXPAX@Z @ 6239
?InternalConstructor@ABlockingVolume@@SAXPAX@Z @ 6240
?InternalConstructor@ABrush@@SAXPAX@Z @ 6241
?InternalConstructor@ACamera@@SAXPAX@Z @ 6242
?InternalConstructor@AClipMarker@@SAXPAX@Z @ 6243
?InternalConstructor@AController@@SAXPAX@Z @ 6244
?InternalConstructor@ACubemapVolume@@SAXPAX@Z @ 6245
?InternalConstructor@ADamageType@@SAXPAX@Z @ 6246
?InternalConstructor@ADecoVolumeObject@@SAXPAX@Z @ 6247
?InternalConstructor@ADecoration@@SAXPAX@Z @ 6248
?InternalConstructor@ADecorationList@@SAXPAX@Z @ 6249
?InternalConstructor@ADefaultPhysicsVolume@@SAXPAX@Z @ 6250
?InternalConstructor@ADoor@@SAXPAX@Z @ 6251
?InternalConstructor@AEmitter@@SAXPAX@Z @ 6252
?InternalConstructor@AFileLog@@SAXPAX@Z @ 6253
?InternalConstructor@AFluidSurfaceInfo@@SAXPAX@Z @ 6254
?InternalConstructor@AFluidSurfaceOscillator@@SAXPAX@Z @ 6255
?InternalConstructor@AFlyingPathNode@@SAXPAX@Z @ 6256
?InternalConstructor@AGameInfo@@SAXPAX@Z @ 6257
?InternalConstructor@AGameReplicationInfo@@SAXPAX@Z @ 6258
?InternalConstructor@AGameStats@@SAXPAX@Z @ 6259
?InternalConstructor@AHUD@@SAXPAX@Z @ 6260
?InternalConstructor@AHoverPathNode@@SAXPAX@Z @ 6261
?InternalConstructor@AInfo@@SAXPAX@Z @ 6262
?InternalConstructor@AInternetInfo@@SAXPAX@Z @ 6263
?InternalConstructor@AInterpolationPoint@@SAXPAX@Z @ 6264
?InternalConstructor@AInventory@@SAXPAX@Z @ 6265
?InternalConstructor@AInventoryAttachment@@SAXPAX@Z @ 6266
?InternalConstructor@AInventorySpot@@SAXPAX@Z @ 6267
?InternalConstructor@AJumpDest@@SAXPAX@Z @ 6268
?InternalConstructor@AJumpPad@@SAXPAX@Z @ 6269
?InternalConstructor@AKActor@@SAXPAX@Z @ 6270
?InternalConstructor@AKBSJoint@@SAXPAX@Z @ 6271
?InternalConstructor@AKCarWheelJoint@@SAXPAX@Z @ 6272
?InternalConstructor@AKConeLimit@@SAXPAX@Z @ 6273
?InternalConstructor@AKConstraint@@SAXPAX@Z @ 6274
?InternalConstructor@AKHinge@@SAXPAX@Z @ 6275
?InternalConstructor@AKRepulsor@@SAXPAX@Z @ 6276
?InternalConstructor@AKTire@@SAXPAX@Z @ 6277
?InternalConstructor@AKVehicle@@SAXPAX@Z @ 6278
?InternalConstructor@AKeypoint@@SAXPAX@Z @ 6279
?InternalConstructor@ALadder@@SAXPAX@Z @ 6280
?InternalConstructor@ALadderVolume@@SAXPAX@Z @ 6281
?InternalConstructor@ALevelInfo@@SAXPAX@Z @ 6282
?InternalConstructor@ALevelLoadingView@@SAXPAX@Z @ 6283
?InternalConstructor@ALiftCenter@@SAXPAX@Z @ 6284
?InternalConstructor@ALiftExit@@SAXPAX@Z @ 6285
?InternalConstructor@ALight@@SAXPAX@Z @ 6286
?InternalConstructor@ALineOfSightTrigger@@SAXPAX@Z @ 6287
?InternalConstructor@ALinkAntiportalVolume@@SAXPAX@Z @ 6288
?InternalConstructor@ALinkedReplicationInfo@@SAXPAX@Z @ 6289
?InternalConstructor@ALookTarget@@SAXPAX@Z @ 6290
?InternalConstructor@AMaplistManagerBase@@SAXPAX@Z @ 6291
?InternalConstructor@AMatDemoActor@@SAXPAX@Z @ 6292
?InternalConstructor@AMover@@SAXPAX@Z @ 6293
?InternalConstructor@AMutator@@SAXPAX@Z @ 6294
?InternalConstructor@ANavigationPoint@@SAXPAX@Z @ 6295
?InternalConstructor@ANote@@SAXPAX@Z @ 6296
?InternalConstructor@APathNode@@SAXPAX@Z @ 6297
?InternalConstructor@APawn@@SAXPAX@Z @ 6298
?InternalConstructor@APhysicsVolume@@SAXPAX@Z @ 6299
?InternalConstructor@APickup@@SAXPAX@Z @ 6300
?InternalConstructor@APlayerChatManager@@SAXPAX@Z @ 6301
?InternalConstructor@APlayerController@@SAXPAX@Z @ 6302
?InternalConstructor@APlayerReplicationInfo@@SAXPAX@Z @ 6303
?InternalConstructor@APlayerStart@@SAXPAX@Z @ 6304
?InternalConstructor@APlayerStart_SD@@SAXPAX@Z @ 6305
?InternalConstructor@APolyMarker@@SAXPAX@Z @ 6306
?InternalConstructor@APotentialClimbWatcher@@SAXPAX@Z @ 6307
?InternalConstructor@APowerups@@SAXPAX@Z @ 6308
?InternalConstructor@APrecacheHack@@SAXPAX@Z @ 6309
?InternalConstructor@AProjectile@@SAXPAX@Z @ 6310
?InternalConstructor@AProjector@@SAXPAX@Z @ 6311
?InternalConstructor@AReplicationInfo@@SAXPAX@Z @ 6312
?InternalConstructor@ARoadPathNode@@SAXPAX@Z @ 6313
?InternalConstructor@ASVehicle@@SAXPAX@Z @ 6314
?InternalConstructor@ASVehicleFactory@@SAXPAX@Z @ 6315
?InternalConstructor@ASVehicleTrigger@@SAXPAX@Z @ 6316
?InternalConstructor@ASavedMove@@SAXPAX@Z @ 6317
?InternalConstructor@ASceneManager@@SAXPAX@Z @ 6318
?InternalConstructor@ASceneSubtitles@@SAXPAX@Z @ 6319
?InternalConstructor@AScout@@SAXPAX@Z @ 6320
?InternalConstructor@ASecurity@@SAXPAX@Z @ 6321
?InternalConstructor@ASkyZoneInfo@@SAXPAX@Z @ 6322
?InternalConstructor@ASmallNavigationPoint@@SAXPAX@Z @ 6323
?InternalConstructor@AStaticMeshActor@@SAXPAX@Z @ 6324
?InternalConstructor@ATeamInfo@@SAXPAX@Z @ 6325
?InternalConstructor@ATeleporter@@SAXPAX@Z @ 6326
?InternalConstructor@ATerrainInfo@@SAXPAX@Z @ 6327
?InternalConstructor@ATonemappingVolume@@SAXPAX@Z @ 6328
?InternalConstructor@ATrigger@@SAXPAX@Z @ 6329
?InternalConstructor@ATriggers@@SAXPAX@Z @ 6330
?InternalConstructor@AVehicle@@SAXPAX@Z @ 6331
?InternalConstructor@AVehiclePart@@SAXPAX@Z @ 6332
?InternalConstructor@AVertMeshActor@@SAXPAX@Z @ 6333
?InternalConstructor@AVignette@@SAXPAX@Z @ 6334
?InternalConstructor@AVoiceChatReplicationInfo@@SAXPAX@Z @ 6335
?InternalConstructor@AVoiceChatRoom@@SAXPAX@Z @ 6336
?InternalConstructor@AVolume@@SAXPAX@Z @ 6337
?InternalConstructor@AWarpZoneInfo@@SAXPAX@Z @ 6338
?InternalConstructor@AWarpZoneMarker@@SAXPAX@Z @ 6339
?InternalConstructor@AWeaponAttachment@@SAXPAX@Z @ 6340
?InternalConstructor@AZoneInfo@@SAXPAX@Z @ 6341
?InternalConstructor@AwAILevelBase@@SAXPAX@Z @ 6342
?InternalConstructor@AwAmmunition@@SAXPAX@Z @ 6343
?InternalConstructor@AwArrangeTurret@@SAXPAX@Z @ 6344
?InternalConstructor@AwEmitter@@SAXPAX@Z @ 6345
?InternalConstructor@AwGameStateStorageSender@@SAXPAX@Z @ 6346
?InternalConstructor@AwPickUpBase@@SAXPAX@Z @ 6347
?InternalConstructor@AwProcMesh@@SAXPAX@Z @ 6348
?InternalConstructor@AwWeapon@@SAXPAX@Z @ 6349
?InternalConstructor@AwWeaponPickup@@SAXPAX@Z @ 6350
?InternalConstructor@AwWeatherEffect@@SAXPAX@Z @ 6351
?InternalConstructor@UActionMoveCamera@@SAXPAX@Z @ 6352
?InternalConstructor@UActionPause@@SAXPAX@Z @ 6353
?InternalConstructor@UActorChannel@@SAXPAX@Z @ 6354
?InternalConstructor@UAdminBase@@SAXPAX@Z @ 6355
?InternalConstructor@UAnimNotify@@SAXPAX@Z @ 6356
?InternalConstructor@UAnimNotify_DestroyEffect@@SAXPAX@Z @ 6357
?InternalConstructor@UAnimNotify_Effect@@SAXPAX@Z @ 6358
?InternalConstructor@UAnimNotify_LIPSinc@@SAXPAX@Z @ 6359
?InternalConstructor@UAnimNotify_MatSubAction@@SAXPAX@Z @ 6360
?InternalConstructor@UAnimNotify_Script@@SAXPAX@Z @ 6361
?InternalConstructor@UAnimNotify_Scripted@@SAXPAX@Z @ 6362
?InternalConstructor@UAnimNotify_Sound@@SAXPAX@Z @ 6363
?InternalConstructor@UAnimation@@SAXPAX@Z @ 6364
?InternalConstructor@UAudioSubsystem@@SAXPAX@Z @ 6365
?InternalConstructor@UBTLoadingAdvancer@@SAXPAX@Z @ 6366
?InternalConstructor@UBTPingCheckerLinker@@SAXPAX@Z @ 6367
?InternalConstructor@UBaseGUIController@@SAXPAX@Z @ 6368
?InternalConstructor@UBeamEmitter@@SAXPAX@Z @ 6369
?InternalConstructor@UBlackWhite@@SAXPAX@Z @ 6370
?InternalConstructor@UBlendShader@@SAXPAX@Z @ 6371
?InternalConstructor@UBtrTraceResult@@SAXPAX@Z @ 6372
?InternalConstructor@UByteArray@@SAXPAX@Z @ 6373
?InternalConstructor@UCacheManager@@SAXPAX@Z @ 6374
?InternalConstructor@UCameraOverlay@@SAXPAX@Z @ 6375
?InternalConstructor@UCanvas@@SAXPAX@Z @ 6376
?InternalConstructor@UCascadedShadowMaps@@SAXPAX@Z @ 6377
?InternalConstructor@UChannelDownload@@SAXPAX@Z @ 6378
?InternalConstructor@UCheatManager@@SAXPAX@Z @ 6379
?InternalConstructor@UColorModifier@@SAXPAX@Z @ 6380
?InternalConstructor@UCombiner@@SAXPAX@Z @ 6381
?InternalConstructor@UConsole@@SAXPAX@Z @ 6382
?InternalConstructor@UConstantColor@@SAXPAX@Z @ 6383
?InternalConstructor@UConstantMaterial@@SAXPAX@Z @ 6384
?InternalConstructor@UControlChannel@@SAXPAX@Z @ 6385
?InternalConstructor@UConvexVolume@@SAXPAX@Z @ 6386
?InternalConstructor@UCrosshairPack@@SAXPAX@Z @ 6387
?InternalConstructor@UCubemap@@SAXPAX@Z @ 6388
?InternalConstructor@UDOFEffect@@SAXPAX@Z @ 6389
?InternalConstructor@UDecalShader@@SAXPAX@Z @ 6390
?InternalConstructor@UDemoRecConnection@@SAXPAX@Z @ 6391
?InternalConstructor@UDemoRecDriver@@SAXPAX@Z @ 6392
?InternalConstructor@UDistortEmitter@@SAXPAX@Z @ 6393
?InternalConstructor@UDownloadTexture@@SAXPAX@Z @ 6394
?InternalConstructor@UDripEffect@@SAXPAX@Z @ 6395
?InternalConstructor@UFXFile@@SAXPAX@Z @ 6396
?InternalConstructor@UFadeBlackWhite@@SAXPAX@Z @ 6397
?InternalConstructor@UFadeColor@@SAXPAX@Z @ 6398
?InternalConstructor@UFileChannel@@SAXPAX@Z @ 6399
?InternalConstructor@UFinalBlend@@SAXPAX@Z @ 6400
?InternalConstructor@UFinalEffect@@SAXPAX@Z @ 6401
?InternalConstructor@UFluidSurfacePrimitive@@SAXPAX@Z @ 6402
?InternalConstructor@UFont@@SAXPAX@Z @ 6403
?InternalConstructor@UGMFile@@SAXPAX@Z @ 6404
?InternalConstructor@UGameEngine@@SAXPAX@Z @ 6405
?InternalConstructor@UGameProfile@@SAXPAX@Z @ 6406
?InternalConstructor@UGlowEffect@@SAXPAX@Z @ 6407
?InternalConstructor@UHardwareShader@@SAXPAX@Z @ 6408
?InternalConstructor@UI3DL2Listener@@SAXPAX@Z @ 6409
?InternalConstructor@UIndexBuffer@@SAXPAX@Z @ 6410
?InternalConstructor@UInput@@SAXPAX@Z @ 6411
?InternalConstructor@UInteraction@@SAXPAX@Z @ 6412
?InternalConstructor@UInteractionMaster@@SAXPAX@Z @ 6413
?InternalConstructor@UInteractions@@SAXPAX@Z @ 6414
?InternalConstructor@UItemIterator@@SAXPAX@Z @ 6415
?InternalConstructor@UKMeshProps@@SAXPAX@Z @ 6416
?InternalConstructor@UKarmaParams@@SAXPAX@Z @ 6417
?InternalConstructor@UKarmaParamsCollision@@SAXPAX@Z @ 6418
?InternalConstructor@UKarmaParamsRBFull@@SAXPAX@Z @ 6419
?InternalConstructor@UKarmaParamsSkel@@SAXPAX@Z @ 6420
?InternalConstructor@ULevel@@SAXPAX@Z @ 6421
?InternalConstructor@ULevelSummary@@SAXPAX@Z @ 6422
?InternalConstructor@ULodMesh@@SAXPAX@Z @ 6423
?InternalConstructor@ULodMeshInstance@@SAXPAX@Z @ 6424
?InternalConstructor@ULogEntry@@SAXPAX@Z @ 6425
?InternalConstructor@UManifest@@SAXPAX@Z @ 6426
?InternalConstructor@UMatAction@@SAXPAX@Z @ 6427
?InternalConstructor@UMatObject@@SAXPAX@Z @ 6428
?InternalConstructor@UMatSubAction@@SAXPAX@Z @ 6429
?InternalConstructor@UMaterialSequence@@SAXPAX@Z @ 6430
?InternalConstructor@UMaterialSwitch@@SAXPAX@Z @ 6431
?InternalConstructor@UMesh@@SAXPAX@Z @ 6432
?InternalConstructor@UMeshAnimation@@SAXPAX@Z @ 6433
?InternalConstructor@UMeshEmitter@@SAXPAX@Z @ 6434
?InternalConstructor@UMeshInstance@@SAXPAX@Z @ 6435
?InternalConstructor@UMeshObject@@SAXPAX@Z @ 6436
?InternalConstructor@UModel@@SAXPAX@Z @ 6437
?InternalConstructor@UModifier@@SAXPAX@Z @ 6438
?InternalConstructor@UMotionBlur@@SAXPAX@Z @ 6439
?InternalConstructor@UMotionBlurEffect@@SAXPAX@Z @ 6440
?InternalConstructor@UNullRenderDevice@@SAXPAX@Z @ 6441
?InternalConstructor@UObjectPool@@SAXPAX@Z @ 6442
?InternalConstructor@UOpacityModifier@@SAXPAX@Z @ 6443
?InternalConstructor@UPackageCheckInfo@@SAXPAX@Z @ 6444
?InternalConstructor@UPackageMapLevel@@SAXPAX@Z @ 6445
?InternalConstructor@UPalette@@SAXPAX@Z @ 6446
?InternalConstructor@UParticleEmitter@@SAXPAX@Z @ 6447
?InternalConstructor@UParticleMaterial@@SAXPAX@Z @ 6448
?InternalConstructor@UPlayInfo@@SAXPAX@Z @ 6449
?InternalConstructor@UPlayerInput@@SAXPAX@Z @ 6450
?InternalConstructor@UPolys@@SAXPAX@Z @ 6451
?InternalConstructor@UPrimitive@@SAXPAX@Z @ 6452
?InternalConstructor@UProceduralSound@@SAXPAX@Z @ 6453
?InternalConstructor@UProjectorMaterial@@SAXPAX@Z @ 6454
?InternalConstructor@UProjectorPrimitive@@SAXPAX@Z @ 6455
?InternalConstructor@UProxyBitmapMaterial@@SAXPAX@Z @ 6456
?InternalConstructor@UReachSpec@@SAXPAX@Z @ 6457
?InternalConstructor@USSAOEffect@@SAXPAX@Z @ 6458
?InternalConstructor@USVehicleWheel@@SAXPAX@Z @ 6459
?InternalConstructor@UScriptedTexture@@SAXPAX@Z @ 6460
?InternalConstructor@UShader@@SAXPAX@Z @ 6461
?InternalConstructor@UShadowBitmapMaterial@@SAXPAX@Z @ 6462
?InternalConstructor@USkeletalMesh@@SAXPAX@Z @ 6463
?InternalConstructor@USkeletalMeshInstance@@SAXPAX@Z @ 6464
?InternalConstructor@USkinVertexBuffer@@SAXPAX@Z @ 6465
?InternalConstructor@USound@@SAXPAX@Z @ 6466
?InternalConstructor@USoundGroup@@SAXPAX@Z @ 6467
?InternalConstructor@USparkEmitter@@SAXPAX@Z @ 6468
?InternalConstructor@USpline@@SAXPAX@Z @ 6469
?InternalConstructor@USpriteEmitter@@SAXPAX@Z @ 6470
?InternalConstructor@UStaticMesh@@SAXPAX@Z @ 6471
?InternalConstructor@UStaticMeshInstance@@SAXPAX@Z @ 6472
?InternalConstructor@UStream@@SAXPAX@Z @ 6473
?InternalConstructor@UStreamBase@@SAXPAX@Z @ 6474
?InternalConstructor@UStreamInteraction@@SAXPAX@Z @ 6475
?InternalConstructor@UStreamInterface@@SAXPAX@Z @ 6476
?InternalConstructor@UStreamTag@@SAXPAX@Z @ 6477
?InternalConstructor@USubActionCameraEffect@@SAXPAX@Z @ 6478
?InternalConstructor@USubActionCameraShake@@SAXPAX@Z @ 6479
?InternalConstructor@USubActionFOV@@SAXPAX@Z @ 6480
?InternalConstructor@USubActionFade@@SAXPAX@Z @ 6481
?InternalConstructor@USubActionGameSpeed@@SAXPAX@Z @ 6482
?InternalConstructor@USubActionOrientation@@SAXPAX@Z @ 6483
?InternalConstructor@USubActionSceneSpeed@@SAXPAX@Z @ 6484
?InternalConstructor@USubActionSubTitle@@SAXPAX@Z @ 6485
?InternalConstructor@USubActionTrigger@@SAXPAX@Z @ 6486
?InternalConstructor@UTerrainMaterial@@SAXPAX@Z @ 6487
?InternalConstructor@UTerrainPrimitive@@SAXPAX@Z @ 6488
?InternalConstructor@UTerrainSector@@SAXPAX@Z @ 6489
?InternalConstructor@UTexCoordMaterial@@SAXPAX@Z @ 6490
?InternalConstructor@UTexCoordSource@@SAXPAX@Z @ 6491
?InternalConstructor@UTexEnvMap@@SAXPAX@Z @ 6492
?InternalConstructor@UTexMatrix@@SAXPAX@Z @ 6493
?InternalConstructor@UTexModifier@@SAXPAX@Z @ 6494
?InternalConstructor@UTexOscillator@@SAXPAX@Z @ 6495
?InternalConstructor@UTexOscillatorTriggered@@SAXPAX@Z @ 6496
?InternalConstructor@UTexPanner@@SAXPAX@Z @ 6497
?InternalConstructor@UTexPannerTriggered@@SAXPAX@Z @ 6498
?InternalConstructor@UTexRotator@@SAXPAX@Z @ 6499
?InternalConstructor@UTexScaler@@SAXPAX@Z @ 6500
?InternalConstructor@UTextToSpeechAlias@@SAXPAX@Z @ 6501
?InternalConstructor@UTexture@@SAXPAX@Z @ 6502
?InternalConstructor@UTrailEmitter@@SAXPAX@Z @ 6503
?InternalConstructor@UUserzoneInfo@@SAXPAX@Z @ 6504
?InternalConstructor@UVariableTexPanner@@SAXPAX@Z @ 6505
?InternalConstructor@UVertMesh@@SAXPAX@Z @ 6506
?InternalConstructor@UVertMeshInstance@@SAXPAX@Z @ 6507
?InternalConstructor@UVertexBuffer@@SAXPAX@Z @ 6508
?InternalConstructor@UVertexColor@@SAXPAX@Z @ 6509
?InternalConstructor@UVertexStreamCOLOR@@SAXPAX@Z @ 6510
?InternalConstructor@UVertexStreamPosNormTex@@SAXPAX@Z @ 6511
?InternalConstructor@UVertexStreamUV@@SAXPAX@Z @ 6512
?InternalConstructor@UVertexStreamVECTOR@@SAXPAX@Z @ 6513
?InternalConstructor@UVisibilityItem@@SAXPAX@Z @ 6514
?InternalConstructor@UVisibilityItemArray@@SAXPAX@Z @ 6515
?InternalConstructor@UVoiceChannel@@SAXPAX@Z @ 6516
?InternalConstructor@UWMFile@@SAXPAX@Z @ 6517
?InternalConstructor@UwBTLoadingScreenDrawer@@SAXPAX@Z @ 6518
?InternalConstructor@UwBtrIni@@SAXPAX@Z @ 6519
?InternalConstructor@UwCharacterManager@@SAXPAX@Z @ 6520
?InternalConstructor@UwClanLevelInfoParam@@SAXPAX@Z @ 6521
?InternalConstructor@UwClanMarkParam@@SAXPAX@Z @ 6522
?InternalConstructor@UwDailyQuestParam@@SAXPAX@Z @ 6523
?InternalConstructor@UwDefenceGameParam@@SAXPAX@Z @ 6524
?InternalConstructor@UwGameManager@@SAXPAX@Z @ 6525
?InternalConstructor@UwInstantFire@@SAXPAX@Z @ 6526
?InternalConstructor@UwInventory@@SAXPAX@Z @ 6527
?InternalConstructor@UwItemBaseParam@@SAXPAX@Z @ 6528
?InternalConstructor@UwItemBoxParam@@SAXPAX@Z @ 6529
?InternalConstructor@UwItemResourceParam@@SAXPAX@Z @ 6530
?InternalConstructor@UwLevelInfoParam@@SAXPAX@Z @ 6531
?InternalConstructor@UwMapInfo@@SAXPAX@Z @ 6532
?InternalConstructor@UwMatchMaker@@SAXPAX@Z @ 6533
?InternalConstructor@UwModeDOAParam@@SAXPAX@Z @ 6534
?InternalConstructor@UwMyPlayerStatus@@SAXPAX@Z @ 6535
?InternalConstructor@UwNPCActionGroupParam@@SAXPAX@Z @ 6536
?InternalConstructor@UwNPCItemGroupParam@@SAXPAX@Z @ 6537
?InternalConstructor@UwNPCNameGroupParam@@SAXPAX@Z @ 6538
?InternalConstructor@UwNPCParam@@SAXPAX@Z @ 6539
?InternalConstructor@UwNPCSpawnParam@@SAXPAX@Z @ 6540
?InternalConstructor@UwPaintGroupParam@@SAXPAX@Z @ 6541
?InternalConstructor@UwPartsGroupParam@@SAXPAX@Z @ 6542
?InternalConstructor@UwPromotionParam@@SAXPAX@Z @ 6543
?InternalConstructor@UwQuestParam@@SAXPAX@Z @ 6544
?InternalConstructor@UwRandBoxParam@@SAXPAX@Z @ 6545
?InternalConstructor@UwSkillBaseParam@@SAXPAX@Z @ 6546
?InternalConstructor@UwSkills@@SAXPAX@Z @ 6547
?InternalConstructor@UwWeaponBaseParams@@SAXPAX@Z @ 6548
?InternalConstructor@UwWeaponCustomInfoParam@@SAXPAX@Z @ 6549
?InternalConstructor@UwWeaponCustomPartsParam@@SAXPAX@Z @ 6550
?InternalConstructor@UwWeaponFire@@SAXPAX@Z @ 6551
?InternalConstructor@UwWeaponManager@@SAXPAX@Z @ 6552
?InternalConstructor@UwWeaponParams@@SAXPAX@Z @ 6553
?IsA@HActor@@UBEHPBG@Z @ 6554
?IsA@HBspSurf@@UBEHPBG@Z @ 6555
?IsA@HCoords@@UBEHPBG@Z @ 6556
?IsA@HHitProxy@@UBEHPBG@Z @ 6557
?IsA@HMaterialTree@@UBEHPBG@Z @ 6558
?IsA@HMatineeAction@@UBEHPBG@Z @ 6559
?IsA@HMatineeScene@@UBEHPBG@Z @ 6560
?IsA@HMatineeSubAction@@UBEHPBG@Z @ 6561
?IsA@HMatineeTimePath@@UBEHPBG@Z @ 6562
?IsA@HTerrain@@UBEHPBG@Z @ 6563
?IsA@HTerrainToolLayer@@UBEHPBG@Z @ 6564
?IsABrush@AActor@@UAEHXZ @ 6565
?IsABrush@ABrush@@UAEHXZ @ 6566
?IsAMover@AActor@@UAEHXZ @ 6567
?IsAMover@AMover@@UAEHXZ @ 6568
?IsAVolume@AActor@@UAEHXZ @ 6569
?IsAVolume@AVolume@@UAEHXZ @ 6570
?IsAnimLooping@UMeshInstance@@UAEHH@Z @ 6571
?IsAnimLooping@USkeletalMeshInstance@@UAEHH@Z @ 6572
?IsAnimLooping@UVertMeshInstance@@UAEHH@Z @ 6573
?IsAnimPastLastFrame@UMeshInstance@@UAEHH@Z @ 6574
?IsAnimPastLastFrame@USkeletalMeshInstance@@UAEHH@Z @ 6575
?IsAnimPastLastFrame@UVertMeshInstance@@UAEHH@Z @ 6576
?IsAnimTweening@UMeshInstance@@UAEHH@Z @ 6577
?IsAnimTweening@USkeletalMeshInstance@@UAEHH@Z @ 6578
?IsAnimTweening@UVertMeshInstance@@UAEHH@Z @ 6579
?IsAnimating@AActor@@QBEHH@Z @ 6580
?IsAnimating@UMeshInstance@@UAEHH@Z @ 6581
?IsAnimating@USkeletalMeshInstance@@UAEHH@Z @ 6582
?IsAnimating@UVertMeshInstance@@UAEHH@Z @ 6583
?IsAnnouncerRecord@UCacheManager@@SAHPBG@Z @ 6584
?IsAudibleAt@ULevel@@UAEHVFVector@@0PAVAActor@@W4ESoundOcclusion@@@Z @ 6585
?IsBackfaced@FPoly@@QBEHABVFVector@@@Z @ 6586
?IsBasedOn@AActor@@QBEHPBV1@@Z @ 6587
?IsBlockedBy@AActor@@QBEHPBV1@@Z @ 6588
?IsBoundTo@UInput@@UBEHPBGABE@Z @ 6589
?IsBrush@AActor@@QBEHXZ @ 6590
?IsCapturing@FRenderInterface@@UBEHXZ @ 6591
?IsChangeClientState@UBTLoadingAdvancer@@QAEHXZ @ 6592
?IsChangeHostState@UBTLoadingAdvancer@@QAEHXZ @ 6593
?IsClientLoadingState@UBTLoadingAdvancer@@QAEHXZ @ 6594
?IsCoplanar@FPoly@@QBEHABV1@@Z @ 6595
?IsCrosshairRecord@UCacheManager@@SAHPBG@Z @ 6596
?IsDefaultMap@UCacheManager@@QBEHPBG@Z @ 6597
?IsDefaultPackage@UCacheManager@@QBEHPBG@Z @ 6598
?IsDemoDriver@UDemoRecDriver@@UAEHXZ @ 6599
?IsDemoDriver@UNetDriver@@UAEHXZ @ 6600
?IsDepthComplexity@UViewport@@QAEHXZ @ 6601
?IsEditing@UViewport@@QAEHXZ @ 6602
?IsEncroacher@AActor@@QBEHXZ @ 6603
?IsExistDLC@UStaticMeshInstance@@QAEHXZ @ 6604
?IsFinished@FSoundSource@@UAEHM@Z @ 6605
?IsForceAffected@AwEmitter@@QAEHXZ @ 6606
?IsGameRecord@UCacheManager@@SAHPBG@Z @ 6607
?IsHiddenEd@AActor@@QAEHXZ @ 6608
?IsHostLoadingState@UBTLoadingAdvancer@@QAEHXZ @ 6609
?IsHumanControlled@APawn@@QAEHXZ @ 6610
?IsIdentifiedAs@AAIMarker@@UAEHVFName@@@Z @ 6611
?IsIdentifiedAs@AAutoLadder@@UAEHVFName@@@Z @ 6612
?IsIdentifiedAs@ADoor@@UAEHVFName@@@Z @ 6613
?IsIdentifiedAs@AInventorySpot@@UAEHVFName@@@Z @ 6614
?IsIdentifiedAs@ANavigationPoint@@UAEHVFName@@@Z @ 6615
?IsIdentifiedAs@AWarpZoneMarker@@UAEHVFName@@@Z @ 6616
?IsInOctree@AActor@@QAEHXZ @ 6617
?IsInZone@AActor@@QBEHPBVAZoneInfo@@@Z @ 6618
?IsInternal@FURL@@QBEHXZ @ 6619
?IsJoinedTo@AActor@@UBEHPBV1@@Z @ 6620
?IsKnownChannelType@UChannel@@SAHH@Z @ 6621
?IsLit@UViewport@@QAEHXZ @ 6622
?IsLoading@UBTLoadingAdvancer@@QAEHXZ @ 6623
?IsLocalInternal@FURL@@QBEHXZ @ 6624
?IsLocallyControlled@APawn@@QAEHXZ @ 6625
?IsMapRecord@UCacheManager@@SAHPBG@Z @ 6626
?IsMovingBrush@AActor@@QBEHXZ @ 6627
?IsMutatorRecord@UCacheManager@@SAHPBG@Z @ 6628
?IsNetReady@UChannel@@QAEHH@Z @ 6629
?IsNetReady@UDemoRecConnection@@UAEHH@Z @ 6630
?IsNetReady@UNetConnection@@UAEHH@Z @ 6631
?IsNetRelevantFor@AActor@@UAEHPAVAPlayerController@@PAV1@VFVector@@@Z @ 6632
?IsNetRelevantFor@APawn@@UAEHPAVAPlayerController@@PAVAActor@@VFVector@@@Z @ 6633
?IsNetRelevantFor@APlayerController@@UAEHPAV1@PAVAActor@@VFVector@@@Z @ 6634
?IsNetRelevantFor@AVehicle@@UAEHPAVAPlayerController@@PAVAActor@@VFVector@@@Z @ 6635
?IsOrtho@UViewport@@QAEHXZ @ 6636
?IsOverlapping@AActor@@QAEHPAV1@PAUFCheckResult@@@Z @ 6637
?IsOwnedBy@AActor@@QBEHPBV1@@Z @ 6638
?IsPaused@FSoundSource@@UAEHXZ @ 6639
?IsPaused@UAudioSubsystem@@QAEHH@Z @ 6640
?IsPaused@ULevel@@UAEHXZ @ 6641
?IsPendingKill@AActor@@UAEHXZ @ 6642
?IsPerspective@UViewport@@QAEHXZ @ 6643
?IsPlayer@AActor@@QBEHXZ @ 6644
?IsPlayer@APawn@@QAEHXZ @ 6645
?IsPlaying@FSoundSource@@UAEHXZ @ 6646
?IsPlayingMusic@UAudioSubsystem@@UAEHH@Z @ 6647
?IsQueued@UAudioSubsystem@@QAEHPAVUSound@@@Z @ 6648
?IsReadyForStreaming@FStreamingTexture@@SAHPAVUTexture@@@Z @ 6649
?IsRealtime@UViewport@@QAEHXZ @ 6650
?IsRenderingFirstPersonWeapon@FRenderInterface@@UAEHXZ @ 6651
?IsRunning@UMatSubAction@@UAEHXZ @ 6652
?IsRunning@USubActionOrientation@@UAEHXZ @ 6653
?IsSectorAll@UTerrainSector@@QAEHHE@Z @ 6654
?IsServer@ULevel@@UAEHXZ @ 6655
?IsSoundPlayingHK@UAudioSubsystem@@UAEHH@Z @ 6656
?IsStartupFullscreen@UClient@@UAEHXZ @ 6657
?IsStaticBrush@AActor@@QBEHXZ @ 6658
?IsStopped@FSoundSource@@UAEHXZ @ 6659
?IsStreamingTexture@FStreamingTexture@@SAHPBVUTexture@@@Z @ 6660
?IsStuck@AVehicle@@UAEHXZ @ 6661
?IsTopView@UViewport@@QAEHXZ @ 6662
?IsTransparent@UBlendShader@@UAEHXZ @ 6663
?IsTransparent@UCombiner@@UAEHXZ @ 6664
?IsTransparent@UDecalShader@@UAEHXZ @ 6665
?IsTransparent@UFinalBlend@@UAEHXZ @ 6666
?IsTransparent@UMaterial@@UAEHXZ @ 6667
?IsTransparent@UModifier@@UAEHXZ @ 6668
?IsTransparent@UShader@@UAEHXZ @ 6669
?IsTransparent@UTexture@@UAEHXZ @ 6670
?IsTriangleAll@UTerrainSector@@QAEHHHHHHE@Z @ 6671
?IsUseGraphicOption@ULevel@@UAEHW4EGraphicOption@@@Z @ 6672
?IsValid@UProceduralSound@@UAE_NXZ @ 6673
?IsValid@USound@@UAE_NXZ @ 6674
?IsValid@USoundGroup@@UAE_NXZ @ 6675
?IsValidTexel@UModel@@QAEHMMPAUFBspVertex@@HAAH11@Z @ 6676
?IsValidTexel@UStaticMesh@@QAEHAAM0MMAAG11@Z @ 6677
?IsVehicleRecord@UCacheManager@@SAHPBG@Z @ 6678
?IsVolumeBrush@AActor@@QBEHXZ @ 6679
?IsWeaponRecord@UCacheManager@@SAHPBG@Z @ 6680
?IsWire@UViewport@@QAEHXZ @ 6681
?KAddAngularImpulse@AActor@@QAEXVFVector@@@Z @ 6682
?KAddForces@AActor@@QAEXVFVector@@0@Z @ 6683
?KAddImpulse@AActor@@QAEXVFVector@@0VFName@@@Z @ 6684
?KAggregateGeomInstance@@YAPAU_McdGeometry@@PAVFKAggregateGeom@@VFVector@@PAUMcdGeomMan@@PBG@Z @ 6685
?KCopyMassPropsToClipboard@@YAXPAVUKMeshProps@@@Z @ 6686
?KDrawRigidBodyState@AActor@@QAEXPAU_FKRigidBodyState@@H@Z @ 6687
?KFreezeRagdoll@AActor@@QAEXXZ @ 6688
?KGData@@3PAU_KarmaGlobals@@A @ 6689
?KGetRigidBodyState@AActor@@QAEXPAU_FKRigidBodyState@@@Z @ 6690
?KIsAwake@AActor@@QAEHXZ @ 6691
?KME2UCoords@@YAXPAVFCoords@@QAY03$$CBM@Z @ 6692
?KME2UMatrixCopy@@YAXPAVFMatrix@@QAY03M@Z @ 6693
?KME2UPosition@@YAXPAVFVector@@QBM@Z @ 6694
?KME2UTransform@@YAXPAVFVector@@PAVFRotator@@QAY03$$CBM@Z @ 6695
?KME2UVecCopy@@YAXPAVFVector@@QBM@Z @ 6696
?KModelToHulls@@YAXPAVFKAggregateGeom@@PAVUModel@@VFVector@@@Z @ 6697
?KRepulsorsShouldHit@AActor@@UAEHPAV1@@Z @ 6698
?KTermGameKarma@@YAXXZ @ 6699
?KU2MEMatrixCopy@@YAXQAY03MPAVFMatrix@@@Z @ 6700
?KU2MEPosition@@YAXQAMVFVector@@@Z @ 6701
?KU2METransform@@YAXQAY03MVFVector@@VFRotator@@@Z @ 6702
?KU2MEVecCopy@@YAXQAMVFVector@@@Z @ 6703
?KUpdateConstraintParams@AKCarWheelJoint@@UAEXXZ @ 6704
?KUpdateConstraintParams@AKConeLimit@@UAEXXZ @ 6705
?KUpdateConstraintParams@AKConstraint@@UAEXXZ @ 6706
?KUpdateConstraintParams@AKHinge@@UAEXXZ @ 6707
?KUpdateMassProps@@YAXPAVUKMeshProps@@@Z @ 6708
?KWake@AActor@@QAEXXZ @ 6709
?KarmaTriListDataInit@@YAXPAU_KarmaTriListData@@@Z @ 6710
?Key@UEngine@@UAEHPAVUViewport@@W4EInputKey@@G@Z @ 6711
?KeyDown@UInput@@QAEEH@Z @ 6712
?Kill@AEmitter@@UAEXXZ @ 6713
?LODFootprint@USkeletalMesh@@QAEHHH@Z @ 6714
?Last@?$TArray@E@@QAEAAEH@Z @ 6715
?Last@?$TArray@E@@QBEABEH@Z @ 6716
?LifeFraction@AActor@@QAEMXZ @ 6717
?LineCheck@ATerrainInfo@@QAEHAAUFCheckResult@@ABVFVector@@11KH@Z @ 6718
?LineCheck@UConvexVolume@@UAEHAAUFCheckResult@@PAVAActor@@ABVFVector@@22KK@Z @ 6719
?LineCheck@UFluidSurfacePrimitive@@UAEHAAUFCheckResult@@PAVAActor@@ABVFVector@@22KK@Z @ 6720
?LineCheck@UMeshInstance@@UAEHAAUFCheckResult@@PAVAActor@@ABVFVector@@22KK@Z @ 6721
?LineCheck@UModel@@UAEHAAUFCheckResult@@PAVAActor@@ABVFVector@@22KK@Z @ 6722
?LineCheck@UPrimitive@@UAEHAAUFCheckResult@@PAVAActor@@ABVFVector@@22KK@Z @ 6723
?LineCheck@UProjectorPrimitive@@UAEHAAUFCheckResult@@PAVAActor@@ABVFVector@@22KK@Z @ 6724
?LineCheck@USkeletalMesh@@UAEHAAUFCheckResult@@PAVAActor@@ABVFVector@@22KK@Z @ 6725
?LineCheck@UStaticMesh@@UAEHAAUFCheckResult@@PAVAActor@@ABVFVector@@22KK@Z @ 6726
?LineCheck@UTerrainPrimitive@@UAEHAAUFCheckResult@@PAVAActor@@ABVFVector@@22KK@Z @ 6727
?LineCheckWithQuad@ATerrainInfo@@QAEHHHAAUFCheckResult@@ABVFVector@@11KH@Z @ 6728
?LineOfSightTo@AController@@QAEKPAVAActor@@H@Z @ 6729
?LinkTag@UStreamTag@@IAEHXZ @ 6730
?Listen@ULevel@@UAEHAAVFString@@@Z @ 6731
?Load@?$TLazyArray@E@@UAEXXZ @ 6732
?Load@FSoundData@@UAEXXZ @ 6733
?Load@UProceduralSound@@UAEXXZ @ 6734
?Load@USound@@UAEXXZ @ 6735
?Load@USoundGroup@@UAEXXZ @ 6736
?LoadID3Tag@UStream@@QAEHXZ @ 6737
?LoadMap2@UGameEngine@@QAEPAVULevel@@ABVFURL@@PAVUPendingLevel@@PBV?$TMap@VFString@@V1@@@AAVFString@@@Z @ 6738
?LoadMap3@UGameEngine@@QAEPAVULevel@@ABVFURL@@PAVUPendingLevel@@PBV?$TMap@VFString@@V1@@@AAVFString@@@Z @ 6739
?LoadMap4@UGameEngine@@QAEPAVULevel@@ABVFURL@@PAVUNetDriver@@PBV?$TMap@VFString@@V1@@@AAVFString@@@Z @ 6740
?LoadMap@UGameEngine@@UAEPAVULevel@@ABVFURL@@PAVUPendingLevel@@PBV?$TMap@VFString@@V1@@@AAVFString@@@Z @ 6741
?LoadMipData@FRenderInterface@@UAEKHPAVFBaseTexture@@@Z @ 6742
?LoadPlaylist@UStreamInterface@@UBEXAAVFString@@AAV?$TArray@VFString@@@@H@Z @ 6743
?LoadSRGrammar@UViewport@@UAEXHABVFString@@@Z @ 6744
?LoadSounds@ULevel@@QAEXXZ @ 6745
?LoadURLConfig@FURL@@QAEXPBG0@Z @ 6746
?LocalPlayerController@AController@@UAEHXZ @ 6747
?LocalPlayerController@APlayerController@@UAEHXZ @ 6748
?LocalToWorld@AActor@@UBE?AVFMatrix@@XZ @ 6749
?Lock@UNullRenderDevice@@UAEPAVFRenderInterface@@PAVUViewport@@PAEPAH@Z @ 6750
?Lock@UViewport@@UAEHPAEPAH@Z @ 6751
?LockAllSubRenderTarget@FRenderInterface@@UAEXXZ @ 6752
?LockDynBuffer@FRenderInterface@@UAEHPAPAEHHK@Z @ 6753
?LockOnActor@UViewport@@QAEXPAVAActor@@@Z @ 6754
?LockRootMotion@USkeletalMeshInstance@@QAEHH@Z @ 6755
?LooseLineCheck@USkeletalMesh@@QAEHAAUFCheckResult@@PAVAActor@@ABVFVector@@22KK@Z @ 6756
?LowLevelDescribe@UDemoRecConnection@@UAE?AVFString@@XZ @ 6757
?LowLevelDestroy@UDemoRecDriver@@UAEXXZ @ 6758
?LowLevelGetNetworkNumber@UDemoRecDriver@@UAE?AVFString@@XZ @ 6759
?LowLevelGetRemoteAddress@UDemoRecConnection@@UAE?AVFString@@XZ @ 6760
?LowLevelSend@UDemoRecConnection@@UAEXPAXH@Z @ 6761
?LowQualitySound@UAudioSubsystem@@UAEHXZ @ 6762
?MakeBoundBoxStream@UStaticMesh@@QAEXXZ @ 6763
?MakeDirectionalLightmaps@UModel@@UAEXVFString@@PAVAActor@@HHHPAVUViewport@@@Z @ 6764
?MakeDirectionalLightmaps@UPrimitive@@UAEXVFString@@PAVAActor@@HHHPAVUViewport@@@Z @ 6765
?MakeDirectionalLightmaps@UStaticMesh@@UAEXVFString@@PAVAActor@@HHHPAVUViewport@@@Z @ 6766
?MakeDirectionalLightmaps@UTerrainPrimitive@@UAEXVFString@@PAVAActor@@HHH@Z @ 6767
?MakeUserResponseData@UHShieldManager@@QAE?AV?$TArray@E@@V2@@Z @ 6768
?MangleKey@@YA?AVFString@@V1@0@Z @ 6769
?MasterDisableInteractions@UInteractionMaster@@QAEXXZ @ 6770
?MasterEnableInteractions@UInteractionMaster@@QAEXXZ @ 6771
?MasterIME_Notify@UInteractionMaster@@QAEXHGVFString@@HH@Z @ 6772
?MasterProcessKeyEvent@UInteractionMaster@@QAEHW4EInputKey@@W4EInputAction@@M@Z @ 6773
?MasterProcessKeyType@UInteractionMaster@@QAEHW4EInputKey@@G@Z @ 6774
?MasterProcessMessage@UInteractionMaster@@QAEXABVFString@@M@Z @ 6775
?MasterProcessPostRender@UInteractionMaster@@QAEXPAVUCanvas@@@Z @ 6776
?MasterProcessPreRender@UInteractionMaster@@QAEXPAVUCanvas@@@Z @ 6777
?MasterProcessTick@UInteractionMaster@@QAEXM@Z @ 6778
?MatchRefBone@UMeshInstance@@UAEHVFName@@@Z @ 6779
?MatchRefBone@USkeletalMesh@@QAEHVFName@@@Z @ 6780
?MatchRefBone@USkeletalMeshInstance@@UAEHVFName@@@Z @ 6781
?MatchViewportsToActorsInGameEngine@UGameEngine@@UAEXPAVUClient@@PAVULevel@@ABVFURL@@PBG@Z @ 6782
?MaterialUSize@UBitmapMaterial@@UAEHXZ @ 6783
?MaterialUSize@UBlendShader@@UAEHXZ @ 6784
?MaterialUSize@UCombiner@@UAEHXZ @ 6785
?MaterialUSize@UDecalShader@@UAEHXZ @ 6786
?MaterialUSize@UHardwareShader@@UAEHXZ @ 6787
?MaterialUSize@UMaterial@@UAEHXZ @ 6788
?MaterialUSize@UModifier@@UAEHXZ @ 6789
?MaterialUSize@UShader@@UAEHXZ @ 6790
?MaterialUSize@UTexCoordMaterial@@UAEHXZ @ 6791
?MaterialUSize@UTexModifier@@UAEHXZ @ 6792
?MaterialVSize@UBitmapMaterial@@UAEHXZ @ 6793
?MaterialVSize@UBlendShader@@UAEHXZ @ 6794
?MaterialVSize@UCombiner@@UAEHXZ @ 6795
?MaterialVSize@UDecalShader@@UAEHXZ @ 6796
?MaterialVSize@UHardwareShader@@UAEHXZ @ 6797
?MaterialVSize@UMaterial@@UAEHXZ @ 6798
?MaterialVSize@UModifier@@UAEHXZ @ 6799
?MaterialVSize@UShader@@UAEHXZ @ 6800
?MaterialVSize@UTexCoordMaterial@@UAEHXZ @ 6801
?MaterialVSize@UTexModifier@@UAEHXZ @ 6802
?MaxSendBytes@UChannel@@QAEHXZ @ 6803
?MeasureLuminance@FRenderInterface@@UAEHPAVFRenderTarget@@PAPAV2@@Z @ 6804
?MemFootprint@ULodMesh@@UAEHH@Z @ 6805
?MemFootprint@UMeshAnimation@@UAEHXZ @ 6806
?MemFootprint@USkeletalMesh@@UAEHH@Z @ 6807
?MergeDirectionalLightMap@UStaticMesh@@QAEXAAPAVUTexture@@PAPAV2@PAV2@@Z @ 6808
?MeshBuildBounds@UMeshInstance@@UAEXXZ @ 6809
?MeshBuildBounds@USkeletalMeshInstance@@UAEXXZ @ 6810
?MeshBuildBounds@UVertMeshInstance@@UAEXXZ @ 6811
?MeshGetInstance@UMesh@@UAEPAVUMeshInstance@@PBVAActor@@@Z @ 6812
?MeshGetInstanceClass@ULodMesh@@UAEPAVUClass@@XZ @ 6813
?MeshGetInstanceClass@UMesh@@UAEPAVUClass@@XZ @ 6814
?MeshGetInstanceClass@USkeletalMesh@@UAEPAVUClass@@XZ @ 6815
?MeshGetInstanceClass@UVertMesh@@UAEPAVUClass@@XZ @ 6816
?MeshShadowVertsCallback@USkeletalMeshInstance@@UAEXPAX@Z @ 6817
?MeshSkinVertsCallback@USkeletalMeshInstance@@UAEXPAX@Z @ 6818
?MeshSkinVertsCallbackForTBStreamLOD@USkeletalMeshInstance@@UAEXPAX@Z @ 6819
?MeshToWorld@UMeshInstance@@UAE?AVFMatrix@@XZ @ 6820
?MeshToWorld@USkeletalMeshInstance@@UAE?AVFMatrix@@XZ @ 6821
?MeshToWorld@UVertMeshInstance@@UAE?AVFMatrix@@XZ @ 6822
?ModeTick@UwWeaponFire@@QAEXM@Z @ 6823
?Modify@ULevel@@UAEXH@Z @ 6824
?Modify@UModel@@QAEXH@Z @ 6825
?ModifyAllSurfs@UModel@@QAEXH@Z @ 6826
?ModifySelectedSurfs@UModel@@QAEXH@Z @ 6827
?ModifySurf@UModel@@QAEXHH@Z @ 6828
?MouseButtonDown@UTerrainBrush@@UAEXPAVUViewport@@@Z @ 6829
?MouseButtonDown@UTerrainBrushSelect@@UAEXPAVUViewport@@@Z @ 6830
?MouseButtonUp@UTerrainBrush@@UAEXPAVUViewport@@@Z @ 6831
?MouseDelta@UGameEngine@@UAEXPAVUViewport@@KMM@Z @ 6832
?MouseMove@UTerrainBrush@@UAEXMM@Z @ 6833
?MouseMove@UTerrainBrushSelect@@UAEXMM@Z @ 6834
?MouseMove@UTerrainBrushTexPan@@UAEXMM@Z @ 6835
?MouseMove@UTerrainBrushTexRotate@@UAEXMM@Z @ 6836
?MouseMove@UTerrainBrushTexScale@@UAEXMM@Z @ 6837
?MousePosition@UGameEngine@@UAEXPAVUViewport@@KMM@Z @ 6838
?MousePosition@UTexture@@UAEXKMM@Z @ 6839
?MouseWheel@UGameEngine@@UAEXPAVUViewport@@KH@Z @ 6840
?MoveActor@ULevel@@UAEHPAVAActor@@VFVector@@VFRotator@@AAUFCheckResult@@HHHHKE@Z @ 6841
?MoveNetDriver@UGameEngine@@UAEXPAVUPendingLevel@@@Z @ 6842
?MoveSequenceByIndex@UMeshAnimation@@UAEHHH@Z @ 6843
?MoveVertices@ATerrainInfo@@QAEXM@Z @ 6844
?MovieEncodeFrame@UViewport@@UAEXXZ @ 6845
?MovieEncodeStart@UViewport@@UAEXVFString@@MHH@Z @ 6846
?MovieEncodeStop@UViewport@@UAEXXZ @ 6847
?MultiLineCheck@ULevel@@UAEPAUFCheckResult@@AAVFMemStack@@ABVFVector@@11PAVALevelInfo@@KPAVAActor@@@Z @ 6848
?MultiNodeFilter@FOctreeNode@@QAEXPAVAActor@@PAVFCollisionOctree@@PBVFPlane@@@Z @ 6849
?MultiPointCheck@ULevel@@UAEPAUFCheckResult@@AAVFMemStack@@ABVFVector@@1KPAVALevelInfo@@HHH@Z @ 6850
?MultiTrace@AActor@@QAEXPAVUBtrTraceResult@@ABVFVector@@1HH1@Z @ 6851
?NativeIME_Notify@UInteraction@@UAEHHGVFString@@HH@Z @ 6852
?NativeKeyEvent@UInteraction@@UAEHAAE0M@Z @ 6853
?NativeKeyType@UInteraction@@UAEHAAEG@Z @ 6854
?NativeMessage@UInteraction@@UAEXVFString@@M@Z @ 6855
?NativePostRender@UInteraction@@UAEXPAVUCanvas@@@Z @ 6856
?NativePreRender@UInteraction@@UAEXPAVUCanvas@@@Z @ 6857
?NativeTick@UInteraction@@UAEXM@Z @ 6858
?NearAmbientCube@AAmbientLightVolume@@QAEPAUAmbientCube@@VFVector@@0AAV3@@Z @ 6859
?NeededRebuild@UStaticMesh@@QAEHXZ @ 6860
?NeedsValidation@UPlayInfo@@QBEHPBVUProperty@@@Z @ 6861
?NetDirty@AActor@@UAEXPAVUProperty@@@Z @ 6862
?NewFallVelocity@APawn@@QAE?AVFVector@@V2@0M@Z @ 6863
?NoReachDistance@AActor@@UAEHXZ @ 6864
?NoReachDistance@AFlyingPathNode@@UAEHXZ @ 6865
?NoReachDistance@ALadder@@UAEHXZ @ 6866
?NoReachDistance@ATeleporter@@UAEHXZ @ 6867
?NoiseGateFilter@FWaveModInfo@@QAEXXZ @ 6868
?NormalizeInfluences@USkeletalMesh@@QAEXH@Z @ 6869
?NotReachableBy@AHoverPathNode@@UAEHPAVAPawn@@@Z @ 6870
?NotReachableBy@ANavigationPoint@@UAEHPAVAPawn@@@Z @ 6871
?NoteDestroy@UAudioSubsystem@@UAEXPAVAActor@@@Z @ 6872
?NoteDestroy@UAudioSubsystem@@UAEXPAVUSound@@@Z @ 6873
?Notify@UAnimNotify@@UAEXPAVUMeshInstance@@PAVAActor@@@Z @ 6874
?Notify@UAnimNotify_DestroyEffect@@UAEXPAVUMeshInstance@@PAVAActor@@@Z @ 6875
?Notify@UAnimNotify_Effect@@UAEXPAVUMeshInstance@@PAVAActor@@@Z @ 6876
?Notify@UAnimNotify_LIPSinc@@UAEXPAVUMeshInstance@@PAVAActor@@@Z @ 6877
?Notify@UAnimNotify_MatSubAction@@UAEXPAVUMeshInstance@@PAVAActor@@@Z @ 6878
?Notify@UAnimNotify_Script@@UAEXPAVUMeshInstance@@PAVAActor@@@Z @ 6879
?Notify@UAnimNotify_Scripted@@UAEXPAVUMeshInstance@@PAVAActor@@@Z @ 6880
?Notify@UAnimNotify_Sound@@UAEXPAVUMeshInstance@@PAVAActor@@@Z @ 6881
?NotifyAcceptedConnection@ULevel@@UAEXPAVUNetConnection@@@Z @ 6882
?NotifyAcceptingChannel@ULevel@@UAEHPAVUChannel@@@Z @ 6883
?NotifyAcceptingConnection@ULevel@@UAE?AW4EAcceptConnection@@XZ @ 6884
?NotifyActorDestroyed@UNetDriver@@UAEXPAVAActor@@@Z @ 6885
?NotifyAnimEnd@AActor@@UAEXH@Z @ 6886
?NotifyAnimEnd@APawn@@UAEXH@Z @ 6887
?NotifyBump@AActor@@UAEXPAV1@@Z @ 6888
?NotifyBump@APawn@@UAEXPAVAActor@@@Z @ 6889
?NotifyGetLevel@ULevel@@UAEPAV1@XZ @ 6890
?NotifyLevelChange@FStreamingManagerCollection@@UAEXXZ @ 6891
?NotifyLevelChange@FStreamingManagerTexture@@UAEXXZ @ 6892
?NotifyLevelChange@UGameEngine@@UAEXXZ @ 6893
?NotifyLevelChangeInteractionMaster@UGameEngine@@UAEXXZ @ 6894
?NotifyProgress@ULevelBase@@UAEXPBG00M@Z @ 6895
?NotifyReceivedFile@ULevel@@UAEXPAVUNetConnection@@HPBGHH@Z @ 6896
?NotifyReceivedText@ULevel@@UAEXPAVUNetConnection@@PBG@Z @ 6897
?NotifyReceivedTextSupportPendingLevel@ULevel@@QAEXPAVUNetDriver@@PAVUNetConnection@@PBG@Z @ 6898
?NotifySendingFile@ULevel@@UAEHPAVUNetConnection@@VFGuid@@@Z @ 6899
?OldBuildCoords@ABrush@@QAEMPAVFModelCoords@@0@Z @ 6900
?OldToLocal@ABrush@@QBE?AVFCoords@@XZ @ 6901
?OldToWorld@ABrush@@QBE?AVFCoords@@XZ @ 6902
?OnPlane@FPoly@@QAEHVFVector@@@Z @ 6903
?OnPoly@FPoly@@QAEHVFVector@@@Z @ 6904
?OpenWebInClient@UViewport@@UAEXPBGHHHH@Z @ 6905
?OptionString@FURL@@QBE?AVFString@@H@Z @ 6906
?PS2Convert@UProceduralSound@@UAEXXZ @ 6907
?PS2Convert@USound@@UAEXXZ @ 6908
?PS2Convert@USoundGroup@@UAEXXZ @ 6909
?PackageRevisionLevel@UGameEngine@@QAEHXZ @ 6910
?Pad16Bit@FWaveModInfo@@QAEKK@Z @ 6911
?PaintLoadingScreen@UGameEngine@@QAEXPAVUwBTLoadingScreenDrawer@@H@Z @ 6912
?PaintProgress@UGameEngine@@UAEXPAVAVignette@@M@Z @ 6913
?PaintProgressEx@UGameEngine@@QAEXPAVUMaterial@@MMMM@Z @ 6914
?PaintText@UGameEngine@@QAEXEMMMMAAVFColor@@HPBG@Z @ 6915
?ParseAnnouncer@UCacheManager@@IAEHPBG@Z @ 6916
?ParseCacheFiles@UCacheManager@@AAEHPBG@Z @ 6917
?ParseCrosshair@UCacheManager@@IAEHPBG@Z @ 6918
?ParseGame@UCacheManager@@IAEHPBG@Z @ 6919
?ParseMap@UCacheManager@@IAEHPBG@Z @ 6920
?ParseMutator@UCacheManager@@IAEHPBG@Z @ 6921
?ParseVehicle@UCacheManager@@IAEHPBG@Z @ 6922
?ParseWeapon@UCacheManager@@IAEHPBG@Z @ 6923
?Pass2From@FPathBuilder@@AAEXVFVector@@0M@Z @ 6924
?PassNetDriver@UBTLoadingAdvancer@@QAEHPAPAVUNetDriver@@@Z @ 6925
?PassNetDriver@UBTLoadingState@@UAEHPAPAVUNetDriver@@@Z @ 6926
?PassShouldRenderTriangle@UTerrainSector@@QAEHHHHHH@Z @ 6927
?PathColor@UReachSpec@@QAE?AVFPlane@@XZ @ 6928
?Pause@FSoundSource@@UAEXXZ @ 6929
?PerformPostProcessing@FRenderInterface@@UAEHPAVFRenderTarget@@0000MMMM@Z @ 6930
?PermissionPrintLoadingMsg@UBTLoadingAdvancer@@QAEXXZ @ 6931
?Pick3DWallAdjust@APawn@@AAEHVFVector@@PAVAActor@@@Z @ 6932
?PickWallAdjust@APawn@@QAEHVFVector@@PAVAActor@@@Z @ 6933
?PixoCreateTexture@FRenderInterface@@UAEPAVUTexture@@PAVFRenderTarget@@H@Z @ 6934
?PixoResetHint@FRenderInterface@@UAEXK@Z @ 6935
?PixoSetHint@FRenderInterface@@UAEXK@Z @ 6936
?PlaceScout@UReachSpec@@QAEHPAVAScout@@@Z @ 6937
?Plane@FColor@@QBE?AVFPlane@@XZ @ 6938
?PlayAnim@AActor@@UAEHHVFName@@MMH@Z @ 6939
?PlayAnim@APawn@@EAEHHVFName@@MMH@Z @ 6940
?PlayAnim@UMeshInstance@@UAEHHVFName@@MMH@Z @ 6941
?PlayAnim@USkeletalMeshInstance@@UAEHHVFName@@MMH@Z @ 6942
?PlayAnim@UVertMeshInstance@@UAEHHVFName@@MMH@Z @ 6943
?PlayEventSound@UAudioSubsystem@@UAEXPAVFSoundSource@@@Z @ 6944
?PlayIdle@APawn@@AAEXXZ @ 6945
?PlayLand@APawn@@AAEXXZ @ 6946
?PlayMusic@UAudioSubsystem@@QAEHVFString@@MM@Z @ 6947
?PlayPendingRecoreMovie@UGameEngine@@UAEXXZ @ 6948
?PlayReplicatedAnim@AActor@@QAEXXZ @ 6949
?PlayRunning@APawn@@AAEXXZ @ 6950
?PlaySound@UAudioSubsystem@@QAEXPAVAActor@@HPAVUSound@@VFVector@@MMMHMH@Z @ 6951
?PlaySound@UAudioSubsystem@@UAEXPAVFSoundSource@@@Z @ 6952
?PlayStream@UAudioSubsystem@@QAEHVFString@@HMMM@Z @ 6953
?PlayVoicePacket@UAudioSubsystem@@UAEHPAUFVoiceInfo@@@Z @ 6954
?PlayerControlled@AActor@@UAEHXZ @ 6955
?PlayerControlled@APawn@@UAEHXZ @ 6956
?Pling@AFluidSurfaceInfo@@QAEXABVFVector@@MM@Z @ 6957
?PlingVertex@AFluidSurfaceInfo@@QAEXHHM@Z @ 6958
?PointCheck@ATerrainInfo@@QAEHAAUFCheckResult@@ABVFVector@@1H@Z @ 6959
?PointCheck@UFluidSurfacePrimitive@@UAEHAAUFCheckResult@@PAVAActor@@ABVFVector@@2K@Z @ 6960
?PointCheck@UMeshInstance@@UAEHAAUFCheckResult@@PAVAActor@@ABVFVector@@2K@Z @ 6961
?PointCheck@UModel@@UAEHAAUFCheckResult@@PAVAActor@@ABVFVector@@2K@Z @ 6962
?PointCheck@UPrimitive@@UAEHAAUFCheckResult@@PAVAActor@@ABVFVector@@2K@Z @ 6963
?PointCheck@UProjectorPrimitive@@UAEHAAUFCheckResult@@PAVAActor@@ABVFVector@@2K@Z @ 6964
?PointCheck@USkeletalMesh@@UAEHAAUFCheckResult@@PAVAActor@@ABVFVector@@2K@Z @ 6965
?PointCheck@UStaticMesh@@UAEHAAUFCheckResult@@PAVAActor@@ABVFVector@@2K@Z @ 6966
?PointCheck@UTerrainPrimitive@@UAEHAAUFCheckResult@@PAVAActor@@ABVFVector@@2K@Z @ 6967
?PointRegion@UModel@@QBE?AUFPointRegion@@PAVAZoneInfo@@VFVector@@@Z @ 6968
?Pop@?$TArray@E@@QAEEXZ @ 6969
?PopHit@UViewport@@QAEXH@Z @ 6970
?PostBeginPlay@AActor@@UAEXXZ @ 6971
?PostBeginPlay@AAmbientSound@@UAEXXZ @ 6972
?PostBeginPlay@ASVehicle@@UAEXXZ @ 6973
?PostBeginPlay@ASceneManager@@UAEXXZ @ 6974
?PostBeginPlay@AVolume@@UAEXXZ @ 6975
?PostBeginPlay@AwEmitter@@UAEXXZ @ 6976
?PostEditChange@AActor@@UAEXXZ @ 6977
?PostEditChange@AAmbientLightVolume@@UAEXXZ @ 6978
?PostEditChange@ABrush@@UAEXXZ @ 6979
?PostEditChange@AFluidSurfaceInfo@@UAEXXZ @ 6980
?PostEditChange@AFluidSurfaceOscillator@@UAEXXZ @ 6981
?PostEditChange@AInterpolationPoint@@UAEXXZ @ 6982
?PostEditChange@AKConstraint@@UAEXXZ @ 6983
?PostEditChange@AKVehicle@@UAEXXZ @ 6984
?PostEditChange@AMover@@UAEXXZ @ 6985
?PostEditChange@AProjector@@UAEXXZ @ 6986
?PostEditChange@ASVehicle@@UAEXXZ @ 6987
?PostEditChange@ASceneManager@@UAEXXZ @ 6988
?PostEditChange@ATerrainInfo@@UAEXXZ @ 6989
?PostEditChange@AZoneInfo@@UAEXXZ @ 6990
?PostEditChange@AwEmitter@@UAEXXZ @ 6991
?PostEditChange@AwProcMesh@@UAEXXZ @ 6992
?PostEditChange@AwWeatherEffect@@UAEXXZ @ 6993
?PostEditChange@UAnimNotify@@UAEXXZ @ 6994
?PostEditChange@UAudioSubsystem@@UAEXXZ @ 6995
?PostEditChange@UBeamEmitter@@UAEXXZ @ 6996
?PostEditChange@UBlendShader@@UAEXXZ @ 6997
?PostEditChange@UClient@@UAEXXZ @ 6998
?PostEditChange@UCombiner@@UAEXXZ @ 6999
?PostEditChange@UDecalShader@@UAEXXZ @ 7000
?PostEditChange@UDistortEmitter@@UAEXXZ @ 7001
?PostEditChange@UFinalBlend@@UAEXXZ @ 7002
?PostEditChange@UHardwareShader@@UAEXXZ @ 7003
?PostEditChange@UI3DL2Listener@@UAEXXZ @ 7004
?PostEditChange@UKarmaParams@@UAEXXZ @ 7005
?PostEditChange@UMatAction@@UAEXXZ @ 7006
?PostEditChange@UMatSubAction@@UAEXXZ @ 7007
?PostEditChange@UMaterialSequence@@UAEXXZ @ 7008
?PostEditChange@UMaterialSwitch@@UAEXXZ @ 7009
?PostEditChange@UMeshEmitter@@UAEXXZ @ 7010
?PostEditChange@UModifier@@UAEXXZ @ 7011
?PostEditChange@UParticleEmitter@@UAEXXZ @ 7012
?PostEditChange@UProceduralSound@@UAEXXZ @ 7013
?PostEditChange@UScriptedTexture@@UAEXXZ @ 7014
?PostEditChange@UShader@@UAEXXZ @ 7015
?PostEditChange@USoundGroup@@UAEXXZ @ 7016
?PostEditChange@USparkEmitter@@UAEXXZ @ 7017
?PostEditChange@USpriteEmitter@@UAEXXZ @ 7018
?PostEditChange@UStaticMesh@@UAEXXZ @ 7019
?PostEditChange@UTexCoordSource@@UAEXXZ @ 7020
?PostEditChange@UTexOscillator@@UAEXXZ @ 7021
?PostEditChange@UTexture@@UAEXXZ @ 7022
?PostEditChange@UTrailEmitter@@UAEXXZ @ 7023
?PostEditLoad@AActor@@UAEXXZ @ 7024
?PostEditLoad@AProjector@@UAEXXZ @ 7025
?PostEditLoad@AwWeatherEffect@@UAEXXZ @ 7026
?PostEditMove@AActor@@UAEXXZ @ 7027
?PostEditMove@AFluidSurfaceInfo@@UAEXXZ @ 7028
?PostEditMove@AInterpolationPoint@@UAEXXZ @ 7029
?PostEditMove@AKConstraint@@UAEXXZ @ 7030
?PostEditMove@AMover@@UAEXXZ @ 7031
?PostEditMove@ANavigationPoint@@UAEXXZ @ 7032
?PostEditMove@AProjector@@UAEXXZ @ 7033
?PostEditUndo@AActor@@UAEXXZ @ 7034
?PostLoad@AActor@@UAEXXZ @ 7035
?PostLoad@AAmbientLightVolume@@UAEXXZ @ 7036
?PostLoad@ABrush@@UAEXXZ @ 7037
?PostLoad@AFluidSurfaceInfo@@UAEXXZ @ 7038
?PostLoad@AMover@@UAEXXZ @ 7039
?PostLoad@ATerrainInfo@@UAEXXZ @ 7040
?PostLoad@AwProcMesh@@UAEXXZ @ 7041
?PostLoad@AwWeatherEffect@@UAEXXZ @ 7042
?PostLoad@UDownloadTexture@@UAEXXZ @ 7043
?PostLoad@UFXFile@@UAEXXZ @ 7044
?PostLoad@UHardwareShader@@UAEXXZ @ 7045
?PostLoad@ULevel@@UAEXXZ @ 7046
?PostLoad@ULevelSummary@@UAEXXZ @ 7047
?PostLoad@UMatAction@@UAEXXZ @ 7048
?PostLoad@UMeshAnimation@@UAEXXZ @ 7049
?PostLoad@UModel@@UAEXXZ @ 7050
?PostLoad@UParticleEmitter@@UAEXXZ @ 7051
?PostLoad@UProceduralSound@@UAEXXZ @ 7052
?PostLoad@USkeletalMesh@@UAEXXZ @ 7053
?PostLoad@USound@@UAEXXZ @ 7054
?PostLoad@USoundGroup@@UAEXXZ @ 7055
?PostLoad@UStaticMesh@@UAEXXZ @ 7056
?PostLoad@USubActionOrientation@@UAEXXZ @ 7057
?PostLoad@UTerrainSector@@UAEXXZ @ 7058
?PostLoad@UTexRotator@@UAEXXZ @ 7059
?PostLoad@UTexture@@UAEXXZ @ 7060
?PostLoad@UVertMesh@@UAEXXZ @ 7061
?PostNetReceive@AActor@@UAEXXZ @ 7062
?PostNetReceive@AKVehicle@@UAEXXZ @ 7063
?PostNetReceive@ALevelInfo@@UAEXXZ @ 7064
?PostNetReceive@AMover@@UAEXXZ @ 7065
?PostNetReceive@APawn@@UAEXXZ @ 7066
?PostNetReceive@APlayerReplicationInfo@@UAEXXZ @ 7067
?PostNetReceive@ASVehicle@@UAEXXZ @ 7068
?PostNetReceive@AVehicle@@UAEXXZ @ 7069
?PostNetReceive@AWeaponAttachment@@UAEXXZ @ 7070
?PostNetReceive@AwWeapon@@UAEXXZ @ 7071
?PostNetReceive@AwWeaponPickup@@UAEXXZ @ 7072
?PostNetReceiveLocation@AActor@@UAEXXZ @ 7073
?PostNetReceiveLocation@APawn@@UAEXXZ @ 7074
?PostNetReceiveLocation@ASVehicle@@UAEXXZ @ 7075
?PostPath@AActor@@UAEXXZ @ 7076
?PostPath@ADoor@@UAEXXZ @ 7077
?PostPath@ANavigationPoint@@UAEXXZ @ 7078
?PostProcessEffect_Drip@FRenderInterface@@UAEHPAVFRenderTarget@@PAVUTexture@@AAV?$TArray@UFWaterDrop@@@@@Z @ 7079
?PostProcessEffect_FakeDOF@FRenderInterface@@UAEHPAVFRenderTarget@@0000@Z @ 7080
?PostProcessEffect_Final@FRenderInterface@@UAEHPAVFRenderTarget@@VFPlane@@1M1HPAVUTexture@@@Z @ 7081
?PostProcessEffect_Glow@FRenderInterface@@UAEHPAVFRenderTarget@@0000PAVUTexture@@H@Z @ 7082
?PostProcessEffect_HDRScene@FRenderInterface@@UAEHPAPAVFRenderTarget@@PAV2@1MMMM@Z @ 7083
?PostProcessEffect_MotionBlur@FRenderInterface@@UAEHPAPAVFRenderTarget@@HH@Z @ 7084
?PostProcessEffect_SSAO@FRenderInterface@@UAEHPAVFRenderTarget@@0000@Z @ 7085
?PostRaytrace@AActor@@UAEXXZ @ 7086
?PostRaytrace@AMover@@UAEXXZ @ 7087
?PostRender@AActor@@UAEXPAVFLevelSceneNode@@PAVFRenderInterface@@@Z @ 7088
?PostRender@APawn@@UAEXPAVFLevelSceneNode@@PAVFRenderInterface@@@Z @ 7089
?PostRender@APlayerController@@UAEXPAVFSceneNode@@@Z @ 7090
?PostRender@AProjectile@@UAEXPAVFLevelSceneNode@@PAVFRenderInterface@@@Z @ 7091
?PostRender@AVehicle@@UAEXPAVFLevelSceneNode@@PAVFRenderInterface@@@Z @ 7092
?PostRender@UBlackWhite@@UAEXPAVUViewport@@PAVFRenderInterface@@@Z @ 7093
?PostRender@UCameraEffect@@UAEXPAVUViewport@@PAVFRenderInterface@@@Z @ 7094
?PostRender@UCameraOverlay@@UAEXPAVUViewport@@PAVFRenderInterface@@@Z @ 7095
?PostRender@UDOFEffect@@UAEXPAVUViewport@@PAVFRenderInterface@@PAVFSceneNode@@@Z @ 7096
?PostRender@UDripEffect@@UAEXPAVUViewport@@PAVFRenderInterface@@PAVFSceneNode@@@Z @ 7097
?PostRender@UFadeBlackWhite@@UAEXPAVUViewport@@PAVFRenderInterface@@@Z @ 7098
?PostRender@UFinalEffect@@UAEXPAVUViewport@@PAVFRenderInterface@@PAVFSceneNode@@@Z @ 7099
?PostRender@UGlowEffect@@UAEXPAVUViewport@@PAVFRenderInterface@@PAVFSceneNode@@@Z @ 7100
?PostRender@UMotionBlur@@UAEXPAVUViewport@@PAVFRenderInterface@@@Z @ 7101
?PostRender@UMotionBlurEffect@@UAEXPAVUViewport@@PAVFRenderInterface@@PAVFSceneNode@@@Z @ 7102
?PostRender@UPostProcessEffect@@UAEXPAVUViewport@@PAVFRenderInterface@@PAVFSceneNode@@@Z @ 7103
?PostRender@USSAOEffect@@UAEXPAVUViewport@@PAVFRenderInterface@@PAVFSceneNode@@@Z @ 7104
?PostScriptDestroyed@AActor@@UAEXXZ @ 7105
?PostScriptDestroyed@AEmitter@@UAEXXZ @ 7106
?PostSend@UNetConnection@@QAEXXZ @ 7107
?PostaddReachSpecs@ADoor@@UAEXPAVAPawn@@@Z @ 7108
?PostaddReachSpecs@ANavigationPoint@@UAEXPAVAPawn@@@Z @ 7109
?PotentiallyVisible@UModel@@QAEHHH@Z @ 7110
?PreCalc@AwEmitter@@QAEXXZ @ 7111
?PreCalc@AwWeatherEffect@@QAEXXZ @ 7112
?PreCalculateLightmaps@UModel@@QAEXXZ @ 7113
?PreEditUndo@AActor@@UAEXXZ @ 7114
?PreNetReceive@AActor@@UAEXXZ @ 7115
?PreNetReceive@ALevelInfo@@UAEXXZ @ 7116
?PreNetReceive@AMover@@UAEXXZ @ 7117
?PreNetReceive@APawn@@UAEXXZ @ 7118
?PreNetReceive@AVehicle@@UAEXXZ @ 7119
?PreNetReceive@AwWeapon@@UAEXXZ @ 7120
?PrePath@AActor@@UAEXXZ @ 7121
?PrePath@ADoor@@UAEXXZ @ 7122
?PrePath@ANavigationPoint@@UAEXXZ @ 7123
?PrePostRender@UPostProcessEffect@@UAEXPAVUViewport@@PAVFRenderInterface@@@Z @ 7124
?PreProcess@UInput@@UAEHW4EInputKey@@W4EInputAction@@M@Z @ 7125
?PreRaytrace@AActor@@UAEXXZ @ 7126
?PreRaytrace@AMover@@UAEXXZ @ 7127
?PreRender@UBlackWhite@@UAEXPAVUViewport@@PAVFRenderInterface@@@Z @ 7128
?PreRender@UCameraEffect@@UAEXPAVUViewport@@PAVFRenderInterface@@@Z @ 7129
?PreRender@UDOFEffect@@UAEXPAVUViewport@@PAVFRenderInterface@@@Z @ 7130
?PreRender@UDripEffect@@UAEXPAVUViewport@@PAVFRenderInterface@@@Z @ 7131
?PreRender@UFadeBlackWhite@@UAEXPAVUViewport@@PAVFRenderInterface@@@Z @ 7132
?PreRender@UFinalEffect@@UAEXPAVUViewport@@PAVFRenderInterface@@@Z @ 7133
?PreRender@UGlowEffect@@UAEXPAVUViewport@@PAVFRenderInterface@@@Z @ 7134
?PreRender@UMotionBlur@@UAEXPAVUViewport@@PAVFRenderInterface@@@Z @ 7135
?PreRender@UMotionBlurEffect@@UAEXPAVUViewport@@PAVFRenderInterface@@@Z @ 7136
?PreRender@UPostProcessEffect@@UAEXPAVUViewport@@PAVFRenderInterface@@@Z @ 7137
?PreRender@USSAOEffect@@UAEXPAVUViewport@@PAVFRenderInterface@@@Z @ 7138
?PreSend@UNetConnection@@QAEXH@Z @ 7139
?PreSetMaterial@UBlendShader@@UAEXM@Z @ 7140
?PreSetMaterial@UCombiner@@UAEXM@Z @ 7141
?PreSetMaterial@UDecalShader@@UAEXM@Z @ 7142
?PreSetMaterial@UMaterial@@UAEXM@Z @ 7143
?PreSetMaterial@UMaterialSequence@@UAEXM@Z @ 7144
?PreSetMaterial@UModifier@@UAEXM@Z @ 7145
?PreSetMaterial@UShader@@UAEXM@Z @ 7146
?PrecacheShaderEffects@URenderDevice@@UAEXXZ @ 7147
?PrecacheShaderFiles@UGameEngine@@QAEXXZ @ 7148
?PrecacheTextureData@UTexture@@QAEXH@Z @ 7149
?PrecomputeLayerWeights@ATerrainInfo@@QAEXXZ @ 7150
?PrecomputeSphereFilter@UModel@@QAEXABVFPlane@@@Z @ 7151
?PreparePath@ASceneManager@@QAEXXZ @ 7152
?Present@UNullRenderDevice@@UAEXPAVUViewport@@@Z @ 7153
?Present@UViewport@@UAEXXZ @ 7154
?Prime@UTexture@@UAEXXZ @ 7155
?PrivateStaticClass@AAIController@@0VUClass@@A @ 7156
?PrivateStaticClass@AAIMarker@@0VUClass@@A @ 7157
?PrivateStaticClass@AAIScript@@0VUClass@@A @ 7158
?PrivateStaticClass@AActor@@0VUClass@@A @ 7159
?PrivateStaticClass@AAmbientLightVolume@@0VUClass@@A @ 7160
?PrivateStaticClass@AAmbientSound@@0VUClass@@A @ 7161
?PrivateStaticClass@AAmmo@@0VUClass@@A @ 7162
?PrivateStaticClass@AAnnouncerVoice@@0VUClass@@A @ 7163
?PrivateStaticClass@AAntiPortalActor@@0VUClass@@A @ 7164
?PrivateStaticClass@AAutoDoor@@0VUClass@@A @ 7165
?PrivateStaticClass@AAutoLadder@@0VUClass@@A @ 7166
?PrivateStaticClass@AAvoidMarker@@0VUClass@@A @ 7167
?PrivateStaticClass@ABlockingVolume@@0VUClass@@A @ 7168
?PrivateStaticClass@ABrush@@0VUClass@@A @ 7169
?PrivateStaticClass@ACamera@@0VUClass@@A @ 7170
?PrivateStaticClass@AClipMarker@@0VUClass@@A @ 7171
?PrivateStaticClass@AController@@0VUClass@@A @ 7172
?PrivateStaticClass@ACubemapVolume@@0VUClass@@A @ 7173
?PrivateStaticClass@ADamageType@@0VUClass@@A @ 7174
?PrivateStaticClass@ADecoVolumeObject@@0VUClass@@A @ 7175
?PrivateStaticClass@ADecoration@@0VUClass@@A @ 7176
?PrivateStaticClass@ADecorationList@@0VUClass@@A @ 7177
?PrivateStaticClass@ADefaultPhysicsVolume@@0VUClass@@A @ 7178
?PrivateStaticClass@ADoor@@0VUClass@@A @ 7179
?PrivateStaticClass@AEmitter@@0VUClass@@A @ 7180
?PrivateStaticClass@AFileLog@@0VUClass@@A @ 7181
?PrivateStaticClass@AFluidSurfaceInfo@@0VUClass@@A @ 7182
?PrivateStaticClass@AFluidSurfaceOscillator@@0VUClass@@A @ 7183
?PrivateStaticClass@AFlyingPathNode@@0VUClass@@A @ 7184
?PrivateStaticClass@AGameInfo@@0VUClass@@A @ 7185
?PrivateStaticClass@AGameReplicationInfo@@0VUClass@@A @ 7186
?PrivateStaticClass@AGameStats@@0VUClass@@A @ 7187
?PrivateStaticClass@AHUD@@0VUClass@@A @ 7188
?PrivateStaticClass@AHoverPathNode@@0VUClass@@A @ 7189
?PrivateStaticClass@AInfo@@0VUClass@@A @ 7190
?PrivateStaticClass@AInternetInfo@@0VUClass@@A @ 7191
?PrivateStaticClass@AInterpolationPoint@@0VUClass@@A @ 7192
?PrivateStaticClass@AInventory@@0VUClass@@A @ 7193
?PrivateStaticClass@AInventoryAttachment@@0VUClass@@A @ 7194
?PrivateStaticClass@AInventorySpot@@0VUClass@@A @ 7195
?PrivateStaticClass@AJumpDest@@0VUClass@@A @ 7196
?PrivateStaticClass@AJumpPad@@0VUClass@@A @ 7197
?PrivateStaticClass@AKActor@@0VUClass@@A @ 7198
?PrivateStaticClass@AKBSJoint@@0VUClass@@A @ 7199
?PrivateStaticClass@AKCarWheelJoint@@0VUClass@@A @ 7200
?PrivateStaticClass@AKConeLimit@@0VUClass@@A @ 7201
?PrivateStaticClass@AKConstraint@@0VUClass@@A @ 7202
?PrivateStaticClass@AKHinge@@0VUClass@@A @ 7203
?PrivateStaticClass@AKRepulsor@@0VUClass@@A @ 7204
?PrivateStaticClass@AKTire@@0VUClass@@A @ 7205
?PrivateStaticClass@AKVehicle@@0VUClass@@A @ 7206
?PrivateStaticClass@AKeypoint@@0VUClass@@A @ 7207
?PrivateStaticClass@ALadder@@0VUClass@@A @ 7208
?PrivateStaticClass@ALadderVolume@@0VUClass@@A @ 7209
?PrivateStaticClass@ALevelInfo@@0VUClass@@A @ 7210
?PrivateStaticClass@ALevelLoadingView@@0VUClass@@A @ 7211
?PrivateStaticClass@ALiftCenter@@0VUClass@@A @ 7212
?PrivateStaticClass@ALiftExit@@0VUClass@@A @ 7213
?PrivateStaticClass@ALight@@0VUClass@@A @ 7214
?PrivateStaticClass@ALineOfSightTrigger@@0VUClass@@A @ 7215
?PrivateStaticClass@ALinkAntiportalVolume@@0VUClass@@A @ 7216
?PrivateStaticClass@ALinkedReplicationInfo@@0VUClass@@A @ 7217
?PrivateStaticClass@ALookTarget@@0VUClass@@A @ 7218
?PrivateStaticClass@AMaplistManagerBase@@0VUClass@@A @ 7219
?PrivateStaticClass@AMatDemoActor@@0VUClass@@A @ 7220
?PrivateStaticClass@AMover@@0VUClass@@A @ 7221
?PrivateStaticClass@AMutator@@0VUClass@@A @ 7222
?PrivateStaticClass@ANavigationPoint@@0VUClass@@A @ 7223
?PrivateStaticClass@ANote@@0VUClass@@A @ 7224
?PrivateStaticClass@APathNode@@0VUClass@@A @ 7225
?PrivateStaticClass@APawn@@0VUClass@@A @ 7226
?PrivateStaticClass@APhysicsVolume@@0VUClass@@A @ 7227
?PrivateStaticClass@APickup@@0VUClass@@A @ 7228
?PrivateStaticClass@APlayerChatManager@@0VUClass@@A @ 7229
?PrivateStaticClass@APlayerController@@0VUClass@@A @ 7230
?PrivateStaticClass@APlayerReplicationInfo@@0VUClass@@A @ 7231
?PrivateStaticClass@APlayerStart@@0VUClass@@A @ 7232
?PrivateStaticClass@APlayerStart_SD@@0VUClass@@A @ 7233
?PrivateStaticClass@APolyMarker@@0VUClass@@A @ 7234
?PrivateStaticClass@APotentialClimbWatcher@@0VUClass@@A @ 7235
?PrivateStaticClass@APowerups@@0VUClass@@A @ 7236
?PrivateStaticClass@APrecacheHack@@0VUClass@@A @ 7237
?PrivateStaticClass@AProjectile@@0VUClass@@A @ 7238
?PrivateStaticClass@AProjector@@0VUClass@@A @ 7239
?PrivateStaticClass@AReplicationInfo@@0VUClass@@A @ 7240
?PrivateStaticClass@ARoadPathNode@@0VUClass@@A @ 7241
?PrivateStaticClass@ASVehicle@@0VUClass@@A @ 7242
?PrivateStaticClass@ASVehicleFactory@@0VUClass@@A @ 7243
?PrivateStaticClass@ASVehicleTrigger@@0VUClass@@A @ 7244
?PrivateStaticClass@ASavedMove@@0VUClass@@A @ 7245
?PrivateStaticClass@ASceneManager@@0VUClass@@A @ 7246
?PrivateStaticClass@ASceneSubtitles@@0VUClass@@A @ 7247
?PrivateStaticClass@AScout@@0VUClass@@A @ 7248
?PrivateStaticClass@ASecurity@@0VUClass@@A @ 7249
?PrivateStaticClass@ASkyZoneInfo@@0VUClass@@A @ 7250
?PrivateStaticClass@ASmallNavigationPoint@@0VUClass@@A @ 7251
?PrivateStaticClass@AStaticMeshActor@@0VUClass@@A @ 7252
?PrivateStaticClass@ATeamInfo@@0VUClass@@A @ 7253
?PrivateStaticClass@ATeleporter@@0VUClass@@A @ 7254
?PrivateStaticClass@ATerrainInfo@@0VUClass@@A @ 7255
?PrivateStaticClass@ATonemappingVolume@@0VUClass@@A @ 7256
?PrivateStaticClass@ATrigger@@0VUClass@@A @ 7257
?PrivateStaticClass@ATriggers@@0VUClass@@A @ 7258
?PrivateStaticClass@AVehicle@@0VUClass@@A @ 7259
?PrivateStaticClass@AVehiclePart@@0VUClass@@A @ 7260
?PrivateStaticClass@AVertMeshActor@@0VUClass@@A @ 7261
?PrivateStaticClass@AVignette@@0VUClass@@A @ 7262
?PrivateStaticClass@AVoiceChatReplicationInfo@@0VUClass@@A @ 7263
?PrivateStaticClass@AVoiceChatRoom@@0VUClass@@A @ 7264
?PrivateStaticClass@AVolume@@0VUClass@@A @ 7265
?PrivateStaticClass@AWarpZoneInfo@@0VUClass@@A @ 7266
?PrivateStaticClass@AWarpZoneMarker@@0VUClass@@A @ 7267
?PrivateStaticClass@AWeaponAttachment@@0VUClass@@A @ 7268
?PrivateStaticClass@AZoneInfo@@0VUClass@@A @ 7269
?PrivateStaticClass@AwAILevelBase@@0VUClass@@A @ 7270
?PrivateStaticClass@AwAmmunition@@0VUClass@@A @ 7271
?PrivateStaticClass@AwArrangeTurret@@0VUClass@@A @ 7272
?PrivateStaticClass@AwEmitter@@0VUClass@@A @ 7273
?PrivateStaticClass@AwGameStateStorageSender@@0VUClass@@A @ 7274
?PrivateStaticClass@AwPickUpBase@@0VUClass@@A @ 7275
?PrivateStaticClass@AwProcMesh@@0VUClass@@A @ 7276
?PrivateStaticClass@AwWeapon@@0VUClass@@A @ 7277
?PrivateStaticClass@AwWeaponPickup@@0VUClass@@A @ 7278
?PrivateStaticClass@AwWeatherEffect@@0VUClass@@A @ 7279
?PrivateStaticClass@UActionMoveCamera@@0VUClass@@A @ 7280
?PrivateStaticClass@UActionPause@@0VUClass@@A @ 7281
?PrivateStaticClass@UActorChannel@@0VUClass@@A @ 7282
?PrivateStaticClass@UAdminBase@@0VUClass@@A @ 7283
?PrivateStaticClass@UAnimNotify@@0VUClass@@A @ 7284
?PrivateStaticClass@UAnimNotify_DestroyEffect@@0VUClass@@A @ 7285
?PrivateStaticClass@UAnimNotify_Effect@@0VUClass@@A @ 7286
?PrivateStaticClass@UAnimNotify_LIPSinc@@0VUClass@@A @ 7287
?PrivateStaticClass@UAnimNotify_MatSubAction@@0VUClass@@A @ 7288
?PrivateStaticClass@UAnimNotify_Script@@0VUClass@@A @ 7289
?PrivateStaticClass@UAnimNotify_Scripted@@0VUClass@@A @ 7290
?PrivateStaticClass@UAnimNotify_Sound@@0VUClass@@A @ 7291
?PrivateStaticClass@UAnimation@@0VUClass@@A @ 7292
?PrivateStaticClass@UAudioSubsystem@@0VUClass@@A @ 7293
?PrivateStaticClass@UBTLoadingAdvancer@@0VUClass@@A @ 7294
?PrivateStaticClass@UBTLoadingState@@0VUClass@@A @ 7295
?PrivateStaticClass@UBTMapLoader@@0VUClass@@A @ 7296
?PrivateStaticClass@UBTNetInterface@@0VUClass@@A @ 7297
?PrivateStaticClass@UBTPingChecker@@0VUClass@@A @ 7298
?PrivateStaticClass@UBTPingCheckerLinker@@0VUClass@@A @ 7299
?PrivateStaticClass@UBTTcpLink_Channel_DS@@0VUClass@@A @ 7300
?PrivateStaticClass@UBTTcpLink_DStoDP_DS@@0VUClass@@A @ 7301
?PrivateStaticClass@UBaseGUIController@@0VUClass@@A @ 7302
?PrivateStaticClass@UBeamEmitter@@0VUClass@@A @ 7303
?PrivateStaticClass@UBitmapMaterial@@0VUClass@@A @ 7304
?PrivateStaticClass@UBlackWhite@@0VUClass@@A @ 7305
?PrivateStaticClass@UBlendShader@@0VUClass@@A @ 7306
?PrivateStaticClass@UBtrTraceResult@@0VUClass@@A @ 7307
?PrivateStaticClass@UByteArray@@0VUClass@@A @ 7308
?PrivateStaticClass@UCacheManager@@0VUClass@@A @ 7309
?PrivateStaticClass@UCameraEffect@@0VUClass@@A @ 7310
?PrivateStaticClass@UCameraOverlay@@0VUClass@@A @ 7311
?PrivateStaticClass@UCanvas@@0VUClass@@A @ 7312
?PrivateStaticClass@UCascadedShadowMaps@@0VUClass@@A @ 7313
?PrivateStaticClass@UChannel@@0VUClass@@A @ 7314
?PrivateStaticClass@UChannelDownload@@0VUClass@@A @ 7315
?PrivateStaticClass@UCheatManager@@0VUClass@@A @ 7316
?PrivateStaticClass@UClient@@0VUClass@@A @ 7317
?PrivateStaticClass@UColorModifier@@0VUClass@@A @ 7318
?PrivateStaticClass@UCombiner@@0VUClass@@A @ 7319
?PrivateStaticClass@UConsole@@0VUClass@@A @ 7320
?PrivateStaticClass@UConstantColor@@0VUClass@@A @ 7321
?PrivateStaticClass@UConstantMaterial@@0VUClass@@A @ 7322
?PrivateStaticClass@UControlChannel@@0VUClass@@A @ 7323
?PrivateStaticClass@UConvexVolume@@0VUClass@@A @ 7324
?PrivateStaticClass@UCrosshairPack@@0VUClass@@A @ 7325
?PrivateStaticClass@UCubemap@@0VUClass@@A @ 7326
?PrivateStaticClass@UDOFEffect@@0VUClass@@A @ 7327
?PrivateStaticClass@UDecalShader@@0VUClass@@A @ 7328
?PrivateStaticClass@UDemoRecConnection@@0VUClass@@A @ 7329
?PrivateStaticClass@UDemoRecDriver@@0VUClass@@A @ 7330
?PrivateStaticClass@UDistortEmitter@@0VUClass@@A @ 7331
?PrivateStaticClass@UDownload@@0VUClass@@A @ 7332
?PrivateStaticClass@UDownloadTexture@@0VUClass@@A @ 7333
?PrivateStaticClass@UDripEffect@@0VUClass@@A @ 7334
?PrivateStaticClass@UEngine@@0VUClass@@A @ 7335
?PrivateStaticClass@UFXFile@@0VUClass@@A @ 7336
?PrivateStaticClass@UFadeBlackWhite@@0VUClass@@A @ 7337
?PrivateStaticClass@UFadeColor@@0VUClass@@A @ 7338
?PrivateStaticClass@UFileChannel@@0VUClass@@A @ 7339
?PrivateStaticClass@UFinalBlend@@0VUClass@@A @ 7340
?PrivateStaticClass@UFinalEffect@@0VUClass@@A @ 7341
?PrivateStaticClass@UFluidSurfacePrimitive@@0VUClass@@A @ 7342
?PrivateStaticClass@UFont@@0VUClass@@A @ 7343
?PrivateStaticClass@UGMFile@@0VUClass@@A @ 7344
?PrivateStaticClass@UGameEngine@@0VUClass@@A @ 7345
?PrivateStaticClass@UGameProfile@@0VUClass@@A @ 7346
?PrivateStaticClass@UGlowEffect@@0VUClass@@A @ 7347
?PrivateStaticClass@UHardwareShader@@0VUClass@@A @ 7348
?PrivateStaticClass@UI3DL2Listener@@0VUClass@@A @ 7349
?PrivateStaticClass@UIndexBuffer@@0VUClass@@A @ 7350
?PrivateStaticClass@UInput@@0VUClass@@A @ 7351
?PrivateStaticClass@UInteraction@@0VUClass@@A @ 7352
?PrivateStaticClass@UInteractionMaster@@0VUClass@@A @ 7353
?PrivateStaticClass@UInteractions@@0VUClass@@A @ 7354
?PrivateStaticClass@UItemIterator@@0VUClass@@A @ 7355
?PrivateStaticClass@UKMeshProps@@0VUClass@@A @ 7356
?PrivateStaticClass@UKarmaParams@@0VUClass@@A @ 7357
?PrivateStaticClass@UKarmaParamsCollision@@0VUClass@@A @ 7358
?PrivateStaticClass@UKarmaParamsRBFull@@0VUClass@@A @ 7359
?PrivateStaticClass@UKarmaParamsSkel@@0VUClass@@A @ 7360
?PrivateStaticClass@ULevel@@0VUClass@@A @ 7361
?PrivateStaticClass@ULevelBase@@0VUClass@@A @ 7362
?PrivateStaticClass@ULevelSummary@@0VUClass@@A @ 7363
?PrivateStaticClass@ULodMesh@@0VUClass@@A @ 7364
?PrivateStaticClass@ULodMeshInstance@@0VUClass@@A @ 7365
?PrivateStaticClass@ULogEntry@@0VUClass@@A @ 7366
?PrivateStaticClass@UManifest@@0VUClass@@A @ 7367
?PrivateStaticClass@UMatAction@@0VUClass@@A @ 7368
?PrivateStaticClass@UMatObject@@0VUClass@@A @ 7369
?PrivateStaticClass@UMatSubAction@@0VUClass@@A @ 7370
?PrivateStaticClass@UMaterial@@0VUClass@@A @ 7371
?PrivateStaticClass@UMaterialSequence@@0VUClass@@A @ 7372
?PrivateStaticClass@UMaterialSwitch@@0VUClass@@A @ 7373
?PrivateStaticClass@UMesh@@0VUClass@@A @ 7374
?PrivateStaticClass@UMeshAnimation@@0VUClass@@A @ 7375
?PrivateStaticClass@UMeshEmitter@@0VUClass@@A @ 7376
?PrivateStaticClass@UMeshInstance@@0VUClass@@A @ 7377
?PrivateStaticClass@UMeshObject@@0VUClass@@A @ 7378
?PrivateStaticClass@UModel@@0VUClass@@A @ 7379
?PrivateStaticClass@UModifier@@0VUClass@@A @ 7380
?PrivateStaticClass@UMotionBlur@@0VUClass@@A @ 7381
?PrivateStaticClass@UMotionBlurEffect@@0VUClass@@A @ 7382
?PrivateStaticClass@UNetConnection@@0VUClass@@A @ 7383
?PrivateStaticClass@UNetDriver@@0VUClass@@A @ 7384
?PrivateStaticClass@UNullRenderDevice@@0VUClass@@A @ 7385
?PrivateStaticClass@UObjectPool@@0VUClass@@A @ 7386
?PrivateStaticClass@UOpacityModifier@@0VUClass@@A @ 7387
?PrivateStaticClass@UPackageCheckInfo@@0VUClass@@A @ 7388
?PrivateStaticClass@UPackageMapLevel@@0VUClass@@A @ 7389
?PrivateStaticClass@UPalette@@0VUClass@@A @ 7390
?PrivateStaticClass@UParticleEmitter@@0VUClass@@A @ 7391
?PrivateStaticClass@UParticleMaterial@@0VUClass@@A @ 7392
?PrivateStaticClass@UPlayInfo@@0VUClass@@A @ 7393
?PrivateStaticClass@UPlayer@@0VUClass@@A @ 7394
?PrivateStaticClass@UPlayerInput@@0VUClass@@A @ 7395
?PrivateStaticClass@UPolys@@0VUClass@@A @ 7396
?PrivateStaticClass@UPostProcessEffect@@0VUClass@@A @ 7397
?PrivateStaticClass@UPrimitive@@0VUClass@@A @ 7398
?PrivateStaticClass@UProceduralSound@@0VUClass@@A @ 7399
?PrivateStaticClass@UProjectorMaterial@@0VUClass@@A @ 7400
?PrivateStaticClass@UProjectorPrimitive@@0VUClass@@A @ 7401
?PrivateStaticClass@UProxyBitmapMaterial@@0VUClass@@A @ 7402
?PrivateStaticClass@UReachSpec@@0VUClass@@A @ 7403
?PrivateStaticClass@URenderDevice@@0VUClass@@A @ 7404
?PrivateStaticClass@URenderResource@@0VUClass@@A @ 7405
?PrivateStaticClass@URenderedMaterial@@0VUClass@@A @ 7406
?PrivateStaticClass@USSAOEffect@@0VUClass@@A @ 7407
?PrivateStaticClass@USVehicleWheel@@0VUClass@@A @ 7408
?PrivateStaticClass@UScriptedTexture@@0VUClass@@A @ 7409
?PrivateStaticClass@UShader@@0VUClass@@A @ 7410
?PrivateStaticClass@UShadowBitmapMaterial@@0VUClass@@A @ 7411
?PrivateStaticClass@USkeletalMesh@@0VUClass@@A @ 7412
?PrivateStaticClass@USkeletalMeshInstance@@0VUClass@@A @ 7413
?PrivateStaticClass@USkinVertexBuffer@@0VUClass@@A @ 7414
?PrivateStaticClass@USound@@0VUClass@@A @ 7415
?PrivateStaticClass@USoundGroup@@0VUClass@@A @ 7416
?PrivateStaticClass@USparkEmitter@@0VUClass@@A @ 7417
?PrivateStaticClass@USpline@@0VUClass@@A @ 7418
?PrivateStaticClass@USpriteEmitter@@0VUClass@@A @ 7419
?PrivateStaticClass@UStaticMesh@@0VUClass@@A @ 7420
?PrivateStaticClass@UStaticMeshInstance@@0VUClass@@A @ 7421
?PrivateStaticClass@UStream@@0VUClass@@A @ 7422
?PrivateStaticClass@UStreamBase@@0VUClass@@A @ 7423
?PrivateStaticClass@UStreamInteraction@@0VUClass@@A @ 7424
?PrivateStaticClass@UStreamInterface@@0VUClass@@A @ 7425
?PrivateStaticClass@UStreamTag@@0VUClass@@A @ 7426
?PrivateStaticClass@USubActionCameraEffect@@0VUClass@@A @ 7427
?PrivateStaticClass@USubActionCameraShake@@0VUClass@@A @ 7428
?PrivateStaticClass@USubActionFOV@@0VUClass@@A @ 7429
?PrivateStaticClass@USubActionFade@@0VUClass@@A @ 7430
?PrivateStaticClass@USubActionGameSpeed@@0VUClass@@A @ 7431
?PrivateStaticClass@USubActionOrientation@@0VUClass@@A @ 7432
?PrivateStaticClass@USubActionSceneSpeed@@0VUClass@@A @ 7433
?PrivateStaticClass@USubActionSubTitle@@0VUClass@@A @ 7434
?PrivateStaticClass@USubActionTrigger@@0VUClass@@A @ 7435
?PrivateStaticClass@UTerrainMaterial@@0VUClass@@A @ 7436
?PrivateStaticClass@UTerrainPrimitive@@0VUClass@@A @ 7437
?PrivateStaticClass@UTerrainSector@@0VUClass@@A @ 7438
?PrivateStaticClass@UTexCoordMaterial@@0VUClass@@A @ 7439
?PrivateStaticClass@UTexCoordSource@@0VUClass@@A @ 7440
?PrivateStaticClass@UTexEnvMap@@0VUClass@@A @ 7441
?PrivateStaticClass@UTexMatrix@@0VUClass@@A @ 7442
?PrivateStaticClass@UTexModifier@@0VUClass@@A @ 7443
?PrivateStaticClass@UTexOscillator@@0VUClass@@A @ 7444
?PrivateStaticClass@UTexOscillatorTriggered@@0VUClass@@A @ 7445
?PrivateStaticClass@UTexPanner@@0VUClass@@A @ 7446
?PrivateStaticClass@UTexPannerTriggered@@0VUClass@@A @ 7447
?PrivateStaticClass@UTexRotator@@0VUClass@@A @ 7448
?PrivateStaticClass@UTexScaler@@0VUClass@@A @ 7449
?PrivateStaticClass@UTextToSpeechAlias@@0VUClass@@A @ 7450
?PrivateStaticClass@UTexture@@0VUClass@@A @ 7451
?PrivateStaticClass@UTickChecker@@0VUClass@@A @ 7452
?PrivateStaticClass@UTrailEmitter@@0VUClass@@A @ 7453
?PrivateStaticClass@UUserzoneInfo@@0VUClass@@A @ 7454
?PrivateStaticClass@UVariableTexPanner@@0VUClass@@A @ 7455
?PrivateStaticClass@UVertMesh@@0VUClass@@A @ 7456
?PrivateStaticClass@UVertMeshInstance@@0VUClass@@A @ 7457
?PrivateStaticClass@UVertexBuffer@@0VUClass@@A @ 7458
?PrivateStaticClass@UVertexColor@@0VUClass@@A @ 7459
?PrivateStaticClass@UVertexStreamBase@@0VUClass@@A @ 7460
?PrivateStaticClass@UVertexStreamCOLOR@@0VUClass@@A @ 7461
?PrivateStaticClass@UVertexStreamPosNormTex@@0VUClass@@A @ 7462
?PrivateStaticClass@UVertexStreamUV@@0VUClass@@A @ 7463
?PrivateStaticClass@UVertexStreamVECTOR@@0VUClass@@A @ 7464
?PrivateStaticClass@UViewport@@0VUClass@@A @ 7465
?PrivateStaticClass@UVisibilityItem@@0VUClass@@A @ 7466
?PrivateStaticClass@UVisibilityItemArray@@0VUClass@@A @ 7467
?PrivateStaticClass@UVoiceChannel@@0VUClass@@A @ 7468
?PrivateStaticClass@UWMFile@@0VUClass@@A @ 7469
?PrivateStaticClass@UWebLog@@0VUClass@@A @ 7470
?PrivateStaticClass@UWebzenShopItemListDownloader@@0VUClass@@A @ 7471
?PrivateStaticClass@UwBTLoadingScreenDrawer@@0VUClass@@A @ 7472
?PrivateStaticClass@UwBtrIni@@0VUClass@@A @ 7473
?PrivateStaticClass@UwCharacterManager@@0VUClass@@A @ 7474
?PrivateStaticClass@UwClanLevelInfoParam@@0VUClass@@A @ 7475
?PrivateStaticClass@UwClanMarkParam@@0VUClass@@A @ 7476
?PrivateStaticClass@UwDailyQuestParam@@0VUClass@@A @ 7477
?PrivateStaticClass@UwDefenceGameParam@@0VUClass@@A @ 7478
?PrivateStaticClass@UwGameManager@@0VUClass@@A @ 7479
?PrivateStaticClass@UwInstantFire@@0VUClass@@A @ 7480
?PrivateStaticClass@UwInventory@@0VUClass@@A @ 7481
?PrivateStaticClass@UwItemBaseParam@@0VUClass@@A @ 7482
?PrivateStaticClass@UwItemBoxParam@@0VUClass@@A @ 7483
?PrivateStaticClass@UwItemResourceParam@@0VUClass@@A @ 7484
?PrivateStaticClass@UwLevelInfoParam@@0VUClass@@A @ 7485
?PrivateStaticClass@UwMapInfo@@0VUClass@@A @ 7486
?PrivateStaticClass@UwMatchMaker@@0VUClass@@A @ 7487
?PrivateStaticClass@UwModeDOAParam@@0VUClass@@A @ 7488
?PrivateStaticClass@UwMyPlayerStatus@@0VUClass@@A @ 7489
?PrivateStaticClass@UwNPCActionGroupParam@@0VUClass@@A @ 7490
?PrivateStaticClass@UwNPCItemGroupParam@@0VUClass@@A @ 7491
?PrivateStaticClass@UwNPCNameGroupParam@@0VUClass@@A @ 7492
?PrivateStaticClass@UwNPCParam@@0VUClass@@A @ 7493
?PrivateStaticClass@UwNPCSpawnParam@@0VUClass@@A @ 7494
?PrivateStaticClass@UwPaintGroupParam@@0VUClass@@A @ 7495
?PrivateStaticClass@UwPartsGroupParam@@0VUClass@@A @ 7496
?PrivateStaticClass@UwPromotionParam@@0VUClass@@A @ 7497
?PrivateStaticClass@UwQuestParam@@0VUClass@@A @ 7498
?PrivateStaticClass@UwRandBoxParam@@0VUClass@@A @ 7499
?PrivateStaticClass@UwSkillBaseParam@@0VUClass@@A @ 7500
?PrivateStaticClass@UwSkills@@0VUClass@@A @ 7501
?PrivateStaticClass@UwWeaponBaseParams@@0VUClass@@A @ 7502
?PrivateStaticClass@UwWeaponCustomInfoParam@@0VUClass@@A @ 7503
?PrivateStaticClass@UwWeaponCustomPartsParam@@0VUClass@@A @ 7504
?PrivateStaticClass@UwWeaponFire@@0VUClass@@A @ 7505
?PrivateStaticClass@UwWeaponManager@@0VUClass@@A @ 7506
?PrivateStaticClass@UwWeaponParams@@0VUClass@@A @ 7507
?Process@UInput@@UAEHAAVFOutputDevice@@W4EInputKey@@W4EInputAction@@M@Z @ 7508
?ProcessAmbientOcclusion@UPrimitive@@UAEXPAVAActor@@@Z @ 7509
?ProcessAmbientOcclusion@UStaticMesh@@UAEXPAVAActor@@@Z @ 7510
?ProcessAmbientOcclusion@UTerrainPrimitive@@UAEXPAVAActor@@@Z @ 7511
?ProcessDemoRecFunction@AActor@@QAEXPAVUFunction@@PAXPAUFFrame@@@Z @ 7512
?ProcessEvent@AActor@@UAEXPAVUFunction@@PAX1@Z @ 7513
?ProcessEvent@ASceneSubtitles@@QAEXW4ESST_Mode@@@Z @ 7514
?ProcessRemoteFunction@AActor@@UAEHPAVUFunction@@PAXPAUFFrame@@@Z @ 7515
?ProcessState@AActor@@UAEXM@Z @ 7516
?Project@FSceneNode@@QAE?AVFPlane@@VFVector@@@Z @ 7517
?Prone@APawn@@QAEXH@Z @ 7518
?ProscribedPathTo@AFlyingPathNode@@UAEHPAVANavigationPoint@@@Z @ 7519
?ProscribedPathTo@ALadder@@UAEHPAVANavigationPoint@@@Z @ 7520
?ProscribedPathTo@ANavigationPoint@@UAEHPAV1@@Z @ 7521
?ProscribedPathTo@ARoadPathNode@@UAEHPAVANavigationPoint@@@Z @ 7522
?PrunePaths@ANavigationPoint@@QAEHXZ @ 7523
?PurgeAcks@UNetConnection@@QAEXXZ @ 7524
?PushHit@UViewport@@QAEXABUHHitProxy@@H@Z @ 7525
?Radiosity1stPass@UModel@@QAEXPAVAActor@@@Z @ 7526
?Radiosity1stPass@UStaticMesh@@QAEXPAVUTexture@@PAVAActor@@1@Z @ 7527
?Radiosity2ndPass@UModel@@QAEXVFString@@HPAVAActor@@HHPAVUViewport@@@Z @ 7528
?Radiosity2ndPass@UStaticMesh@@QAEXVFString@@PAVUTexture@@PAVAActor@@HHHHPAVUViewport@@@Z @ 7529
?Radiosity2ndPass_UseVertexColor@UStaticMesh@@QAEXVFString@@PAVAActor@@HHHHPAVUViewport@@H@Z @ 7530
?Radiosity@UModel@@UAEXVFString@@PAVAActor@@HHHHPAVUViewport@@@Z @ 7531
?Radiosity@UPrimitive@@UAEXVFString@@PAVAActor@@HHHHPAVUViewport@@@Z @ 7532
?Radiosity@UStaticMesh@@UAEXVFString@@PAVAActor@@HHHHPAVUViewport@@@Z @ 7533
?Radiosity@UTerrainPrimitive@@UAEXVFString@@PAVAActor@@HHHHPAVUViewport@@@Z @ 7534
?Reachable@APawn@@QAEHVFVector@@PAVAActor@@@Z @ 7535
?ReachedBy@AActor@@UAEHPAVAPawn@@VFVector@@@Z @ 7536
?ReachedBy@AFlyingPathNode@@UAEHPAVAPawn@@VFVector@@@Z @ 7537
?ReachedBy@ALadder@@UAEHPAVAPawn@@VFVector@@@Z @ 7538
?ReachedBy@ASVehicleTrigger@@UAEHPAVAPawn@@VFVector@@@Z @ 7539
?ReachedBy@ATeleporter@@UAEHPAVAPawn@@VFVector@@@Z @ 7540
?ReachedBy@ATriggers@@UAEHPAVAPawn@@VFVector@@@Z @ 7541
?ReachedDesiredRotation@APawn@@UAEHXZ @ 7542
?ReachedDestination@APawn@@QAEHVFVector@@PAVAActor@@@Z @ 7543
?ReadInput@UInput@@UAEXMAAVFOutputDevice@@@Z @ 7544
?ReadInput@UNetConnection@@UAEXM@Z @ 7545
?ReadInput@UViewport@@UAEXM@Z @ 7546
?ReadPixels@UNullRenderDevice@@UAEXPAVUViewport@@PAVFColor@@H@Z @ 7547
?ReadWaveInfo@FWaveModInfo@@QAEHAAV?$TArray@E@@@Z @ 7548
?ReallyBreakCompatibility@UEngine@@UAEHH@Z @ 7549
?RebuildClampedBitmap@AFluidSurfaceInfo@@QAEXXZ @ 7550
?ReceiveData@UDownload@@UAEXPAEH@Z @ 7551
?ReceiveFile@UChannelDownload@@UAEXPAVUNetConnection@@HPBGHH@Z @ 7552
?ReceiveFile@UDownload@@UAEXPAVUNetConnection@@HPBGHH@Z @ 7553
?ReceiveFile@UNetConnection@@QAEXHH@Z @ 7554
?ReceivedAcks@UChannel@@QAEXXZ @ 7555
?ReceivedBunch@UActorChannel@@UAEXAAVFInBunch@@@Z @ 7556
?ReceivedBunch@UControlChannel@@UAEXAAVFInBunch@@@Z @ 7557
?ReceivedBunch@UFileChannel@@UAEXAAVFInBunch@@@Z @ 7558
?ReceivedBunch@UVoiceChannel@@UAEXAAVFInBunch@@@Z @ 7559
?ReceivedNak@UActorChannel@@UAEXH@Z @ 7560
?ReceivedNak@UChannel@@UAEXH@Z @ 7561
?ReceivedNak@UNetConnection@@QAEXH@Z @ 7562
?ReceivedPacket@UNetConnection@@QAEXAAUFBitReader@@@Z @ 7563
?ReceivedRawBunch@UChannel@@QAEXAAVFInBunch@@@Z @ 7564
?ReceivedRawPacket@UNetConnection@@QAEXPAXH@Z @ 7565
?ReceivedRawPacketOnRelay@UNetConnection@@QAEXAAUFBitReader@@H@Z @ 7566
?ReceivedSequencedBunch@UChannel@@QAEHAAVFInBunch@@@Z @ 7567
?ReceivedStatusPacket@UVoiceChannel@@QAEXPAUFVoiceInfo@@W4EVoicePacketType@@@Z @ 7568
?ReconcileActors@ULevel@@UAEXXZ @ 7569
?ReconstructRawMesh@USkeletalMesh@@QAEXXZ @ 7570
?Reduce16to8@FWaveModInfo@@QAEXXZ @ 7571
?RefreshAll@UViewport@@SAXXZ @ 7572
?RefreshCache@UCacheManager@@QAEHXZ @ 7573
?RefreshGroup@USoundGroup@@QAEXABVFString@@@Z @ 7574
?RefreshGroup@USoundGroup@@QAEXH@Z @ 7575
?RefreshShortcuts@UStreamTag@@IAEXXZ @ 7576
?RefreshSubActions@ASceneManager@@QAEXM@Z @ 7577
?RegisterStats@FStats@@QAEHW4EStatsType@@W4EStatsDataType@@VFString@@2W4EStatsUnit@@@Z @ 7578
?RelayServerOff@UNetConnection@@UAEXXZ @ 7579
?RelayServerOff@UNetDriver@@QAEXXZ @ 7580
?RelayServerOn@UNetConnection@@UAEXVFURL@@@Z @ 7581
?RelayServerOn@UNetDriver@@QAEXAAVFURL@@@Z @ 7582
?RemapChar@UFont@@QAEGG@Z @ 7583
?RememberActors@ULevel@@UAEXXZ @ 7584
?Remove@?$TArray@E@@QAEXHH@Z @ 7585
?RemoveActor@FCollisionHash@@UAEXPAVAActor@@@Z @ 7586
?RemoveActor@FCollisionOctree@@UAEXPAVAActor@@@Z @ 7587
?RemoveAllActors@FOctreeNode@@QAEXPAVFCollisionOctree@@@Z @ 7588
?RemoveAllResource@FStreamingManagerCollection@@UAEXXZ @ 7589
?RemoveAllResource@FStreamingManagerTexture@@UAEXXZ @ 7590
?RemoveCacheEntry@UCacheManager@@QBEHPBG@Z @ 7591
?RemoveColinears@FPoly@@QAEHXZ @ 7592
?RemoveEntry@UManifest@@QAEXH@Z @ 7593
?RemoveItem@?$TArray@E@@QAEHABE@Z @ 7594
?RemoveNatCheckStater@UNetDriver@@UAEHH@Z @ 7595
?RemoveOption@FURL@@QAEXPBG00@Z @ 7596
?RemoveStreamingManager@FStreamingManagerCollection@@QAEXPAUFStreamingManagerBase@@@Z @ 7597
?RemoveStreamingTexture@FStreamingManagerBase@@UAEXPAVUTexture@@@Z @ 7598
?RemoveStreamingTexture@FStreamingManagerCollection@@UAEXPAVUTexture@@@Z @ 7599
?RemoveStreamingTexture@FStreamingManagerTexture@@UAEXPAVUTexture@@@Z @ 7600
?Rename@UModel@@UAEXPBGPAVUObject@@@Z @ 7601
?Rename@UStaticMesh@@UAEXPBGPAVUObject@@@Z @ 7602
?Render@AAmbientLightVolume@@QAEXPAVFDynamicActor@@PAVFLevelSceneNode@@PAVFRenderInterface@@@Z @ 7603
?Render@AEmitter@@QAEXPAVFDynamicActor@@PAVFLevelSceneNode@@PAV?$TList@PAVFDynamicLight@@@@PAVFRenderInterface@@@Z @ 7604
?Render@AFluidSurfaceInfo@@QAEXPAVFDynamicActor@@PAVFLevelSceneNode@@PAV?$TList@PAVFDynamicLight@@@@PAVFRenderInterface@@@Z @ 7605
?Render@ATerrainInfo@@QAEXPAVFLevelSceneNode@@PAVFRenderInterface@@PAVFVisibilityInterface@@PAPAVFDynamicLight@@HPAPAUFProjectorRenderInfo@@H@Z @ 7606
?Render@AwEmitter@@QAEXPAVFLevelSceneNode@@PAVFRenderInterface@@@Z @ 7607
?Render@AwProcMesh@@QAEXPAVFLevelSceneNode@@PAV?$TList@PAVFDynamicLight@@@@PAVFRenderInterface@@@Z @ 7608
?Render@AwWeatherEffect@@QAEXPAVFLevelSceneNode@@PAVFRenderInterface@@@Z @ 7609
?Render@FActorSceneNode@@UAEXPAVFRenderInterface@@PAVULevel@@@Z @ 7610
?Render@FCameraSceneNode@@UAEXPAVFRenderInterface@@PAVULevel@@@Z @ 7611
?Render@FDynamicActor@@QAEXPAVFLevelSceneNode@@PAV?$TList@PAVFDynamicLight@@@@PAV?$TList@PAUFProjectorRenderInfo@@@@PAVFRenderInterface@@H@Z @ 7612
?Render@FLevelSceneNode@@UAEXPAVFRenderInterface@@PAVULevel@@@Z @ 7613
?Render@FLightMapSceneNode@@UAEXPAVFRenderInterface@@@Z @ 7614
?Render@FPlayerSceneNode@@UAEXPAVFRenderInterface@@PAVULevel@@@Z @ 7615
?Render@FShadowSceneNode@@UAEXPAVFRenderInterface@@@Z @ 7616
?Render@FStatGraph@@QAEXPAVUViewport@@PAVFRenderInterface@@@Z @ 7617
?Render@FStats@@QAEXPAVUViewport@@PAVUEngine@@@Z @ 7618
?Render@FTempLineBatcher@@QAEXPAVFRenderInterface@@H@Z @ 7619
?Render@UMeshInstance@@UAEXPAVFDynamicActor@@PAVFLevelSceneNode@@PAV?$TList@PAVFDynamicLight@@@@PAV?$TList@PAUFProjectorRenderInfo@@@@PAVFRenderInterface@@@Z @ 7620
?Render@UModel@@QAEXPAVFDynamicActor@@PAVFLevelSceneNode@@PAVFRenderInterface@@@Z @ 7621
?Render@USkeletalMeshInstance@@UAEXPAVFDynamicActor@@PAVFLevelSceneNode@@PAV?$TList@PAVFDynamicLight@@@@PAV?$TList@PAUFProjectorRenderInfo@@@@PAVFRenderInterface@@@Z @ 7622
?Render@UVertMeshInstance@@UAEXPAVFDynamicActor@@PAVFLevelSceneNode@@PAV?$TList@PAVFDynamicLight@@@@PAV?$TList@PAUFProjectorRenderInfo@@@@PAVFRenderInterface@@@Z @ 7623
?RenderColor@FColor@@QAE?AV1@XZ @ 7624
?RenderColor@FDynamicActor@@QAEXPAVFLevelSceneNode@@PAVFRenderInterface@@H@Z @ 7625
?RenderColor@UMeshInstance@@UAEXPAVFDynamicActor@@PAVFLevelSceneNode@@PAV?$TList@PAVFDynamicLight@@@@PAV?$TList@PAUFProjectorRenderInfo@@@@PAVFRenderInterface@@@Z @ 7626
?RenderColor@USkeletalMeshInstance@@UAEXPAVFDynamicActor@@PAVFLevelSceneNode@@PAV?$TList@PAVFDynamicLight@@@@PAV?$TList@PAUFProjectorRenderInfo@@@@PAVFRenderInterface@@@Z @ 7627
?RenderDecorations@ATerrainInfo@@QAEXPAVFLevelSceneNode@@PAVFRenderInterface@@PAVFVisibilityInterface@@@Z @ 7628
?RenderEditorInfo@AActor@@UAEXPAVFLevelSceneNode@@PAVFRenderInterface@@PAVFDynamicActor@@@Z @ 7629
?RenderEditorInfo@ACamera@@UAEXPAVFLevelSceneNode@@PAVFRenderInterface@@PAVFDynamicActor@@@Z @ 7630
?RenderEditorInfo@AEmitter@@UAEXPAVFLevelSceneNode@@PAVFRenderInterface@@PAVFDynamicActor@@@Z @ 7631
?RenderEditorInfo@AFluidSurfaceInfo@@UAEXPAVFLevelSceneNode@@PAVFRenderInterface@@PAVFDynamicActor@@@Z @ 7632
?RenderEditorInfo@ALadderVolume@@UAEXPAVFLevelSceneNode@@PAVFRenderInterface@@PAVFDynamicActor@@@Z @ 7633
?RenderEditorSelected@AActor@@UAEXPAVFLevelSceneNode@@PAVFRenderInterface@@PAVFDynamicActor@@@Z @ 7634
?RenderEditorSelected@ACamera@@UAEXPAVFLevelSceneNode@@PAVFRenderInterface@@PAVFDynamicActor@@@Z @ 7635
?RenderEditorSelected@AInterpolationPoint@@UAEXPAVFLevelSceneNode@@PAVFRenderInterface@@PAVFDynamicActor@@@Z @ 7636
?RenderEditorSelected@AJumpPad@@UAEXPAVFLevelSceneNode@@PAVFRenderInterface@@PAVFDynamicActor@@@Z @ 7637
?RenderEditorSelected@AKConstraint@@UAEXPAVFLevelSceneNode@@PAVFRenderInterface@@PAVFDynamicActor@@@Z @ 7638
?RenderEditorSelected@APawn@@UAEXPAVFLevelSceneNode@@PAVFRenderInterface@@PAVFDynamicActor@@@Z @ 7639
?RenderEditorSelected@AProjector@@UAEXPAVFLevelSceneNode@@PAVFRenderInterface@@PAVFDynamicActor@@@Z @ 7640
?RenderFields@FID3TagV1@@QBEHPAVUStreamTag@@@Z @ 7641
?RenderForShadow@FDynamicActor@@QAEXPAVFLevelSceneNode@@PAV?$TList@PAVFDynamicLight@@@@PAV?$TList@PAUFProjectorRenderInfo@@@@PAVFRenderInterface@@H@Z @ 7642
?RenderForShadow@UMeshInstance@@UAEXPAVFDynamicActor@@PAVFLevelSceneNode@@PAV?$TList@PAVFDynamicLight@@@@PAV?$TList@PAUFProjectorRenderInfo@@@@PAVFRenderInterface@@@Z @ 7643
?RenderForShadow@USkeletalMeshInstance@@UAEXPAVFDynamicActor@@PAVFLevelSceneNode@@PAV?$TList@PAVFDynamicLight@@@@PAV?$TList@PAUFProjectorRenderInfo@@@@PAVFRenderInterface@@@Z @ 7644
?RenderParticles@UBeamEmitter@@UAEHPAVFDynamicActor@@PAVFLevelSceneNode@@PAV?$TList@PAVFDynamicLight@@@@PAVFRenderInterface@@@Z @ 7645
?RenderParticles@UDistortEmitter@@UAEHPAVFDynamicActor@@PAVFLevelSceneNode@@PAV?$TList@PAVFDynamicLight@@@@PAVFRenderInterface@@@Z @ 7646
?RenderParticles@UMeshEmitter@@UAEHPAVFDynamicActor@@PAVFLevelSceneNode@@PAV?$TList@PAVFDynamicLight@@@@PAVFRenderInterface@@@Z @ 7647
?RenderParticles@UParticleEmitter@@UAEHPAVFDynamicActor@@PAVFLevelSceneNode@@PAV?$TList@PAVFDynamicLight@@@@PAVFRenderInterface@@@Z @ 7648
?RenderParticles@USparkEmitter@@UAEHPAVFDynamicActor@@PAVFLevelSceneNode@@PAV?$TList@PAVFDynamicLight@@@@PAVFRenderInterface@@@Z @ 7649
?RenderParticles@USpriteEmitter@@UAEHPAVFDynamicActor@@PAVFLevelSceneNode@@PAV?$TList@PAVFDynamicLight@@@@PAVFRenderInterface@@@Z @ 7650
?RenderParticles@UTrailEmitter@@UAEHPAVFDynamicActor@@PAVFLevelSceneNode@@PAV?$TList@PAVFDynamicLight@@@@PAVFRenderInterface@@@Z @ 7651
?RenderPreProcess@USkeletalMesh@@QAEHXZ @ 7652
?RenderPreProcess@UVertMesh@@QAEHXZ @ 7653
?RenderSelectedCube@AAmbientLightVolume@@QAEXPAUAmbientCube@@PAVFRenderInterface@@VFColor@@@Z @ 7654
?RenderShadowMap@FDynamicActor@@QAEXPAVFLevelSceneNode@@PAVFRenderInterface@@H@Z @ 7655
?RenderSoundPlay@UProceduralSound@@UAEPAVUSound@@PAM0@Z @ 7656
?RenderSoundPlay@USound@@UAEPAV1@PAM0@Z @ 7657
?RenderSoundPlay@USoundGroup@@UAEPAVUSound@@PAM0@Z @ 7658
?RenderView@AAmbientLightVolume@@QAE?AVFColor@@PAVUViewport@@V2@@Z @ 7659
?RenderView@UModel@@QAE?AVFColor@@PAVUViewport@@PAVAActor@@V2@W4EViewOption@@@Z @ 7660
?RenderView@UStaticMesh@@QAE?AVFColor@@PAVUViewport@@PAVAActor@@V2@W4EViewOption@@@Z @ 7661
?RenderView@UTerrainPrimitive@@QAE?AVFColor@@PAVUViewport@@PAVAActor@@V2@W4EViewOption@@@Z @ 7662
?RenderVolumeticLightRays@UGlowEffect@@QAEXPAVUViewport@@PAVFRenderInterface@@PAVFSceneNode@@@Z @ 7663
?RenderWireframe@AProjector@@QAEXPAVFRenderInterface@@@Z @ 7664
?RenderZSort@FDynamicActor@@QAEXPAVFLevelSceneNode@@PAVFRenderInterface@@H@Z @ 7665
?ReplaceWithExisting@UPalette@@QAEPAV1@XZ @ 7666
?ReplicateActor@UActorChannel@@QAEXXZ @ 7667
?ReplicateAnim@AActor@@QAEXHVFName@@MMMMH@Z @ 7668
?RequiredUVStreams@UBlendShader@@UAEEXZ @ 7669
?RequiredUVStreams@UCombiner@@UAEEXZ @ 7670
?RequiredUVStreams@UDecalShader@@UAEEXZ @ 7671
?RequiredUVStreams@UMaterial@@UAEEXZ @ 7672
?RequiredUVStreams@UModifier@@UAEEXZ @ 7673
?RequiredUVStreams@UShader@@UAEEXZ @ 7674
?RequiredUVStreams@UTexModifier@@UAEEXZ @ 7675
?RequiresNormal@UBlendShader@@UAEHXZ @ 7676
?RequiresNormal@UCombiner@@UAEHXZ @ 7677
?RequiresNormal@UDecalShader@@UAEHXZ @ 7678
?RequiresNormal@UMaterial@@UAEHXZ @ 7679
?RequiresNormal@UModifier@@UAEHXZ @ 7680
?RequiresNormal@UShader@@UAEHXZ @ 7681
?RequiresNormal@UTexModifier@@UAEHXZ @ 7682
?RequiresSorting@UBlendShader@@UAEHXZ @ 7683
?RequiresSorting@UCombiner@@UAEHXZ @ 7684
?RequiresSorting@UDecalShader@@UAEHXZ @ 7685
?RequiresSorting@UFinalBlend@@UAEHXZ @ 7686
?RequiresSorting@UMaterial@@UAEHXZ @ 7687
?RequiresSorting@UModifier@@UAEHXZ @ 7688
?RequiresSorting@UShader@@UAEHXZ @ 7689
?RequiresSorting@UTexture@@UAEHXZ @ 7690
?Reset@AwEmitter@@QAEXXZ @ 7691
?Reset@FBlowFish@@AAEXPBG@Z @ 7692
?Reset@FListener@@UAEXXZ @ 7693
?Reset@FStatGraph@@QAEXXZ @ 7694
?Reset@UParticleEmitter@@UAEXXZ @ 7695
?ResetFocusDepth@FRenderInterface@@UAEXVFVector@@@Z @ 7696
?ResetInput@UBaseGUIController@@UAEXXZ @ 7697
?ResetInput@UInput@@UAEXXZ @ 7698
?ResetKeySleepTime@UInput@@QAEXXZ @ 7699
?ResetMove@ATerrainInfo@@QAEXXZ @ 7700
?ResetNatCheckerTick@UNetDriver@@UAEXXZ @ 7701
?ResetStaticFilterState@ULevel@@UAEXPAVAActor@@@Z @ 7702
?ResetTimeMarginNativeImp@APlayerController@@QAEXXZ @ 7703
?ResetTrail@UTrailEmitter@@QAEXXZ @ 7704
?ResolutionChanged@UBaseGUIController@@UAEXHH@Z @ 7705
?ResourceCached@URenderDevice@@UAEH_K@Z @ 7706
?RestoreGamma@UClient@@UAEXXZ @ 7707
?RestoreGamma@UEngine@@UAEXXZ @ 7708
?RestoreGamma@UNullRenderDevice@@UAEXXZ @ 7709
?ReturnFilteredSettings@UPlayInfo@@QAEXAAV?$TArray@UFPlayInfoData@@@@ABVFString@@@Z @ 7710
?Reverse@FPoly@@QAEXXZ @ 7711
?ReviewPath@AFlyingPathNode@@UAEHPAVAPawn@@@Z @ 7712
?ReviewPath@AJumpDest@@UAEHPAVAPawn@@@Z @ 7713
?ReviewPath@ANavigationPoint@@UAEHPAVAPawn@@@Z @ 7714
?ReviewPath@APathNode@@UAEHPAVAPawn@@@Z @ 7715
?ReviewPath@ARoadPathNode@@UAEHPAVAPawn@@@Z @ 7716
?ReviewPaths@FPathBuilder@@QAEXPAVULevel@@@Z @ 7717
?Rotator@FRotatorF@@QAE?AVFRotator@@XZ @ 7718
?RouteDestroy@UChannel@@QAEHXZ @ 7719
?RunCapture@FRenderInterface@@UAEXXZ @ 7720
?RunHShield@UHShieldManager@@QAEXXZ @ 7721
?RunScreenShot@FRenderInterface@@UAEXXZ @ 7722
?SampleIntensity@FDynamicLight@@QAEMVFVector@@0@Z @ 7723
?SampleLight@FDynamicLight@@QAE?AVFColor@@VFVector@@0@Z @ 7724
?Save@FRebuildTools@@QAEPAVFRebuildOptions@@VFString@@@Z @ 7725
?SaveBackBufferToFile@URenderDevice@@UAEXPBGHHHH@Z @ 7726
?SaveGame@UGameEngine@@UAEXH@Z @ 7727
?SaveID3Tag@UStream@@QAEHXZ @ 7728
?SaveMD5Database@UGameEngine@@QAEXXZ @ 7729
?SaveNewPackages@UCacheManager@@QAEXPAVFCacheTracker@@PAVFCacheFileManager@@PBGPBVFString@@@Z @ 7730
?SaveRenderTargetToFile@FRenderInterface@@UAEHPAVFRenderTarget@@PBG@Z @ 7731
?SaveTag@UStreamTag@@IAEHXZ @ 7732
?SaveURLConfig@FURL@@QBEXPBG00@Z @ 7733
?Scale@UBeamEmitter@@UAEXM@Z @ 7734
?Scale@UParticleEmitter@@UAEXM@Z @ 7735
?ScanDirectories@UCacheManager@@AAEXQAVFCacheTracker@@@Z @ 7736
?SceneEnded@ASceneManager@@QAEXXZ @ 7737
?SceneStarted@ASceneManager@@QAEXXZ @ 7738
?ScriptInit@AActor@@UAEXPAVALevelInfo@@@Z @ 7739
?SecureCDKeyHash@UNetConnection@@QAE?AVFString@@XZ @ 7740
?SeePawn@AController@@QAEKPAVAPawn@@H@Z @ 7741
?SeekStream@UAudioSubsystem@@UAEHHM@Z @ 7742
?SelectVertex@ATerrainInfo@@QAEHVFVector@@@Z @ 7743
?SelectVertexX@ATerrainInfo@@QAEHHH@Z @ 7744
?SelectVerticesInBox@ATerrainInfo@@QAEXAAVFBox@@@Z @ 7745
?SendAck@UNetConnection@@UAEXHH@Z @ 7746
?SendBunch@UChannel@@QAEHPAVFOutBunch@@H@Z @ 7747
?SendPackageMap@UNetConnection@@QAEXPAVULevel@@@Z @ 7748
?SendRawBunch@UNetConnection@@QAEHAAVFOutBunch@@H@Z @ 7749
?SendStatusPacket@UVoiceChannel@@QAEXPAUFVoiceInfo@@W4EVoicePacketType@@@Z @ 7750
?SendVoicePacket@UVoiceChannel@@QAEXPAUFVoiceInfo@@@Z @ 7751
?SequenceMemFootprint@UMeshAnimation@@UAEHVFName@@@Z @ 7752
?Serialize@AActor@@UAEXAAVFArchive@@@Z @ 7753
?Serialize@AAmbientLightVolume@@UAEXAAVFArchive@@@Z @ 7754
?Serialize@ATerrainInfo@@UAEXAAVFArchive@@@Z @ 7755
?Serialize@UAnimation@@UAEXAAVFArchive@@@Z @ 7756
?Serialize@UChannelDownload@@UAEXAAVFArchive@@@Z @ 7757
?Serialize@UClient@@UAEXAAVFArchive@@@Z @ 7758
?Serialize@UControlChannel@@UAEXPBGW4EName@@@Z @ 7759
?Serialize@UConvexVolume@@UAEXAAVFArchive@@@Z @ 7760
?Serialize@UDownload@@UAEXAAVFArchive@@@Z @ 7761
?Serialize@UDownloadTexture@@UAEXAAVFArchive@@@Z @ 7762
?Serialize@UEngine@@UAEXAAVFArchive@@@Z @ 7763
?Serialize@UFXFile@@UAEXAAVFArchive@@@Z @ 7764
?Serialize@UFluidSurfacePrimitive@@UAEXAAVFArchive@@@Z @ 7765
?Serialize@UFont@@UAEXAAVFArchive@@@Z @ 7766
?Serialize@UGMFile@@UAEXAAVFArchive@@@Z @ 7767
?Serialize@UGameEngine@@UAEXAAVFArchive@@@Z @ 7768
?Serialize@UIndexBuffer@@UAEXAAVFArchive@@@Z @ 7769
?Serialize@UInput@@UAEXAAVFArchive@@@Z @ 7770
?Serialize@UKMeshProps@@UAEXAAVFArchive@@@Z @ 7771
?Serialize@ULevel@@UAEXAAVFArchive@@@Z @ 7772
?Serialize@ULevelBase@@UAEXAAVFArchive@@@Z @ 7773
?Serialize@ULodMesh@@UAEXAAVFArchive@@@Z @ 7774
?Serialize@ULodMeshInstance@@UAEXAAVFArchive@@@Z @ 7775
?Serialize@UMaterial@@UAEXAAVFArchive@@@Z @ 7776
?Serialize@UMaterialSequence@@UAEXAAVFArchive@@@Z @ 7777
?Serialize@UMesh@@UAEXAAVFArchive@@@Z @ 7778
?Serialize@UMeshAnimation@@UAEXAAVFArchive@@@Z @ 7779
?Serialize@UModel@@UAEXAAVFArchive@@@Z @ 7780
?Serialize@UNetConnection@@UAEXAAVFArchive@@@Z @ 7781
?Serialize@UNetConnection@@UAEXPBGW4EName@@@Z @ 7782
?Serialize@UNetDriver@@UAEXAAVFArchive@@@Z @ 7783
?Serialize@UPackageCheckInfo@@UAEXAAVFArchive@@@Z @ 7784
?Serialize@UPalette@@UAEXAAVFArchive@@@Z @ 7785
?Serialize@UPlayer@@UAEXAAVFArchive@@@Z @ 7786
?Serialize@UPolys@@UAEXAAVFArchive@@@Z @ 7787
?Serialize@UPrimitive@@UAEXAAVFArchive@@@Z @ 7788
?Serialize@UProceduralSound@@UAEXAAVFArchive@@@Z @ 7789
?Serialize@URenderResource@@UAEXAAVFArchive@@@Z @ 7790
?Serialize@USkeletalMesh@@UAEXAAVFArchive@@@Z @ 7791
?Serialize@USkeletalMeshInstance@@UAEXAAVFArchive@@@Z @ 7792
?Serialize@USkinVertexBuffer@@UAEXAAVFArchive@@@Z @ 7793
?Serialize@USound@@UAEXAAVFArchive@@@Z @ 7794
?Serialize@USoundGroup@@UAEXAAVFArchive@@@Z @ 7795
?Serialize@UStaticMesh@@UAEXAAVFArchive@@@Z @ 7796
?Serialize@UStaticMeshInstance@@UAEXAAVFArchive@@@Z @ 7797
?Serialize@UTerrainPrimitive@@UAEXAAVFArchive@@@Z @ 7798
?Serialize@UTerrainSector@@UAEXAAVFArchive@@@Z @ 7799
?Serialize@UTexture@@UAEXAAVFArchive@@@Z @ 7800
?Serialize@UVertMesh@@UAEXAAVFArchive@@@Z @ 7801
?Serialize@UVertMeshInstance@@UAEXAAVFArchive@@@Z @ 7802
?Serialize@UVertexBuffer@@UAEXAAVFArchive@@@Z @ 7803
?Serialize@UVertexStreamBase@@UAEXAAVFArchive@@@Z @ 7804
?Serialize@UVertexStreamCOLOR@@UAEXAAVFArchive@@@Z @ 7805
?Serialize@UVertexStreamPosNormTex@@UAEXAAVFArchive@@@Z @ 7806
?Serialize@UVertexStreamUV@@UAEXAAVFArchive@@@Z @ 7807
?Serialize@UVertexStreamVECTOR@@UAEXAAVFArchive@@@Z @ 7808
?Serialize@UViewport@@UAEXAAVFArchive@@@Z @ 7809
?Serialize@UViewport@@UAEXPBGW4EName@@@Z @ 7810
?Serialize@UVoiceChannel@@UAEXAAVFArchive@@@Z @ 7811
?Serialize@UWMFile@@UAEXAAVFArchive@@@Z @ 7812
?Serialize@UwWeaponManager@@UAEXAAVFArchive@@@Z @ 7813
?Serialize@UwWeaponParams@@UAEXAAVFArchive@@@Z @ 7814
?SerializeObject@UPackageMapLevel@@UAEHAAVFArchive@@PAVUClass@@AAPAVUObject@@@Z @ 7815
?ServerTickClients@ULevel@@UAEHM@Z @ 7816
?ServerUpdateMD5@UGameEngine@@QAEXXZ @ 7817
?SetActor@ULodMeshInstance@@UAEXPAVAActor@@@Z @ 7818
?SetActor@UMeshInstance@@UAEXPAVAActor@@@Z @ 7819
?SetActorCollision@ULevel@@UAEXHH@Z @ 7820
?SetActorDirty@UNetConnection@@QAEXPAVAActor@@@Z @ 7821
?SetAdjust@FTerrainTools@@QAEXH@Z @ 7822
?SetAdjustLocation@AAIController@@UAEXVFVector@@@Z @ 7823
?SetAdjustLocation@AController@@UAEXVFVector@@@Z @ 7824
?SetAllowNatCheckerTick@UNetDriver@@UAEHXZ @ 7825
?SetAllowStartHolePunchingAll@UNetDriver@@UAEHXZ @ 7826
?SetAllowStartHolePunchingOnlyOne@UNetDriver@@UAEHK@Z @ 7827
?SetAmbientGammaFactor@FRenderInterface@@UAEXM@Z @ 7828
?SetAmbientLightCube@FRenderInterface@@UAEXPAUFPlaneAmbientCube@@VFColor@@M@Z @ 7829
?SetAnchor@APawn@@QAEXPAVANavigationPoint@@@Z @ 7830
?SetAnimFrame@UMeshInstance@@UAEXHMH@Z @ 7831
?SetAnimFrame@USkeletalMeshInstance@@UAEXHMH@Z @ 7832
?SetAnimFrame@UVertMeshInstance@@UAEXHMH@Z @ 7833
?SetAnimRate@USkeletalMeshInstance@@QAEXHM@Z @ 7834
?SetAnimSequence@USkeletalMeshInstance@@QAEXHVFName@@@Z @ 7835
?SetAnimTweenStartFrame@USkeletalMeshInstance@@QAEXHM@Z @ 7836
?SetAttachAlias@USkeletalMesh@@QAEHVFName@@0AAVFCoords@@@Z @ 7837
?SetAttachmentLocation@USkeletalMesh@@QAEHPAVAActor@@0@Z @ 7838
?SetBase@AActor@@UAEXPAV1@VFVector@@H@Z @ 7839
?SetBase@APawn@@UAEXPAVAActor@@VFVector@@H@Z @ 7840
?SetBaseBtrInputAliases@UInput@@QAEXXZ @ 7841
?SetBaseDistance@ANavigationPoint@@QAEXHM@Z @ 7842
?SetBaseMaterial@AActor@@UAEXPAVUMaterial@@@Z @ 7843
?SetBlendAlpha@USkeletalMeshInstance@@QAEXHM@Z @ 7844
?SetBlendParams@UMeshInstance@@UAEHHMMMVFName@@H@Z @ 7845
?SetBlendParams@USkeletalMeshInstance@@UAEHHMMMVFName@@H@Z @ 7846
?SetBoneDirection@USkeletalMeshInstance@@QAEHVFName@@VFRotator@@VFVector@@MH@Z @ 7847
?SetBoneLocation@UMeshInstance@@UAEHVFName@@VFVector@@M@Z @ 7848
?SetBoneLocation@USkeletalMeshInstance@@UAEHVFName@@VFVector@@M@Z @ 7849
?SetBoneMatrixs@FRenderInterface@@UAEXAAV?$TArray@VFCoords@@@@HHH@Z @ 7850
?SetBoneRotation@UMeshInstance@@UAEHVFName@@VFRotator@@HM@Z @ 7851
?SetBoneRotation@USkeletalMeshInstance@@UAEHVFName@@VFRotator@@HM@Z @ 7852
?SetBoneScale@UMeshInstance@@UAEHHMVFName@@@Z @ 7853
?SetBoneScale@USkeletalMeshInstance@@UAEHHMVFName@@@Z @ 7854
?SetBrushRaytraceKey@AMover@@UAEXXZ @ 7855
?SetBtrAdvanceTick@UNetConnection@@QAEXXZ @ 7856
?SetBtrTimeOut@UNetConnection@@QAEXMH@Z @ 7857
?SetCapture@FRenderInterface@@UAEXH@Z @ 7858
?SetCaptureQuality@FRenderInterface@@UAEXH@Z @ 7859
?SetCaptureResoultion@FRenderInterface@@UAEXH@Z @ 7860
?SetChannelActor@UActorChannel@@QAEXPAVAActor@@@Z @ 7861
?SetClampedBitmap@AFluidSurfaceInfo@@QAEXHHH@Z @ 7862
?SetClientTravel@UGameEngine@@UAEXPAVUPlayer@@PBGHW4ETravelType@@@Z @ 7863
?SetClip@UCanvas@@UAEXHHHH@Z @ 7864
?SetClosingFlag@UActorChannel@@UAEXXZ @ 7865
?SetClosingFlag@UChannel@@UAEXXZ @ 7866
?SetCollision@AActor@@QAEXHH@Z @ 7867
?SetCollisionSize@AActor@@QAEXMM@Z @ 7868
?SetColorWriteEnable@FRenderInterface@@UAEXHHHH@Z @ 7869
?SetCurrent@FMatineeTools@@QAEPAVASceneManager@@PAVUEngine@@PAVULevel@@PAV2@@Z @ 7870
?SetCurrent@FMatineeTools@@QAEPAVASceneManager@@PAVUEngine@@PAVULevel@@VFString@@@Z @ 7871
?SetCurrent@FRebuildTools@@QAEXVFString@@@Z @ 7872
?SetCurrentAction@FMatineeTools@@QAEPAVUMatAction@@PAV2@@Z @ 7873
?SetCurrentBrush@FTerrainTools@@QAEXH@Z @ 7874
?SetCurrentSubAction@FMatineeTools@@QAEPAVUMatSubAction@@PAV2@@Z @ 7875
?SetCurrentTerrainInfo@FTerrainTools@@QAEXPAVATerrainInfo@@@Z @ 7876
?SetCurrentTime@ASceneManager@@QAEXM@Z @ 7877
?SetData@UGMFile@@QAEXPBVUwGameManager@@@Z @ 7878
?SetData@UWMFile@@QAEXPBVUwWeaponManager@@@Z @ 7879
?SetDiagonalRoll@APawn@@AAEXH@Z @ 7880
?SetDisregardWorldResourcesForFrames@FStreamingManagerCollection@@UAEXH@Z @ 7881
?SetDrag@UViewport@@UAEHH@Z @ 7882
?SetDrawScale3D@AActor@@QAEXVFVector@@@Z @ 7883
?SetDrawScale@AActor@@QAEXM@Z @ 7884
?SetDrawType@AActor@@QAEXW4EDrawType@@@Z @ 7885
?SetDuration@UProceduralSound@@UAEXM@Z @ 7886
?SetDuration@USound@@UAEXM@Z @ 7887
?SetDuration@USoundGroup@@UAEXM@Z @ 7888
?SetDynamicCubeTexture@FRenderInterface@@UAEXPAVFBaseTexture@@@Z @ 7889
?SetEdgeTurnBitmap@ATerrainInfo@@QAEXHHH@Z @ 7890
?SetEmulationMode@UNullRenderDevice@@UAEXW4EHardwareEmulationMode@@@Z @ 7891
?SetErrMsgFromLoadingStep@UBTLoadingState@@QAEXHH@Z @ 7892
?SetError@UBTLoadingAdvancer@@QAEXAAVFString@@@Z @ 7893
?SetEyeDir@FRenderInterface@@UAEXVFVector@@@Z @ 7894
?SetFileType@UProceduralSound@@UAEXVFName@@@Z @ 7895
?SetFileType@USound@@UAEXVFName@@@Z @ 7896
?SetFileType@USoundGroup@@UAEXVFName@@@Z @ 7897
?SetFirstWeaponFocus@FRenderInterface@@UAEXMMM@Z @ 7898
?SetFlashRenderTarget@FRenderInterface@@UAEXPAVFRenderTarget@@@Z @ 7899
?SetFocusDepth@FRenderInterface@@UAEXMMM@Z @ 7900
?SetFocusDepthFar@FRenderInterface@@UAEXM@Z @ 7901
?SetForceEffect@FRenderInterface@@UAEXH@Z @ 7902
?SetGameEngine@UBTLoadingAdvancer@@QAEXPAVUGameEngine@@@Z @ 7903
?SetGameEngine@UBTLoadingState@@QAEXPAVUGameEngine@@@Z @ 7904
?SetGameEngine@UBTMapLoader@@QAEXPAVUGameEngine@@@Z @ 7905
?SetGameEngine@UWebzenShopItemListDownloader@@QAEXPAVUGameEngine@@@Z @ 7906
?SetGammaFactor@FRenderInterface@@UAEXM@Z @ 7907
?SetGraphicOption@ULevel@@UAEXW4EGraphicOption@@H@Z @ 7908
?SetGroundColor@FRenderInterface@@UAEXVFColor@@@Z @ 7909
?SetHandle@UProceduralSound@@UAEXPAX@Z @ 7910
?SetHandle@USound@@UAEXPAX@Z @ 7911
?SetHandle@USoundGroup@@UAEXPAX@Z @ 7912
?SetHeightmap@ATerrainInfo@@QAEXHHG@Z @ 7913
?SetInitialPointColor@UTrailEmitter@@UAE?AVFColor@@V2@@Z @ 7914
?SetInnerRadius@FTerrainTools@@QAEXH@Z @ 7915
?SetInputAction@UInput@@QAEXW4EInputAction@@M@Z @ 7916
?SetInvulnerableColor@FRenderInterface@@UAEXMMM@Z @ 7917
?SetInvulnerableEffect@FRenderInterface@@UAEXHM@Z @ 7918
?SetItemIndex@UItemIterator@@QAEHHH@Z @ 7919
?SetLastUpdateTime@UTexture@@QAEXN@Z @ 7920
?SetLayerAlpha@ATerrainInfo@@QAEXMMHEPAVUTexture@@@Z @ 7921
?SetLinker@UTexture@@UAEXPAVULinkerLoad@@H@Z @ 7922
?SetLockAllSubRenderTarget@FRenderInterface@@UAEXH@Z @ 7923
?SetMesh@ULodMeshInstance@@UAEXPAVUMesh@@@Z @ 7924
?SetMesh@UMeshInstance@@UAEXPAVUMesh@@@Z @ 7925
?SetMesh@USkeletalMeshInstance@@UAEXPAVUMesh@@@Z @ 7926
?SetMirrorAxis@FTerrainTools@@QAEXH@Z @ 7927
?SetNetDriver@ULevel@@QAEHPAVUNetDriver@@AAVFString@@@Z @ 7928
?SetNoSendCloseBunch@UNetDriver@@UAEHXZ @ 7929
?SetNoShadowPawnSunLightColor@FRenderInterface@@UAEXAAVFPlane@@@Z @ 7930
?SetNoShadowSunLightColor@FRenderInterface@@UAEXAAVFPlane@@@Z @ 7931
?SetNumIterationsForNextFrame@FStreamingManagerCollection@@QAEXH@Z @ 7932
?SetOuterRadius@FTerrainTools@@QAEXH@Z @ 7933
?SetOwner@AActor@@QAEXPAV1@@Z @ 7934
?SetPartGroupIndex@UItemIterator@@QAEHHH@Z @ 7935
?SetPartialSize@FAnimMeshVertexStream@@UAEHH@Z @ 7936
?SetParticleTarget@FRenderInterface@@UAEXPAVFRenderTarget@@@Z @ 7937
?SetPath@AController@@QAEPAVAActor@@H@Z @ 7938
?SetPathCollision@FPathBuilder@@AAEXH@Z @ 7939
?SetPawnSunLightColor@FRenderInterface@@UAEXAAVFPlane@@@Z @ 7940
?SetPhraseNatCheckStater@UNetDriver@@UAEHHE@Z @ 7941
?SetPixelShader@FRenderInterface@@UAEXW4EPixelShader@@@Z @ 7942
?SetPixelShaderConstant@FRenderInterface@@UAEXKPBXK@Z @ 7943
?SetPlayer@APlayerController@@QAEXPAVUPlayer@@@Z @ 7944
?SetPolyFlags@UVertexStreamBase@@QAEXK@Z @ 7945
?SetProgress@UEngine@@UAEXPBG00M@Z @ 7946
?SetProgress@UGameEngine@@UAEXPBG00M@Z @ 7947
?SetProjMatrix@FRenderInterface@@UAEXABVFMatrix@@@Z @ 7948
?SetQuadVisibilityBitmap@ATerrainInfo@@QAEXHHH@Z @ 7949
?SetRadiosity@FRenderInterface@@UAEXH@Z @ 7950
?SetRenderTarget@FRenderInterface@@UAEHHPAVFRenderTarget@@@Z @ 7951
?SetRenderingFirstPersonWeapon@FRenderInterface@@UAEXH@Z @ 7952
?SetRes@UNullRenderDevice@@UAEHPAVUViewport@@HHHHH@Z @ 7953
?SetRotationImp2@AActor@@QAE_NABVFRotator@@@Z @ 7954
?SetRotationImp@AActor@@QAEXABVFRotator@@PAX@Z @ 7955
?SetRouteCache@AController@@QAEXPAVANavigationPoint@@MM@Z @ 7956
?SetSamplerState_MAGFILTER@FRenderInterface@@UAEXH@Z @ 7957
?SetSamplerState_MAGFILTER@URenderDevice@@UAEXH@Z @ 7958
?SetSamplerState_MINFILTER@FRenderInterface@@UAEXH@Z @ 7959
?SetSamplerState_MINFILTER@URenderDevice@@UAEXH@Z @ 7960
?SetSamplerState_MIPFILTER@FRenderInterface@@UAEXH@Z @ 7961
?SetSamplerState_MIPFILTER@URenderDevice@@UAEXH@Z @ 7962
?SetScale@UMeshInstance@@UAEXVFVector@@@Z @ 7963
?SetScale@USkeletalMeshInstance@@UAEXVFVector@@@Z @ 7964
?SetScale@UVertMeshInstance@@UAEXVFVector@@@Z @ 7965
?SetSceneStartTime@ASceneManager@@QAEXXZ @ 7966
?SetScissorRect@FRenderInterface@@UAEXHHHH@Z @ 7967
?SetScissorTestEnable@FRenderInterface@@UAEXH@Z @ 7968
?SetScreenLight@UCanvas@@QAEXHABVFVector@@VFColor@@M@Z @ 7969
?SetShadowMap@FRenderInterface@@UAEXPAVFBaseTexture@@PAVFMatrix@@PAM@Z @ 7970
?SetSimpleTextureShader@FRenderInterface@@UAEXH@Z @ 7971
?SetSize@?$TArray@E@@QAEXH@Z @ 7972
?SetSkelAnim@USkeletalMeshInstance@@QAEHPAVUMeshAnimation@@PAVUSkeletalMesh@@@Z @ 7973
?SetSkillIndex@UItemIterator@@QAEHHH@Z @ 7974
?SetSkyColor@FRenderInterface@@UAEXVFColor@@@Z @ 7975
?SetSkyGlowTarget@FRenderInterface@@UAEXPAVFRenderTarget@@@Z @ 7976
?SetSlopeScaleDepthBias@FRenderInterface@@UAEXM@Z @ 7977
?SetStaticMesh@AActor@@QAEXPAVUStaticMesh@@@Z @ 7978
?SetStatus@ULodMeshInstance@@UAEXH@Z @ 7979
?SetStatus@UMeshInstance@@UAEXH@Z @ 7980
?SetStreamingIndex@FStreamingTexture@@QAEXH@Z @ 7981
?SetStrength@FTerrainTools@@QAEXH@Z @ 7982
?SetSunLightAlpha@FRenderInterface@@UAEXM@Z @ 7983
?SetSunLightColor@FRenderInterface@@UAEXAAVFPlane@@@Z @ 7984
?SetSunLightDirection@FRenderInterface@@UAEXAAVFVector@@@Z @ 7985
?SetTcpTickLimitSec@UGameEngine@@UAEXH@Z @ 7986
?SetTechnique@FRenderInterface@@UAEXPBD@Z @ 7987
?SetTexelColor@FLightMapTexture@@QAEXHHVFColor@@@Z @ 7988
?SetTexelColor@UTexture@@QAEXHHVFColor@@@Z @ 7989
?SetTextureColor@ATerrainInfo@@QAEXHHPAVUTexture@@AAVFColor@@@Z @ 7990
?SetTextureInterface@UProxyBitmapMaterial@@QAEXPAVFBaseTexture@@@Z @ 7991
?SetTransientSource@UAudioSubsystem@@UAEXPAVFSoundSource@@@Z @ 7992
?SetTwistLook@APawn@@AAEXHH@Z @ 7993
?SetUseHDR@FRenderInterface@@UAEXH@Z @ 7994
?SetValidated@UFinalBlend@@UAEXH@Z @ 7995
?SetValidated@UMaterial@@UAEXH@Z @ 7996
?SetValidated@UTexModifier@@UAEXH@Z @ 7997
?SetVar@UWebLog@@QAEXVFString@@E@Z @ 7998
?SetViewMatrix@FRenderInterface@@UAEXABVFMatrix@@@Z @ 7999
?SetViewport@UAudioSubsystem@@UAEXPAVUViewport@@@Z @ 8000
?SetViewportOfAudio@UGameEngine@@UAEXPAVUViewport@@@Z @ 8001
?SetVolume@UAudioSubsystem@@QAEHHM@Z @ 8002
?SetVolumes@AActor@@UAEXABV?$TArray@PAVAVolume@@@@@Z @ 8003
?SetVolumes@AActor@@UAEXXZ @ 8004
?SetVolumes@ALevelInfo@@UAEXABV?$TArray@PAVAVolume@@@@@Z @ 8005
?SetVolumes@ALevelInfo@@UAEXXZ @ 8006
?SetVolumes@ANavigationPoint@@UAEXABV?$TArray@PAVAVolume@@@@@Z @ 8007
?SetVolumes@ANavigationPoint@@UAEXXZ @ 8008
?SetVolumes@AVolume@@UAEXABV?$TArray@PAVAVolume@@@@@Z @ 8009
?SetVolumes@AVolume@@UAEXXZ @ 8010
?SetWeaponCustomInfoIndex@UItemIterator@@QAEHHH@Z @ 8011
?SetWeaponCustomPartsIndex@UItemIterator@@QAEHHH@Z @ 8012
?SetWorldRaytraceKey@AMover@@UAEXXZ @ 8013
?SetWorldViewProjMatrix@FRenderInterface@@UAEXABVFMatrix@@@Z @ 8014
?SetZSorted@FRenderInterface@@UAEXH@Z @ 8015
?SetZone@AActor@@UAEXHH@Z @ 8016
?SetZone@ALevelInfo@@UAEXHH@Z @ 8017
?SetZone@APawn@@UAEXHH@Z @ 8018
?SetZone@APhysicsVolume@@UAEXHH@Z @ 8019
?SetZone@AwWeatherEffect@@UAEXHH@Z @ 8020
?SetupForcedPath@AJumpDest@@UAEXPAVAPawn@@PAVUReachSpec@@@Z @ 8021
?SetupForcedPath@ANavigationPoint@@UAEXPAVAPawn@@PAVUReachSpec@@@Z @ 8022
?SetupHShield@UHShieldManager@@QAEHXZ @ 8023
?SetupSectors@ATerrainInfo@@QAEXXZ @ 8024
?SharingVehicleWith@APawn@@UAEHPAV1@@Z @ 8025
?ShouldBeBased@AFlyingPathNode@@UAEHXZ @ 8026
?ShouldBeBased@ANavigationPoint@@UAEHXZ @ 8027
?ShouldTickInEntry@AActor@@UAEHXZ @ 8028
?ShouldTrace@AActor@@UAEHPAV1@K@Z @ 8029
?ShouldTrace@ABlockingVolume@@UAEHPAVAActor@@K@Z @ 8030
?ShouldTrace@AFluidSurfaceInfo@@UAEHPAVAActor@@K@Z @ 8031
?ShouldTrace@AMover@@UAEHPAVAActor@@K@Z @ 8032
?ShouldTrace@APawn@@UAEHPAVAActor@@K@Z @ 8033
?ShouldTrace@AProjector@@UAEHPAVAActor@@K@Z @ 8034
?ShouldTrace@AVolume@@UAEHPAVAActor@@K@Z @ 8035
?ShouldUpdateRelativeLocation@AActor@@UAEHXZ @ 8036
?ShouldUpdateRelativeLocation@APawn@@UAEHXZ @ 8037
?ShowSelf@AController@@QAEXXZ @ 8038
?Shrink@?$TArray@E@@QAEXXZ @ 8039
?ShrinkCollision@AActor@@UAEHPAV1@ABVFVector@@@Z @ 8040
?ShrinkCollision@AProjectile@@UAEHPAVAActor@@ABVFVector@@@Z @ 8041
?ShrinkLevel@ULevel@@UAEXXZ @ 8042
?ShrinkModel@UModel@@QAEXXZ @ 8043
?Shutdown@FRebuildTools@@QAEXXZ @ 8044
?SimpleFillIndexBuffer@AFluidSurfaceInfo@@QAEXPAX@Z @ 8045
?SimpleFillVertexBuffer@AFluidSurfaceInfo@@QAEXPAX@Z @ 8046
?SingleLineCheck@ULevel@@UAEHAAUFCheckResult@@PAVAActor@@ABVFVector@@2KV4@@Z @ 8047
?SingleNodeFilter@FOctreeNode@@QAEXPAVAActor@@PAVFCollisionOctree@@PBVFPlane@@@Z @ 8048
?SinglePointCheck@ULevel@@UAEHAAUFCheckResult@@ABVFVector@@1KPAVALevelInfo@@H@Z @ 8049
?SlaveLocations@FStreamingManagerBase@@1V?$TArray@VFVector@@@@A @ 8050
?SlowAssertValid@UNetConnection@@QAEXXZ @ 8051
?SmoothColors@ATerrainInfo@@QAEXXZ @ 8052
?SmoothDirectionalColors@ATerrainInfo@@QAEXXZ @ 8053
?SmoothHitWall@AActor@@UAEXVFVector@@PAV1@@Z @ 8054
?SmoothHitWall@APawn@@UAEXVFVector@@PAVAActor@@@Z @ 8055
?SoftDeselect@ATerrainInfo@@QAEXXZ @ 8056
?SoftSelect@ATerrainInfo@@QAEXMM@Z @ 8057
?SortSequencesByName@UMeshAnimation@@UAEHXZ @ 8058
?SpawnActor@ULevel@@UAEPAVAActor@@PAVUClass@@VFName@@VFVector@@VFRotator@@PAV2@HH4PAVAPawn@@H@Z @ 8059
?SpawnBrush@ULevel@@UAEPAVABrush@@XZ @ 8060
?SpawnDemoRecSpectator@UDemoRecDriver@@QAEXPAVUNetConnection@@@Z @ 8061
?SpawnParticle@UBeamEmitter@@UAEXHMHHABVFVector@@@Z @ 8062
?SpawnParticle@UParticleEmitter@@UAEXHMHHABVFVector@@@Z @ 8063
?SpawnParticle@USparkEmitter@@UAEXHMHHABVFVector@@@Z @ 8064
?SpawnParticle@UTrailEmitter@@UAEXHMHHABVFVector@@@Z @ 8065
?SpawnParticles@UParticleEmitter@@UAEMMMM@Z @ 8066
?SpawnPlayActor@ULevel@@UAEPAVAPlayerController@@PAVUPlayer@@W4ENetRole@@ABVFURL@@AAVFString@@@Z @ 8067
?SpawnViewActor@ULevel@@UAEXPAVUViewport@@@Z @ 8068
?Spawned@AActor@@UAEXXZ @ 8069
?Spawned@AController@@UAEXXZ @ 8070
?Spawned@AEmitter@@UAEXXZ @ 8071
?Spawned@AFluidSurfaceInfo@@UAEXXZ @ 8072
?Spawned@AKActor@@UAEXXZ @ 8073
?Spawned@AMover@@UAEXXZ @ 8074
?Spawned@ANavigationPoint@@UAEXXZ @ 8075
?Spawned@AwEmitter@@UAEXXZ @ 8076
?Spawned@AwProcMesh@@UAEXXZ @ 8077
?Spawned@AwWeatherEffect@@UAEXXZ @ 8078
?SphereCheck@FConvexVolume@@QAEEABVFSphere@@@Z @ 8079
?SpiderstepUp@APawn@@AAEXVFVector@@0AAUFCheckResult@@@Z @ 8080
?Split@FPoly@@QAEHABVFVector@@0H@Z @ 8081
?SplitInHalf@FPoly@@QAEXPAV1@@Z @ 8082
?SplitWithNode@FPoly@@QBEHPBVUModel@@HPAV1@1H@Z @ 8083
?SplitWithPlane@FPoly@@QBEHABVFVector@@0PAV1@1H@Z @ 8084
?SplitWithPlaneFast@FPoly@@QBEHVFPlane@@PAV1@1@Z @ 8085
?StartAnimPoll@AActor@@UAEXXZ @ 8086
?StartAnimPoll@AController@@UAEXXZ @ 8087
?StartChangeClient@UBTLoadingAdvancer@@QAEHXZ @ 8088
?StartChangeHost@UBTLoadingAdvancer@@QAEHXZ @ 8089
?StartClientLoading@UBTLoadingAdvancer@@QAEHXZ @ 8090
?StartHostLoading@UBTLoadingAdvancer@@QAEHXZ @ 8091
?StartNewSerpentine@APawn@@QAEXVFVector@@0@Z @ 8092
?StartTick@UTickChecker@@UAEHXZ @ 8093
?StartTickCheck@UGameEngine@@QAEXXZ @ 8094
?StaticClass@AAIController@@SAPAVUClass@@XZ @ 8095
?StaticClass@AAIMarker@@SAPAVUClass@@XZ @ 8096
?StaticClass@AAIScript@@SAPAVUClass@@XZ @ 8097
?StaticClass@AActor@@SAPAVUClass@@XZ @ 8098
?StaticClass@AAmbientLightVolume@@SAPAVUClass@@XZ @ 8099
?StaticClass@AAmbientSound@@SAPAVUClass@@XZ @ 8100
?StaticClass@AAmmo@@SAPAVUClass@@XZ @ 8101
?StaticClass@AAnnouncerVoice@@SAPAVUClass@@XZ @ 8102
?StaticClass@AAntiPortalActor@@SAPAVUClass@@XZ @ 8103
?StaticClass@AAutoDoor@@SAPAVUClass@@XZ @ 8104
?StaticClass@AAutoLadder@@SAPAVUClass@@XZ @ 8105
?StaticClass@AAvoidMarker@@SAPAVUClass@@XZ @ 8106
?StaticClass@ABlockingVolume@@SAPAVUClass@@XZ @ 8107
?StaticClass@ABrush@@SAPAVUClass@@XZ @ 8108
?StaticClass@ACamera@@SAPAVUClass@@XZ @ 8109
?StaticClass@AClipMarker@@SAPAVUClass@@XZ @ 8110
?StaticClass@AController@@SAPAVUClass@@XZ @ 8111
?StaticClass@ACubemapVolume@@SAPAVUClass@@XZ @ 8112
?StaticClass@ADamageType@@SAPAVUClass@@XZ @ 8113
?StaticClass@ADecoVolumeObject@@SAPAVUClass@@XZ @ 8114
?StaticClass@ADecoration@@SAPAVUClass@@XZ @ 8115
?StaticClass@ADecorationList@@SAPAVUClass@@XZ @ 8116
?StaticClass@ADefaultPhysicsVolume@@SAPAVUClass@@XZ @ 8117
?StaticClass@ADoor@@SAPAVUClass@@XZ @ 8118
?StaticClass@AEmitter@@SAPAVUClass@@XZ @ 8119
?StaticClass@AFileLog@@SAPAVUClass@@XZ @ 8120
?StaticClass@AFluidSurfaceInfo@@SAPAVUClass@@XZ @ 8121
?StaticClass@AFluidSurfaceOscillator@@SAPAVUClass@@XZ @ 8122
?StaticClass@AFlyingPathNode@@SAPAVUClass@@XZ @ 8123
?StaticClass@AGameInfo@@SAPAVUClass@@XZ @ 8124
?StaticClass@AGameReplicationInfo@@SAPAVUClass@@XZ @ 8125
?StaticClass@AGameStats@@SAPAVUClass@@XZ @ 8126
?StaticClass@AHUD@@SAPAVUClass@@XZ @ 8127
?StaticClass@AHoverPathNode@@SAPAVUClass@@XZ @ 8128
?StaticClass@AInfo@@SAPAVUClass@@XZ @ 8129
?StaticClass@AInternetInfo@@SAPAVUClass@@XZ @ 8130
?StaticClass@AInterpolationPoint@@SAPAVUClass@@XZ @ 8131
?StaticClass@AInventory@@SAPAVUClass@@XZ @ 8132
?StaticClass@AInventoryAttachment@@SAPAVUClass@@XZ @ 8133
?StaticClass@AInventorySpot@@SAPAVUClass@@XZ @ 8134
?StaticClass@AJumpDest@@SAPAVUClass@@XZ @ 8135
?StaticClass@AJumpPad@@SAPAVUClass@@XZ @ 8136
?StaticClass@AKActor@@SAPAVUClass@@XZ @ 8137
?StaticClass@AKBSJoint@@SAPAVUClass@@XZ @ 8138
?StaticClass@AKCarWheelJoint@@SAPAVUClass@@XZ @ 8139
?StaticClass@AKConeLimit@@SAPAVUClass@@XZ @ 8140
?StaticClass@AKConstraint@@SAPAVUClass@@XZ @ 8141
?StaticClass@AKHinge@@SAPAVUClass@@XZ @ 8142
?StaticClass@AKRepulsor@@SAPAVUClass@@XZ @ 8143
?StaticClass@AKTire@@SAPAVUClass@@XZ @ 8144
?StaticClass@AKVehicle@@SAPAVUClass@@XZ @ 8145
?StaticClass@AKeypoint@@SAPAVUClass@@XZ @ 8146
?StaticClass@ALadder@@SAPAVUClass@@XZ @ 8147
?StaticClass@ALadderVolume@@SAPAVUClass@@XZ @ 8148
?StaticClass@ALevelInfo@@SAPAVUClass@@XZ @ 8149
?StaticClass@ALevelLoadingView@@SAPAVUClass@@XZ @ 8150
?StaticClass@ALiftCenter@@SAPAVUClass@@XZ @ 8151
?StaticClass@ALiftExit@@SAPAVUClass@@XZ @ 8152
?StaticClass@ALight@@SAPAVUClass@@XZ @ 8153
?StaticClass@ALineOfSightTrigger@@SAPAVUClass@@XZ @ 8154
?StaticClass@ALinkAntiportalVolume@@SAPAVUClass@@XZ @ 8155
?StaticClass@ALinkedReplicationInfo@@SAPAVUClass@@XZ @ 8156
?StaticClass@ALookTarget@@SAPAVUClass@@XZ @ 8157
?StaticClass@AMaplistManagerBase@@SAPAVUClass@@XZ @ 8158
?StaticClass@AMatDemoActor@@SAPAVUClass@@XZ @ 8159
?StaticClass@AMover@@SAPAVUClass@@XZ @ 8160
?StaticClass@AMutator@@SAPAVUClass@@XZ @ 8161
?StaticClass@ANavigationPoint@@SAPAVUClass@@XZ @ 8162
?StaticClass@ANote@@SAPAVUClass@@XZ @ 8163
?StaticClass@APathNode@@SAPAVUClass@@XZ @ 8164
?StaticClass@APawn@@SAPAVUClass@@XZ @ 8165
?StaticClass@APhysicsVolume@@SAPAVUClass@@XZ @ 8166
?StaticClass@APickup@@SAPAVUClass@@XZ @ 8167
?StaticClass@APlayerChatManager@@SAPAVUClass@@XZ @ 8168
?StaticClass@APlayerController@@SAPAVUClass@@XZ @ 8169
?StaticClass@APlayerReplicationInfo@@SAPAVUClass@@XZ @ 8170
?StaticClass@APlayerStart@@SAPAVUClass@@XZ @ 8171
?StaticClass@APlayerStart_SD@@SAPAVUClass@@XZ @ 8172
?StaticClass@APolyMarker@@SAPAVUClass@@XZ @ 8173
?StaticClass@APotentialClimbWatcher@@SAPAVUClass@@XZ @ 8174
?StaticClass@APowerups@@SAPAVUClass@@XZ @ 8175
?StaticClass@APrecacheHack@@SAPAVUClass@@XZ @ 8176
?StaticClass@AProjectile@@SAPAVUClass@@XZ @ 8177
?StaticClass@AProjector@@SAPAVUClass@@XZ @ 8178
?StaticClass@AReplicationInfo@@SAPAVUClass@@XZ @ 8179
?StaticClass@ARoadPathNode@@SAPAVUClass@@XZ @ 8180
?StaticClass@ASVehicle@@SAPAVUClass@@XZ @ 8181
?StaticClass@ASVehicleFactory@@SAPAVUClass@@XZ @ 8182
?StaticClass@ASVehicleTrigger@@SAPAVUClass@@XZ @ 8183
?StaticClass@ASavedMove@@SAPAVUClass@@XZ @ 8184
?StaticClass@ASceneManager@@SAPAVUClass@@XZ @ 8185
?StaticClass@ASceneSubtitles@@SAPAVUClass@@XZ @ 8186
?StaticClass@AScout@@SAPAVUClass@@XZ @ 8187
?StaticClass@ASecurity@@SAPAVUClass@@XZ @ 8188
?StaticClass@ASkyZoneInfo@@SAPAVUClass@@XZ @ 8189
?StaticClass@ASmallNavigationPoint@@SAPAVUClass@@XZ @ 8190
?StaticClass@AStaticMeshActor@@SAPAVUClass@@XZ @ 8191
?StaticClass@ATeamInfo@@SAPAVUClass@@XZ @ 8192
?StaticClass@ATeleporter@@SAPAVUClass@@XZ @ 8193
?StaticClass@ATerrainInfo@@SAPAVUClass@@XZ @ 8194
?StaticClass@ATonemappingVolume@@SAPAVUClass@@XZ @ 8195
?StaticClass@ATrigger@@SAPAVUClass@@XZ @ 8196
?StaticClass@ATriggers@@SAPAVUClass@@XZ @ 8197
?StaticClass@AVehicle@@SAPAVUClass@@XZ @ 8198
?StaticClass@AVehiclePart@@SAPAVUClass@@XZ @ 8199
?StaticClass@AVertMeshActor@@SAPAVUClass@@XZ @ 8200
?StaticClass@AVignette@@SAPAVUClass@@XZ @ 8201
?StaticClass@AVoiceChatReplicationInfo@@SAPAVUClass@@XZ @ 8202
?StaticClass@AVoiceChatRoom@@SAPAVUClass@@XZ @ 8203
?StaticClass@AVolume@@SAPAVUClass@@XZ @ 8204
?StaticClass@AWarpZoneInfo@@SAPAVUClass@@XZ @ 8205
?StaticClass@AWarpZoneMarker@@SAPAVUClass@@XZ @ 8206
?StaticClass@AWeaponAttachment@@SAPAVUClass@@XZ @ 8207
?StaticClass@AZoneInfo@@SAPAVUClass@@XZ @ 8208
?StaticClass@AwAILevelBase@@SAPAVUClass@@XZ @ 8209
?StaticClass@AwAmmunition@@SAPAVUClass@@XZ @ 8210
?StaticClass@AwArrangeTurret@@SAPAVUClass@@XZ @ 8211
?StaticClass@AwEmitter@@SAPAVUClass@@XZ @ 8212
?StaticClass@AwGameStateStorageSender@@SAPAVUClass@@XZ @ 8213
?StaticClass@AwPickUpBase@@SAPAVUClass@@XZ @ 8214
?StaticClass@AwProcMesh@@SAPAVUClass@@XZ @ 8215
?StaticClass@AwWeapon@@SAPAVUClass@@XZ @ 8216
?StaticClass@AwWeaponPickup@@SAPAVUClass@@XZ @ 8217
?StaticClass@AwWeatherEffect@@SAPAVUClass@@XZ @ 8218
?StaticClass@UActionMoveCamera@@SAPAVUClass@@XZ @ 8219
?StaticClass@UActionPause@@SAPAVUClass@@XZ @ 8220
?StaticClass@UActorChannel@@SAPAVUClass@@XZ @ 8221
?StaticClass@UAdminBase@@SAPAVUClass@@XZ @ 8222
?StaticClass@UAnimNotify@@SAPAVUClass@@XZ @ 8223
?StaticClass@UAnimNotify_DestroyEffect@@SAPAVUClass@@XZ @ 8224
?StaticClass@UAnimNotify_Effect@@SAPAVUClass@@XZ @ 8225
?StaticClass@UAnimNotify_LIPSinc@@SAPAVUClass@@XZ @ 8226
?StaticClass@UAnimNotify_MatSubAction@@SAPAVUClass@@XZ @ 8227
?StaticClass@UAnimNotify_Script@@SAPAVUClass@@XZ @ 8228
?StaticClass@UAnimNotify_Scripted@@SAPAVUClass@@XZ @ 8229
?StaticClass@UAnimNotify_Sound@@SAPAVUClass@@XZ @ 8230
?StaticClass@UAnimation@@SAPAVUClass@@XZ @ 8231
?StaticClass@UAudioSubsystem@@SAPAVUClass@@XZ @ 8232
?StaticClass@UBTLoadingAdvancer@@SAPAVUClass@@XZ @ 8233
?StaticClass@UBTLoadingState@@SAPAVUClass@@XZ @ 8234
?StaticClass@UBTMapLoader@@SAPAVUClass@@XZ @ 8235
?StaticClass@UBTNetInterface@@SAPAVUClass@@XZ @ 8236
?StaticClass@UBTPingChecker@@SAPAVUClass@@XZ @ 8237
?StaticClass@UBTPingCheckerLinker@@SAPAVUClass@@XZ @ 8238
?StaticClass@UBTTcpLink_Channel_DS@@SAPAVUClass@@XZ @ 8239
?StaticClass@UBTTcpLink_DStoDP_DS@@SAPAVUClass@@XZ @ 8240
?StaticClass@UBaseGUIController@@SAPAVUClass@@XZ @ 8241
?StaticClass@UBeamEmitter@@SAPAVUClass@@XZ @ 8242
?StaticClass@UBitmapMaterial@@SAPAVUClass@@XZ @ 8243
?StaticClass@UBlackWhite@@SAPAVUClass@@XZ @ 8244
?StaticClass@UBlendShader@@SAPAVUClass@@XZ @ 8245
?StaticClass@UBtrTraceResult@@SAPAVUClass@@XZ @ 8246
?StaticClass@UByteArray@@SAPAVUClass@@XZ @ 8247
?StaticClass@UCacheManager@@SAPAVUClass@@XZ @ 8248
?StaticClass@UCameraEffect@@SAPAVUClass@@XZ @ 8249
?StaticClass@UCameraOverlay@@SAPAVUClass@@XZ @ 8250
?StaticClass@UCanvas@@SAPAVUClass@@XZ @ 8251
?StaticClass@UCascadedShadowMaps@@SAPAVUClass@@XZ @ 8252
?StaticClass@UChannel@@SAPAVUClass@@XZ @ 8253
?StaticClass@UChannelDownload@@SAPAVUClass@@XZ @ 8254
?StaticClass@UCheatManager@@SAPAVUClass@@XZ @ 8255
?StaticClass@UClient@@SAPAVUClass@@XZ @ 8256
?StaticClass@UColorModifier@@SAPAVUClass@@XZ @ 8257
?StaticClass@UCombiner@@SAPAVUClass@@XZ @ 8258
?StaticClass@UConsole@@SAPAVUClass@@XZ @ 8259
?StaticClass@UConstantColor@@SAPAVUClass@@XZ @ 8260
?StaticClass@UConstantMaterial@@SAPAVUClass@@XZ @ 8261
?StaticClass@UControlChannel@@SAPAVUClass@@XZ @ 8262
?StaticClass@UConvexVolume@@SAPAVUClass@@XZ @ 8263
?StaticClass@UCrosshairPack@@SAPAVUClass@@XZ @ 8264
?StaticClass@UCubemap@@SAPAVUClass@@XZ @ 8265
?StaticClass@UDOFEffect@@SAPAVUClass@@XZ @ 8266
?StaticClass@UDecalShader@@SAPAVUClass@@XZ @ 8267
?StaticClass@UDemoRecConnection@@SAPAVUClass@@XZ @ 8268
?StaticClass@UDemoRecDriver@@SAPAVUClass@@XZ @ 8269
?StaticClass@UDistortEmitter@@SAPAVUClass@@XZ @ 8270
?StaticClass@UDownload@@SAPAVUClass@@XZ @ 8271
?StaticClass@UDownloadTexture@@SAPAVUClass@@XZ @ 8272
?StaticClass@UDripEffect@@SAPAVUClass@@XZ @ 8273
?StaticClass@UEngine@@SAPAVUClass@@XZ @ 8274
?StaticClass@UFXFile@@SAPAVUClass@@XZ @ 8275
?StaticClass@UFadeBlackWhite@@SAPAVUClass@@XZ @ 8276
?StaticClass@UFadeColor@@SAPAVUClass@@XZ @ 8277
?StaticClass@UFileChannel@@SAPAVUClass@@XZ @ 8278
?StaticClass@UFinalBlend@@SAPAVUClass@@XZ @ 8279
?StaticClass@UFinalEffect@@SAPAVUClass@@XZ @ 8280
?StaticClass@UFluidSurfacePrimitive@@SAPAVUClass@@XZ @ 8281
?StaticClass@UFont@@SAPAVUClass@@XZ @ 8282
?StaticClass@UGMFile@@SAPAVUClass@@XZ @ 8283
?StaticClass@UGameEngine@@SAPAVUClass@@XZ @ 8284
?StaticClass@UGameProfile@@SAPAVUClass@@XZ @ 8285
?StaticClass@UGlowEffect@@SAPAVUClass@@XZ @ 8286
?StaticClass@UHardwareShader@@SAPAVUClass@@XZ @ 8287
?StaticClass@UI3DL2Listener@@SAPAVUClass@@XZ @ 8288
?StaticClass@UIndexBuffer@@SAPAVUClass@@XZ @ 8289
?StaticClass@UInput@@SAPAVUClass@@XZ @ 8290
?StaticClass@UInteraction@@SAPAVUClass@@XZ @ 8291
?StaticClass@UInteractionMaster@@SAPAVUClass@@XZ @ 8292
?StaticClass@UInteractions@@SAPAVUClass@@XZ @ 8293
?StaticClass@UItemIterator@@SAPAVUClass@@XZ @ 8294
?StaticClass@UKMeshProps@@SAPAVUClass@@XZ @ 8295
?StaticClass@UKarmaParams@@SAPAVUClass@@XZ @ 8296
?StaticClass@UKarmaParamsCollision@@SAPAVUClass@@XZ @ 8297
?StaticClass@UKarmaParamsRBFull@@SAPAVUClass@@XZ @ 8298
?StaticClass@UKarmaParamsSkel@@SAPAVUClass@@XZ @ 8299
?StaticClass@ULevel@@SAPAVUClass@@XZ @ 8300
?StaticClass@ULevelBase@@SAPAVUClass@@XZ @ 8301
?StaticClass@ULevelSummary@@SAPAVUClass@@XZ @ 8302
?StaticClass@ULodMesh@@SAPAVUClass@@XZ @ 8303
?StaticClass@ULodMeshInstance@@SAPAVUClass@@XZ @ 8304
?StaticClass@ULogEntry@@SAPAVUClass@@XZ @ 8305
?StaticClass@UManifest@@SAPAVUClass@@XZ @ 8306
?StaticClass@UMatAction@@SAPAVUClass@@XZ @ 8307
?StaticClass@UMatObject@@SAPAVUClass@@XZ @ 8308
?StaticClass@UMatSubAction@@SAPAVUClass@@XZ @ 8309
?StaticClass@UMaterial@@SAPAVUClass@@XZ @ 8310
?StaticClass@UMaterialSequence@@SAPAVUClass@@XZ @ 8311
?StaticClass@UMaterialSwitch@@SAPAVUClass@@XZ @ 8312
?StaticClass@UMesh@@SAPAVUClass@@XZ @ 8313
?StaticClass@UMeshAnimation@@SAPAVUClass@@XZ @ 8314
?StaticClass@UMeshEmitter@@SAPAVUClass@@XZ @ 8315
?StaticClass@UMeshInstance@@SAPAVUClass@@XZ @ 8316
?StaticClass@UMeshObject@@SAPAVUClass@@XZ @ 8317
?StaticClass@UModel@@SAPAVUClass@@XZ @ 8318
?StaticClass@UModifier@@SAPAVUClass@@XZ @ 8319
?StaticClass@UMotionBlur@@SAPAVUClass@@XZ @ 8320
?StaticClass@UMotionBlurEffect@@SAPAVUClass@@XZ @ 8321
?StaticClass@UNetConnection@@SAPAVUClass@@XZ @ 8322
?StaticClass@UNetDriver@@SAPAVUClass@@XZ @ 8323
?StaticClass@UNullRenderDevice@@SAPAVUClass@@XZ @ 8324
?StaticClass@UObjectPool@@SAPAVUClass@@XZ @ 8325
?StaticClass@UOpacityModifier@@SAPAVUClass@@XZ @ 8326
?StaticClass@UPackageCheckInfo@@SAPAVUClass@@XZ @ 8327
?StaticClass@UPackageMapLevel@@SAPAVUClass@@XZ @ 8328
?StaticClass@UPalette@@SAPAVUClass@@XZ @ 8329
?StaticClass@UParticleEmitter@@SAPAVUClass@@XZ @ 8330
?StaticClass@UParticleMaterial@@SAPAVUClass@@XZ @ 8331
?StaticClass@UPlayInfo@@SAPAVUClass@@XZ @ 8332
?StaticClass@UPlayer@@SAPAVUClass@@XZ @ 8333
?StaticClass@UPlayerInput@@SAPAVUClass@@XZ @ 8334
?StaticClass@UPolys@@SAPAVUClass@@XZ @ 8335
?StaticClass@UPostProcessEffect@@SAPAVUClass@@XZ @ 8336
?StaticClass@UPrimitive@@SAPAVUClass@@XZ @ 8337
?StaticClass@UProceduralSound@@SAPAVUClass@@XZ @ 8338
?StaticClass@UProjectorMaterial@@SAPAVUClass@@XZ @ 8339
?StaticClass@UProjectorPrimitive@@SAPAVUClass@@XZ @ 8340
?StaticClass@UProxyBitmapMaterial@@SAPAVUClass@@XZ @ 8341
?StaticClass@UReachSpec@@SAPAVUClass@@XZ @ 8342
?StaticClass@URenderDevice@@SAPAVUClass@@XZ @ 8343
?StaticClass@URenderResource@@SAPAVUClass@@XZ @ 8344
?StaticClass@URenderedMaterial@@SAPAVUClass@@XZ @ 8345
?StaticClass@USSAOEffect@@SAPAVUClass@@XZ @ 8346
?StaticClass@USVehicleWheel@@SAPAVUClass@@XZ @ 8347
?StaticClass@UScriptedTexture@@SAPAVUClass@@XZ @ 8348
?StaticClass@UShader@@SAPAVUClass@@XZ @ 8349
?StaticClass@UShadowBitmapMaterial@@SAPAVUClass@@XZ @ 8350
?StaticClass@USkeletalMesh@@SAPAVUClass@@XZ @ 8351
?StaticClass@USkeletalMeshInstance@@SAPAVUClass@@XZ @ 8352
?StaticClass@USkinVertexBuffer@@SAPAVUClass@@XZ @ 8353
?StaticClass@USound@@SAPAVUClass@@XZ @ 8354
?StaticClass@USoundGroup@@SAPAVUClass@@XZ @ 8355
?StaticClass@USparkEmitter@@SAPAVUClass@@XZ @ 8356
?StaticClass@USpline@@SAPAVUClass@@XZ @ 8357
?StaticClass@USpriteEmitter@@SAPAVUClass@@XZ @ 8358
?StaticClass@UStaticMesh@@SAPAVUClass@@XZ @ 8359
?StaticClass@UStaticMeshInstance@@SAPAVUClass@@XZ @ 8360
?StaticClass@UStream@@SAPAVUClass@@XZ @ 8361
?StaticClass@UStreamBase@@SAPAVUClass@@XZ @ 8362
?StaticClass@UStreamInteraction@@SAPAVUClass@@XZ @ 8363
?StaticClass@UStreamInterface@@SAPAVUClass@@XZ @ 8364
?StaticClass@UStreamTag@@SAPAVUClass@@XZ @ 8365
?StaticClass@USubActionCameraEffect@@SAPAVUClass@@XZ @ 8366
?StaticClass@USubActionCameraShake@@SAPAVUClass@@XZ @ 8367
?StaticClass@USubActionFOV@@SAPAVUClass@@XZ @ 8368
?StaticClass@USubActionFade@@SAPAVUClass@@XZ @ 8369
?StaticClass@USubActionGameSpeed@@SAPAVUClass@@XZ @ 8370
?StaticClass@USubActionOrientation@@SAPAVUClass@@XZ @ 8371
?StaticClass@USubActionSceneSpeed@@SAPAVUClass@@XZ @ 8372
?StaticClass@USubActionSubTitle@@SAPAVUClass@@XZ @ 8373
?StaticClass@USubActionTrigger@@SAPAVUClass@@XZ @ 8374
?StaticClass@UTerrainMaterial@@SAPAVUClass@@XZ @ 8375
?StaticClass@UTerrainPrimitive@@SAPAVUClass@@XZ @ 8376
?StaticClass@UTerrainSector@@SAPAVUClass@@XZ @ 8377
?StaticClass@UTexCoordMaterial@@SAPAVUClass@@XZ @ 8378
?StaticClass@UTexCoordSource@@SAPAVUClass@@XZ @ 8379
?StaticClass@UTexEnvMap@@SAPAVUClass@@XZ @ 8380
?StaticClass@UTexMatrix@@SAPAVUClass@@XZ @ 8381
?StaticClass@UTexModifier@@SAPAVUClass@@XZ @ 8382
?StaticClass@UTexOscillator@@SAPAVUClass@@XZ @ 8383
?StaticClass@UTexOscillatorTriggered@@SAPAVUClass@@XZ @ 8384
?StaticClass@UTexPanner@@SAPAVUClass@@XZ @ 8385
?StaticClass@UTexPannerTriggered@@SAPAVUClass@@XZ @ 8386
?StaticClass@UTexRotator@@SAPAVUClass@@XZ @ 8387
?StaticClass@UTexScaler@@SAPAVUClass@@XZ @ 8388
?StaticClass@UTextToSpeechAlias@@SAPAVUClass@@XZ @ 8389
?StaticClass@UTexture@@SAPAVUClass@@XZ @ 8390
?StaticClass@UTickChecker@@SAPAVUClass@@XZ @ 8391
?StaticClass@UTrailEmitter@@SAPAVUClass@@XZ @ 8392
?StaticClass@UUserzoneInfo@@SAPAVUClass@@XZ @ 8393
?StaticClass@UVariableTexPanner@@SAPAVUClass@@XZ @ 8394
?StaticClass@UVertMesh@@SAPAVUClass@@XZ @ 8395
?StaticClass@UVertMeshInstance@@SAPAVUClass@@XZ @ 8396
?StaticClass@UVertexBuffer@@SAPAVUClass@@XZ @ 8397
?StaticClass@UVertexColor@@SAPAVUClass@@XZ @ 8398
?StaticClass@UVertexStreamBase@@SAPAVUClass@@XZ @ 8399
?StaticClass@UVertexStreamCOLOR@@SAPAVUClass@@XZ @ 8400
?StaticClass@UVertexStreamPosNormTex@@SAPAVUClass@@XZ @ 8401
?StaticClass@UVertexStreamUV@@SAPAVUClass@@XZ @ 8402
?StaticClass@UVertexStreamVECTOR@@SAPAVUClass@@XZ @ 8403
?StaticClass@UViewport@@SAPAVUClass@@XZ @ 8404
?StaticClass@UVisibilityItem@@SAPAVUClass@@XZ @ 8405
?StaticClass@UVisibilityItemArray@@SAPAVUClass@@XZ @ 8406
?StaticClass@UVoiceChannel@@SAPAVUClass@@XZ @ 8407
?StaticClass@UWMFile@@SAPAVUClass@@XZ @ 8408
?StaticClass@UWebLog@@SAPAVUClass@@XZ @ 8409
?StaticClass@UWebzenShopItemListDownloader@@SAPAVUClass@@XZ @ 8410
?StaticClass@UwBTLoadingScreenDrawer@@SAPAVUClass@@XZ @ 8411
?StaticClass@UwBtrIni@@SAPAVUClass@@XZ @ 8412
?StaticClass@UwCharacterManager@@SAPAVUClass@@XZ @ 8413
?StaticClass@UwClanLevelInfoParam@@SAPAVUClass@@XZ @ 8414
?StaticClass@UwClanMarkParam@@SAPAVUClass@@XZ @ 8415
?StaticClass@UwDailyQuestParam@@SAPAVUClass@@XZ @ 8416
?StaticClass@UwDefenceGameParam@@SAPAVUClass@@XZ @ 8417
?StaticClass@UwGameManager@@SAPAVUClass@@XZ @ 8418
?StaticClass@UwInstantFire@@SAPAVUClass@@XZ @ 8419
?StaticClass@UwInventory@@SAPAVUClass@@XZ @ 8420
?StaticClass@UwItemBaseParam@@SAPAVUClass@@XZ @ 8421
?StaticClass@UwItemBoxParam@@SAPAVUClass@@XZ @ 8422
?StaticClass@UwItemResourceParam@@SAPAVUClass@@XZ @ 8423
?StaticClass@UwLevelInfoParam@@SAPAVUClass@@XZ @ 8424
?StaticClass@UwMapInfo@@SAPAVUClass@@XZ @ 8425
?StaticClass@UwMatchMaker@@SAPAVUClass@@XZ @ 8426
?StaticClass@UwModeDOAParam@@SAPAVUClass@@XZ @ 8427
?StaticClass@UwMyPlayerStatus@@SAPAVUClass@@XZ @ 8428
?StaticClass@UwNPCActionGroupParam@@SAPAVUClass@@XZ @ 8429
?StaticClass@UwNPCItemGroupParam@@SAPAVUClass@@XZ @ 8430
?StaticClass@UwNPCNameGroupParam@@SAPAVUClass@@XZ @ 8431
?StaticClass@UwNPCParam@@SAPAVUClass@@XZ @ 8432
?StaticClass@UwNPCSpawnParam@@SAPAVUClass@@XZ @ 8433
?StaticClass@UwPaintGroupParam@@SAPAVUClass@@XZ @ 8434
?StaticClass@UwPartsGroupParam@@SAPAVUClass@@XZ @ 8435
?StaticClass@UwPromotionParam@@SAPAVUClass@@XZ @ 8436
?StaticClass@UwQuestParam@@SAPAVUClass@@XZ @ 8437
?StaticClass@UwRandBoxParam@@SAPAVUClass@@XZ @ 8438
?StaticClass@UwSkillBaseParam@@SAPAVUClass@@XZ @ 8439
?StaticClass@UwSkills@@SAPAVUClass@@XZ @ 8440
?StaticClass@UwWeaponBaseParams@@SAPAVUClass@@XZ @ 8441
?StaticClass@UwWeaponCustomInfoParam@@SAPAVUClass@@XZ @ 8442
?StaticClass@UwWeaponCustomPartsParam@@SAPAVUClass@@XZ @ 8443
?StaticClass@UwWeaponFire@@SAPAVUClass@@XZ @ 8444
?StaticClass@UwWeaponManager@@SAPAVUClass@@XZ @ 8445
?StaticClass@UwWeaponParams@@SAPAVUClass@@XZ @ 8446
?StaticConfigName@UInput@@KAPBGXZ @ 8447
?StaticConfigName@UNetConnection@@SAPBGXZ @ 8448
?StaticConfigName@UViewport@@SAPBGXZ @ 8449
?StaticConstructor@UActorChannel@@QAEXXZ @ 8450
?StaticConstructor@UAudioSubsystem@@QAEXXZ @ 8451
?StaticConstructor@UChannelDownload@@QAEXXZ @ 8452
?StaticConstructor@UClient@@QAEXXZ @ 8453
?StaticConstructor@UControlChannel@@QAEXXZ @ 8454
?StaticConstructor@UDemoRecConnection@@QAEXXZ @ 8455
?StaticConstructor@UDemoRecDriver@@QAEXXZ @ 8456
?StaticConstructor@UDownload@@QAEXXZ @ 8457
?StaticConstructor@UEngine@@QAEXXZ @ 8458
?StaticConstructor@UFileChannel@@QAEXXZ @ 8459
?StaticConstructor@UInput@@QAEXXZ @ 8460
?StaticConstructor@UNetDriver@@QAEXXZ @ 8461
?StaticConstructor@UNullRenderDevice@@QAEXXZ @ 8462
?StaticConstructor@URenderDevice@@QAEXXZ @ 8463
?StaticConstructor@UStaticMesh@@QAEXXZ @ 8464
?StaticConstructor@UVoiceChannel@@QAEXXZ @ 8465
?StaticExit@FURL@@SAXXZ @ 8466
?StaticInit@FURL@@SAXXZ @ 8467
?StaticInitInput@UInput@@SAXXZ @ 8468
?StaticLight@UTerrainSector@@QAEXH@Z @ 8469
?SteerVehicle@AVehicle@@QAEXVFVector@@@Z @ 8470
?Stop@FSoundSource@@UAEXXZ @ 8471
?StopAllMusic@UAudioSubsystem@@QAEXM@Z @ 8472
?StopAllMusicAndClearQueue@UAudioSubsystem@@QAEXM@Z @ 8473
?StopAllSounds@UAudioSubsystem@@QAEXXZ @ 8474
?StopAllSoundsByActor@UAudioSubsystem@@QAEXPAVAActor@@@Z @ 8475
?StopAllSoundsByActorIndex@UAudioSubsystem@@QAEXH@Z @ 8476
?StopAnim@AActor@@UAEH_N@Z @ 8477
?StopAnimating@UMeshInstance@@UAEHXZ @ 8478
?StopAnimating@USkeletalMeshInstance@@QAEHH@Z @ 8479
?StopAnimating@UVertMeshInstance@@UAEHXZ @ 8480
?StopAtLedge@AController@@UAEHXZ @ 8481
?StopAtLedge@APlayerController@@UAEHXZ @ 8482
?StopLoopSoundsByActor@UAudioSubsystem@@QAEXPAVAActor@@@Z @ 8483
?StopMedia@UGameEngine@@UAEXXZ @ 8484
?StopSound@UAudioSubsystem@@QAEXH@Z @ 8485
?StopSoundHK@UAudioSubsystem@@UAEHH@Z @ 8486
?StopStream@UAudioSubsystem@@QAEXHM@Z @ 8487
?StoreActor@FOctreeNode@@AAEXPAVAActor@@PAVFCollisionOctree@@PBVFPlane@@@Z @ 8488
?StraightenBezierHandles@ASceneManager@@QAEXXZ @ 8489
?StraightenBezierHandles@UMatAction@@QAEXPAVASceneManager@@@Z @ 8490
?StreamOutTextureData@FStreamingManagerBase@@UAEHH@Z @ 8491
?StreamOutTextureData@FStreamingManagerCollection@@UAEHH@Z @ 8492
?StreamOutTextureData@FStreamingManagerTexture@@UAEHH@Z @ 8493
?StretchRenderTarget@FRenderInterface@@UAEHPAVFRenderTarget@@0@Z @ 8494
?StretchRenderTarget@FRenderInterface@@UAEHPAVFRenderTarget@@HHHHHHHH@Z @ 8495
?StretchSkyGlowTarget@FRenderInterface@@UAEHPAVFRenderTarget@@@Z @ 8496
?String@FURL@@QBE?AVFString@@HH@Z @ 8497
?Stripify@FRawIndexBuffer@@UAEHXZ @ 8498
?SuggestFallVelocity@AActor@@QAE?AVFVector@@V2@0MMMM@Z @ 8499
?SuggestJumpVelocity@APawn@@QAE?AVFVector@@V2@MM@Z @ 8500
?SupportHWShadowMap@URenderDevice@@UAEHXZ @ 8501
?SupportMRT@URenderDevice@@UAEHXZ @ 8502
?SupportsTextureFormat@UNullRenderDevice@@UAEHW4ETextureFormat@@@Z @ 8503
?SupportsTextureFormat@URenderDevice@@UAEHW4ETextureFormat@@@Z @ 8504
?Swim@APawn@@AAEMVFVector@@AAUFCheckResult@@@Z @ 8505
?TestCanSeeMe@AActor@@QAEHPAVAPlayerController@@@Z @ 8506
?TestMakeTBStream@USkeletalMesh@@QAEXXZ @ 8507
?TestReach@FPathBuilder@@AAEHVFVector@@0@Z @ 8508
?TestSunlightVisibility@AAmbientLightVolume@@QAEXM@Z @ 8509
?TestVisibilitySunLight@UModel@@UAEXPAVAActor@@@Z @ 8510
?TestVisibilitySunLight@UPrimitive@@UAEXPAVAActor@@@Z @ 8511
?TestVisibilitySunLight@UStaticMesh@@UAEXPAVAActor@@@Z @ 8512
?TestVisibilitySunLight_UseVertexColor@UStaticMesh@@QAEXPAVAActor@@@Z @ 8513
?TestWalk@FPathBuilder@@AAEHVFVector@@UFCheckResult@@M@Z @ 8514
?TexelTo3DPos@UModel@@QAE?AVFVector@@MMPAUFBspVertex@@HHH@Z @ 8515
?TexelTo3DPos@UStaticMesh@@QAE?AVFVector@@MMGGGAAV2@00@Z @ 8516
?TextToSpeech@AActor@@QAEXABVFString@@M@Z @ 8517
?TextToSpeech@UViewport@@UAEXABVFString@@M@Z @ 8518
?Tick@AActor@@UAEHMW4ELevelTick@@@Z @ 8519
?Tick@AAmbientSound@@UAEHMW4ELevelTick@@@Z @ 8520
?Tick@AController@@UAEHMW4ELevelTick@@@Z @ 8521
?Tick@AEmitter@@UAEHMW4ELevelTick@@@Z @ 8522
?Tick@AFluidSurfaceInfo@@UAEHMW4ELevelTick@@@Z @ 8523
?Tick@APlayerController@@UAEHMW4ELevelTick@@@Z @ 8524
?Tick@ASceneManager@@UAEHMW4ELevelTick@@@Z @ 8525
?Tick@AVehicle@@UAEHMW4ELevelTick@@@Z @ 8526
?Tick@AwEmitter@@UAEHMW4ELevelTick@@@Z @ 8527
?Tick@AwProcMesh@@UAEHMW4ELevelTick@@@Z @ 8528
?Tick@AwWeatherEffect@@UAEHMW4ELevelTick@@@Z @ 8529
?Tick@FCollisionHash@@UAEXXZ @ 8530
?Tick@FCollisionOctree@@UAEXXZ @ 8531
?Tick@UActorChannel@@UAEXXZ @ 8532
?Tick@UBTLoadingAdvancer@@QAEHM@Z @ 8533
?Tick@UChannel@@UAEXXZ @ 8534
?Tick@UDownload@@UAEXXZ @ 8535
?Tick@UFileChannel@@UAEXXZ @ 8536
?Tick@UGameEngine@@UAEXM@Z @ 8537
?Tick@ULevel@@UAEXW4ELevelTick@@M@Z @ 8538
?Tick@UNetConnection@@UAEXXZ @ 8539
?Tick@UTexture@@UAEXM@Z @ 8540
?TickAuthoritative@AActor@@UAEXM@Z @ 8541
?TickAuthoritative@AKVehicle@@UAEXM@Z @ 8542
?TickAuthoritative@ALineOfSightTrigger@@UAEXM@Z @ 8543
?TickAuthoritative@ASVehicle@@UAEXM@Z @ 8544
?TickAuthoritative@AwWeapon@@UAEXM@Z @ 8545
?TickCheckPing@UBTPingChecker@@QAEHXZ @ 8546
?TickDemoPlayback@ULevel@@UAEHM@Z @ 8547
?TickDemoRecord@ULevel@@UAEHM@Z @ 8548
?TickDispatch@UDemoRecDriver@@UAEXM@Z @ 8549
?TickDispatch@UNetDriver@@UAEXM@Z @ 8550
?TickFlush@UNetDriver@@UAEXXZ @ 8551
?TickNetClient@ULevel@@UAEXM@Z @ 8552
?TickNetServer@ULevel@@UAEXM@Z @ 8553
?TickSimulated@AActor@@UAEXM@Z @ 8554
?TickSimulated@AKVehicle@@UAEXM@Z @ 8555
?TickSimulated@APawn@@UAEXM@Z @ 8556
?TickSimulated@ASVehicle@@UAEXM@Z @ 8557
?TickSkeletalPhysics@UMeshInstance@@UAE_NM@Z @ 8558
?TickSpecial@AActor@@UAEXM@Z @ 8559
?TickSpecial@APawn@@UAEXM@Z @ 8560
?TickSpecial@AProjector@@UAEXM@Z @ 8561
?ToFloor@ULevel@@QAEHPAVAActor@@H0@Z @ 8562
?ToLocal@AActor@@UBE?AVFCoords@@XZ @ 8563
?ToLocal@ABrush@@UBE?AVFCoords@@XZ @ 8564
?ToWorld@AActor@@UBE?AVFCoords@@XZ @ 8565
?ToWorld@ABrush@@UBE?AVFCoords@@XZ @ 8566
?TraceBackLighting@UStaticMesh@@QAEHPAVAActor@@VFVector@@11AAMAAHH@Z @ 8567
?TraceImp@AActor@@QAEXPAVFVector@@0ABV2@1KV2@PAPAVUMaterial@@PAHPAX@Z @ 8568
?TraceThisActorImp2@AActor@@QAEKPAVFVector@@0ABV2@11@Z @ 8569
?TraceThisActorImp@AActor@@QAEXPAVFVector@@0ABV2@11PAK@Z @ 8570
?Transform@FPoly@@QAEXABVFModelCoords@@ABVFVector@@1M@Z @ 8571
?Transform@UModel@@QAEXPAVABrush@@@Z @ 8572
?TranslateAlias@UInput@@UBEPBGPBG@Z @ 8573
?TrueColor@FColor@@QBEKXZ @ 8574
?TrySkipFile@UChannelDownload@@UAEHXZ @ 8575
?TrySkipFile@UDownload@@UAEHXZ @ 8576
?TwoWallAdjust@AActor@@QAEXAAVFVector@@000M@Z @ 8577
?UnBlockAltTab@UViewport@@UAEXXZ @ 8578
?UnClick@UGameEngine@@UAEXPAVUViewport@@KHH@Z @ 8579
?UnCrouch@APawn@@QAEXH@Z @ 8580
?UnLockAllSubRenderTarget@FRenderInterface@@UAEXXZ @ 8581
?UnProne@APawn@@QAEXH@Z @ 8582
?UnSetFirstWeaponFocus@FRenderInterface@@UAEXXZ @ 8583
?Unload@?$TLazyArray@E@@UAEXXZ @ 8584
?UnloadRawTextureData@FLightMap@@UAEXH@Z @ 8585
?UnloadRawTextureData@FSolidColorTexture@@UAEXH@Z @ 8586
?UnloadRawTextureData@FStaticLightMapTexture@@UAEXH@Z @ 8587
?UnloadRawTextureData@FStaticTexture@@UAEXH@Z @ 8588
?Unlock@UNullRenderDevice@@UAEXPAVFRenderInterface@@@Z @ 8589
?Unlock@UViewport@@UAEXXZ @ 8590
?UnlockDynBuffer@FRenderInterface@@UAEHXZ @ 8591
?UnmangleKey@@YA?AVFString@@V1@0@Z @ 8592
?Update@ATerrainInfo@@QAEXMHHHHH@Z @ 8593
?Update@FDynamicActor@@QAEXXZ @ 8594
?Update@FDynamicLight@@QAEXXZ @ 8595
?Update@FListener@@UAEXVFVector@@000UFPointRegion@@MPAVUI3DL2Listener@@@Z @ 8596
?Update@FSoundSource@@UAEHM@Z @ 8597
?Update@UAudioSubsystem@@UAEHPAVFSceneNode@@@Z @ 8598
?Update@UCanvas@@UAEXXZ @ 8599
?Update@UMatSubAction@@UAEHMPAVASceneManager@@@Z @ 8600
?Update@USubActionCameraEffect@@UAEHMPAVASceneManager@@@Z @ 8601
?Update@USubActionCameraShake@@UAEHMPAVASceneManager@@@Z @ 8602
?Update@USubActionFOV@@UAEHMPAVASceneManager@@@Z @ 8603
?Update@USubActionFade@@UAEHMPAVASceneManager@@@Z @ 8604
?Update@USubActionGameSpeed@@UAEHMPAVASceneManager@@@Z @ 8605
?Update@USubActionOrientation@@UAEHMPAVASceneManager@@@Z @ 8606
?Update@USubActionSceneSpeed@@UAEHMPAVASceneManager@@@Z @ 8607
?Update@USubActionSubTitle@@UAEHMPAVASceneManager@@@Z @ 8608
?Update@USubActionTrigger@@UAEHMPAVASceneManager@@@Z @ 8609
?Update@UTexture@@UAEXN@Z @ 8610
?UpdateActorHitList@UBeamEmitter@@UAEXXZ @ 8611
?UpdateAllResources@FStreamingManagerBase@@UAEXMH@Z @ 8612
?UpdateAllResources@FStreamingManagerCollection@@UAEXMH@Z @ 8613
?UpdateAnimation@AActor@@UAEXM@Z @ 8614
?UpdateAnimation@UMeshInstance@@UAEHM@Z @ 8615
?UpdateAnimation@USkeletalMeshInstance@@UAEHM@Z @ 8616
?UpdateAnimation@UVertMeshInstance@@UAEHM@Z @ 8617
?UpdateBase@FSoundSource@@QAEHM@Z @ 8618
?UpdateBeamLength@UBeamEmitter@@UAEXM@Z @ 8619
?UpdateBlendAlpha@USkeletalMeshInstance@@QAEXHMM@Z @ 8620
?UpdateBtrTimeOut@UNetConnection@@QAEXXZ @ 8621
?UpdateCachedInfo@FStreamingTexture@@QAEXXZ @ 8622
?UpdateConnectingMessage@UGameEngine@@UAEXXZ @ 8623
?UpdateDecorations@ATerrainInfo@@QAEXH@Z @ 8624
?UpdateDemoTime@UDemoRecDriver@@QAEHPAMM@Z @ 8625
?UpdateDistanceFogLOD@ALevelInfo@@QAEXM@Z @ 8626
?UpdateEyeHeightImp@APawn@@QAEXM@Z @ 8627
?UpdateFocusDepth@FRenderInterface@@UAEXXZ @ 8628
?UpdateFromSelectedVertices@ATerrainInfo@@QAEXXZ @ 8629
?UpdateGamma@UClient@@UAEXXZ @ 8630
?UpdateGamma@UEngine@@UAEXXZ @ 8631
?UpdateGamma@UNullRenderDevice@@UAEXPAVUViewport@@@Z @ 8632
?UpdateInAir@APawn@@AAEXXZ @ 8633
?UpdateIndividualResource@FStreamingManagerBase@@UAEXPAVUTexture@@@Z @ 8634
?UpdateIndividualResource@FStreamingManagerCollection@@UAEXPAVUTexture@@@Z @ 8635
?UpdateMatrices@FCameraSceneNode@@UAEXXZ @ 8636
?UpdateMatrices@FMiniMapSceneNode@@UAEXXZ @ 8637
?UpdateMousePosition@UViewport@@UAEXXZ @ 8638
?UpdateMovementAnimation@APawn@@QAEXM@Z @ 8639
?UpdateNoReset@UCanvas@@UAEXXZ @ 8640
?UpdateOnGround@APawn@@AAEXXZ @ 8641
?UpdateOscillation@AFluidSurfaceOscillator@@QAEXM@Z @ 8642
?UpdateOscillatorList@AFluidSurfaceInfo@@QAEXXZ @ 8643
?UpdateOverlay@AActor@@QAEXM@Z @ 8644
?UpdateParticle@UParticleEmitter@@UAEXMH@Z @ 8645
?UpdateParticle@UTrailEmitter@@UAEXMH@Z @ 8646
?UpdateParticleMaterial@AProjector@@UAEXPAVUParticleMaterial@@H@Z @ 8647
?UpdateParticles@UBeamEmitter@@UAEHM@Z @ 8648
?UpdateParticles@UDistortEmitter@@UAEHM@Z @ 8649
?UpdateParticles@UMeshEmitter@@UAEHM@Z @ 8650
?UpdateParticles@UParticleEmitter@@UAEHM@Z @ 8651
?UpdateParticles@USparkEmitter@@UAEHM@Z @ 8652
?UpdateParticles@USpriteEmitter@@UAEHM@Z @ 8653
?UpdateParticles@UTrailEmitter@@UAEHM@Z @ 8654
?UpdatePreviewActors@ASceneManager@@QAEXM@Z @ 8655
?UpdatePriority@FSoundSource@@UAEXXZ @ 8656
?UpdateProgress@UGameEngine@@UAEXHM@Z @ 8657
?UpdateRadii@FSoundSource@@UAEXXZ @ 8658
?UpdateRandomMap@FRenderInterface@@UAEXPAVFRenderTarget@@H@Z @ 8659
?UpdateRelativeRotation@AActor@@QAEXXZ @ 8660
?UpdateRenderData@AActor@@QAEXXZ @ 8661
?UpdateResourceStreaming@FStreamingManagerCollection@@UAEXMH@Z @ 8662
?UpdateResourceStreaming@FStreamingManagerTexture@@UAEXMH@Z @ 8663
?UpdateSimulation@AFluidSurfaceInfo@@QAEXM@Z @ 8664
?UpdateString@FStats@@QAEXAAVFString@@H@Z @ 8665
?UpdateSwimming@APawn@@AAEXXZ @ 8666
?UpdateTerrainArrays@ULevel@@QAEXXZ @ 8667
?UpdateThreadData@FStreamingManagerTexture@@QAEXXZ @ 8668
?UpdateTime@ULevel@@UAEXPAVALevelInfo@@@Z @ 8669
?UpdateTimers@AActor@@QAEXM@Z @ 8670
?UpdateTriangles@ATerrainInfo@@QAEXHHHHHH@Z @ 8671
?UpdateTwistLook@APawn@@AAEXM@Z @ 8672
?UpdateVehicle@ASVehicle@@UAEXM@Z @ 8673
?UpdateVertices@ATerrainInfo@@QAEXMHHHH@Z @ 8674
?UpdateViewer@AwWeatherEffect@@QAEXPAVFLevelSceneNode@@@Z @ 8675
?UpdateViewerFromPct@ASceneManager@@QAEXM@Z @ 8676
?UpdateWaveData@FWaveModInfo@@QAEHAAV?$TArray@E@@@Z @ 8677
?UseCylinderCollision@UFluidSurfacePrimitive@@UAEHPBVAActor@@@Z @ 8678
?UseCylinderCollision@UModel@@UAEHPBVAActor@@@Z @ 8679
?UseCylinderCollision@UPrimitive@@UAEHPBVAActor@@@Z @ 8680
?UseCylinderCollision@UProjectorPrimitive@@UAEHPBVAActor@@@Z @ 8681
?UseCylinderCollision@USkeletalMesh@@UAEHPBVAActor@@@Z @ 8682
?UseCylinderCollision@UStaticMesh@@UAEHPBVAActor@@@Z @ 8683
?ValidAnchor@APawn@@QAEHXZ @ 8684
?ValidNode@FPathBuilder@@AAEHPAVANavigationPoint@@PAVAActor@@@Z @ 8685
?ValidateAnimChannel@USkeletalMeshInstance@@QAEHH@Z @ 8686
?ValidateAuthenticationKey@ULodMesh@@UAEHXZ @ 8687
?ValidateAuthenticationKey@USkeletalMesh@@UAEHXZ @ 8688
?ValidateAuthenticationKey@UStaticMesh@@QAEHXZ @ 8689
?ValidateCDKey@@YAHXZ @ 8690
?ValidateRange@UPlayInfo@@QBEHPBVUProperty@@AAVFString@@1@Z @ 8691
?Vector@FRotatorF@@QAE?AVFVector@@XZ @ 8692
?VerifyID@UPackageCheckInfo@@UAEHVFString@@@Z @ 8693
?ViewInfos@FStreamingManagerBase@@1V?$TArray@UFStreamingViewInfo@@@@A @ 8694
?WantsLedgeCheck@AController@@UAEHXZ @ 8695
?WantsLedgeCheck@APlayerController@@UAEHXZ @ 8696
?WantsSmoothedViewNativeImp@AController@@QAE_NXZ @ 8697
?WelcomePlayer@ULevel@@UAEXPAVUNetConnection@@PAG@Z @ 8698
?WorldLightRadius@AActor@@UBEMXZ @ 8699
?WorldToHeightmap@ATerrainInfo@@QAE?AVFVector@@V2@@Z @ 8700
?WorldToLocal@AActor@@UBE?AVFMatrix@@XZ @ 8701
?WorldToScreenImp@UCanvas@@QAEXABVFVector@@PAV2@@Z @ 8702
?WrapStringToArray@UCanvas@@UAEXPBGPAV?$TArray@VFString@@@@MPAVUFont@@G@Z @ 8703
?WrappedPrint@UCanvas@@AAEXW4ERenderStyle@@AAH1PAVUFont@@MMHPBG@Z @ 8704
?WrappedPrintf@UCanvas@@UAAXPAVUFont@@HPBGZZ @ 8705
?WrappedPrintf@UCanvas@@UAAXPAVUFont@@MMHPBGZZ @ 8706
?WrappedStrLenf@UCanvas@@UAAXPAVUFont@@AAH1PBGZZ @ 8707
?WrappedStrLenf@UCanvas@@UAAXPAVUFont@@MMAAH1PBGZZ @ 8708
?ZeroMovementAlpha@APawn@@QAEXHHM@Z @ 8709
?_Screen@UViewport@@QAEPAEHH@Z @ 8710
?__Client@UTexture@@2PAVUClient@@A @ 8711
?__FUNC_NAME__@?2???0FDirectionalLightMapSceneNode@@QAE@PAVUViewport@@PAVAActor@@AAVFBspSurf@@PAVFLightMap@@@Z@4QBGB @ 8712
?__FUNC_NAME__@?2???0FPointLightMapSceneNode@@QAE@PAVUViewport@@PAVAActor@@AAVFBspSurf@@PAVFLightMap@@HHHH@Z@4QBGB @ 8713
?__FUNC_NAME__@?2???1?$TLazyArray@E@@QAE@XZ@4QBGB @ 8714
?__FUNC_NAME__@?2??BuildCoords@ABrush@@QAEMPAVFModelCoords@@0@Z@4QBGB @ 8715
?__FUNC_NAME__@?2??Clear@FMipmap@@QAEXXZ@4QBGB @ 8716
?__FUNC_NAME__@?2??CopyPosRotScaleFrom@ABrush@@UAEXPAV2@@Z@4QBGB @ 8717
?__FUNC_NAME__@?2??GetActorIndex@ULevel@@QAEHPAVAActor@@@Z@4QBGB @ 8718
?__FUNC_NAME__@?2??GetLayerAlpha@ATerrainInfo@@QAEEHHHPAVUTexture@@@Z@4QBGB @ 8719
?__FUNC_NAME__@?2??IsBasedOn@AActor@@QBEHPBV2@@Z@4QBGB @ 8720
?__FUNC_NAME__@?2??IsTriangleAll@UTerrainSector@@QAEHHHHHHE@Z@4QBGB @ 8721
?__FUNC_NAME__@?2??Load@?$TLazyArray@E@@UAEXXZ@4QBGB @ 8722
?__FUNC_NAME__@?2??OldBuildCoords@ABrush@@QAEMPAVFModelCoords@@0@Z@4QBGB @ 8723
?__FUNC_NAME__@?2??PostLoad@ULevelSummary@@UAEXXZ@4QBGB @ 8724
?__FUNC_NAME__@?2??Render@FShadowSceneNode@@UAEXPAVFRenderInterface@@@Z@4QBGB @ 8725
?__FUNC_NAME__@?2??Serialize@UKMeshProps@@UAEXAAVFArchive@@@Z@4QBGB @ 8726
?__FUNC_NAME__@?2??Serialize@UPolys@@UAEXAAVFArchive@@@Z@4QBGB @ 8727
?__FUNC_NAME__@?2??Serialize@UVertexBuffer@@UAEXAAVFArchive@@@Z@4QBGB @ 8728
?__FUNC_NAME__@?2??Serialize@UVertexStreamCOLOR@@UAEXAAVFArchive@@@Z@4QBGB @ 8729
?__FUNC_NAME__@?2??Serialize@UVertexStreamPosNormTex@@UAEXAAVFArchive@@@Z@4QBGB @ 8730
?__FUNC_NAME__@?2??Serialize@UVertexStreamUV@@UAEXAAVFArchive@@@Z@4QBGB @ 8731
?__FUNC_NAME__@?2??Serialize@UVertexStreamVECTOR@@UAEXAAVFArchive@@@Z@4QBGB @ 8732
?__FUNC_NAME__@?2??StaticConstructor@UActorChannel@@QAEXXZ@4QBGB @ 8733
?__FUNC_NAME__@?2??StaticConstructor@UControlChannel@@QAEXXZ@4QBGB @ 8734
?__FUNC_NAME__@?2??StaticConstructor@UFileChannel@@QAEXXZ@4QBGB @ 8735
?__FUNC_NAME__@?2??StaticConstructor@UVoiceChannel@@QAEXXZ@4QBGB @ 8736
?__FUNC_NAME__@?2??Unload@?$TLazyArray@E@@UAEXXZ@4QBGB @ 8737
?__FUNC_NAME__@?DB@??physKarmaRagDoll_internal@AActor@@QAEXM@Z@4QBGB @ 8738
?__FUNC_NAME__@?DI@??physKarmaRagDoll_internal@AActor@@QAEXM@Z@4QBGB @ 8739
?__FUNC_NAME__@?EL@??physKarmaRagDoll_internal@AActor@@QAEXM@Z@4QBGB @ 8740
?actorReachable@APawn@@UAEHPAVAActor@@HH@Z @ 8741
?actorReachableNativeImp@AController@@QAEKPAVAActor@@@Z @ 8742
?addReachSpecs@AFlyingPathNode@@UAEXPAVAPawn@@H@Z @ 8743
?addReachSpecs@AJumpPad@@UAEXPAVAPawn@@H@Z @ 8744
?addReachSpecs@ALadder@@UAEXPAVAPawn@@H@Z @ 8745
?addReachSpecs@ALiftCenter@@UAEXPAVAPawn@@H@Z @ 8746
?addReachSpecs@ANavigationPoint@@UAEXPAVAPawn@@H@Z @ 8747
?addReachSpecs@APlayerStart@@UAEXPAVAPawn@@H@Z @ 8748
?addReachSpecs@ATeleporter@@UAEXPAVAPawn@@H@Z @ 8749
?addReachSpecs@AWarpZoneMarker@@UAEXPAVAPawn@@H@Z @ 8750
?addResult@UBtrTraceResult@@QAEXABUFResultData@@@Z @ 8751
?breadthPathTo@APawn@@QAEPAVANavigationPoint@@P6AMPAV2@PAV1@M@Z0HPAMH@Z @ 8752
?btrClippedPrint@UCanvas@@QAEXPAVUFont@@MMHHMMMMMMMM_NPBG@Z @ 8753
?btrClippedStrLen@UCanvas@@UAEXPAVUFont@@MMAAM1PBGH@Z @ 8754
?btrDrawTextJustified@UCanvas@@UAAXEMMMMH_NPBGZZ @ 8755
?buildPaths@FPathBuilder@@QAEHPAVULevel@@@Z @ 8756
?calcMoveFlags@APawn@@QAEHXZ @ 8757
?calcVelocity@APawn@@AAEXVFVector@@MMMHHHM@Z @ 8758
?checkFloor@APawn@@AAEHVFVector@@AAUFCheckResult@@@Z @ 8759
?cpy_ClanLevelInfoParam@UGMFile@@QAEXPAVUwClanLevelInfoParam@@PBVFClanLevelInfoParam@@@Z @ 8760
?cpy_ClanMarkParam@UGMFile@@QAEXPAVUwClanMarkParam@@PBVFClanMarkParam@@@Z @ 8761
?cpy_DailyQuestParam@UGMFile@@QAEXPAVUwDailyQuestParam@@PBVFDailyQuestParam@@@Z @ 8762
?cpy_DefenceGameParam@UGMFile@@QAEXPAVUwDefenceGameParam@@PBVFDefenceGameParam@@@Z @ 8763
?cpy_ItemBaseParam@UGMFile@@QAEXPAVUwItemBaseParam@@PBVFItemBaseParam@@@Z @ 8764
?cpy_ItemBoxParam@UGMFile@@QAEXPAVUwItemBoxParam@@PBVFItemBoxParam@@@Z @ 8765
?cpy_ItemResourceParam@UGMFile@@QAEXPAVUwItemResourceParam@@PBVFItemResourceParam@@@Z @ 8766
?cpy_LevelInfoParam@UGMFile@@QAEXPAVUwLevelInfoParam@@PBVFLevelInfoParam@@@Z @ 8767
?cpy_MapInfo@UGMFile@@QAEXPAVUwMapInfo@@PBVFMapInfo@@@Z @ 8768
?cpy_ModeDOAParam@UGMFile@@QAEXPAVUwModeDOAParam@@PBVFModeDOAParam@@@Z @ 8769
?cpy_NPCActionGroupParam@UGMFile@@QAEXPAVUwNPCActionGroupParam@@PBVFNPCActionGroupParam@@@Z @ 8770
?cpy_NPCItemGroupParam@UGMFile@@QAEXPAVUwNPCItemGroupParam@@PBVFNPCItemGroupParam@@@Z @ 8771
?cpy_NPCNameGroupParam@UGMFile@@QAEXPAVUwNPCNameGroupParam@@PBVFNPCNameGroupParam@@@Z @ 8772
?cpy_NPCParam@UGMFile@@QAEXPAVUwNPCParam@@PBVFNPCParam@@@Z @ 8773
?cpy_NPCSPawnParam@UGMFile@@QAEXPAVUwNPCSpawnParam@@PBVFNPCSpawnParam@@@Z @ 8774
?cpy_PaintGroupParam@UGMFile@@QAEXPAVUwPaintGroupParam@@PBVFPaintGroupParam@@@Z @ 8775
?cpy_PartsGroupParam@UGMFile@@QAEXPAVUwPartsGroupParam@@PBVFPartsGroupParam@@@Z @ 8776
?cpy_PromotionParam@UGMFile@@QAEXPAVUwPromotionParam@@PBVFPromotionParam@@@Z @ 8777
?cpy_QuestParam@UGMFile@@QAEXPAVUwQuestParam@@PBVFQuestParam@@@Z @ 8778
?cpy_RandBoxParam@UGMFile@@QAEXPAVUwRandBoxParam@@PBVFRandBoxParam@@@Z @ 8779
?cpy_SkillBaseParam@UGMFile@@QAEXPAVUwSkillBaseParam@@PBVFSkillBaseParam@@@Z @ 8780
?cpy_WeaponBaseParam@UWMFile@@QAEXPAVUwWeaponBaseParams@@PBVFWeaponBaseParam@@@Z @ 8781
?cpy_WeaponCustomInfoParam@UGMFile@@QAEXPAVUwWeaponCustomInfoParam@@PBVFWeaponCustomInfoParam@@@Z @ 8782
?cpy_WeaponCustomPartsParam@UGMFile@@QAEXPAVUwWeaponCustomPartsParam@@PBVFWeaponCustomPartsParam@@@Z @ 8783
?createPaths@FPathBuilder@@AAEHXZ @ 8784
?defineChangedPaths@FPathBuilder@@QAEXPAVULevel@@@Z @ 8785
?defineCoverAngle@FPathBuilder@@QAEXXZ @ 8786
?defineFor@UReachSpec@@QAEHPAVANavigationPoint@@0PAVAPawn@@@Z @ 8787
?definePaths@FPathBuilder@@QAEXPAVULevel@@@Z @ 8788
?defineSdStrategicPoints@FPathBuilder@@QAEXXZ @ 8789
?defineVisibility@FPathBuilder@@QAEXXZ @ 8790
?delegateAccomplishMission100Percent@UwMatchMaker@@QAEXABVFString@@HH@Z @ 8791
?delegateAccomplishMission25Percent@UwMatchMaker@@QAEXABVFString@@HH@Z @ 8792
?delegateAccomplishMission50Percent@UwMatchMaker@@QAEXABVFString@@HH@Z @ 8793
?delegateAccomplishMission75Percent@UwMatchMaker@@QAEXABVFString@@HH@Z @ 8794
?delegateCMDHK@UwMatchMaker@@QAEXHABVFString@@00@Z @ 8795
?delegateOnAdjustVolume@UStreamInteraction@@QAEXM@Z @ 8796
?delegateOnAdminReply@UBaseGUIController@@QAEXABVFString@@@Z @ 8797
?delegateOnBuildMOTD@AHUD@@QAEXPAV1@@Z @ 8798
?delegateOnPostRender@AHUD@@QAEXPAV1@PAVUCanvas@@@Z @ 8799
?delegateOnReachedDestination@APawn@@QAEKVFVector@@PAVAActor@@@Z @ 8800
?delegateOnRecivedPing@UwMatchMaker@@QAEXPAV1@ABVFString@@H@Z @ 8801
?delegateOnRefresh@UStreamTag@@QAEXXZ @ 8802
?delegateOnReqSuccessStartGame@UwMatchMaker@@QAEXH@Z @ 8803
?delegateOnStreamChanged@UStreamInteraction@@QAEXABVFString@@@Z @ 8804
?delegateOnStreamingStopped@UStreamInteraction@@QAEXXZ @ 8805
?delegateQuestLog@UwMatchMaker@@QAEXABVFString@@@Z @ 8806
?delegateUpdateBlockList@UwMatchMaker@@QAEXPAV1@@Z @ 8807
?delegateUpdateCharInfo@UwMatchMaker@@QAEXPAV1@@Z @ 8808
?delegateUpdateClanInfo@UwMatchMaker@@QAEXPAV1@@Z @ 8809
?delegateUpdateClanList@UwMatchMaker@@QAEXPAV1@@Z @ 8810
?delegateUpdateEquipItemInfo@UwMatchMaker@@QAEXPAV1@@Z @ 8811
?delegateUpdateFriendList@UwMatchMaker@@QAEXPAV1@@Z @ 8812
?delegateUpdateGameRoomInfo@UwMatchMaker@@QAEXPAV1@@Z @ 8813
?delegateUpdateItemList@UwGameManager@@QAEXPAV1@@Z @ 8814
?delegateUpdateMoneyInfo@UwMatchMaker@@QAEXPAV1@@Z @ 8815
?delegateUpdatePCBangInfo@UwMatchMaker@@QAEXPAV1@@Z @ 8816
?delegateUpdatePCBangList@UwMatchMaker@@QAEXPAV1@@Z @ 8817
?delegateUpdatePositionInfo@UwMatchMaker@@QAEXPAV1@@Z @ 8818
?delegateUpdateQuestList@UwMatchMaker@@QAEXPAV1@@Z @ 8819
?delegateUpdateQuickSlotBoxList@UwGameManager@@QAEXPAV1@@Z @ 8820
?delegateUpdateRankingInfo@UwMatchMaker@@QAEXPAV1@@Z @ 8821
?delegateUpdateRecv_CharInfo@UwMatchMaker@@QAEXPAV1@@Z @ 8822
?delegateUpdateServerTime@UwGameManager@@QAEXPAV1@@Z @ 8823
?delegateUpdateSkillBoxList@UwGameManager@@QAEXPAV1@@Z @ 8824
?delegateUpdateWebzenItemList@UwGameManager@@QAEXPAV1@@Z @ 8825
?delegateUpdateWebzenShopItemList@UwGameManager@@QAEXPAV1@@Z @ 8826
?delegateUpdateWebzenShopVerInfo@UwGameManager@@QAEXPAV1@@Z @ 8827
?delegatedele_UpdateEventTimer@UwGameManager@@QAEXHVFBtrDouble@@@Z @ 8828
?drawStringToSurface@FRenderInterface@@UAEXXZ @ 8829
?edDrawAxisIndicator@UEngine@@UAEXPAVFSceneNode@@@Z @ 8830
?edSetClickLocation@UEngine@@UAEXAAVFVector@@@Z @ 8831
?edcamMode@UEngine@@UAEHPAVUViewport@@@Z @ 8832
?edcamMouseControl@UEngine@@UAEHPAVUViewport@@@Z @ 8833
?edcamTerrainBrush@UEngine@@UAEHXZ @ 8834
?eventAIHearSound@AController@@QAEXPAVAActor@@HPAVUSound@@VFVector@@2K@Z @ 8835
?eventAccept@ANavigationPoint@@QAEKPAVAActor@@0@Z @ 8836
?eventAcceptInventory@AGameInfo@@QAEXPAVAPawn@@@Z @ 8837
?eventAcceptPlayInfoProperty@AInfo@@QAEKABVFString@@@Z @ 8838
?eventAcceptVoice@APlayerChatManager@@QAEKPAVAPlayerReplicationInfo@@@Z @ 8839
?eventActorEntered@AZoneInfo@@QAEXPAVAActor@@@Z @ 8840
?eventActorEnteredVolume@APhysicsVolume@@QAEXPAVAActor@@@Z @ 8841
?eventActorLeaving@AZoneInfo@@QAEXPAVAActor@@@Z @ 8842
?eventActorLeavingVolume@APhysicsVolume@@QAEXPAVAActor@@@Z @ 8843
?eventAddBasePlayers@UwCharacterManager@@QAEXXZ @ 8844
?eventAddCalcTime@UUserzoneInfo@@QAEXVFVector@@0M@Z @ 8845
?eventAddCameraEffect@APlayerController@@QAEXPAVUCameraEffect@@K@Z @ 8846
?eventAddInteraction@UInteractionMaster@@QAEPAVUInteraction@@ABVFString@@PAVUPlayer@@@Z @ 8847
?eventAddPostProcessEffect@APlayerController@@QAEXPAVUPostProcessEffect@@K@Z @ 8848
?eventAdjustView@AController@@QAEXM@Z @ 8849
?eventAllowClassRemoval@AInfo@@QAEKXZ @ 8850
?eventAllowDetourTo@AController@@QAEKPAVANavigationPoint@@@Z @ 8851
?eventAnimEnd@AActor@@QAEXH@Z @ 8852
?eventAnnouncementPlayed@AHUD@@QAEXABVFString@@E@Z @ 8853
?eventAttach@AActor@@QAEXPAV1@@Z @ 8854
?eventAutoLoadMenus@UBaseGUIController@@QAEXXZ @ 8855
?eventBaseChange@AActor@@QAEXXZ @ 8856
?eventBeginEvent@AActor@@QAEXXZ @ 8857
?eventBeginPlay@AActor@@QAEXXZ @ 8858
?eventBreathTimer@APawn@@QAEXXZ @ 8859
?eventBroadcast@AGameInfo@@QAEXPAVAActor@@ABVFString@@VFName@@@Z @ 8860
?eventBroadcastLocalized@AGameInfo@@QAEXPAVAActor@@PAVUClass@@HPAVAPlayerReplicationInfo@@2PAVUObject@@@Z @ 8861
?eventBroadcastLocalizedMessage@AActor@@QAEXPAVUClass@@HPAVAPlayerReplicationInfo@@1PAVUObject@@@Z @ 8862
?eventBump@AActor@@QAEXPAV1@@Z @ 8863
?eventCalcFireNoiseTime@APawn@@QAEXXZ @ 8864
?eventChangeAnimation@APawn@@QAEXXZ @ 8865
?eventChatRoomMessage@APlayerController@@QAEXHHPAVAPlayerReplicationInfo@@@Z @ 8866
?eventCheckEndGameCondition@AGameInfo@@QAEKXZ @ 8867
?eventCheckProneAni@APawn@@QAEXK@Z @ 8868
?eventClearOtherLoadingState@UwBTLoadingScreenDrawer@@QAEXXZ @ 8869
?eventClickCloseWndBtn@UBaseGUIController@@QAEKXZ @ 8870
?eventClientCloseMenu@APlayerController@@QAEXKK@Z @ 8871
?eventClientHearSound@APlayerController@@QAEXPAVAActor@@HPAVUSound@@VFVector@@2KK@Z @ 8872
?eventClientMessage@APawn@@QAEXABVFString@@VFName@@@Z @ 8873
?eventClientMessage@APlayerController@@QAEXABVFString@@VFName@@@Z @ 8874
?eventClientNameChange@APlayerReplicationInfo@@QAEXXZ @ 8875
?eventClientNetworkMessage@APlayerController@@QAEXABVFString@@0@Z @ 8876
?eventClientOpenMenu@APlayerController@@QAEXABVFString@@K00@Z @ 8877
?eventClientReplaceMenu@APlayerController@@QAEXABVFString@@K00@Z @ 8878
?eventClientReset@APlayerController@@QAEXXZ @ 8879
?eventClientSetPlayerScoreInfo@APawn@@QAEXXZ @ 8880
?eventClientSetViewTargetZZ@APlayerController@@QAEXPAVAActor@@@Z @ 8881
?eventClientSetViewTarget_NATIVE@APlayerController@@QAEXPAVAActor@@@Z @ 8882
?eventClientSetWeaponInfo@APawn@@QAEXXZ @ 8883
?eventClientStartFire@AwWeapon@@QAEXH@Z @ 8884
?eventClientStopFire@AwWeapon@@QAEXH@Z @ 8885
?eventClientTravel@APlayerController@@QAEXABVFString@@EK@Z @ 8886
?eventClientTrigger@AActor@@QAEXXZ @ 8887
?eventClientValidate@APlayerController@@QAEXABVFString@@@Z @ 8888
?eventCloseAll@UBaseGUIController@@QAEXKK@Z @ 8889
?eventCloseMenu@UBaseGUIController@@QAEKK@Z @ 8890
?eventCollisionSound@AwEmitter@@QAEXXZ @ 8891
?eventConnectFailure@AHUD@@QAEXABVFString@@0@Z @ 8892
?eventConnectFailure@UConsole@@QAEXABVFString@@0@Z @ 8893
?eventConvertToFileExtension@UStreamBase@@QAE?AVFString@@E@Z @ 8894
?eventConvertToFileType@UStreamBase@@QAEEABVFString@@@Z @ 8895
?eventCreateBackGroundImage@UwBTLoadingScreenDrawer@@QAEKPAVUwMatchMaker@@@Z @ 8896
?eventCreateGameStateStorageSender@APlayerController@@QAEXXZ @ 8897
?eventCreatePingChecker@UwMatchMaker@@QAEPAVUBTPingCheckerLinker@@XZ @ 8898
?eventDamageLog@UwWeaponFire@@QAEXPAVAPawn@@MME@Z @ 8899
?eventDelayedWarning@AController@@QAEXXZ @ 8900
?eventDemoPlaySound@AActor@@QAEXPAVUSound@@EMKMMK@Z @ 8901
?eventDesireability@AController@@QAEMPAVAPickup@@@Z @ 8902
?eventDestroyBackGroundImage@UwBTLoadingScreenDrawer@@QAEKXZ @ 8903
?eventDestroyGameStateStorageSender@APlayerController@@QAEXXZ @ 8904
?eventDestroyPlayerReplicationInfo@AController@@QAEXXZ @ 8905
?eventDestroyScript@UwCharacterManager@@QAEXXZ @ 8906
?eventDestroyScript@UwGameManager@@QAEXXZ @ 8907
?eventDestroyScript@UwWeaponManager@@QAEXXZ @ 8908
?eventDestroyed@AActor@@QAEXXZ @ 8909
?eventDetach@AActor@@QAEXPAV1@@Z @ 8910
?eventDetailChange@AGameInfo@@QAEXXZ @ 8911
?eventDetourWeight@ANavigationPoint@@QAEMPAVAPawn@@M@Z @ 8912
?eventDisableInteraction@UInteraction@@QAEXXZ @ 8913
?eventDisableInteractions@UInteractionMaster@@QAEXV?$TArray@PAVUInteraction@@@@@Z @ 8914
?eventDrawLoadingScreen@UwBTLoadingScreenDrawer@@QAEXPAVUCanvas@@@Z @ 8915
?eventDrawOtherLoadingState@UwMatchMaker@@QAEXHE@Z @ 8916
?eventDrawVignette@AVignette@@QAEXPAVUCanvas@@M@Z @ 8917
?eventDrivingStatusChanged@AVehicle@@QAEXXZ @ 8918
?eventEnableInteraction@UInteraction@@QAEXXZ @ 8919
?eventEnableInteractions@UInteractionMaster@@QAEXV?$TArray@PAVUInteraction@@@@@Z @ 8920
?eventEncroachedBy@AActor@@QAEXPAV1@@Z @ 8921
?eventEncroachingOn@AActor@@QAEKPAV1@@Z @ 8922
?eventEndCrouch@APawn@@QAEXM@Z @ 8923
?eventEndEvent@AActor@@QAEXXZ @ 8924
?eventEndLoading@UwMatchMaker@@QAEXXZ @ 8925
?eventEndMatch@UwMatchMaker@@QAEXK@Z @ 8926
?eventEndProne@APawn@@QAEXM@Z @ 8927
?eventEndedRotation@AActor@@QAEXXZ @ 8928
?eventEnemyNotVisible@AController@@QAEXXZ @ 8929
?eventEventForceBegin@AGameReplicationInfo@@QAEXXZ @ 8930
?eventFalling@AActor@@QAEXXZ @ 8931
?eventFellOutOfWorld@AActor@@QAEXE@Z @ 8932
?eventFillPrecacheMaterialsArray@ALevelInfo@@QAEXK@Z @ 8933
?eventFillPrecacheSkeletalMeshesArray@ALevelInfo@@QAEXK@Z @ 8934
?eventFillPrecacheStaticMeshesArray@ALevelInfo@@QAEXK@Z @ 8935
?eventFinishedInterpolation@AActor@@QAEXXZ @ 8936
?eventForceBeginPlay@AGameInfo@@QAEXXZ @ 8937
?eventForceGameOver@UwMatchMaker@@QAEKPAVAPlayerReplicationInfo@@@Z @ 8938
?eventForceGenerate@AWarpZoneInfo@@QAEXXZ @ 8939
?eventForcePostBeginPlay@AGameInfo@@QAEXXZ @ 8940
?eventForcePostNetBeginPlay@AGameInfo@@QAEXXZ @ 8941
?eventForcePreBeginPlay@AGameInfo@@QAEXXZ @ 8942
?eventForceSetGRIInitialState@AGameInfo@@QAEXXZ @ 8943
?eventForceSetInitialState@AGameInfo@@QAEXXZ @ 8944
?eventForcedAddPRI@AGameReplicationInfo@@QAEXPAVAPlayerReplicationInfo@@@Z @ 8945
?eventForcedChangeTeam@AGameInfo@@QAEKPAVAController@@HK@Z @ 8946
?eventForcedRemovePRI@AGameReplicationInfo@@QAEXPAVAPlayerReplicationInfo@@@Z @ 8947
?eventForcedStartMatch@AGameInfo@@QAEXXZ @ 8948
?eventGainedChild@AActor@@QAEXPAV1@@Z @ 8949
?eventGameEnding@AGameInfo@@QAEXXZ @ 8950
?eventGenerate@AWarpZoneInfo@@QAEXXZ @ 8951
?eventGetAmmoCount@AwWeapon@@QAEXAAM0@Z @ 8952
?eventGetBaseParam@UwWeaponManager@@QAEPAVUwWeaponBaseParams@@H@Z @ 8953
?eventGetBeaconText@AGameInfo@@QAE?AVFString@@XZ @ 8954
?eventGetChannelCount@AVoiceChatReplicationInfo@@QAEHXZ @ 8955
?eventGetChannelIndex@AVoiceChatReplicationInfo@@QAEHABVFString@@H@Z @ 8956
?eventGetDescriptionText@AInfo@@QAE?AVFString@@ABV2@@Z @ 8957
?eventGetHostBlocking@UwMatchMaker@@QAEKXZ @ 8958
?eventGetLoadingImage@UwMatchMaker@@QAEPAVUMaterial@@XZ @ 8959
?eventGetMaxCalcTime@UUserzoneInfo@@QAEHXZ @ 8960
?eventGetMiniMapInfoImage@UwMatchMaker@@QAEPAVUMaterial@@XZ @ 8961
?eventGetNameCallSign@APlayerReplicationInfo@@QAE?AVFString@@XZ @ 8962
?eventGetNearFlag@AGameInfo@@QAEPAVAActor@@PAV2@@Z @ 8963
?eventGetPathRoot@UStreamBase@@QAE?AVFString@@AAV2@@Z @ 8964
?eventGetScreenPos@UUserzoneInfo@@QAEXHAAH0@Z @ 8965
?eventGetSecurityLevel@AInfo@@QAEEABVFString@@@Z @ 8966
?eventGetSound@AAnnouncerVoice@@QAEPAVUSound@@ABVFString@@@Z @ 8967
?eventGivePawn@APlayerController@@QAEXPAVAPawn@@@Z @ 8968
?eventGotoDefaultState@APlayerController@@QAEXXZ @ 8969
?eventHasExtension@UStreamBase@@QAEKABVFString@@@Z @ 8970
?eventHeadVolumeChange@APawn@@QAEXPAVAPhysicsVolume@@@Z @ 8971
?eventHearNoise@AController@@QAEXMPAVAActor@@@Z @ 8972
?eventHitWall@AActor@@QAEXVFVector@@PAV1@PAVUMaterial@@@Z @ 8973
?eventInit@AVignette@@QAEXXZ @ 8974
?eventInitGame@AGameInfo@@QAEXABVFString@@AAV2@@Z @ 8975
?eventInitHK@UwGameManager@@QAEXXZ @ 8976
?eventInitInputSystem@APlayerController@@QAEXXZ @ 8977
?eventInitMyPlayer@UwCharacterManager@@QAEXXZ @ 8978
?eventInitPrecacheItems@UwGameManager@@QAEXXZ @ 8979
?eventInitPresets@UFinalEffect@@QAEXXZ @ 8980
?eventInitScript@UwCharacterManager@@QAEXXZ @ 8981
?eventInitScript@UwGameManager@@QAEXXZ @ 8982
?eventInitScript@UwWeaponManager@@QAEXXZ @ 8983
?eventInitWeaponPrecacheClasses@UwWeaponManager@@QAEXXZ @ 8984
?eventInitialize@UwBTLoadingScreenDrawer@@QAEXXZ @ 8985
?eventInitializeController@UBaseGUIController@@QAEXXZ @ 8986
?eventInitializeMapSettings_DS_Server@UwMatchMaker@@QAEXXZ @ 8987
?eventInitialized@UInteraction@@QAEXXZ @ 8988
?eventIsLoading@UwMatchMaker@@QAEKXZ @ 8989
?eventIsMember@AVoiceChatRoom@@QAEKPAVAPlayerReplicationInfo@@K@Z @ 8990
?eventIsSDRespawnTime@AGameInfo@@QAEKXZ @ 8991
?eventIsVehicleEmpty@AVehicle@@QAEKXZ @ 8992
?eventKApplyForce@AActor@@QAEXAAVFVector@@0@Z @ 8993
?eventKDriverLeave@AVehicle@@QAEKK@Z @ 8994
?eventKForceExceed@AKConstraint@@QAEXM@Z @ 8995
?eventKImpact@AActor@@QAEXPAV1@VFVector@@11@Z @ 8996
?eventKSkelConvulse@AActor@@QAEXXZ @ 8997
?eventKUpdateState@AActor@@QAEKAAU_FKRigidBodyState@@@Z @ 8998
?eventKVehicleUpdateParams@AKVehicle@@QAEXXZ @ 8999
?eventKVelDropBelow@AActor@@QAEXXZ @ 9000
?eventKeyFrameReached@AMover@@QAEXXZ @ 9001
?eventKickIdler@AGameInfo@@QAEXPAVAPlayerController@@@Z @ 9002
?eventKickWarning@APlayerController@@QAEXXZ @ 9003
?eventKilledBy@AActor@@QAEXPAVAPawn@@@Z @ 9004
?eventLIPSincAnimEnd@AActor@@QAEXXZ @ 9005
?eventLanded@AActor@@QAEXVFVector@@@Z @ 9006
?eventLightUpdate@AProjector@@QAEXV?$TArray@PAVAActor@@@@@Z @ 9007
?eventLoadLevelMark@APlayerReplicationInfo@@QAEXXZ @ 9008
?eventLoadWeaponRes@UwWeaponManager@@QAEXXZ @ 9009
?eventLockOnWarning@AVehicle@@QAEXXZ @ 9010
?eventLogin@AGameInfo@@QAEPAVAPlayerController@@ABVFString@@0AAV3@@Z @ 9011
?eventLongFall@AController@@QAEXXZ @ 9012
?eventLostChild@AActor@@QAEXPAV1@@Z @ 9013
?eventMayDodgeToMoveTarget@AController@@QAEXXZ @ 9014
?eventMayFall@AController@@QAEXXZ @ 9015
?eventMissedDodge@AController@@QAEXXZ @ 9016
?eventModeDoFire@UwWeaponFire@@QAEXXZ @ 9017
?eventModeHoldFire@UwWeaponFire@@QAEXXZ @ 9018
?eventModeTick@UwWeaponFire@@QAEXM@Z @ 9019
?eventModifyVelocity@APawn@@QAEXMVFVector@@@Z @ 9020
?eventMonitoredPawnAlert@AController@@QAEXXZ @ 9021
?eventMoveAutonomous@APlayerController@@QAEXMKKKKKEVFVector@@VFRotator@@@Z @ 9022
?eventNativeConsoleOpen@UConsole@@QAEXXZ @ 9023
?eventNeedToOffIME@UBaseGUIController@@QAEKXZ @ 9024
?eventNeedToOffIME@UConsole@@QAEKXZ @ 9025
?eventNeedsFlip@AVehicle@@QAEKXZ @ 9026
?eventNeedsMenuResolution@UBaseGUIController@@QAEKXZ @ 9027
?eventNoTranslocatorKeyPressed@AGameInfo@@QAEXPAVAPlayerController@@@Z @ 9028
?eventNotReachableBy@ADecoration@@QAEXPAVAPawn@@@Z @ 9029
?eventNotify@UAnimNotify_Scripted@@QAEXPAVAActor@@@Z @ 9030
?eventNotifyBump@AController@@QAEKPAVAActor@@@Z @ 9031
?eventNotifyEndLoading@APlayerController@@QAEXXZ @ 9032
?eventNotifyEnemyLockedOn@AVehicle@@QAEXXZ @ 9033
?eventNotifyEnemyLostLock@AVehicle@@QAEXXZ @ 9034
?eventNotifyFallingHitWall@AController@@QAEXVFVector@@PAVAActor@@@Z @ 9035
?eventNotifyHeadVolumeChange@AController@@QAEKPAVAPhysicsVolume@@@Z @ 9036
?eventNotifyHitMover@AController@@QAEXVFVector@@PAVAMover@@@Z @ 9037
?eventNotifyHitWall@AController@@QAEKVFVector@@PAVAActor@@@Z @ 9038
?eventNotifyJumpApex@AController@@QAEXXZ @ 9039
?eventNotifyLanded@AController@@QAEKVFVector@@@Z @ 9040
?eventNotifyLevelChange@UInteraction@@QAEXXZ @ 9041
?eventNotifyLevelChange@UInteractionMaster@@QAEXV?$TArray@PAVUInteraction@@@@@Z @ 9042
?eventNotifyMissedJump@AController@@QAEXXZ @ 9043
?eventNotifyMusicChange@UInteraction@@QAEXXZ @ 9044
?eventNotifyPhysicsVolumeChange@AController@@QAEKPAVAPhysicsVolume@@@Z @ 9045
?eventNotifyPostLanded@AController@@QAEXXZ @ 9046
?eventNotifyRecordException@APlayerController@@QAEXH@Z @ 9047
?eventNotifyReloaded@AwWeapon@@QAEXXZ @ 9048
?eventOnDisconnect@ALevelInfo@@QAEXXZ @ 9049
?eventOnIME_Notify@UInteraction@@QAEKHHABVFString@@HH@Z @ 9050
?eventOpenMenu@UBaseGUIController@@QAEKABVFString@@00@Z @ 9051
?eventOverrideDownload@AMutator@@QAEKABVFString@@00AAV2@@Z @ 9052
?eventParseDirectories@UStreamBase@@QAE?AV?$TArray@VFString@@@@AAVFString@@@Z @ 9053
?eventParseExtension@UStreamBase@@QAE?AVFString@@AAV2@@Z @ 9054
?eventParsePath@UStreamBase@@QAEKABVFString@@AAUFFilePath@@@Z @ 9055
?eventPawnEnteredVolume@APhysicsVolume@@QAEXPAVAPawn@@@Z @ 9056
?eventPawnLeavingVolume@APhysicsVolume@@QAEXPAVAPawn@@@Z @ 9057
?eventPhysicsChangedFor@APhysicsVolume@@QAEXPAVAActor@@@Z @ 9058
?eventPhysicsVolumeChange@AActor@@QAEXPAVAPhysicsVolume@@@Z @ 9059
?eventPlayDying@APawn@@QAEXPAVUClass@@VFVector@@H@Z @ 9060
?eventPlayFalling@APawn@@QAEXXZ @ 9061
?eventPlayJump@APawn@@QAEXXZ @ 9062
?eventPlayLandedSound@APawn@@QAEXH@Z @ 9063
?eventPlayLandingAnimation@APawn@@QAEXM@Z @ 9064
?eventPlayTurretIdleAnim@APawn@@QAEXK@Z @ 9065
?eventPlayerCalcView@APlayerController@@QAEXAAPAVAActor@@AAVFVector@@AAVFRotator@@@Z @ 9066
?eventPlayerInput@UPlayerInput@@QAEXM@Z @ 9067
?eventPlayerSeesMe@ALineOfSightTrigger@@QAEXPAVAPlayerController@@@Z @ 9068
?eventPlayerTick@APlayerController@@QAEXM@Z @ 9069
?eventPostBeginPlay@AActor@@QAEXXZ @ 9070
?eventPostLoadSavedGame@AActor@@QAEXXZ @ 9071
?eventPostLogin@AGameInfo@@QAEXPAVAPlayerController@@@Z @ 9072
?eventPostNetBeginPlay@AActor@@QAEXXZ @ 9073
?eventPostNetReceive@AActor@@QAEXXZ @ 9074
?eventPostRender2D@APawn@@QAEXPAVUCanvas@@MM@Z @ 9075
?eventPostRender2D@AProjectile@@QAEXPAVUCanvas@@MM@Z @ 9076
?eventPostRender@AHUD@@QAEXPAVUCanvas@@@Z @ 9077
?eventPostRenderActors@AHUD@@QAEXPAVUCanvas@@@Z @ 9078
?eventPostTeleport@AActor@@QAEXPAVATeleporter@@@Z @ 9079
?eventPostTouch@AActor@@QAEXPAV1@@Z @ 9080
?eventPreBeginPlay@AActor@@QAEXXZ @ 9081
?eventPreClientTravel@APlayerController@@QAEXXZ @ 9082
?eventPreLogin@AGameInfo@@QAEXABVFString@@00AAV2@1@Z @ 9083
?eventPreSaveGame@AActor@@QAEXXZ @ 9084
?eventPreSpawned@AwEmitter@@QAEXXZ @ 9085
?eventPreTeleport@AActor@@QAEKPAVATeleporter@@@Z @ 9086
?eventPrecacheInit@ALevelInfo@@QAEXXZ @ 9087
?eventPrepareForMove@AController@@QAEXPAVANavigationPoint@@PAVUReachSpec@@@Z @ 9088
?eventProcess_KeyEvent@UInteractionMaster@@QAEKV?$TArray@PAVUInteraction@@@@AAE1M@Z @ 9089
?eventProcess_KeyType@UInteractionMaster@@QAEKV?$TArray@PAVUInteraction@@@@AAEABVFString@@@Z @ 9090
?eventProcess_Message@UInteractionMaster@@QAEXABVFString@@MV?$TArray@PAVUInteraction@@@@@Z @ 9091
?eventProcess_PostRender@UInteractionMaster@@QAEXV?$TArray@PAVUInteraction@@@@PAVUCanvas@@@Z @ 9092
?eventProcess_PreRender@UInteractionMaster@@QAEXV?$TArray@PAVUInteraction@@@@PAVUCanvas@@@Z @ 9093
?eventProcess_Tick@UInteractionMaster@@QAEXV?$TArray@PAVUInteraction@@@@M@Z @ 9094
?eventProgressCommand@APlayerController@@QAEXABVFString@@00@Z @ 9095
?eventRanInto@AActor@@QAEXPAV1@@Z @ 9096
?eventReadyToFire@AwWeapon@@QAEKH@Z @ 9097
?eventReceiveLocalizedMessage@APlayerController@@QAEXPAVUClass@@HPAVAPlayerReplicationInfo@@1PAVUObject@@@Z @ 9098
?eventReceiveLocalizedMessageWithKillerInfo@APlayerController@@QAEXPAVUClass@@PAVAController@@HPAVAPlayerReplicationInfo@@2PAVUObject@@@Z @ 9099
?eventReceiveMessage_QuestType1@AController@@QAEXPAVUClass@@HHH@Z @ 9100
?eventReceiveMessage_QuestType2@AController@@QAEXPAVUClass@@HHHHH@Z @ 9101
?eventReceiveMessage_QuestType3@AController@@QAEXPAVUClass@@HHH@Z @ 9102
?eventReceiveMessage_QuestType4@AController@@QAEXPAVUClass@@HHH@Z @ 9103
?eventReceiveWarning@AController@@QAEXPAVAPawn@@MVFVector@@@Z @ 9104
?eventReceivedPingAck@UBTPingCheckerLinker@@QAEXV?$TArray@VFString@@@@V?$TArray@H@@@Z @ 9105
?eventRecoverFromBadStateCode@AActor@@QAEXXZ @ 9106
?eventRegistMap@UwBtrIni@@QAEXXZ @ 9107
?eventRegisterTurret@AVehicle@@QAEXXZ @ 9108
?eventRemoveBasePlayers@UwCharacterManager@@QAEXXZ @ 9109
?eventRemoveCameraEffect@APlayerController@@QAEXPAVUCameraEffect@@@Z @ 9110
?eventRemoveInteraction@UInteractionMaster@@QAEXPAVUInteraction@@@Z @ 9111
?eventRemovePostProcessEffect@APlayerController@@QAEXPAVUPostProcessEffect@@@Z @ 9112
?eventRenderTexture@AActor@@QAEXPAVUScriptedTexture@@@Z @ 9113
?eventReplaceMenu@UBaseGUIController@@QAEKABVFString@@00K@Z @ 9114
?eventReqSuccessStartGame@UwMatchMaker@@QAEXH@Z @ 9115
?eventReset@UCanvas@@QAEXXZ @ 9116
?eventSVehicleUpdateParams@ASVehicle@@QAEXXZ @ 9117
?eventSceneAbort@AGameInfo@@QAEXXZ @ 9118
?eventSceneEnded@AGameInfo@@QAEXPAVASceneManager@@PAVAActor@@@Z @ 9119
?eventSceneEnded@ASceneManager@@QAEXXZ @ 9120
?eventSceneStarted@AGameInfo@@QAEXPAVASceneManager@@PAVAActor@@@Z @ 9121
?eventSceneStarted@ASceneManager@@QAEXXZ @ 9122
?eventSeeMonster@AController@@QAEXPAVAPawn@@@Z @ 9123
?eventSeePlayer@AController@@QAEXPAVAPawn@@@Z @ 9124
?eventSendAllUserGameStateDataToInterventionUser@APlayerController@@QAEXXZ @ 9125
?eventSendClientAdjustment@APlayerController@@QAEXXZ @ 9126
?eventSendPingToChannelServer@UwMatchMaker@@QAEKXZ @ 9127
?eventSendPingToOtherUser@UwMatchMaker@@QAEKABVFString@@@Z @ 9128
?eventSendText@UwMatchMaker@@QAEKABVFString@@H0@Z @ 9129
?eventServerCallback@ASecurity@@QAEXHABVFString@@@Z @ 9130
?eventServerSetPlayerScoreInfo@APawn@@QAEXHHHHHHH@Z @ 9131
?eventServerSetWeaponInfo@APawn@@QAEXHHHH@Z @ 9132
?eventServerStartFire@AwWeapon@@QAEXE@Z @ 9133
?eventServerTravel@ALevelInfo@@QAEXABVFString@@K@Z @ 9134
?eventServerValidationResponse@APlayerController@@QAEXABVFString@@@Z @ 9135
?eventSetAmbientShake@APlayerController@@QAEXMMVFVector@@MVFRotator@@M@Z @ 9136
?eventSetAnimAction@APawn@@QAEXVFName@@@Z @ 9137
?eventSetChangingHostFlag@UwMatchMaker@@QAEXK@Z @ 9138
?eventSetFocusTo@UInteractionMaster@@QAEXPAVUInteraction@@PAVUPlayer@@@Z @ 9139
?eventSetGRIInitialState@AActor@@QAEXXZ @ 9140
?eventSetGrammar@AGameInfo@@QAEXXZ @ 9141
?eventSetHandle@UStream@@QAEKH@Z @ 9142
?eventSetHeadScale@APawn@@QAEXM@Z @ 9143
?eventSetHostBlocking@UwMatchMaker@@QAEXK@Z @ 9144
?eventSetInitialState@AActor@@QAEXXZ @ 9145
?eventSetInitialState@UwWeaponFire@@QAEXXZ @ 9146
?eventSetNoUpdateAllGSSS@ALevelInfo@@QAEXXZ @ 9147
?eventSetOldTeamInfo@AGameInfo@@QAEXPAVAGameReplicationInfo@@@Z @ 9148
?eventSetPlayerID@AGameInfo@@QAEKPAVAPlayerController@@@Z @ 9149
?eventSetPrecached@APlayerController@@QAEXXZ @ 9150
?eventSetProgressMessage@APlayerController@@QAEXHABVFString@@VFColor@@@Z @ 9151
?eventSetProgressTime@APlayerController@@QAEXM@Z @ 9152
?eventSetRequiredGameResolution@UBaseGUIController@@QAEXABVFString@@@Z @ 9153
?eventSetShadowLight@APawn@@QAEXVFVector@@@Z @ 9154
?eventSetSprinting@APawn@@QAEXK@Z @ 9155
?eventSetTurretIdleAnimFrame@APawn@@QAEXMM@Z @ 9156
?eventSetWheelsScale@AVehicle@@QAEXM@Z @ 9157
?eventSetupSpecialPathAbilities@AController@@QAEXXZ @ 9158
?eventShakeViewEvent@APlayerController@@QAEXVFVector@@0M00M@Z @ 9159
?eventSimpleLogin@AGameInfo@@QAEKPAVAPlayerController@@PAVAPawn@@@Z @ 9160
?eventSoakStop@AController@@QAEXABVFString@@@Z @ 9161
?eventSpawnParticle@AEmitter@@QAEXH@Z @ 9162
?eventSpecialCost@ANavigationPoint@@QAEHPAVAPawn@@PAVUReachSpec@@@Z @ 9163
?eventSpecialHandling@AActor@@QAEPAV1@PAVAPawn@@@Z @ 9164
?eventStalled@AVehicle@@QAEXXZ @ 9165
?eventStartClientDemoRec@APlayerController@@QAEXXZ @ 9166
?eventStartCrouch@APawn@@QAEXM@Z @ 9167
?eventStartDriving@APawn@@QAEXPAVAVehicle@@@Z @ 9168
?eventStartLoading@UwMatchMaker@@QAEXXZ @ 9169
?eventStartProne@APawn@@QAEXM@Z @ 9170
?eventStopDriving@APawn@@QAEXPAVAVehicle@@@Z @ 9171
?eventStopFire@AwWeapon@@QAEXH@Z @ 9172
?eventStopPlayFiring@APawn@@QAEXXZ @ 9173
?eventStorePlayerScoreInfo@APawn@@QAEXXZ @ 9174
?eventStoreWeaponInfo@APawn@@QAEXXZ @ 9175
?eventStreamFinished@APlayerController@@QAEXHE@Z @ 9176
?eventSuggestMovePreparation@ANavigationPoint@@QAEKPAVAPawn@@@Z @ 9177
?eventSunLightDirectionUpdate@AActor@@QAEXVFVector@@@Z @ 9178
?eventSuperDesireability@AController@@QAEMPAVAPickup@@@Z @ 9179
?eventTakeDamage@AActor@@QAEXHPAVAPawn@@VFVector@@1PAVUClass@@HHK@Z @ 9180
?eventTakeHeadRoundBullet@AActor@@QAEXVFVector@@H@Z @ 9181
?eventTakeWaterDamage@AVehicle@@QAEXM@Z @ 9182
?eventTeamChanged@AVehicle@@QAEXXZ @ 9183
?eventTeamMessage@APlayerController@@QAEXPAVAPlayerReplicationInfo@@ABVFString@@VFName@@@Z @ 9184
?eventThirdPersonEffects@AWeaponAttachment@@QAEXXZ @ 9185
?eventTick@AActor@@QAEXM@Z @ 9186
?eventTimer@AActor@@QAEXXZ @ 9187
?eventTimer@UwWeaponFire@@QAEXXZ @ 9188
?eventTornOff@AActor@@QAEXXZ @ 9189
?eventTouch@AActor@@QAEXPAV1@@Z @ 9190
?eventTravelPostAccept@AActor@@QAEXXZ @ 9191
?eventTravelPreAccept@AActor@@QAEXXZ @ 9192
?eventTrigger@AActor@@QAEXPAV1@PAVAPawn@@@Z @ 9193
?eventTriggerEvent@AActor@@QAEXVFName@@PAV1@PAVAPawn@@@Z @ 9194
?eventUnPressButtons@APlayerController@@QAEXXZ @ 9195
?eventUnStalled@AVehicle@@QAEXXZ @ 9196
?eventUnTouch@AActor@@QAEXPAV1@@Z @ 9197
?eventUnTrigger@AActor@@QAEXPAV1@PAVAPawn@@@Z @ 9198
?eventUpdateCharacter@APlayerReplicationInfo@@QAEXXZ @ 9199
?eventUpdateEyeHeight@APawn@@QAEXM@Z @ 9200
?eventUpdateHit@AWeaponAttachment@@QAEXPAVAActor@@VFVector@@1PAVUMaterial@@@Z @ 9201
?eventUpdateLastKnownPosAndTime@APawn@@QAEXVFVector@@M@Z @ 9202
?eventUpdateMyLoadingState@UwBTLoadingScreenDrawer@@QAEXABVFString@@@Z @ 9203
?eventUpdateOtherLoadingState@UwBTLoadingScreenDrawer@@QAEXUFLoadingMessageItem@@ABVFString@@@Z @ 9204
?eventUpdatePenetrateHit@AWeaponAttachment@@QAEXPAPAVAActor@@PAVFVector@@1PAPAVUMaterial@@H@Z @ 9205
?eventUpdateProgress@UwBTLoadingScreenDrawer@@QAEKH@Z @ 9206
?eventUpdateSunLight@AProjector@@QAEXVFVector@@@Z @ 9207
?eventUpdateTiltForceFeedback@AVehicle@@QAEXXZ @ 9208
?eventUpdateVehicle@ASVehicle@@QAEXM@Z @ 9209
?eventUsedBy@AActor@@QAEXPAVAPawn@@@Z @ 9210
?eventVehicleDestroyed@ASVehicleFactory@@QAEXPAVAVehicle@@@Z @ 9211
?eventVehicleDestroyed@AwArrangeTurret@@QAEXPAVAVehicle@@@Z @ 9212
?eventVehicleLocked@AVehicle@@QAEXPAVAPawn@@@Z @ 9213
?eventVehiclePossessed@ASVehicleFactory@@QAEXPAVAVehicle@@@Z @ 9214
?eventVehiclePossessed@AwArrangeTurret@@QAEXPAVAVehicle@@@Z @ 9215
?eventVehicleStateReceived@AKVehicle@@QAEXXZ @ 9216
?eventVehicleStateReceived@ASVehicle@@QAEXXZ @ 9217
?eventVehicleUnPossessed@ASVehicleFactory@@QAEXPAVAVehicle@@@Z @ 9218
?eventVehicleUnPossessed@AwArrangeTurret@@QAEXPAVAVehicle@@@Z @ 9219
?eventVerifyLock@AVehicle@@QAEKPAVAActor@@AAPAV2@@Z @ 9220
?eventViewportInitialized@UConsole@@QAEXXZ @ 9221
?eventVoiceCommand@APlayerController@@QAEXABVFString@@0@Z @ 9222
?eventWeaponTick@AwWeapon@@QAEXM@Z @ 9223
?eventWorldSpaceOverlays@AHUD@@QAEXXZ @ 9224
?eventZoneChange@AActor@@QAEXPAVAZoneInfo@@@Z @ 9225
?eventalllog@AActor@@QAEXABVFString@@@Z @ 9226
?eventclearResultArray@UBtrTraceResult@@QAEXXZ @ 9227
?eventclog@AActor@@QAEXABVFString@@@Z @ 9228
?eventctlog@AActor@@QAEXABVFString@@@Z @ 9229
?eventdblog@AActor@@QAEXABVFString@@@Z @ 9230
?eventfClientHearSound@AController@@UAEXPAVAActor@@HABVFString@@VFVector@@KK@Z @ 9231
?eventfClientHearSound@APlayerController@@UAEXPAVAActor@@HABVFString@@VFVector@@KK@Z @ 9232
?eventgetResult@UBtrTraceResult@@QAEXAAUFResultData@@H@Z @ 9233
?eventrpclog@AActor@@QAEXABVFString@@@Z @ 9234
?eventwLoadOut@AWeaponAttachment@@QAEXHH@Z @ 9235
?eventwLoadOut@AwWeaponPickup@@QAEXHH@Z @ 9236
?execAbandonProjector@AProjector@@QAEXAAUFFrame@@QAX@Z @ 9237
?execAbortScene@ASceneManager@@QAEXAAUFFrame@@QAX@Z @ 9238
?execAddBoolToMap@UwBtrIni@@QAEXAAUFFrame@@QAX@Z @ 9239
?execAddClass@UPlayInfo@@QAEXAAUFFrame@@QAX@Z @ 9240
?execAddController@AController@@QAEXAAUFFrame@@QAX@Z @ 9241
?execAddFloatToMap@UwBtrIni@@QAEXAAUFFrame@@QAX@Z @ 9242
?execAddGSSS@AwGameStateStorageSender@@QAEXAAUFFrame@@QAX@Z @ 9243
?execAddIntToMap@UwBtrIni@@QAEXAAUFFrame@@QAX@Z @ 9244
?execAddSetting@UPlayInfo@@QAEXAAUFFrame@@QAX@Z @ 9245
?execAddStringToMap@UwBtrIni@@QAEXAAUFFrame@@QAX@Z @ 9246
?execAddToNavigation@APickup@@QAEXAAUFFrame@@QAX@Z @ 9247
?execAddToPackageMap@AActor@@QAEXAAUFFrame@@QAX@Z @ 9248
?execAddToRoot@UwBTLoadingScreenDrawer@@QAEXAAUFFrame@@QAX@Z @ 9249
?execAdd_ColorColor@AActor@@QAEXAAUFFrame@@QAX@Z @ 9250
?execAdjustVolume@AActor@@QAEXAAUFFrame@@QAX@Z @ 9251
?execAllActors@AActor@@QAEXAAUFFrame@@QAX@Z @ 9252
?execAllDataObjects@AGameInfo@@QAEXAAUFFrame@@QAX@Z @ 9253
?execAllNames@AwGameStateStorageSender@@QAEXAAUFFrame@@QAX@Z @ 9254
?execAllValues@AwGameStateStorageSender@@QAEXAAUFFrame@@QAX@Z @ 9255
?execAllowMusicPlayback@AActor@@QAEXAAUFFrame@@QAX@Z @ 9256
?execAnimBlendParams@AActor@@QAEXAAUFFrame@@QAX@Z @ 9257
?execAnimBlendToAlpha@AActor@@QAEXAAUFFrame@@QAX@Z @ 9258
?execAnimIsInGroup@AActor@@QAEXAAUFFrame@@QAX@Z @ 9259
?execAnimStopLooping@AActor@@QAEXAAUFFrame@@QAX@Z @ 9260
?execAttachActor@AProjector@@QAEXAAUFFrame@@QAX@Z @ 9261
?execAttachProjector@AProjector@@QAEXAAUFFrame@@QAX@Z @ 9262
?execAttachToBone@AActor@@QAEXAAUFFrame@@QAX@Z @ 9263
?execAutonomousPhysics@AActor@@QAEXAAUFFrame@@QAX@Z @ 9264
?execBasedActors@AActor@@QAEXAAUFFrame@@QAX@Z @ 9265
?execBeginCache@UCanvas@@QAEXAAUFFrame@@QAX@Z @ 9266
?execBoneRefresh@AActor@@QAEXAAUFFrame@@QAX@Z @ 9267
?execBtrDrawTextHK@UCanvas@@QAEXAAUFFrame@@QAX@Z @ 9268
?execBtrDrawTextHK_UseModulateColor@UCanvas@@QAEXAAUFFrame@@QAX@Z @ 9269
?execBtrDrawTextJustified@UCanvas@@QAEXAAUFFrame@@QAX@Z @ 9270
?execBtrDrawTextJustifiedCache@UCanvas@@QAEXAAUFFrame@@QAX@Z @ 9271
?execBtrFontReset@UCanvas@@QAEXAAUFFrame@@QAX@Z @ 9272
?execBtrFontTextureGC@UCanvas@@QAEXAAUFFrame@@QAX@Z @ 9273
?execBtrSaveTexture@UCanvas@@QAEXAAUFFrame@@QAX@Z @ 9274
?execBtrTextSize@UCanvas@@QAEXAAUFFrame@@QAX@Z @ 9275
?execBtrTextSizeLH@UCanvas@@QAEXAAUFFrame@@QAX@Z @ 9276
?execBtrTextSizeOLD@UCanvas@@QAEXAAUFFrame@@QAX@Z @ 9277
?execBtrToggleUseD3DFont@UCanvas@@QAEXAAUFFrame@@QAX@Z @ 9278
?execCalcContactRegion@UKarmaParamsCollision@@QAEXAAUFFrame@@QAX@Z @ 9279
?execCanMakePathTo@AController@@QAEXAAUFFrame@@QAX@Z @ 9280
?execCanSee@AController@@QAEXAAUFFrame@@QAX@Z @ 9281
?execCanSee@APawn@@QAEXAAUFFrame@@QAX@Z @ 9282
?execChangeBaseParamsFeedbackEffect@AActor@@QAEXAAUFFrame@@QAX@Z @ 9283
?execChangeSpringFeedbackEffect@AActor@@QAEXAAUFFrame@@QAX@Z @ 9284
?execCheckHolePunchingResult@UwMatchMaker@@QAEXAAUFFrame@@QAX@Z @ 9285
?execCheckProneRotate@APawn@@QAEXAAUFFrame@@QAX@Z @ 9286
?execCheckRelevantTimeOut@APawn@@QAEXAAUFFrame@@QAX@Z @ 9287
?execCheckSpeedHack@APlayerController@@QAEXAAUFFrame@@QAX@Z @ 9288
?execChildActors@AActor@@QAEXAAUFFrame@@QAX@Z @ 9289
?execClear@UCanvas@@QAEXAAUFFrame@@QAX@Z @ 9290
?execClear@UPlayInfo@@QAEXAAUFFrame@@QAX@Z @ 9291
?execClearStayingDebugLines@AActor@@QAEXAAUFFrame@@QAX@Z @ 9292
?execClientHearSound@APlayerController@@QAEXAAUFFrame@@QAX@Z @ 9293
?execClientInitNatChecker@UwMatchMaker@@QAEXAAUFFrame@@QAX@Z @ 9294
?execClientTravel@APlayerController@@QAEXAAUFFrame@@QAX@Z @ 9295
?execClientValidate@APlayerController@@QAEXAAUFFrame@@QAX@Z @ 9296
?execClock@AActor@@QAEXAAUFFrame@@QAX@Z @ 9297
?execCloseLog@AFileLog@@QAEXAAUFFrame@@QAX@Z @ 9298
?execCloseWeb@APlayerController@@QAEXAAUFFrame@@QAX@Z @ 9299
?execCollidingActors@AActor@@QAEXAAUFFrame@@QAX@Z @ 9300
?execConsoleCmd_DS@UwMatchMaker@@QAEXAAUFFrame@@QAX@Z @ 9301
?execConsoleCommand@AActor@@QAEXAAUFFrame@@QAX@Z @ 9302
?execConsoleCommand@APlayerController@@QAEXAAUFFrame@@QAX@Z @ 9303
?execConsoleCommand@UInteraction@@QAEXAAUFFrame@@QAX@Z @ 9304
?execCopyObjectToClipboard@AActor@@QAEXAAUFFrame@@QAX@Z @ 9305
?execCopyToClipboard@APlayerController@@QAEXAAUFFrame@@QAX@Z @ 9306
?execCreateDataObject@AGameInfo@@QAEXAAUFFrame@@QAX@Z @ 9307
?execCreateDirectory@UStreamInterface@@QAEXAAUFFrame@@QAX@Z @ 9308
?execCreateLoadingStater@UwMatchMaker@@QAEXAAUFFrame@@QAX@Z @ 9309
?execCreateStream@UStreamInterface@@QAEXAAUFFrame@@QAX@Z @ 9310
?execCurrentLIPSincAnim@AActor@@QAEXAAUFFrame@@QAX@Z @ 9311
?execDebugClock@AActor@@QAEXAAUFFrame@@QAX@Z @ 9312
?execDebugUnclock@AActor@@QAEXAAUFFrame@@QAX@Z @ 9313
?execDelFireMode@AwWeapon@@QAEXAAUFFrame@@QAX@Z @ 9314
?execDeleteDataObject@AGameInfo@@QAEXAAUFFrame@@QAX@Z @ 9315
?execDeletePackage@AGameInfo@@QAEXAAUFFrame@@QAX@Z @ 9316
?execDemoPlaySound@AActor@@QAEXAAUFFrame@@QAX@Z @ 9317
?execDestoryLoadingStater@UwMatchMaker@@QAEXAAUFFrame@@QAX@Z @ 9318
?execDestroy@AActor@@QAEXAAUFFrame@@QAX@Z @ 9319
?execDetachActor@AProjector@@QAEXAAUFFrame@@QAX@Z @ 9320
?execDetachFromBone@AActor@@QAEXAAUFFrame@@QAX@Z @ 9321
?execDetachProjector@AProjector@@QAEXAAUFFrame@@QAX@Z @ 9322
?execDetailChange@ALevelInfo@@QAEXAAUFFrame@@QAX@Z @ 9323
?execDoTraceNative@UwInstantFire@@QAEXAAUFFrame@@QAX@Z @ 9324
?execDownloadWebzenShopItemList@UwGameManager@@QAEXAAUFFrame@@QAX@Z @ 9325
?execDraw2DLine@UCanvas@@QAEXAAUFFrame@@QAX@Z @ 9326
?execDraw2DPoint@UCanvas@@QAEXAAUFFrame@@QAX@Z @ 9327
?execDraw3DLine@AHUD@@QAEXAAUFFrame@@QAX@Z @ 9328
?execDrawActor@UCanvas@@QAEXAAUFFrame@@QAX@Z @ 9329
?execDrawActorClipped@UCanvas@@QAEXAAUFFrame@@QAX@Z @ 9330
?execDrawBox@AHUD@@QAEXAAUFFrame@@QAX@Z @ 9331
?execDrawCanvasLine@AHUD@@QAEXAAUFFrame@@QAX@Z @ 9332
?execDrawCircle@AHUD@@QAEXAAUFFrame@@QAX@Z @ 9333
?execDrawDebugCircle@AActor@@QAEXAAUFFrame@@QAX@Z @ 9334
?execDrawDebugLine@AActor@@QAEXAAUFFrame@@QAX@Z @ 9335
?execDrawDebugSphere@AActor@@QAEXAAUFFrame@@QAX@Z @ 9336
?execDrawDirectionalArrow@AHUD@@QAEXAAUFFrame@@QAX@Z @ 9337
?execDrawPortal@UCanvas@@QAEXAAUFFrame@@QAX@Z @ 9338
?execDrawPortal@UScriptedTexture@@QAEXAAUFFrame@@QAX@Z @ 9339
?execDrawScreenActor@UCanvas@@QAEXAAUFFrame@@QAX@Z @ 9340
?execDrawScreenActorWithViewport@UCanvas@@QAEXAAUFFrame@@QAX@Z @ 9341
?execDrawSphere@AHUD@@QAEXAAUFFrame@@QAX@Z @ 9342
?execDrawStayingDebugLine@AActor@@QAEXAAUFFrame@@QAX@Z @ 9343
?execDrawText@UCanvas@@QAEXAAUFFrame@@QAX@Z @ 9344
?execDrawText@UScriptedTexture@@QAEXAAUFFrame@@QAX@Z @ 9345
?execDrawTextClipped@UCanvas@@QAEXAAUFFrame@@QAX@Z @ 9346
?execDrawTextJustified@UCanvas@@QAEXAAUFFrame@@QAX@Z @ 9347
?execDrawTile@UCanvas@@QAEXAAUFFrame@@QAX@Z @ 9348
?execDrawTile@UScriptedTexture@@QAEXAAUFFrame@@QAX@Z @ 9349
?execDrawTileCache@UCanvas@@QAEXAAUFFrame@@QAX@Z @ 9350
?execDrawTileClipped@UCanvas@@QAEXAAUFFrame@@QAX@Z @ 9351
?execDrawTileCroppedStretched@UCanvas@@QAEXAAUFFrame@@QAX@Z @ 9352
?execDrawTileExact@UCanvas@@QAEXAAUFFrame@@QAX@Z @ 9353
?execDrawTileExactWithRotation@UCanvas@@QAEXAAUFFrame@@QAX@Z @ 9354
?execDrawTileJustified@UCanvas@@QAEXAAUFFrame@@QAX@Z @ 9355
?execDrawTilePartialStretched@UCanvas@@QAEXAAUFFrame@@QAX@Z @ 9356
?execDrawTileScaled@UCanvas@@QAEXAAUFFrame@@QAX@Z @ 9357
?execDrawTileStretched@UCanvas@@QAEXAAUFFrame@@QAX@Z @ 9358
?execDumpTag@UStreamTag@@QAEXAAUFFrame@@QAX@Z @ 9359
?execDynamicActors@AActor@@QAEXAAUFFrame@@QAX@Z @ 9360
?execEAdjustJump@AController@@QAEXAAUFFrame@@QAX@Z @ 9361
?execEnableChannelNotify@AActor@@QAEXAAUFFrame@@QAX@Z @ 9362
?execEncompasses@AVolume@@QAEXAAUFFrame@@QAX@Z @ 9363
?execEndCache@UCanvas@@QAEXAAUFFrame@@QAX@Z @ 9364
?execEndClimbLadder@AController@@QAEXAAUFFrame@@QAX@Z @ 9365
?execError@AActor@@QAEXAAUFFrame@@QAX@Z @ 9366
?execFastTrace@AActor@@QAEXAAUFFrame@@QAX@Z @ 9367
?execFindBestInventoryPath@AController@@QAEXAAUFFrame@@QAX@Z @ 9368
?execFindBestSuperPickup@AController@@QAEXAAUFFrame@@QAX@Z @ 9369
?execFindIndex@UPlayInfo@@QAEXAAUFFrame@@QAX@Z @ 9370
?execFindPathTo@AController@@QAEXAAUFFrame@@QAX@Z @ 9371
?execFindPathToIntercept@AController@@QAEXAAUFFrame@@QAX@Z @ 9372
?execFindPathToward@AController@@QAEXAAUFFrame@@QAX@Z @ 9373
?execFindPathTowardNearest@AController@@QAEXAAUFFrame@@QAX@Z @ 9374
?execFindRandomDest@AController@@QAEXAAUFFrame@@QAX@Z @ 9375
?execFindStairRotation@APlayerController@@QAEXAAUFFrame@@QAX@Z @ 9376
?execFinishAnim@AActor@@QAEXAAUFFrame@@QAX@Z @ 9377
?execFinishInterpolation@AActor@@QAEXAAUFFrame@@QAX@Z @ 9378
?execFinishRotation@AController@@QAEXAAUFFrame@@QAX@Z @ 9379
?execFlush@UCanvas@@QAEXAAUFFrame@@QAX@Z @ 9380
?execForceCrouch@APawn@@QAEXAAUFFrame@@QAX@Z @ 9381
?execForceDisconnectGameWithErrMessage@UwMatchMaker@@QAEXAAUFFrame@@QAX@Z @ 9382
?execForceDisconnectUDPConnectionClientSide@UwMatchMaker@@QAEXAAUFFrame@@QAX@Z @ 9383
?execForceDisconnectUDPConnectionHostSide@UwMatchMaker@@QAEXAAUFFrame@@QAX@Z @ 9384
?execForceFeedbackSupported@AActor@@QAEXAAUFFrame@@QAX@Z @ 9385
?execForceLoadTexture@ALevelInfo@@QAEXAAUFFrame@@QAX@Z @ 9386
?execForcePlayIdle@APawn@@QAEXAAUFFrame@@QAX@Z @ 9387
?execForceSetLoadingStep@UwMatchMaker@@QAEXAAUFFrame@@QAX@Z @ 9388
?execForceSetOwner@AwGameStateStorageSender@@QAEXAAUFFrame@@QAX@Z @ 9389
?execForceStandup@APawn@@QAEXAAUFFrame@@QAX@Z @ 9390
?execFreeObjectDupCheck@UObjectPool@@QAEXAAUFFrame@@QAX@Z @ 9391
?execFreezeAnimAt@AActor@@QAEXAAUFFrame@@QAX@Z @ 9392
?execGet4WayDirection@APawn@@QAEXAAUFFrame@@QAX@Z @ 9393
?execGet@UwCharacterManager@@QAEXAAUFFrame@@QAX@Z @ 9394
?execGetAddressURL@ALevelInfo@@QAEXAAUFFrame@@QAX@Z @ 9395
?execGetAllInt@AActor@@QAEXAAUFFrame@@QAX@Z @ 9396
?execGetAllIntDesc@AActor@@QAEXAAUFFrame@@QAX@Z @ 9397
?execGetAnimParams@AActor@@QAEXAAUFFrame@@QAX@Z @ 9398
?execGetAnnouncerList@UCacheManager@@QAEXAAUFFrame@@QAX@Z @ 9399
?execGetAnnouncerRecord@UCacheManager@@QAEXAAUFFrame@@QAX@Z @ 9400
?execGetBaseDirectory@UStreamInterface@@QAEXAAUFFrame@@QAX@Z @ 9401
?execGetBoneCoords@AActor@@QAEXAAUFFrame@@QAX@Z @ 9402
?execGetBoneRotation@AActor@@QAEXAAUFFrame@@QAX@Z @ 9403
?execGetCacheEntry@AActor@@QAEXAAUFFrame@@QAX@Z @ 9404
?execGetCameraLocation@UCanvas@@QAEXAAUFFrame@@QAX@Z @ 9405
?execGetClientVersion@UwMatchMaker@@QAEXAAUFFrame@@QAX@Z @ 9406
?execGetClosestBone@AActor@@QAEXAAUFFrame@@QAX@Z @ 9407
?execGetClosestNavigationPoint@ALevelInfo@@QAEXAAUFFrame@@QAX@Z @ 9408
?execGetCrosshairList@UCacheManager@@QAEXAAUFFrame@@QAX@Z @ 9409
?execGetDefaultURL@APlayerController@@QAEXAAUFFrame@@QAX@Z @ 9410
?execGetDetailOffset@APawn@@QAEXAAUFFrame@@QAX@Z @ 9411
?execGetDirectoryContents@UStreamInterface@@QAEXAAUFFrame@@QAX@Z @ 9412
?execGetDriveLetters@UStreamInterface@@QAEXAAUFFrame@@QAX@Z @ 9413
?execGetEntryLevel@APlayerController@@QAEXAAUFFrame@@QAX@Z @ 9414
?execGetGameRecord@UCacheManager@@QAEXAAUFFrame@@QAX@Z @ 9415
?execGetGameTypeList@UCacheManager@@QAEXAAUFFrame@@QAX@Z @ 9416
?execGetInstigatorsDirectionbyDot@AProjectile@@QAEXAAUFFrame@@QAX@Z @ 9417
?execGetIsEnableProne@APawn@@QAEXAAUFFrame@@QAX@Z @ 9418
?execGetItemArrayIndex@UwGameManager@@QAEXAAUFFrame@@QAX@Z @ 9419
?execGetKeySleepTime@APlayerController@@QAEXAAUFFrame@@QAX@Z @ 9420
?execGetLocalURL@ALevelInfo@@QAEXAAUFFrame@@QAX@Z @ 9421
?execGetMapFileName@AGameStats@@QAEXAAUFFrame@@QAX@Z @ 9422
?execGetMapList@UCacheManager@@QAEXAAUFFrame@@QAX@Z @ 9423
?execGetMapName@AActor@@QAEXAAUFFrame@@QAX@Z @ 9424
?execGetMapRecord@UCacheManager@@QAEXAAUFFrame@@QAX@Z @ 9425
?execGetMatchMaker@ALevelInfo@@QAEXAAUFFrame@@QAX@Z @ 9426
?execGetMeshName@AActor@@QAEXAAUFFrame@@QAX@Z @ 9427
?execGetMusicDuration@AActor@@QAEXAAUFFrame@@QAX@Z @ 9428
?execGetMutatorList@UCacheManager@@QAEXAAUFFrame@@QAX@Z @ 9429
?execGetMutatorRecord@UCacheManager@@QAEXAAUFFrame@@QAX@Z @ 9430
?execGetNameFromStr@AActor@@QAEXAAUFFrame@@QAX@Z @ 9431
?execGetNetworkNumber@AGameInfo@@QAEXAAUFFrame@@QAX@Z @ 9432
?execGetNextInt@AActor@@QAEXAAUFFrame@@QAX@Z @ 9433
?execGetNextIntDesc@AActor@@QAEXAAUFFrame@@QAX@Z @ 9434
?execGetNextSkin@AActor@@QAEXAAUFFrame@@QAX@Z @ 9435
?execGetNotifyChannel@AActor@@QAEXAAUFFrame@@QAX@Z @ 9436
?execGetPartsGroupArrayIndex@UwGameManager@@QAEXAAUFFrame@@QAX@Z @ 9437
?execGetPathSeparator@UStreamBase@@QAEXAAUFFrame@@QAX@Z @ 9438
?execGetPhysicsVolume@ALevelInfo@@QAEXAAUFFrame@@QAX@Z @ 9439
?execGetPlayerIDHash@APlayerController@@QAEXAAUFFrame@@QAX@Z @ 9440
?execGetPlayerNetworkAddress@APlayerController@@QAEXAAUFFrame@@QAX@Z @ 9441
?execGetRenderBoundingSphere@AActor@@QAEXAAUFFrame@@QAX@Z @ 9442
?execGetRootLocation@AActor@@QAEXAAUFFrame@@QAX@Z @ 9443
?execGetRootLocationDelta@AActor@@QAEXAAUFFrame@@QAX@Z @ 9444
?execGetRootRotation@AActor@@QAEXAAUFFrame@@QAX@Z @ 9445
?execGetRootRotationDelta@AActor@@QAEXAAUFFrame@@QAX@Z @ 9446
?execGetSavedGames@AGameInfo@@QAEXAAUFFrame@@QAX@Z @ 9447
?execGetServerNetworkAddress@APlayerController@@QAEXAAUFFrame@@QAX@Z @ 9448
?execGetSettings@UPlayInfo@@QAEXAAUFFrame@@QAX@Z @ 9449
?execGetSkillArrayIndex@UwGameManager@@QAEXAAUFFrame@@QAX@Z @ 9450
?execGetSoundDuration@AActor@@QAEXAAUFFrame@@QAX@Z @ 9451
?execGetStatsIdentifier@AGameStats@@QAEXAAUFFrame@@QAX@Z @ 9452
?execGetStrLoadingState@UwMatchMaker@@QAEXAAUFFrame@@QAX@Z @ 9453
?execGetTeamNum@AController@@QAEXAAUFFrame@@QAX@Z @ 9454
?execGetTeamNum@APawn@@QAEXAAUFFrame@@QAX@Z @ 9455
?execGetTeamSymbolList@UCacheManager@@QAEXAAUFFrame@@QAX@Z @ 9456
?execGetTotalSceneTime@ASceneManager@@QAEXAAUFFrame@@QAX@Z @ 9457
?execGetURLMap@AActor@@QAEXAAUFFrame@@QAX@Z @ 9458
?execGetURLProtocol@APlayerController@@QAEXAAUFFrame@@QAX@Z @ 9459
?execGetUrlOption@AActor@@QAEXAAUFFrame@@QAX@Z @ 9460
?execGetValue@AwGameStateStorageSender@@QAEXAAUFFrame@@QAX@Z @ 9461
?execGetVehicleList@UCacheManager@@QAEXAAUFFrame@@QAX@Z @ 9462
?execGetVehicleRecord@UCacheManager@@QAEXAAUFFrame@@QAX@Z @ 9463
?execGetWeaponCustomInfoIndex@UwGameManager@@QAEXAAUFFrame@@QAX@Z @ 9464
?execGetWeaponCustomPartsIndex@UwGameManager@@QAEXAAUFFrame@@QAX@Z @ 9465
?execGetWeaponList@UCacheManager@@QAEXAAUFFrame@@QAX@Z @ 9466
?execGetWeaponRecord@UCacheManager@@QAEXAAUFFrame@@QAX@Z @ 9467
?execGraphData@AKVehicle@@QAEXAAUFFrame@@QAX@Z @ 9468
?execGraphData@ASVehicle@@QAEXAAUFFrame@@QAX@Z @ 9469
?execHasAnim@AActor@@QAEXAAUFFrame@@QAX@Z @ 9470
?execHasChannel@APawn@@QAEXAAUFFrame@@QAX@Z @ 9471
?execHasLIPSincAnim@AActor@@QAEXAAUFFrame@@QAX@Z @ 9472
?execHostInitNatChecker@UwMatchMaker@@QAEXAAUFFrame@@QAX@Z @ 9473
?execInLatentExecution@AController@@QAEXAAUFFrame@@QAX@Z @ 9474
?execInitCache@UCacheManager@@QAEXAAUFFrame@@QAX@Z @ 9475
?execInitNative@UwCharacterManager@@QAEXAAUFFrame@@QAX@Z @ 9476
?execInitSplinePath@USpline@@QAEXAAUFFrame@@QAX@Z @ 9477
?execInitSplineRot@USpline@@QAEXAAUFFrame@@QAX@Z @ 9478
?execInitWeaponFires@AwWeapon@@QAEXAAUFFrame@@QAX@Z @ 9479
?execInitialize@UInteraction@@QAEXAAUFFrame@@QAX@Z @ 9480
?execIs2003Content@UCacheManager@@QAEXAAUFFrame@@QAX@Z @ 9481
?execIs2004Content@UCacheManager@@QAEXAAUFFrame@@QAX@Z @ 9482
?execIsAnimating@AActor@@QAEXAAUFFrame@@QAX@Z @ 9483
?execIsBPContent@UCacheManager@@QAEXAAUFFrame@@QAX@Z @ 9484
?execIsCapturing@ALevelInfo@@QAEXAAUFFrame@@QAX@Z @ 9485
?execIsCaseSensitive@UStreamBase@@QAEXAAUFFrame@@QAX@Z @ 9486
?execIsCompletedLoading@UwMatchMaker@@QAEXAAUFFrame@@QAX@Z @ 9487
?execIsDefaultContent@UCacheManager@@QAEXAAUFFrame@@QAX@Z @ 9488
?execIsDemoBuild@ALevelInfo@@QAEXAAUFFrame@@QAX@Z @ 9489
?execIsEntry@ALevelInfo@@QAEXAAUFFrame@@QAX@Z @ 9490
?execIsJoinedTo@AActor@@QAEXAAUFFrame@@QAX@Z @ 9491
?execIsNetReady@APawn@@QAEXAAUFFrame@@QAX@Z @ 9492
?execIsPaused@UStreamInteraction@@QAEXAAUFFrame@@QAX@Z @ 9493
?execIsPendingConnection@ALevelInfo@@QAEXAAUFFrame@@QAX@Z @ 9494
?execIsPenetrate@AActor@@QAEXAAUFFrame@@QAX@Z @ 9495
?execIsPlayingLIPSincAnim@AActor@@QAEXAAUFFrame@@QAX@Z @ 9496
?execIsPlayingMusic@AActor@@QAEXAAUFFrame@@QAX@Z @ 9497
?execIsSoftwareRendering@ALevelInfo@@QAEXAAUFFrame@@QAX@Z @ 9498
?execIsSoundPlayingHK@AActor@@QAEXAAUFFrame@@QAX@Z @ 9499
?execIsTweening@AActor@@QAEXAAUFFrame@@QAX@Z @ 9500
?execIsUseGraphicOption@ALevelInfo@@QAEXAAUFFrame@@QAX@Z @ 9501
?execIterateActorArray@AActor@@QAEXAAUFFrame@@QAX@Z @ 9502
?execIterateObjectArray@AActor@@QAEXAAUFFrame@@QAX@Z @ 9503
?execKAddAngularImpulse@AActor@@QAEXAAUFFrame@@QAX@Z @ 9504
?execKAddBoneLifter@AActor@@QAEXAAUFFrame@@QAX@Z @ 9505
?execKAddImpulse@AActor@@QAEXAAUFFrame@@QAX@Z @ 9506
?execKDisableCollision@AActor@@QAEXAAUFFrame@@QAX@Z @ 9507
?execKDrawRigidBodyState@AActor@@QAEXAAUFFrame@@QAX@Z @ 9508
?execKEnableCollision@AActor@@QAEXAAUFFrame@@QAX@Z @ 9509
?execKFreezeRagdoll@AActor@@QAEXAAUFFrame@@QAX@Z @ 9510
?execKGetActorGravScale@AActor@@QAEXAAUFFrame@@QAX@Z @ 9511
?execKGetCOMOffset@AActor@@QAEXAAUFFrame@@QAX@Z @ 9512
?execKGetCOMPosition@AActor@@QAEXAAUFFrame@@QAX@Z @ 9513
?execKGetConstraintForce@AKConstraint@@QAEXAAUFFrame@@QAX@Z @ 9514
?execKGetConstraintTorque@AKConstraint@@QAEXAAUFFrame@@QAX@Z @ 9515
?execKGetDampingProps@AActor@@QAEXAAUFFrame@@QAX@Z @ 9516
?execKGetFriction@AActor@@QAEXAAUFFrame@@QAX@Z @ 9517
?execKGetImpactThreshold@AActor@@QAEXAAUFFrame@@QAX@Z @ 9518
?execKGetInertiaTensor@AActor@@QAEXAAUFFrame@@QAX@Z @ 9519
?execKGetMass@AActor@@QAEXAAUFFrame@@QAX@Z @ 9520
?execKGetRBQuaternion@AActor@@QAEXAAUFFrame@@QAX@Z @ 9521
?execKGetRestitution@AActor@@QAEXAAUFFrame@@QAX@Z @ 9522
?execKGetRigidBodyState@AActor@@QAEXAAUFFrame@@QAX@Z @ 9523
?execKGetSimParams@AActor@@QAEXAAUFFrame@@QAX@Z @ 9524
?execKGetSkelMass@AActor@@QAEXAAUFFrame@@QAX@Z @ 9525
?execKIsAwake@AActor@@QAEXAAUFFrame@@QAX@Z @ 9526
?execKIsRagdollAvailable@AActor@@QAEXAAUFFrame@@QAX@Z @ 9527
?execKMakeRagdollAvailable@AActor@@QAEXAAUFFrame@@QAX@Z @ 9528
?execKRBVecFromVector@AActor@@QAEXAAUFFrame@@QAX@Z @ 9529
?execKRBVecToVector@AActor@@QAEXAAUFFrame@@QAX@Z @ 9530
?execKRemoveAllBoneLifters@AActor@@QAEXAAUFFrame@@QAX@Z @ 9531
?execKRemoveLifterFromBone@AActor@@QAEXAAUFFrame@@QAX@Z @ 9532
?execKScaleJointLimits@AActor@@QAEXAAUFFrame@@QAX@Z @ 9533
?execKSetActorGravScale@AActor@@QAEXAAUFFrame@@QAX@Z @ 9534
?execKSetBlockKarma@AActor@@QAEXAAUFFrame@@QAX@Z @ 9535
?execKSetCOMOffset@AActor@@QAEXAAUFFrame@@QAX@Z @ 9536
?execKSetDampingProps@AActor@@QAEXAAUFFrame@@QAX@Z @ 9537
?execKSetFriction@AActor@@QAEXAAUFFrame@@QAX@Z @ 9538
?execKSetImpactThreshold@AActor@@QAEXAAUFFrame@@QAX@Z @ 9539
?execKSetInertiaTensor@AActor@@QAEXAAUFFrame@@QAX@Z @ 9540
?execKSetMass@AActor@@QAEXAAUFFrame@@QAX@Z @ 9541
?execKSetRestitution@AActor@@QAEXAAUFFrame@@QAX@Z @ 9542
?execKSetSimParams@AActor@@QAEXAAUFFrame@@QAX@Z @ 9543
?execKSetSkelVel@AActor@@QAEXAAUFFrame@@QAX@Z @ 9544
?execKSetStayUpright@AActor@@QAEXAAUFFrame@@QAX@Z @ 9545
?execKSetStayUprightParams@AActor@@QAEXAAUFFrame@@QAX@Z @ 9546
?execKUpdateConstraintParams@AKConstraint@@QAEXAAUFFrame@@QAX@Z @ 9547
?execKWake@AActor@@QAEXAAUFFrame@@QAX@Z @ 9548
?execKill@AEmitter@@QAEXAAUFFrame@@QAX@Z @ 9549
?execLineOfSightTo@AController@@QAEXAAUFFrame@@QAX@Z @ 9550
?execLinkMesh@AActor@@QAEXAAUFFrame@@QAX@Z @ 9551
?execLinkSkelAnim@AActor@@QAEXAAUFFrame@@QAX@Z @ 9552
?execLoadDataObject@AGameInfo@@QAEXAAUFFrame@@QAX@Z @ 9553
?execLoadID3Tag@UStream@@QAEXAAUFFrame@@QAX@Z @ 9554
?execLoadKilllog@ALevelInfo@@QAEXAAUFFrame@@QAX@Z @ 9555
?execLoadMapList@AGameInfo@@QAEXAAUFFrame@@QAX@Z @ 9556
?execLoadPlaylist@UStreamInterface@@QAEXAAUFFrame@@QAX@Z @ 9557
?execLoadSRGrammar@AGameInfo@@QAEXAAUFFrame@@QAX@Z @ 9558
?execLoadUsermove@ALevelInfo@@QAEXAAUFFrame@@QAX@Z @ 9559
?execLoadUserzone@ALevelInfo@@QAEXAAUFFrame@@QAX@Z @ 9560
?execLocalPerform@ASecurity@@QAEXAAUFFrame@@QAX@Z @ 9561
?execLockRootMotion@AActor@@QAEXAAUFFrame@@QAX@Z @ 9562
?execLogf@AFileLog@@QAEXAAUFFrame@@QAX@Z @ 9563
?execLoopAnim@AActor@@QAEXAAUFFrame@@QAX@Z @ 9564
?execLowChangeClient@UwMatchMaker@@QAEXAAUFFrame@@QAX@Z @ 9565
?execLowChangeServer@UwMatchMaker@@QAEXAAUFFrame@@QAX@Z @ 9566
?execLowClear@AwGameStateStorageSender@@QAEXAAUFFrame@@QAX@Z @ 9567
?execLowDelete@AwGameStateStorageSender@@QAEXAAUFFrame@@QAX@Z @ 9568
?execLowRelayServerOff@UwMatchMaker@@QAEXAAUFFrame@@QAX@Z @ 9569
?execLowRelayServerOn@UwMatchMaker@@QAEXAAUFFrame@@QAX@Z @ 9570
?execLowSet@AwGameStateStorageSender@@QAEXAAUFFrame@@QAX@Z @ 9571
?execMakeHSResponseData@UwMatchMaker@@QAEXAAUFFrame@@QAX@Z @ 9572
?execMakeMD5@UwMatchMaker@@QAEXAAUFFrame@@QAX@Z @ 9573
?execMakeNoise@AActor@@QAEXAAUFFrame@@QAX@Z @ 9574
?execMaterialUSize@UMaterial@@QAEXAAUFFrame@@QAX@Z @ 9575
?execMaterialVSize@UMaterial@@QAEXAAUFFrame@@QAX@Z @ 9576
?execMove@AActor@@QAEXAAUFFrame@@QAX@Z @ 9577
?execMoveCacheEntry@AActor@@QAEXAAUFFrame@@QAX@Z @ 9578
?execMoveSmooth@AActor@@QAEXAAUFFrame@@QAX@Z @ 9579
?execMoveTo@AController@@QAEXAAUFFrame@@QAX@Z @ 9580
?execMoveToward@AController@@QAEXAAUFFrame@@QAX@Z @ 9581
?execMultiTrace@AActor@@QAEXAAUFFrame@@QAX@Z @ 9582
?execMultiplyEqual_StrStr@UStreamBase@@QAEXAAUFFrame@@QAX@Z @ 9583
?execMultiply_ColorFloat@AActor@@QAEXAAUFFrame@@QAX@Z @ 9584
?execMultiply_FloatColor@AActor@@QAEXAAUFFrame@@QAX@Z @ 9585
?execMultiply_StrStr@UStreamBase@@QAEXAAUFFrame@@QAX@Z @ 9586
?execNatServerAddrStoreToEngine@UwMatchMaker@@QAEXAAUFFrame@@QAX@Z @ 9587
?execNativePerform@ASecurity@@QAEXAAUFFrame@@QAX@Z @ 9588
?execNativeSettingAfterChangedHost@AGameInfo@@QAEXAAUFFrame@@QAX@Z @ 9589
?execNextSplinePos@USpline@@QAEXAAUFFrame@@QAX@Z @ 9590
?execNextSplineRot@USpline@@QAEXAAUFFrame@@QAX@Z @ 9591
?execOnlyAffectPawns@AActor@@QAEXAAUFFrame@@QAX@Z @ 9592
?execOpenLog@AFileLog@@QAEXAAUFFrame@@QAX@Z @ 9593
?execOpenWeb@APlayerController@@QAEXAAUFFrame@@QAX@Z @ 9594
?execParseKillMessage@AGameInfo@@QAEXAAUFFrame@@QAX@Z @ 9595
?execPasteFromClipboard@APlayerController@@QAEXAAUFFrame@@QAX@Z @ 9596
?execPauseStream@AActor@@QAEXAAUFFrame@@QAX@Z @ 9597
?execPickAnyTarget@AController@@QAEXAAUFFrame@@QAX@Z @ 9598
?execPickTarget@AController@@QAEXAAUFFrame@@QAX@Z @ 9599
?execPickWallAdjust@AController@@QAEXAAUFFrame@@QAX@Z @ 9600
?execPlayAnim@AActor@@QAEXAAUFFrame@@QAX@Z @ 9601
?execPlayFeedbackEffect@AActor@@QAEXAAUFFrame@@QAX@Z @ 9602
?execPlayLIPSincAnim@AActor@@QAEXAAUFFrame@@QAX@Z @ 9603
?execPlayMusic@AActor@@QAEXAAUFFrame@@QAX@Z @ 9604
?execPlayOwnedSound@AActor@@QAEXAAUFFrame@@QAX@Z @ 9605
?execPlaySound@AActor@@QAEXAAUFFrame@@QAX@Z @ 9606
?execPlaySoundHK2@AActor@@QAEXAAUFFrame@@QAX@Z @ 9607
?execPlaySoundHK@AActor@@QAEXAAUFFrame@@QAX@Z @ 9608
?execPlayStream@AActor@@QAEXAAUFFrame@@QAX@Z @ 9609
?execPlayerCanSeeMe@AActor@@QAEXAAUFFrame@@QAX@Z @ 9610
?execPling@AFluidSurfaceInfo@@QAEXAAUFFrame@@QAX@Z @ 9611
?execPokeTerrain@ATerrainInfo@@QAEXAAUFFrame@@QAX@Z @ 9612
?execPollFinishAnim@AActor@@QAEXAAUFFrame@@QAX@Z @ 9613
?execPollFinishInterpolation@AActor@@QAEXAAUFFrame@@QAX@Z @ 9614
?execPollFinishRotation@AController@@QAEXAAUFFrame@@QAX@Z @ 9615
?execPollMoveTo@AController@@QAEXAAUFFrame@@QAX@Z @ 9616
?execPollMoveToward@AController@@QAEXAAUFFrame@@QAX@Z @ 9617
?execPollSleep@AActor@@QAEXAAUFFrame@@QAX@Z @ 9618
?execPollWaitForLanding@AController@@QAEXAAUFFrame@@QAX@Z @ 9619
?execPollWaitToSeeEnemy@AAIController@@QAEXAAUFFrame@@QAX@Z @ 9620
?execPopClass@UPlayInfo@@QAEXAAUFFrame@@QAX@Z @ 9621
?execPopObject@UObjectPool@@QAEXAAUFFrame@@QAX@Z @ 9622
?execPrintLoadingMsg@UwMatchMaker@@QAEXAAUFFrame@@QAX@Z @ 9623
?execProcPling@AwProcMesh@@QAEXAAUFFrame@@QAX@Z @ 9624
?execProcessEvent@ASceneSubtitles@@QAEXAAUFFrame@@QAX@Z @ 9625
?execRadiusActors@AActor@@QAEXAAUFFrame@@QAX@Z @ 9626
?execReachedDestination@APawn@@QAEXAAUFFrame@@QAX@Z @ 9627
?execRefreshCollisionHash@APawn@@QAEXAAUFFrame@@QAX@Z @ 9628
?execRemoveClass@UPlayInfo@@QAEXAAUFFrame@@QAX@Z @ 9629
?execRemoveController@AController@@QAEXAAUFFrame@@QAX@Z @ 9630
?execRemoveDirectory@UStreamInterface@@QAEXAAUFFrame@@QAX@Z @ 9631
?execRemoveFromNavigation@APickup@@QAEXAAUFFrame@@QAX@Z @ 9632
?execRemoveFromRoot@UwBTLoadingScreenDrawer@@QAEXAAUFFrame@@QAX@Z @ 9633
?execRemoveGSSS@AwGameStateStorageSender@@QAEXAAUFFrame@@QAX@Z @ 9634
?execReset@UParticleEmitter@@QAEXAAUFFrame@@QAX@Z @ 9635
?execResetCombationSituationReview@ALevelInfo@@QAEXAAUFFrame@@QAX@Z @ 9636
?execResetInput@APlayerController@@QAEXAAUFFrame@@QAX@Z @ 9637
?execResetKeySleepTime@APlayerController@@QAEXAAUFFrame@@QAX@Z @ 9638
?execResetKeyboard@APlayerController@@QAEXAAUFFrame@@QAX@Z @ 9639
?execResetStaticFilterState@AActor@@QAEXAAUFFrame@@QAX@Z @ 9640
?execResetTimeMarginNative@APlayerController@@QAEXAAUFFrame@@QAX@Z @ 9641
?execResetTrail@UTrailEmitter@@QAEXAAUFFrame@@QAX@Z @ 9642
?execSaveID3Tag@UStream@@QAEXAAUFFrame@@QAX@Z @ 9643
?execSavePackage@AGameInfo@@QAEXAAUFFrame@@QAX@Z @ 9644
?execSaveParams@APlayerController@@QAEXAAUFFrame@@QAX@Z @ 9645
?execSaveSettings@UPlayInfo@@QAEXAAUFFrame@@QAX@Z @ 9646
?execScreenToWorld@UInteraction@@QAEXAAUFFrame@@QAX@Z @ 9647
?execSeekStream@AActor@@QAEXAAUFFrame@@QAX@Z @ 9648
?execSendPing@UBTPingCheckerLinker@@QAEXAAUFFrame@@QAX@Z @ 9649
?execSendText@UBTPingCheckerLinker@@QAEXAAUFFrame@@QAX@Z @ 9650
?execSendWebLog@APlayerController@@QAEXAAUFFrame@@QAX@Z @ 9651
?execServerMoveNative@APlayerController@@QAEXAAUFFrame@@QAX@Z @ 9652
?execServerValidationResponse@APlayerController@@QAEXAAUFFrame@@QAX@Z @ 9653
?execSetAnimFrame@AActor@@QAEXAAUFFrame@@QAX@Z @ 9654
?execSetBase@AActor@@QAEXAAUFFrame@@QAX@Z @ 9655
?execSetBaseDistance@ANavigationPoint@@QAEXAAUFFrame@@QAX@Z @ 9656
?execSetBaseMaterial@AActor@@QAEXAAUFFrame@@QAX@Z @ 9657
?execSetBoneDirection@AActor@@QAEXAAUFFrame@@QAX@Z @ 9658
?execSetBoneLocation@AActor@@QAEXAAUFFrame@@QAX@Z @ 9659
?execSetBoneRotation@AActor@@QAEXAAUFFrame@@QAX@Z @ 9660
?execSetBoneScale@AActor@@QAEXAAUFFrame@@QAX@Z @ 9661
?execSetCameraLocation@UCanvas@@QAEXAAUFFrame@@QAX@Z @ 9662
?execSetCameraRotation@UCanvas@@QAEXAAUFFrame@@QAX@Z @ 9663
?execSetCapture@ALevelInfo@@QAEXAAUFFrame@@QAX@Z @ 9664
?execSetCaptureQuality@ALevelInfo@@QAEXAAUFFrame@@QAX@Z @ 9665
?execSetCaptureResoultion@ALevelInfo@@QAEXAAUFFrame@@QAX@Z @ 9666
?execSetCollision@AActor@@QAEXAAUFFrame@@QAX@Z @ 9667
?execSetCollisionSize@AActor@@QAEXAAUFFrame@@QAX@Z @ 9668
?execSetDrawScale3D@AActor@@QAEXAAUFFrame@@QAX@Z @ 9669
?execSetDrawScale@AActor@@QAEXAAUFFrame@@QAX@Z @ 9670
?execSetDrawType@AActor@@QAEXAAUFFrame@@QAX@Z @ 9671
?execSetFontScale@UCanvas@@QAEXAAUFFrame@@QAX@Z @ 9672
?execSetItemIndex@UwGameManager@@QAEXAAUFFrame@@QAX@Z @ 9673
?execSetLocation@AActor@@QAEXAAUFFrame@@QAX@Z @ 9674
?execSetNatTypeToEngine@UwMatchMaker@@QAEXAAUFFrame@@QAX@Z @ 9675
?execSetNetSpeed@APlayerController@@QAEXAAUFFrame@@QAX@Z @ 9676
?execSetOwner@AActor@@QAEXAAUFFrame@@QAX@Z @ 9677
?execSetPartsGroupIndex@UwGameManager@@QAEXAAUFFrame@@QAX@Z @ 9678
?execSetPhysics@AActor@@QAEXAAUFFrame@@QAX@Z @ 9679
?execSetRelativeLocation@AActor@@QAEXAAUFFrame@@QAX@Z @ 9680
?execSetRelativeRotation@AActor@@QAEXAAUFFrame@@QAX@Z @ 9681
?execSetRotation@AActor@@QAEXAAUFFrame@@QAX@Z @ 9682
?execSetScreenLight@UCanvas@@QAEXAAUFFrame@@QAX@Z @ 9683
?execSetScreenProjector@UCanvas@@QAEXAAUFFrame@@QAX@Z @ 9684
?execSetSize@UScriptedTexture@@QAEXAAUFFrame@@QAX@Z @ 9685
?execSetSkillIndex@UwGameManager@@QAEXAAUFFrame@@QAX@Z @ 9686
?execSetStaticMesh@AActor@@QAEXAAUFFrame@@QAX@Z @ 9687
?execSetTcpTimeOutInGame@UwMatchMaker@@QAEXAAUFFrame@@QAX@Z @ 9688
?execSetTcpTimeOutInTempReset@UwMatchMaker@@QAEXAAUFFrame@@QAX@Z @ 9689
?execSetTcpTimeOutInUI@UwMatchMaker@@QAEXAAUFFrame@@QAX@Z @ 9690
?execSetTimeOutInPlaying@APlayerController@@QAEXAAUFFrame@@QAX@Z @ 9691
?execSetTimer@AActor@@QAEXAAUFFrame@@QAX@Z @ 9692
?execSetTwistLook@APawn@@QAEXAAUFFrame@@QAX@Z @ 9693
?execSetUDPConnectionTimeLimit@UwMatchMaker@@QAEXAAUFFrame@@QAX@Z @ 9694
?execSetViewPitch@APawn@@QAEXAAUFFrame@@QAX@Z @ 9695
?execSetViewTarget@APlayerController@@QAEXAAUFFrame@@QAX@Z @ 9696
?execSetWeaponCustomInfoIndex@UwGameManager@@QAEXAAUFFrame@@QAX@Z @ 9697
?execSetWeaponCustomPartsIndex@UwGameManager@@QAEXAAUFFrame@@QAX@Z @ 9698
?execShouldBeHidden@AActor@@QAEXAAUFFrame@@QAX@Z @ 9699
?execSleep@AActor@@QAEXAAUFFrame@@QAX@Z @ 9700
?execSort@UPlayInfo@@QAEXAAUFFrame@@QAX@Z @ 9701
?execSpawn@AActor@@QAEXAAUFFrame@@QAX@Z @ 9702
?execSpawnParticle@UParticleEmitter@@QAEXAAUFFrame@@QAX@Z @ 9703
?execSpecPlaySoundHK2@AActor@@QAEXAAUFFrame@@QAX@Z @ 9704
?execSpecPlaySoundHK@AActor@@QAEXAAUFFrame@@QAX@Z @ 9705
?execSplitForInputWeapon@APlayerController@@QAEXAAUFFrame@@QAX@Z @ 9706
?execStartHolePunchingClient@UwMatchMaker@@QAEXAAUFFrame@@QAX@Z @ 9707
?execStartHolePunchingHost@UwMatchMaker@@QAEXAAUFFrame@@QAX@Z @ 9708
?execStartMatch@UwMatchMaker@@QAEXAAUFFrame@@QAX@Z @ 9709
?execStartTickCheck@UwMatchMaker@@QAEXAAUFFrame@@QAX@Z @ 9710
?execStaticDrawCanvasLine@AHUD@@QAEXAAUFFrame@@QAX@Z @ 9711
?execStopAllMusic@AActor@@QAEXAAUFFrame@@QAX@Z @ 9712
?execStopAllMusicAndClearQueue@AActor@@QAEXAAUFFrame@@QAX@Z @ 9713
?execStopAllSound@AActor@@QAEXAAUFFrame@@QAX@Z @ 9714
?execStopAllSoundByActor@AActor@@QAEXAAUFFrame@@QAX@Z @ 9715
?execStopAnimating@AActor@@QAEXAAUFFrame@@QAX@Z @ 9716
?execStopFeedbackEffect@AActor@@QAEXAAUFFrame@@QAX@Z @ 9717
?execStopLIPSincAnim@AActor@@QAEXAAUFFrame@@QAX@Z @ 9718
?execStopLoopSoundByActor@AActor@@QAEXAAUFFrame@@QAX@Z @ 9719
?execStopMusic@AActor@@QAEXAAUFFrame@@QAX@Z @ 9720
?execStopSound@AActor@@QAEXAAUFFrame@@QAX@Z @ 9721
?execStopSoundHK@AActor@@QAEXAAUFFrame@@QAX@Z @ 9722
?execStopStream@AActor@@QAEXAAUFFrame@@QAX@Z @ 9723
?execStopWaiting@AController@@QAEXAAUFFrame@@QAX@Z @ 9724
?execStoreSetting@UPlayInfo@@QAEXAAUFFrame@@QAX@Z @ 9725
?execStrLen@UCanvas@@QAEXAAUFFrame@@QAX@Z @ 9726
?execSubtract_ColorColor@AActor@@QAEXAAUFFrame@@QAX@Z @ 9727
?execSuggestFallVelocity@AActor@@QAEXAAUFFrame@@QAX@Z @ 9728
?execTenProtectCreate@UwMatchMaker@@QAEXAAUFFrame@@QAX@Z @ 9729
?execTenProtectDProtoDecrypt@UwMatchMaker@@QAEXAAUFFrame@@QAX@Z @ 9730
?execTenProtectDProtoEncrypt@UwMatchMaker@@QAEXAAUFFrame@@QAX@Z @ 9731
?execTenProtectRelease@UwMatchMaker@@QAEXAAUFFrame@@QAX@Z @ 9732
?execTenProtectSendInitData@UwMatchMaker@@QAEXAAUFFrame@@QAX@Z @ 9733
?execTenProtectSetInitData@UwMatchMaker@@QAEXAAUFFrame@@QAX@Z @ 9734
?execTenProtectStartLocalOnceCheck@UwMatchMaker@@QAEXAAUFFrame@@QAX@Z @ 9735
?execTenProtectStopLocalCheck@UwMatchMaker@@QAEXAAUFFrame@@QAX@Z @ 9736
?execTenProtectUpdate_AntiBot@UwMatchMaker@@QAEXAAUFFrame@@QAX@Z @ 9737
?execTextSize@UCanvas@@QAEXAAUFFrame@@QAX@Z @ 9738
?execTextSize@UScriptedTexture@@QAEXAAUFFrame@@QAX@Z @ 9739
?execTextToSpeech@AActor@@QAEXAAUFFrame@@QAX@Z @ 9740
?execTouchingActors@AActor@@QAEXAAUFFrame@@QAX@Z @ 9741
?execTrace@AActor@@QAEXAAUFFrame@@QAX@Z @ 9742
?execTraceActors@AActor@@QAEXAAUFFrame@@QAX@Z @ 9743
?execTraceThisActor@AActor@@QAEXAAUFFrame@@QAX@Z @ 9744
?execTraceThisActorHitPart@AActor@@QAEXAAUFFrame@@QAX@Z @ 9745
?execTravel@UInteractionMaster@@QAEXAAUFFrame@@QAX@Z @ 9746
?execTrigger@UParticleEmitter@@QAEXAAUFFrame@@QAX@Z @ 9747
?execTweenAnim@AActor@@QAEXAAUFFrame@@QAX@Z @ 9748
?execUnClock@AActor@@QAEXAAUFFrame@@QAX@Z @ 9749
?execUnWarp@AWarpZoneInfo@@QAEXAAUFFrame@@QAX@Z @ 9750
?execUpdateDistanceFogLOD@ALevelInfo@@QAEXAAUFFrame@@QAX@Z @ 9751
?execUpdateEyeHeightNative@APawn@@QAEXAAUFFrame@@QAX@Z @ 9752
?execUpdateInfluence@ALevelInfo@@QAEXAAUFFrame@@QAX@Z @ 9753
?execUpdateURL@AActor@@QAEXAAUFFrame@@QAX@Z @ 9754
?execUpdateVehicle@ASVehicle@@QAEXAAUFFrame@@QAX@Z @ 9755
?execValidDirectory@UStreamInterface@@QAEXAAUFFrame@@QAX@Z @ 9756
?execValidFile@UStreamInterface@@QAEXAAUFFrame@@QAX@Z @ 9757
?execVisibleActors@AActor@@QAEXAAUFFrame@@QAX@Z @ 9758
?execVisibleCollidingActors@AActor@@QAEXAAUFFrame@@QAX@Z @ 9759
?execWaitForLanding@AController@@QAEXAAUFFrame@@QAX@Z @ 9760
?execWaitToSeeEnemy@AAIController@@QAEXAAUFFrame@@QAX@Z @ 9761
?execWantsSmoothedViewNative@AController@@QAEXAAUFFrame@@QAX@Z @ 9762
?execWarp@AWarpZoneInfo@@QAEXAAUFFrame@@QAX@Z @ 9763
?execWorldToScreen@UCanvas@@QAEXAAUFFrame@@QAX@Z @ 9764
?execWorldToScreen@UInteraction@@QAEXAAUFFrame@@QAX@Z @ 9765
?execWrapStringToArray@UCanvas@@QAEXAAUFFrame@@QAX@Z @ 9766
?execWrapText@UCanvas@@QAEXAAUFFrame@@QAX@Z @ 9767
?execZoneActors@AZoneInfo@@QAEXAAUFFrame@@QAX@Z @ 9768
?execactorReachable@AController@@QAEXAAUFFrame@@QAX@Z @ 9769
?execaddResult@UBtrTraceResult@@QAEXAAUFFrame@@QAX@Z @ 9770
?execfClientHearSound@APlayerController@@QAEXAAUFFrame@@QAX@Z @ 9771
?execfPlaySound@AActor@@QAEXAAUFFrame@@QAX@Z @ 9772
?execpointReachable@AController@@QAEXAAUFFrame@@QAX@Z @ 9773
?fPlaySound@UAudioSubsystem@@QAEXPAVAActor@@HVFString@@VFVector@@HM@Z @ 9774
?findBestReachable@UReachSpec@@QAEHPAVAScout@@@Z @ 9775
?findNewFloor@APawn@@AAEHVFVector@@MMH@Z @ 9776
?findPathToward@APawn@@QAEMPAVAActor@@VFVector@@P6AMPAVANavigationPoint@@PAV1@M@ZMH@Z @ 9777
?findStart@AScout@@QAEHVFVector@@@Z @ 9778
?findWaterLine@APawn@@AAE?AVFVector@@V2@0@Z @ 9779
?fixedTurn@AActor@@QAEHHHH@Z @ 9780
?flyMove@APawn@@QAE?AW4ETestMoveResult@@VFVector@@PAVAActor@@M@Z @ 9781
?flyReachable@APawn@@QAEHVFVector@@HPAVAActor@@@Z @ 9782
?getKConstraint@AKConstraint@@UBEPAUMdtBaseConstraint@@XZ @ 9783
?getKModel@AActor@@UBEPAU_McdModel@@XZ @ 9784
?getKModel@AKConstraint@@UBEPAU_McdModel@@XZ @ 9785
?getScout@FPathBuilder@@AAEXXZ @ 9786
?getTextWidthSize@FCanvasUtil@@QAEXPBGHAAJ1@Z @ 9787
?getTextWidthSize@FRenderInterface@@UAEXPBGHAAJ1@Z @ 9788
?getTextWidthSizeLH@FCanvasUtil@@QAEXPBGHAAJ1@Z @ 9789
?getTextWidthSizeLH@FRenderInterface@@UAEXPBGHAAJ1@Z @ 9790
?getTextWidthSizeOLD@FCanvasUtil@@QAEXPBGHAAJ1@Z @ 9791
?getTextWidthSizeOLD@FRenderInterface@@UAEXPBGHAAJ1@Z @ 9792
?initVisibility@FPathBuilder@@QAEXXZ @ 9793
?jumpLanding@APawn@@QAE?AW4ETestMoveResult@@VFVector@@H@Z @ 9794
?jumpReachable@APawn@@QAEHVFVector@@HPAVAActor@@@Z @ 9795
?ladderReachable@APawn@@QAEHVFVector@@HPAVAActor@@@Z @ 9796
?moveSmooth@AActor@@QAEHVFVector@@@Z @ 9797
?moveToward@APawn@@UAEHABVFVector@@PAVAActor@@@Z @ 9798
?moveToward@AVehicle@@UAEHABVFVector@@PAVAActor@@@Z @ 9799
?newPath@FPathBuilder@@AAEPAVANavigationPoint@@VFVector@@@Z @ 9800
?performPhysics@AActor@@UAEXM@Z @ 9801
?performPhysics@AMover@@UAEXM@Z @ 9802
?performPhysics@APawn@@UAEXM@Z @ 9803
?performPhysics@AVehicle@@UAEXM@Z @ 9804
?physFalling@AActor@@UAEXMH@Z @ 9805
?physFalling@APawn@@UAEXMH@Z @ 9806
?physFalling@AProjectile@@UAEXMH@Z @ 9807
?physFlying@AActor@@UAEXMH@Z @ 9808
?physFlying@APawn@@UAEXMH@Z @ 9809
?physFlying@AProjectile@@UAEXMH@Z @ 9810
?physHovering@APawn@@QAEXMH@Z @ 9811
?physKarma@AActor@@UAEXM@Z @ 9812
?physKarma@AKConstraint@@UAEXM@Z @ 9813
?physKarma@ASVehicle@@UAEXM@Z @ 9814
?physKarmaRagDoll@AActor@@QAEXM@Z @ 9815
?physKarmaRagDoll_internal@AActor@@QAEXM@Z @ 9816
?physKarma_internal@AActor@@QAEXM@Z @ 9817
?physLadder@APawn@@QAEXMH@Z @ 9818
?physMovingBrush@AMover@@QAEXM@Z @ 9819
?physProjectile@AActor@@QAEXMH@Z @ 9820
?physRootMotion@AActor@@QAEXM@Z @ 9821
?physSpider@APawn@@QAEXMH@Z @ 9822
?physSwimming@APawn@@QAEXMH@Z @ 9823
?physTrailer@AActor@@QAEXM@Z @ 9824
?physWalking@AActor@@UAEXMH@Z @ 9825
?physWalking@APawn@@UAEXMH@Z @ 9826
?physicsRotation@AActor@@QAEXM@Z @ 9827
?physicsRotation@APawn@@UAEXMVFVector@@@Z @ 9828
?pointReachable@APawn@@UAEHVFVector@@H@Z @ 9829
?postKarmaStep@AActor@@UAEXXZ @ 9830
?postKarmaStep@AKConstraint@@UAEXXZ @ 9831
?postKarmaStep_skeletal@AActor@@QAEXXZ @ 9832
?preContactUpdate@AActor@@UAEXXZ @ 9833
?preContactUpdate@AKTire@@UAEXXZ @ 9834
?preContactUpdate@ASVehicle@@UAEXXZ @ 9835
?preKarmaStep@AActor@@UAEXM@Z @ 9836
?preKarmaStep@AKCarWheelJoint@@UAEXM@Z @ 9837
?preKarmaStep@AKConstraint@@UAEXM@Z @ 9838
?preKarmaStep@AKHinge@@UAEXM@Z @ 9839
?preKarmaStep@ASVehicle@@UAEXM@Z @ 9840
?preKarmaStep_skeletal@AActor@@QAEXM@Z @ 9841
?processHitWall@AActor@@UAEXVFVector@@PAV1@@Z @ 9842
?processHitWall@APawn@@UAEXVFVector@@PAVAActor@@@Z @ 9843
?processLanded@AActor@@UAEXVFVector@@PAV1@MHPAVUMaterial@@@Z @ 9844
?processLanded@ADecoration@@UAEXVFVector@@PAVAActor@@MHPAVUMaterial@@@Z @ 9845
?processLanded@APawn@@UAEXVFVector@@PAVAActor@@MHPAVUMaterial@@@Z @ 9846
?removePaths@FPathBuilder@@QAEHPAVULevel@@@Z @ 9847
?rotateToward@APawn@@UAEXPAVAActor@@VFVector@@@Z @ 9848
?rotateToward@AVehicle@@UAEXPAVAActor@@VFVector@@@Z @ 9849
?setMoveTimer@APawn@@UAEXVFVector@@@Z @ 9850
?setMoveTimer@AVehicle@@UAEXVFVector@@@Z @ 9851
?setPhysics@AActor@@UAEXEPAV1@VFVector@@PAVUMaterial@@@Z @ 9852
?setPhysics@AKVehicle@@UAEXEPAVAActor@@VFVector@@PAVUMaterial@@@Z @ 9853
?setPhysics@ASVehicle@@UAEXEPAVAActor@@VFVector@@PAVUMaterial@@@Z @ 9854
?sfReqFailedStartGame@UNetDriver@@UAEXH@Z @ 9855
?sfReqForceDisconnectUDPFromHost@UNetDriver@@UAEXH@Z @ 9856
?sfReqGetHolePunchingResult@UNetDriver@@UAEXXZ @ 9857
?sfReqNotifyClientJoinTime@UNetDriver@@UAEXH@Z @ 9858
?sfReqNotifyHostBlocking@UNetDriver@@UAEXH@Z @ 9859
?sfReqNotifyLoadingState@UNetDriver@@UAEXE@Z @ 9860
?sfReqNotifyLoadingStatus@UNetDriver@@UAEXH@Z @ 9861
?sfReqNotifyRecvDummyForHolePunching@UNetDriver@@UAEXKE@Z @ 9862
?sfReqWriteServerLog@UNetDriver@@UAEXEAAVFString@@@Z @ 9863
?smoothDeltaTime@USpline@@QAEMM@Z @ 9864
?startNewPhysics@APawn@@QAEXMH@Z @ 9865
?startSwimming@APawn@@QAEXVFVector@@0MMH@Z @ 9866
?stepUp@AActor@@UAEXVFVector@@00AAUFCheckResult@@@Z @ 9867
?stepUp@APawn@@UAEXVFVector@@00AAUFCheckResult@@@Z @ 9868
?storeDrawText@FCanvasUtil@@QAEXHHHHEEEEEEEEMMMMHPBGMM_N@Z @ 9869
?storeDrawText@FRenderInterface@@UAEXHHHHEEEEEEEEMMMMHPBGMM_NEE@Z @ 9870
?supports@UReachSpec@@QAEHHHHH@Z @ 9871
?swimMove@APawn@@QAE?AW4ETestMoveResult@@VFVector@@PAVAActor@@M@Z @ 9872
?swimReachable@APawn@@QAEHVFVector@@HPAVAActor@@@Z @ 9873
?testPathsFrom@FPathBuilder@@AAEXVFVector@@@Z @ 9874
?testPathwithRadius@FPathBuilder@@AAEXVFVector@@M@Z @ 9875
?undefinePaths@FPathBuilder@@QAEXPAVULevel@@@Z @ 9876
?walkMove@APawn@@QAE?AW4ETestMoveResult@@VFVector@@AAUFCheckResult@@PAVAActor@@M@Z @ 9877
?walkReachable@APawn@@QAEHVFVector@@HPAVAActor@@@Z @ 9878
GPackage @ 9880
_DllMain@12 @ 9879
autoclassAAIController @ 9881
autoclassAAIMarker @ 9882
autoclassAAIScript @ 9883
autoclassAActor @ 9884
autoclassAAmbientLightVolume @ 9885
autoclassAAmbientSound @ 9886
autoclassAAmmo @ 9887
autoclassAAnnouncerVoice @ 9888
autoclassAAntiPortalActor @ 9889
autoclassAAutoDoor @ 9890
autoclassAAutoLadder @ 9891
autoclassAAvoidMarker @ 9892
autoclassABlockingVolume @ 9893
autoclassABrush @ 9894
autoclassACamera @ 9895
autoclassAClipMarker @ 9896
autoclassAController @ 9897
autoclassACubemapVolume @ 9898
autoclassADamageType @ 9899
autoclassADecoVolumeObject @ 9900
autoclassADecoration @ 9901
autoclassADecorationList @ 9902
autoclassADefaultPhysicsVolume @ 9903
autoclassADoor @ 9904
autoclassAEmitter @ 9905
autoclassAFileLog @ 9906
autoclassAFluidSurfaceInfo @ 9907
autoclassAFluidSurfaceOscillator @ 9908
autoclassAFlyingPathNode @ 9909
autoclassAGameInfo @ 9910
autoclassAGameReplicationInfo @ 9911
autoclassAGameStats @ 9912
autoclassAHUD @ 9913
autoclassAHoverPathNode @ 9914
autoclassAInfo @ 9915
autoclassAInternetInfo @ 9916
autoclassAInterpolationPoint @ 9917
autoclassAInventory @ 9918
autoclassAInventoryAttachment @ 9919
autoclassAInventorySpot @ 9920
autoclassAJumpDest @ 9921
autoclassAJumpPad @ 9922
autoclassAKActor @ 9923
autoclassAKBSJoint @ 9924
autoclassAKCarWheelJoint @ 9925
autoclassAKConeLimit @ 9926
autoclassAKConstraint @ 9927
autoclassAKHinge @ 9928
autoclassAKRepulsor @ 9929
autoclassAKTire @ 9930
autoclassAKVehicle @ 9931
autoclassAKeypoint @ 9932
autoclassALadder @ 9933
autoclassALadderVolume @ 9934
autoclassALevelInfo @ 9935
autoclassALevelLoadingView @ 9936
autoclassALiftCenter @ 9937
autoclassALiftExit @ 9938
autoclassALight @ 9939
autoclassALineOfSightTrigger @ 9940
autoclassALinkAntiportalVolume @ 9941
autoclassALinkedReplicationInfo @ 9942
autoclassALookTarget @ 9943
autoclassAMaplistManagerBase @ 9944
autoclassAMatDemoActor @ 9945
autoclassAMover @ 9946
autoclassAMutator @ 9947
autoclassANavigationPoint @ 9948
autoclassANote @ 9949
autoclassAPathNode @ 9950
autoclassAPawn @ 9951
autoclassAPhysicsVolume @ 9952
autoclassAPickup @ 9953
autoclassAPlayerChatManager @ 9954
autoclassAPlayerController @ 9955
autoclassAPlayerReplicationInfo @ 9956
autoclassAPlayerStart @ 9957
autoclassAPlayerStart_SD @ 9958
autoclassAPolyMarker @ 9959
autoclassAPotentialClimbWatcher @ 9960
autoclassAPowerups @ 9961
autoclassAPrecacheHack @ 9962
autoclassAProjectile @ 9963
autoclassAProjector @ 9964
autoclassAReplicationInfo @ 9965
autoclassARoadPathNode @ 9966
autoclassASVehicle @ 9967
autoclassASVehicleFactory @ 9968
autoclassASVehicleTrigger @ 9969
autoclassASavedMove @ 9970
autoclassASceneManager @ 9971
autoclassASceneSubtitles @ 9972
autoclassAScout @ 9973
autoclassASecurity @ 9974
autoclassASkyZoneInfo @ 9975
autoclassASmallNavigationPoint @ 9976
autoclassAStaticMeshActor @ 9977
autoclassATeamInfo @ 9978
autoclassATeleporter @ 9979
autoclassATerrainInfo @ 9980
autoclassATonemappingVolume @ 9981
autoclassATrigger @ 9982
autoclassATriggers @ 9983
autoclassAVehicle @ 9984
autoclassAVehiclePart @ 9985
autoclassAVertMeshActor @ 9986
autoclassAVignette @ 9987
autoclassAVoiceChatReplicationInfo @ 9988
autoclassAVoiceChatRoom @ 9989
autoclassAVolume @ 9990
autoclassAWarpZoneInfo @ 9991
autoclassAWarpZoneMarker @ 9992
autoclassAWeaponAttachment @ 9993
autoclassAZoneInfo @ 9994
autoclassAwAILevelBase @ 9995
autoclassAwAmmunition @ 9996
autoclassAwArrangeTurret @ 9997
autoclassAwEmitter @ 9998
autoclassAwGameStateStorageSender @ 9999
autoclassAwPickUpBase @ 10000
autoclassAwProcMesh @ 10001
autoclassAwWeapon @ 10002
autoclassAwWeaponPickup @ 10003
autoclassAwWeatherEffect @ 10004
autoclassUActionMoveCamera @ 10005
autoclassUActionPause @ 10006
autoclassUActorChannel @ 10007
autoclassUAdminBase @ 10008
autoclassUAnimNotify @ 10009
autoclassUAnimNotify_DestroyEffect @ 10010
autoclassUAnimNotify_Effect @ 10011
autoclassUAnimNotify_LIPSinc @ 10012
autoclassUAnimNotify_MatSubAction @ 10013
autoclassUAnimNotify_Script @ 10014
autoclassUAnimNotify_Scripted @ 10015
autoclassUAnimNotify_Sound @ 10016
autoclassUAnimation @ 10017
autoclassUAudioSubsystem @ 10018
autoclassUBTLoadingAdvancer @ 10019
autoclassUBTLoadingState @ 10020
autoclassUBTMapLoader @ 10021
autoclassUBTNetInterface @ 10022
autoclassUBTPingChecker @ 10023
autoclassUBTPingCheckerLinker @ 10024
autoclassUBTTcpLink_Channel_DS @ 10025
autoclassUBTTcpLink_DStoDP_DS @ 10026
autoclassUBaseGUIController @ 10027
autoclassUBeamEmitter @ 10028
autoclassUBitmapMaterial @ 10029
autoclassUBlackWhite @ 10030
autoclassUBlendShader @ 10031
autoclassUBtrTraceResult @ 10032
autoclassUByteArray @ 10033
autoclassUCacheManager @ 10034
autoclassUCameraEffect @ 10035
autoclassUCameraOverlay @ 10036
autoclassUCanvas @ 10037
autoclassUCascadedShadowMaps @ 10038
autoclassUChannel @ 10039
autoclassUChannelDownload @ 10040
autoclassUCheatManager @ 10041
autoclassUClient @ 10042
autoclassUColorModifier @ 10043
autoclassUCombiner @ 10044
autoclassUConsole @ 10045
autoclassUConstantColor @ 10046
autoclassUConstantMaterial @ 10047
autoclassUControlChannel @ 10048
autoclassUConvexVolume @ 10049
autoclassUCrosshairPack @ 10050
autoclassUCubemap @ 10051
autoclassUDOFEffect @ 10052
autoclassUDecalShader @ 10053
autoclassUDemoPlayPendingLevel @ 10054
autoclassUDemoRecConnection @ 10055
autoclassUDemoRecDriver @ 10056
autoclassUDistortEmitter @ 10057
autoclassUDownload @ 10058
autoclassUDownloadTexture @ 10059
autoclassUDripEffect @ 10060
autoclassUEncryptCommandlet @ 10061
autoclassUEngine @ 10062
autoclassUExportCacheCommandlet @ 10063
autoclassUFXFile @ 10064
autoclassUFadeBlackWhite @ 10065
autoclassUFadeColor @ 10066
autoclassUFileChannel @ 10067
autoclassUFinalBlend @ 10068
autoclassUFinalEffect @ 10069
autoclassUFluidSurfacePrimitive @ 10070
autoclassUFont @ 10071
autoclassUGMFile @ 10072
autoclassUGameEngine @ 10073
autoclassUGameProfile @ 10074
autoclassUGlobalTempObjects @ 10075
autoclassUGlowEffect @ 10076
autoclassUHardwareShader @ 10077
autoclassUI3DL2Listener @ 10078
autoclassUIndexBuffer @ 10079
autoclassUInput @ 10080
autoclassUInteraction @ 10081
autoclassUInteractionMaster @ 10082
autoclassUInteractions @ 10083
autoclassUItemIterator @ 10084
autoclassUKMeshProps @ 10085
autoclassUKarmaParams @ 10086
autoclassUKarmaParamsCollision @ 10087
autoclassUKarmaParamsRBFull @ 10088
autoclassUKarmaParamsSkel @ 10089
autoclassULevel @ 10090
autoclassULevelBase @ 10091
autoclassULevelSummary @ 10092
autoclassULodMesh @ 10093
autoclassULodMeshInstance @ 10094
autoclassULogEntry @ 10095
autoclassUManifest @ 10096
autoclassUMasterMD5Commandlet @ 10097
autoclassUMatAction @ 10098
autoclassUMatObject @ 10099
autoclassUMatSubAction @ 10100
autoclassUMaterial @ 10101
autoclassUMaterialSequence @ 10102
autoclassUMaterialSwitch @ 10103
autoclassUMesh @ 10104
autoclassUMeshAnimation @ 10105
autoclassUMeshEmitter @ 10106
autoclassUMeshInstance @ 10107
autoclassUMeshObject @ 10108
autoclassUModel @ 10109
autoclassUModifier @ 10110
autoclassUMotionBlur @ 10111
autoclassUMotionBlurEffect @ 10112
autoclassUNetConnection @ 10113
autoclassUNetDriver @ 10114
autoclassUNetPendingLevel @ 10115
autoclassUNullRenderDevice @ 10116
autoclassUObjectPool @ 10117
autoclassUOpacityModifier @ 10118
autoclassUPackageCheckInfo @ 10119
autoclassUPackageMapLevel @ 10120
autoclassUPalette @ 10121
autoclassUParticleEmitter @ 10122
autoclassUParticleMaterial @ 10123
autoclassUPendingLevel @ 10124
autoclassUPlayInfo @ 10125
autoclassUPlayer @ 10126
autoclassUPlayerInput @ 10127
autoclassUPolys @ 10128
autoclassUPostProcessEffect @ 10129
autoclassUPrimitive @ 10130
autoclassUProceduralSound @ 10131
autoclassUProjectorMaterial @ 10132
autoclassUProjectorPrimitive @ 10133
autoclassUProxyBitmapMaterial @ 10134
autoclassUReachSpec @ 10135
autoclassURenderDevice @ 10136
autoclassURenderResource @ 10137
autoclassURenderedMaterial @ 10138
autoclassUSSAOEffect @ 10139
autoclassUSVehicleWheel @ 10140
autoclassUScriptedTexture @ 10141
autoclassUServerCommandlet @ 10142
autoclassUServerPendingLevel @ 10143
autoclassUShader @ 10144
autoclassUShadowBitmapMaterial @ 10145
autoclassUSkeletalMesh @ 10146
autoclassUSkeletalMeshInstance @ 10147
autoclassUSkinVertexBuffer @ 10148
autoclassUSound @ 10149
autoclassUSoundGroup @ 10150
autoclassUSparkEmitter @ 10151
autoclassUSpline @ 10152
autoclassUSpriteEmitter @ 10153
autoclassUStaticMesh @ 10154
autoclassUStaticMeshInstance @ 10155
autoclassUStream @ 10156
autoclassUStreamBase @ 10157
autoclassUStreamInteraction @ 10158
autoclassUStreamInterface @ 10159
autoclassUStreamTag @ 10160
autoclassUSubActionCameraEffect @ 10161
autoclassUSubActionCameraShake @ 10162
autoclassUSubActionFOV @ 10163
autoclassUSubActionFade @ 10164
autoclassUSubActionGameSpeed @ 10165
autoclassUSubActionOrientation @ 10166
autoclassUSubActionSceneSpeed @ 10167
autoclassUSubActionSubTitle @ 10168
autoclassUSubActionTrigger @ 10169
autoclassUTerrainMaterial @ 10170
autoclassUTerrainPrimitive @ 10171
autoclassUTerrainSector @ 10172
autoclassUTexCoordMaterial @ 10173
autoclassUTexCoordSource @ 10174
autoclassUTexEnvMap @ 10175
autoclassUTexMatrix @ 10176
autoclassUTexModifier @ 10177
autoclassUTexOscillator @ 10178
autoclassUTexOscillatorTriggered @ 10179
autoclassUTexPanner @ 10180
autoclassUTexPannerTriggered @ 10181
autoclassUTexRotator @ 10182
autoclassUTexScaler @ 10183
autoclassUTextToSpeechAlias @ 10184
autoclassUTexture @ 10185
autoclassUTickChecker @ 10186
autoclassUTrailEmitter @ 10187
autoclassUUModUnpackCommandlet @ 10188
autoclassUUserzoneInfo @ 10189
autoclassUVariableTexPanner @ 10190
autoclassUVertMesh @ 10191
autoclassUVertMeshInstance @ 10192
autoclassUVertexBuffer @ 10193
autoclassUVertexColor @ 10194
autoclassUVertexStreamBase @ 10195
autoclassUVertexStreamCOLOR @ 10196
autoclassUVertexStreamPosNormTex @ 10197
autoclassUVertexStreamUV @ 10198
autoclassUVertexStreamVECTOR @ 10199
autoclassUViewport @ 10200
autoclassUVisibilityItem @ 10201
autoclassUVisibilityItemArray @ 10202
autoclassUVoiceChannel @ 10203
autoclassUWMFile @ 10204
autoclassUWebLog @ 10205
autoclassUWebzenShopItemListDownloader @ 10206
autoclassUwBTLoadingScreenDrawer @ 10207
autoclassUwBtrIni @ 10208
autoclassUwCharacterManager @ 10209
autoclassUwClanLevelInfoParam @ 10210
autoclassUwClanMarkParam @ 10211
autoclassUwDailyQuestParam @ 10212
autoclassUwDefenceGameParam @ 10213
autoclassUwGameManager @ 10214
autoclassUwInstantFire @ 10215
autoclassUwInventory @ 10216
autoclassUwItemBaseParam @ 10217
autoclassUwItemBoxParam @ 10218
autoclassUwItemResourceParam @ 10219
autoclassUwLevelInfoParam @ 10220
autoclassUwMapInfo @ 10221
autoclassUwMatchMaker @ 10222
autoclassUwModeDOAParam @ 10223
autoclassUwMyPlayerStatus @ 10224
autoclassUwNPCActionGroupParam @ 10225
autoclassUwNPCItemGroupParam @ 10226
autoclassUwNPCNameGroupParam @ 10227
autoclassUwNPCParam @ 10228
autoclassUwNPCSpawnParam @ 10229
autoclassUwPaintGroupParam @ 10230
autoclassUwPartsGroupParam @ 10231
autoclassUwPromotionParam @ 10232
autoclassUwQuestParam @ 10233
autoclassUwRandBoxParam @ 10234
autoclassUwSkillBaseParam @ 10235
autoclassUwSkills @ 10236
autoclassUwWeaponBaseParams @ 10237
autoclassUwWeaponCustomInfoParam @ 10238
autoclassUwWeaponCustomPartsParam @ 10239
autoclassUwWeaponFire @ 10240
autoclassUwWeaponManager @ 10241
autoclassUwWeaponParams @ 10242
intAAIControllerexecPollWaitToSeeEnemy @ 10243
intAAIControllerexecWaitToSeeEnemy @ 10244
intAActorexecAddToPackageMap @ 10245
intAActorexecAdd_ColorColor @ 10246
intAActorexecAdjustVolume @ 10247
intAActorexecAllActors @ 10248
intAActorexecAllowMusicPlayback @ 10249
intAActorexecAnimBlendParams @ 10250
intAActorexecAnimBlendToAlpha @ 10251
intAActorexecAnimIsInGroup @ 10252
intAActorexecAnimStopLooping @ 10253
intAActorexecAttachToBone @ 10254
intAActorexecAutonomousPhysics @ 10255
intAActorexecBasedActors @ 10256
intAActorexecBoneRefresh @ 10257
intAActorexecChangeBaseParamsFeedbackEffect @ 10258
intAActorexecChangeSpringFeedbackEffect @ 10259
intAActorexecChildActors @ 10260
intAActorexecClearStayingDebugLines @ 10261
intAActorexecClock @ 10262
intAActorexecCollidingActors @ 10263
intAActorexecConsoleCommand @ 10264
intAActorexecCopyObjectToClipboard @ 10265
intAActorexecCurrentLIPSincAnim @ 10266
intAActorexecDebugClock @ 10267
intAActorexecDebugUnclock @ 10268
intAActorexecDemoPlaySound @ 10269
intAActorexecDestroy @ 10270
intAActorexecDetachFromBone @ 10271
intAActorexecDrawDebugCircle @ 10272
intAActorexecDrawDebugLine @ 10273
intAActorexecDrawDebugSphere @ 10274
intAActorexecDrawStayingDebugLine @ 10275
intAActorexecDynamicActors @ 10276
intAActorexecEnableChannelNotify @ 10277
intAActorexecError @ 10278
intAActorexecFastTrace @ 10279
intAActorexecFinishAnim @ 10280
intAActorexecFinishInterpolation @ 10281
intAActorexecForceFeedbackSupported @ 10282
intAActorexecFreezeAnimAt @ 10283
intAActorexecGetAllInt @ 10284
intAActorexecGetAllIntDesc @ 10285
intAActorexecGetAnimParams @ 10286
intAActorexecGetBoneCoords @ 10287
intAActorexecGetBoneRotation @ 10288
intAActorexecGetCacheEntry @ 10289
intAActorexecGetClosestBone @ 10290
intAActorexecGetMapName @ 10291
intAActorexecGetMeshName @ 10292
intAActorexecGetMusicDuration @ 10293
intAActorexecGetNameFromStr @ 10294
intAActorexecGetNextInt @ 10295
intAActorexecGetNextIntDesc @ 10296
intAActorexecGetNextSkin @ 10297
intAActorexecGetNotifyChannel @ 10298
intAActorexecGetRenderBoundingSphere @ 10299
intAActorexecGetRootLocation @ 10300
intAActorexecGetRootLocationDelta @ 10301
intAActorexecGetRootRotation @ 10302
intAActorexecGetRootRotationDelta @ 10303
intAActorexecGetSoundDuration @ 10304
intAActorexecGetURLMap @ 10305
intAActorexecGetUrlOption @ 10306
intAActorexecHasAnim @ 10307
intAActorexecHasLIPSincAnim @ 10308
intAActorexecIsAnimating @ 10309
intAActorexecIsJoinedTo @ 10310
intAActorexecIsPenetrate @ 10311
intAActorexecIsPlayingLIPSincAnim @ 10312
intAActorexecIsPlayingMusic @ 10313
intAActorexecIsSoundPlayingHK @ 10314
intAActorexecIsTweening @ 10315
intAActorexecIterateActorArray @ 10316
intAActorexecIterateObjectArray @ 10317
intAActorexecKAddAngularImpulse @ 10318
intAActorexecKAddBoneLifter @ 10319
intAActorexecKAddImpulse @ 10320
intAActorexecKDisableCollision @ 10321
intAActorexecKDrawRigidBodyState @ 10322
intAActorexecKEnableCollision @ 10323
intAActorexecKFreezeRagdoll @ 10324
intAActorexecKGetActorGravScale @ 10325
intAActorexecKGetCOMOffset @ 10326
intAActorexecKGetCOMPosition @ 10327
intAActorexecKGetDampingProps @ 10328
intAActorexecKGetFriction @ 10329
intAActorexecKGetImpactThreshold @ 10330
intAActorexecKGetInertiaTensor @ 10331
intAActorexecKGetMass @ 10332
intAActorexecKGetRBQuaternion @ 10333
intAActorexecKGetRestitution @ 10334
intAActorexecKGetRigidBodyState @ 10335
intAActorexecKGetSimParams @ 10336
intAActorexecKGetSkelMass @ 10337
intAActorexecKIsAwake @ 10338
intAActorexecKIsRagdollAvailable @ 10339
intAActorexecKMakeRagdollAvailable @ 10340
intAActorexecKRBVecFromVector @ 10341
intAActorexecKRBVecToVector @ 10342
intAActorexecKRemoveAllBoneLifters @ 10343
intAActorexecKRemoveLifterFromBone @ 10344
intAActorexecKScaleJointLimits @ 10345
intAActorexecKSetActorGravScale @ 10346
intAActorexecKSetBlockKarma @ 10347
intAActorexecKSetCOMOffset @ 10348
intAActorexecKSetDampingProps @ 10349
intAActorexecKSetFriction @ 10350
intAActorexecKSetImpactThreshold @ 10351
intAActorexecKSetInertiaTensor @ 10352
intAActorexecKSetMass @ 10353
intAActorexecKSetRestitution @ 10354
intAActorexecKSetSimParams @ 10355
intAActorexecKSetSkelVel @ 10356
intAActorexecKSetStayUpright @ 10357
intAActorexecKSetStayUprightParams @ 10358
intAActorexecKWake @ 10359
intAActorexecLinkMesh @ 10360
intAActorexecLinkSkelAnim @ 10361
intAActorexecLockRootMotion @ 10362
intAActorexecLoopAnim @ 10363
intAActorexecMakeNoise @ 10364
intAActorexecMove @ 10365
intAActorexecMoveCacheEntry @ 10366
intAActorexecMoveSmooth @ 10367
intAActorexecMultiTrace @ 10368
intAActorexecMultiply_ColorFloat @ 10369
intAActorexecMultiply_FloatColor @ 10370
intAActorexecOnlyAffectPawns @ 10371
intAActorexecPauseStream @ 10372
intAActorexecPlayAnim @ 10373
intAActorexecPlayFeedbackEffect @ 10374
intAActorexecPlayLIPSincAnim @ 10375
intAActorexecPlayMusic @ 10376
intAActorexecPlayOwnedSound @ 10377
intAActorexecPlaySound @ 10378
intAActorexecPlaySoundHK @ 10379
intAActorexecPlaySoundHK2 @ 10380
intAActorexecPlayStream @ 10381
intAActorexecPlayerCanSeeMe @ 10382
intAActorexecPollFinishAnim @ 10383
intAActorexecPollFinishInterpolation @ 10384
intAActorexecPollSleep @ 10385
intAActorexecRadiusActors @ 10386
intAActorexecResetStaticFilterState @ 10387
intAActorexecSeekStream @ 10388
intAActorexecSetAnimFrame @ 10389
intAActorexecSetBase @ 10390
intAActorexecSetBaseMaterial @ 10391
intAActorexecSetBoneDirection @ 10392
intAActorexecSetBoneLocation @ 10393
intAActorexecSetBoneRotation @ 10394
intAActorexecSetBoneScale @ 10395
intAActorexecSetCollision @ 10396
intAActorexecSetCollisionSize @ 10397
intAActorexecSetDrawScale @ 10398
intAActorexecSetDrawScale3D @ 10399
intAActorexecSetDrawType @ 10400
intAActorexecSetLocation @ 10401
intAActorexecSetOwner @ 10402
intAActorexecSetPhysics @ 10403
intAActorexecSetRelativeLocation @ 10404
intAActorexecSetRelativeRotation @ 10405
intAActorexecSetRotation @ 10406
intAActorexecSetStaticMesh @ 10407
intAActorexecSetTimer @ 10408
intAActorexecShouldBeHidden @ 10409
intAActorexecSleep @ 10410
intAActorexecSpawn @ 10411
intAActorexecSpecPlaySoundHK @ 10412
intAActorexecSpecPlaySoundHK2 @ 10413
intAActorexecStopAllMusic @ 10414
