LIBRARY Fire.dll

EXPORTS
??0UFireTexture@@QAE@ABV0@@Z @ 1
??0UFireTexture@@QAE@XZ @ 2
??0UFluidTexture@@QAE@ABV0@@Z @ 3
??0UFluidTexture@@QAE@XZ @ 4
??0UFractalTexture@@QAE@ABV0@@Z @ 5
??0UFractalTexture@@QAE@XZ @ 6
??0UIceTexture@@QAE@ABV0@@Z @ 7
??0UIceTexture@@QAE@XZ @ 8
??0UWaterTexture@@QAE@ABV0@@Z @ 9
??0UWaterTexture@@QAE@XZ @ 10
??0UWaveTexture@@QAE@ABV0@@Z @ 11
??0UWaveTexture@@QAE@XZ @ 12
??0UWetTexture@@QAE@ABV0@@Z @ 13
??0UWetTexture@@QAE@XZ @ 14
??1UFireTexture@@UAE@XZ @ 15
??1UFluidTexture@@UAE@XZ @ 16
??1UFractalTexture@@UAE@XZ @ 17
??1UIceTexture@@UAE@XZ @ 18
??1UWaterTexture@@UAE@XZ @ 19
??1UWaveTexture@@UAE@XZ @ 20
??1UWetTexture@@UAE@XZ @ 21
??2UFireTexture@@SAPAXIPAVUObject@@PAGK@Z @ 22
??2UFireTexture@@SAPAXIPAVUObject@@PBGK@Z @ 23
??2UFireTexture@@SAPAXIPAVUObject@@VFName@@K@Z @ 24
??2UFireTexture@@SAPAXIPAW4EInternal@@@Z @ 25
??2UFluidTexture@@SAPAXIPAVUObject@@PAGK@Z @ 26
??2UFluidTexture@@SAPAXIPAVUObject@@PBGK@Z @ 27
??2UFluidTexture@@SAPAXIPAVUObject@@VFName@@K@Z @ 28
??2UFluidTexture@@SAPAXIPAW4EInternal@@@Z @ 29
??2UFractalTexture@@SAPAXIPAVUObject@@PAGK@Z @ 30
??2UFractalTexture@@SAPAXIPAVUObject@@PBGK@Z @ 31
??2UFractalTexture@@SAPAXIPAVUObject@@VFName@@K@Z @ 32
??2UFractalTexture@@SAPAXIPAW4EInternal@@@Z @ 33
??2UIceTexture@@SAPAXIPAVUObject@@PAGK@Z @ 34
??2UIceTexture@@SAPAXIPAVUObject@@PBGK@Z @ 35
??2UIceTexture@@SAPAXIPAVUObject@@VFName@@K@Z @ 36
??2UIceTexture@@SAPAXIPAW4EInternal@@@Z @ 37
??2UWaterTexture@@SAPAXIPAVUObject@@PAGK@Z @ 38
??2UWaterTexture@@SAPAXIPAVUObject@@PBGK@Z @ 39
??2UWaterTexture@@SAPAXIPAVUObject@@VFName@@K@Z @ 40
??2UWaterTexture@@SAPAXIPAW4EInternal@@@Z @ 41
??2UWaveTexture@@SAPAXIPAVUObject@@PAGK@Z @ 42
??2UWaveTexture@@SAPAXIPAVUObject@@PBGK@Z @ 43
??2UWaveTexture@@SAPAXIPAVUObject@@VFName@@K@Z @ 44
??2UWaveTexture@@SAPAXIPAW4EInternal@@@Z @ 45
??2UWetTexture@@SAPAXIPAVUObject@@PAGK@Z @ 46
??2UWetTexture@@SAPAXIPAVUObject@@PBGK@Z @ 47
??2UWetTexture@@SAPAXIPAVUObject@@VFName@@K@Z @ 48
??2UWetTexture@@SAPAXIPAW4EInternal@@@Z @ 49
??4FDrop@@QAEAAU0@ABU0@@Z @ 50
??4FSpark@@QAEAAV0@ABV0@@Z @ 51
??4KeyPoint@@QAEAAU0@ABU0@@Z @ 52
??4UFireTexture@@QAEAAV0@ABV0@@Z @ 53
??4UFluidTexture@@QAEAAV0@ABV0@@Z @ 54
??4UFractalTexture@@QAEAAV0@ABV0@@Z @ 55
??4UIceTexture@@QAEAAV0@ABV0@@Z @ 56
??4UWaterTexture@@QAEAAV0@ABV0@@Z @ 57
??4UWaveTexture@@QAEAAV0@ABV0@@Z @ 58
??4UWetTexture@@QAEAAV0@ABV0@@Z @ 59
??_7UFireTexture@@6B@ @ 60
??_7UFluidTexture@@6B@ @ 61
??_7UFractalTexture@@6B@ @ 62
??_7UIceTexture@@6B@ @ 63
??_7UWaterTexture@@6B@ @ 64
??_7UWaveTexture@@6B@ @ 65
??_7UWetTexture@@6B@ @ 66
?AddDrop@UWaterTexture@@AAEXHH@Z @ 67
?AddSpark@UFireTexture@@AAEXHH@Z @ 68
?ApplyWetTexture@UWetTexture@@AAEXXZ @ 69
?BlitIceTex@UIceTexture@@AAEXXZ @ 70
?BlitTexIce@UIceTexture@@AAEXXZ @ 71
?CalculateFluid@UFluidTexture@@QAEXXZ @ 72
?CalculateWater@UWaterTexture@@QAEXXZ @ 73
?Clear@UFireTexture@@UAEXK@Z @ 74
?Clear@UFluidTexture@@UAEXK@Z @ 75
?Clear@UIceTexture@@UAEXK@Z @ 76
?Clear@UWaterTexture@@UAEXK@Z @ 77
?Clear@UWaveTexture@@UAEXK@Z @ 78
?Clear@UWetTexture@@UAEXK@Z @ 79
?Click@UFireTexture@@UAEXKMM@Z @ 80
?Click@UIceTexture@@UAEXKMM@Z @ 81
?Click@UWaterTexture@@UAEXKMM@Z @ 82
?CloseSpark@UFireTexture@@AAEXHH@Z @ 83
?ConstantTimeTick@UFireTexture@@UAEXXZ @ 84
?ConstantTimeTick@UFluidTexture@@UAEXXZ @ 85
?ConstantTimeTick@UIceTexture@@UAEXXZ @ 86
?ConstantTimeTick@UWaveTexture@@UAEXXZ @ 87
?ConstantTimeTick@UWetTexture@@UAEXXZ @ 88
?DeleteDrops@UWaterTexture@@AAEXHHH@Z @ 89
?DeleteSparks@UFireTexture@@AAEXHHH@Z @ 90
?Destroy@UIceTexture@@UAEXXZ @ 91
?Destroy@UWaterTexture@@UAEXXZ @ 92
?Destroy@UWetTexture@@UAEXXZ @ 93
?DrawFlashRamp@UFireTexture@@AAEXULineSeg@@EE@Z @ 94
?DrawSparkLine@UFireTexture@@AAEXHHHHH@Z @ 95
?FirePaint@UFireTexture@@AAEXHHK@Z @ 96
?Init@UFireTexture@@UAEXHH@Z @ 97
?Init@UFluidTexture@@UAEXHH@Z @ 98
?Init@UFractalTexture@@UAEXHH@Z @ 99
?Init@UIceTexture@@UAEXHH@Z @ 100
?Init@UWaterTexture@@UAEXHH@Z @ 101
?Init@UWaveTexture@@UAEXHH@Z @ 102
?Init@UWetTexture@@UAEXHH@Z @ 103
?InternalConstructor@UFireTexture@@SAXPAX@Z @ 104
?InternalConstructor@UFluidTexture@@SAXPAX@Z @ 105
?InternalConstructor@UIceTexture@@SAXPAX@Z @ 106
?InternalConstructor@UWaveTexture@@SAXPAX@Z @ 107
?InternalConstructor@UWetTexture@@SAXPAX@Z @ 108
?MousePosition@UFireTexture@@UAEXKMM@Z @ 109
?MousePosition@UIceTexture@@UAEXKMM@Z @ 110
?MousePosition@UWaterTexture@@UAEXKMM@Z @ 111
?MoveIcePosition@UIceTexture@@AAEXM@Z @ 112
?MoveSpark@UFireTexture@@AAEXPAVFSpark@@@Z @ 113
?MoveSparkAngle@UFireTexture@@AAEXPAVFSpark@@E@Z @ 114
?MoveSparkTwo@UFireTexture@@AAEXPAVFSpark@@@Z @ 115
?MoveSparkXY@UFireTexture@@AAEXPAVFSpark@@CC@Z @ 116
?PostDrawSparks@UFireTexture@@AAEXXZ @ 117
?PostEditChange@UFractalTexture@@UAEXXZ @ 118
?PostLoad@UFireTexture@@UAEXXZ @ 119
?PostLoad@UFluidTexture@@UAEXXZ @ 120
?PostLoad@UFractalTexture@@UAEXXZ @ 121
?PostLoad@UIceTexture@@UAEXXZ @ 122
?PostLoad@UWaterTexture@@UAEXXZ @ 123
?PostLoad@UWaveTexture@@UAEXXZ @ 124
?PostLoad@UWetTexture@@UAEXXZ @ 125
?Prime@UFractalTexture@@UAEXXZ @ 126
?PrivateStaticClass@UFireTexture@@0VUClass@@A @ 127
?PrivateStaticClass@UFluidTexture@@0VUClass@@A @ 128
?PrivateStaticClass@UFractalTexture@@0VUClass@@A @ 129
?PrivateStaticClass@UIceTexture@@0VUClass@@A @ 130
?PrivateStaticClass@UWaterTexture@@0VUClass@@A @ 131
?PrivateStaticClass@UWaveTexture@@0VUClass@@A @ 132
?PrivateStaticClass@UWetTexture@@0VUClass@@A @ 133
?RedrawSparks@UFireTexture@@AAEXXZ @ 134
?RenderIce@UIceTexture@@AAEXM@Z @ 135
?Serialize@UFireTexture@@UAEXAAVFArchive@@@Z @ 136
?SetRefractionTable@UWetTexture@@AAEXXZ @ 137
?SetWaveLight@UWaveTexture@@QAEXXZ @ 138
?StaticClass@UFireTexture@@SAPAVUClass@@XZ @ 139
?StaticClass@UFluidTexture@@SAPAVUClass@@XZ @ 140
?StaticClass@UFractalTexture@@SAPAVUClass@@XZ @ 141
?StaticClass@UIceTexture@@SAPAVUClass@@XZ @ 142
?StaticClass@UWaterTexture@@SAPAVUClass@@XZ @ 143
?StaticClass@UWaveTexture@@SAPAVUClass@@XZ @ 144
?StaticClass@UWetTexture@@SAPAVUClass@@XZ @ 145
?TempDrawSpark@UFireTexture@@AAEXHHH@Z @ 146
?Tick@UIceTexture@@UAEXM@Z @ 147
?TouchTexture@UFireTexture@@UAEXHHM@Z @ 148
?TouchTexture@UFractalTexture@@UAEXHHM@Z @ 149
?TouchTexture@UWaterTexture@@UAEXHHM@Z @ 150
?WaterPaint@UWaterTexture@@AAEXHHK@Z @ 151
?WaterRedrawDrops@UWaterTexture@@QAEXXZ @ 152
GPackage @ 154
_DllMain@12 @ 153
autoclassUFireTexture @ 155
autoclassUFluidTexture @ 156
autoclassUFractalTexture @ 157
autoclassUIceTexture @ 158
autoclassUWaterTexture @ 159
autoclassUWaveTexture @ 160
autoclassUWetTexture @ 161
