LIBRARY IpDrv.dll

EXPORTS
??0AInternetLink@@QAE@ABV0@@Z @ 1
??0AInternetLink@@QAE@XZ @ 2
??0AMasterServerClient@@QAE@ABV0@@Z @ 3
??0AMasterServerClient@@QAE@XZ @ 4
??0AMasterServerGameStats@@IAE@XZ @ 5
??0AMasterServerGameStats@@QAE@ABV0@@Z @ 6
??0AMasterServerLink@@QAE@ABV0@@Z @ 7
??0AMasterServerLink@@QAE@XZ @ 8
??0AMasterServerUplink@@QAE@ABV0@@Z @ 9
??0AMasterServerUplink@@QAE@XZ @ 10
??0AServerQueryClient@@QAE@ABV0@@Z @ 11
??0AServerQueryClient@@QAE@XZ @ 12
??0ATcpLink@@QAE@ABV0@@Z @ 13
??0ATcpLink@@QAE@XZ @ 14
??0AUdpLink@@QAE@ABV0@@Z @ 15
??0AUdpLink@@QAE@XZ @ 16
??0FArchiveTcpReader@@QAE@ABU0@@Z @ 17
??0FArchiveTcpReader@@QAE@PAVFTcpLink@@@Z @ 18
??0FArchiveTcpSocket@@QAE@ABU0@@Z @ 19
??0FArchiveTcpSocket@@QAE@PAVFTcpLink@@@Z @ 20
??0FArchiveTcpWriter@@QAE@ABU0@@Z @ 21
??0FArchiveTcpWriter@@QAE@PAVFTcpLink@@@Z @ 22
??0FArchiveUdpReader@@QAE@ABU0@@Z @ 23
??0FArchiveUdpReader@@QAE@PAEH@Z @ 24
??0FArchiveUdpWriter@@QAE@ABU0@@Z @ 25
??0FArchiveUdpWriter@@QAE@PAVFUdpLink@@UFIpAddr@@@Z @ 26
??0FInternetLink@@QAE@ABV0@@Z @ 27
??0FInternetLink@@QAE@UFSocketData@@@Z @ 28
??0FInternetLink@@QAE@XZ @ 29
??0FIpAddr@@QAE@PBGH@Z @ 30
??0FIpAddr@@QAE@Usockaddr_in@@@Z @ 31
??0FIpAddr@@QAE@XZ @ 32
??0FMD5UpdateData@@QAE@ABU0@@Z @ 33
??0FMD5UpdateData@@QAE@XZ @ 34
??0FQueryData@@QAE@ABU0@@Z @ 35
??0FQueryData@@QAE@XZ @ 36
??0FTcpLink@@QAE@ABV0@@Z @ 37
??0FTcpLink@@QAE@UFSocketData@@@Z @ 38
??0FTcpLink@@QAE@XZ @ 39
??0FUdpLink@@QAE@ABV0@@Z @ 40
??0FUdpLink@@QAE@UFSocketData@@@Z @ 41
??0FUdpLink@@QAE@XZ @ 42
??0FtMasterServerEntry@@QAE@ABU0@@Z @ 43
??0FtMasterServerEntry@@QAE@XZ @ 44
??0UBTUdpPingChecker@@QAE@ABV0@@Z @ 45
??0UBTUdpPingChecker@@QAE@XZ @ 46
??0UDWebzenShopItemListDownloader@@QAE@ABV0@@Z @ 47
??0UDWebzenShopItemListDownloader@@QAE@XZ @ 48
??0UNatCheckStater@@IAE@XZ @ 49
??0UNatCheckStater@@QAE@ABV0@@Z @ 50
??0UNatCheckStater@@QAE@PAVUNatChecker@@EAAVFString@@HEKE@Z @ 51
??0UNatChecker@@IAE@XZ @ 52
??0UNatChecker@@QAE@ABV0@@Z @ 53
??0UNatChecker@@QAE@IPAVUNetDriver@@PAVUGameEngine@@@Z @ 54
??0UTcpBTLoadingState_ChangeClient@@QAE@ABV0@@Z @ 55
??0UTcpBTLoadingState_ChangeClient@@QAE@XZ @ 56
??0UTcpBTLoadingState_ChangeHost@@QAE@ABV0@@Z @ 57
??0UTcpBTLoadingState_ChangeHost@@QAE@XZ @ 58
??0UTcpBTLoadingState_ClientLoading@@QAE@ABV0@@Z @ 59
??0UTcpBTLoadingState_ClientLoading@@QAE@XZ @ 60
??0UTcpBTLoadingState_HostLoading@@QAE@ABV0@@Z @ 61
??0UTcpBTLoadingState_HostLoading@@QAE@XZ @ 62
??0UTcpBTMapLoader@@QAE@ABV0@@Z @ 63
??0UTcpBTMapLoader@@QAE@XZ @ 64
??0UTcpNetDriver@@QAE@ABV0@@Z @ 65
??0UTcpNetDriver@@QAE@XZ @ 66
??0UTcpTickChecker@@QAE@ABV0@@Z @ 67
??0UTcpTickChecker@@QAE@XZ @ 68
??0UTcpipConnection@@IAE@XZ @ 69
??0UTcpipConnection@@QAE@ABV0@@Z @ 70
??0UTcpipConnection@@QAE@IPAVUNetDriver@@Usockaddr_in@@W4EConnectionState@@HABVFURL@@H@Z @ 71
??1AInternetLink@@UAE@XZ @ 72
??1AMasterServerClient@@UAE@XZ @ 73
??1AMasterServerGameStats@@UAE@XZ @ 74
??1AMasterServerLink@@UAE@XZ @ 75
??1AMasterServerUplink@@UAE@XZ @ 76
??1AServerQueryClient@@UAE@XZ @ 77
??1ATcpLink@@UAE@XZ @ 78
??1AUdpLink@@UAE@XZ @ 79
??1FArchiveTcpReader@@UAE@XZ @ 80
??1FArchiveTcpSocket@@UAE@XZ @ 81
??1FArchiveTcpWriter@@UAE@XZ @ 82
??1FArchiveUdpReader@@UAE@XZ @ 83
??1FArchiveUdpWriter@@UAE@XZ @ 84
??1FMD5UpdateData@@QAE@XZ @ 85
??1FQueryData@@QAE@XZ @ 86
??1FTcpLink@@UAE@XZ @ 87
??1FUdpLink@@UAE@XZ @ 88
??1FtMasterServerEntry@@QAE@XZ @ 89
??1UBTUdpPingChecker@@UAE@XZ @ 90
??1UDWebzenShopItemListDownloader@@UAE@XZ @ 91
??1UNatCheckStater@@UAE@XZ @ 92
??1UNatChecker@@UAE@XZ @ 93
??1UTcpBTLoadingState_ChangeClient@@UAE@XZ @ 94
??1UTcpBTLoadingState_ChangeHost@@UAE@XZ @ 95
??1UTcpBTLoadingState_ClientLoading@@UAE@XZ @ 96
??1UTcpBTLoadingState_HostLoading@@UAE@XZ @ 97
??1UTcpBTMapLoader@@UAE@XZ @ 98
??1UTcpNetDriver@@UAE@XZ @ 99
??1UTcpTickChecker@@UAE@XZ @ 100
??1UTcpipConnection@@UAE@XZ @ 101
??2AInternetLink@@SAPAXIPAVUObject@@PAGK@Z @ 102
??2AInternetLink@@SAPAXIPAVUObject@@PBGK@Z @ 103
??2AInternetLink@@SAPAXIPAVUObject@@VFName@@K@Z @ 104
??2AInternetLink@@SAPAXIPAW4EInternal@@@Z @ 105
??2AMasterServerClient@@SAPAXIPAVUObject@@PAGK@Z @ 106
??2AMasterServerClient@@SAPAXIPAVUObject@@PBGK@Z @ 107
??2AMasterServerClient@@SAPAXIPAVUObject@@VFName@@K@Z @ 108
??2AMasterServerClient@@SAPAXIPAW4EInternal@@@Z @ 109
??2AMasterServerGameStats@@SAPAXIPAVUObject@@PAGK@Z @ 110
??2AMasterServerGameStats@@SAPAXIPAVUObject@@PBGK@Z @ 111
??2AMasterServerGameStats@@SAPAXIPAVUObject@@VFName@@K@Z @ 112
??2AMasterServerGameStats@@SAPAXIPAW4EInternal@@@Z @ 113
??2AMasterServerLink@@SAPAXIPAVUObject@@PAGK@Z @ 114
??2AMasterServerLink@@SAPAXIPAVUObject@@PBGK@Z @ 115
??2AMasterServerLink@@SAPAXIPAVUObject@@VFName@@K@Z @ 116
??2AMasterServerLink@@SAPAXIPAW4EInternal@@@Z @ 117
??2AMasterServerUplink@@SAPAXIPAVUObject@@PAGK@Z @ 118
??2AMasterServerUplink@@SAPAXIPAVUObject@@PBGK@Z @ 119
??2AMasterServerUplink@@SAPAXIPAVUObject@@VFName@@K@Z @ 120
??2AMasterServerUplink@@SAPAXIPAW4EInternal@@@Z @ 121
??2AServerQueryClient@@SAPAXIPAVUObject@@PAGK@Z @ 122
??2AServerQueryClient@@SAPAXIPAVUObject@@PBGK@Z @ 123
??2AServerQueryClient@@SAPAXIPAVUObject@@VFName@@K@Z @ 124
??2AServerQueryClient@@SAPAXIPAW4EInternal@@@Z @ 125
??2ATcpLink@@SAPAXIPAVUObject@@PAGK@Z @ 126
??2ATcpLink@@SAPAXIPAVUObject@@PBGK@Z @ 127
??2ATcpLink@@SAPAXIPAVUObject@@VFName@@K@Z @ 128
??2ATcpLink@@SAPAXIPAW4EInternal@@@Z @ 129
??2AUdpLink@@SAPAXIPAVUObject@@PAGK@Z @ 130
??2AUdpLink@@SAPAXIPAVUObject@@PBGK@Z @ 131
??2AUdpLink@@SAPAXIPAVUObject@@VFName@@K@Z @ 132
??2AUdpLink@@SAPAXIPAW4EInternal@@@Z @ 133
??2UBTUdpPingChecker@@SAPAXIPAVUObject@@PAGK@Z @ 134
??2UBTUdpPingChecker@@SAPAXIPAVUObject@@PBGK@Z @ 135
??2UBTUdpPingChecker@@SAPAXIPAVUObject@@VFName@@K@Z @ 136
??2UBTUdpPingChecker@@SAPAXIPAW4EInternal@@@Z @ 137
??2UDWebzenShopItemListDownloader@@SAPAXIPAVUObject@@PAGK@Z @ 138
??2UDWebzenShopItemListDownloader@@SAPAXIPAVUObject@@PBGK@Z @ 139
??2UDWebzenShopItemListDownloader@@SAPAXIPAVUObject@@VFName@@K@Z @ 140
??2UDWebzenShopItemListDownloader@@SAPAXIPAW4EInternal@@@Z @ 141
??2UNatCheckStater@@SAPAXIPAVUObject@@PAGK@Z @ 142
??2UNatCheckStater@@SAPAXIPAVUObject@@PBGK@Z @ 143
??2UNatCheckStater@@SAPAXIPAVUObject@@VFName@@K@Z @ 144
??2UNatCheckStater@@SAPAXIPAW4EInternal@@@Z @ 145
??2UNatChecker@@SAPAXIPAVUObject@@PAGK@Z @ 146
??2UNatChecker@@SAPAXIPAVUObject@@PBGK@Z @ 147
??2UNatChecker@@SAPAXIPAVUObject@@VFName@@K@Z @ 148
??2UNatChecker@@SAPAXIPAW4EInternal@@@Z @ 149
??2UTcpBTLoadingState_ChangeClient@@SAPAXIPAVUObject@@PAGK@Z @ 150
??2UTcpBTLoadingState_ChangeClient@@SAPAXIPAVUObject@@PBGK@Z @ 151
??2UTcpBTLoadingState_ChangeClient@@SAPAXIPAVUObject@@VFName@@K@Z @ 152
??2UTcpBTLoadingState_ChangeClient@@SAPAXIPAW4EInternal@@@Z @ 153
??2UTcpBTLoadingState_ChangeHost@@SAPAXIPAVUObject@@PAGK@Z @ 154
??2UTcpBTLoadingState_ChangeHost@@SAPAXIPAVUObject@@PBGK@Z @ 155
??2UTcpBTLoadingState_ChangeHost@@SAPAXIPAVUObject@@VFName@@K@Z @ 156
??2UTcpBTLoadingState_ChangeHost@@SAPAXIPAW4EInternal@@@Z @ 157
??2UTcpBTLoadingState_ClientLoading@@SAPAXIPAVUObject@@PAGK@Z @ 158
??2UTcpBTLoadingState_ClientLoading@@SAPAXIPAVUObject@@PBGK@Z @ 159
??2UTcpBTLoadingState_ClientLoading@@SAPAXIPAVUObject@@VFName@@K@Z @ 160
??2UTcpBTLoadingState_ClientLoading@@SAPAXIPAW4EInternal@@@Z @ 161
??2UTcpBTLoadingState_HostLoading@@SAPAXIPAVUObject@@PAGK@Z @ 162
??2UTcpBTLoadingState_HostLoading@@SAPAXIPAVUObject@@PBGK@Z @ 163
??2UTcpBTLoadingState_HostLoading@@SAPAXIPAVUObject@@VFName@@K@Z @ 164
??2UTcpBTLoadingState_HostLoading@@SAPAXIPAW4EInternal@@@Z @ 165
??2UTcpBTMapLoader@@SAPAXIPAVUObject@@PAGK@Z @ 166
??2UTcpBTMapLoader@@SAPAXIPAVUObject@@PBGK@Z @ 167
??2UTcpBTMapLoader@@SAPAXIPAVUObject@@VFName@@K@Z @ 168
??2UTcpBTMapLoader@@SAPAXIPAW4EInternal@@@Z @ 169
??2UTcpNetDriver@@SAPAXIPAVUObject@@PAGK@Z @ 170
??2UTcpNetDriver@@SAPAXIPAVUObject@@PBGK@Z @ 171
??2UTcpNetDriver@@SAPAXIPAVUObject@@VFName@@K@Z @ 172
??2UTcpNetDriver@@SAPAXIPAW4EInternal@@@Z @ 173
??2UTcpTickChecker@@SAPAXIPAVUObject@@PAGK@Z @ 174
??2UTcpTickChecker@@SAPAXIPAVUObject@@PBGK@Z @ 175
??2UTcpTickChecker@@SAPAXIPAVUObject@@VFName@@K@Z @ 176
??2UTcpTickChecker@@SAPAXIPAW4EInternal@@@Z @ 177
??2UTcpipConnection@@SAPAXIPAVUObject@@PAGK@Z @ 178
??2UTcpipConnection@@SAPAXIPAVUObject@@PBGK@Z @ 179
??2UTcpipConnection@@SAPAXIPAVUObject@@VFName@@K@Z @ 180
??2UTcpipConnection@@SAPAXIPAW4EInternal@@@Z @ 181
??4AInternetLink@@QAEAAV0@ABV0@@Z @ 182
??4AMasterServerClient@@QAEAAV0@ABV0@@Z @ 183
??4AMasterServerGameStats@@QAEAAV0@ABV0@@Z @ 184
??4AMasterServerLink@@QAEAAV0@ABV0@@Z @ 185
??4AMasterServerUplink@@QAEAAV0@ABV0@@Z @ 186
??4AServerQueryClient@@QAEAAV0@ABV0@@Z @ 187
??4ATcpLink@@QAEAAV0@ABV0@@Z @ 188
??4AUdpLink@@QAEAAV0@ABV0@@Z @ 189
??4FArchiveTcpReader@@QAEAAU0@ABU0@@Z @ 190
??4FArchiveTcpSocket@@QAEAAU0@ABU0@@Z @ 191
??4FArchiveTcpWriter@@QAEAAU0@ABU0@@Z @ 192
??4FArchiveUdpReader@@QAEAAU0@ABU0@@Z @ 193
??4FArchiveUdpWriter@@QAEAAU0@ABU0@@Z @ 194
??4FInternetLink@@QAEAAV0@ABV0@@Z @ 195
??4FIpAddr@@QAEAAU0@ABU0@@Z @ 196
??4FMD5UpdateData@@QAEAAU0@ABU0@@Z @ 197
??4FQueryData@@QAEAAU0@ABU0@@Z @ 198
??4FSocketData@@QAEAAU0@ABU0@@Z @ 199
??4FTcpLink@@QAEAAV0@ABV0@@Z @ 200
??4FUdpLink@@QAEAAV0@ABV0@@Z @ 201
??4FtMasterServerEntry@@QAEAAU0@ABU0@@Z @ 202
??4UBTUdpPingChecker@@QAEAAV0@ABV0@@Z @ 203
??4UDWebzenShopItemListDownloader@@QAEAAV0@ABV0@@Z @ 204
??4UNatCheckStater@@QAEAAV0@ABV0@@Z @ 205
??4UNatChecker@@QAEAAV0@ABV0@@Z @ 206
??4UTcpBTLoadingState_ChangeClient@@QAEAAV0@ABV0@@Z @ 207
??4UTcpBTLoadingState_ChangeHost@@QAEAAV0@ABV0@@Z @ 208
??4UTcpBTLoadingState_ClientLoading@@QAEAAV0@ABV0@@Z @ 209
??4UTcpBTLoadingState_HostLoading@@QAEAAV0@ABV0@@Z @ 210
??4UTcpBTMapLoader@@QAEAAV0@ABV0@@Z @ 211
??4UTcpNetDriver@@QAEAAV0@ABV0@@Z @ 212
??4UTcpTickChecker@@QAEAAV0@ABV0@@Z @ 213
??4UTcpipConnection@@QAEAAV0@ABV0@@Z @ 214
??4_Init_locks@std@@QAEAAV01@ABV01@@Z @ 215
??6@YAAAVFArchive@@AAV0@AAUFIpAddr@@@Z @ 216
??6@YAAAVFArchive@@AAV0@AAUFMD5UpdateData@@@Z @ 217
??6@YAAAVFArchive@@AAV0@AAUFQueryData@@@Z @ 218
??8FIpAddr@@QAEHAAU0@@Z @ 219
??_7AInternetLink@@6B@ @ 220
??_7AMasterServerClient@@6B@ @ 221
??_7AMasterServerGameStats@@6B@ @ 222
??_7AMasterServerLink@@6B@ @ 223
??_7AMasterServerUplink@@6B@ @ 224
??_7AServerQueryClient@@6B@ @ 225
??_7ATcpLink@@6B@ @ 226
??_7AUdpLink@@6B@ @ 227
??_7FArchiveTcpReader@@6B@ @ 228
??_7FArchiveTcpSocket@@6B@ @ 229
??_7FArchiveTcpWriter@@6B@ @ 230
??_7FArchiveUdpReader@@6B@ @ 231
??_7FArchiveUdpWriter@@6B@ @ 232
??_7FInternetLink@@6B@ @ 233
??_7FTcpLink@@6B@ @ 234
??_7FUdpLink@@6B@ @ 235
??_7UBTUdpPingChecker@@6B@ @ 236
??_7UDWebzenShopItemListDownloader@@6B@ @ 237
??_7UNatCheckStater@@6B@ @ 238
??_7UNatChecker@@6B@ @ 239
??_7UTcpBTLoadingState_ChangeClient@@6B@ @ 240
??_7UTcpBTLoadingState_ChangeHost@@6B@ @ 241
??_7UTcpBTLoadingState_ClientLoading@@6B@ @ 242
??_7UTcpBTLoadingState_HostLoading@@6B@ @ 243
??_7UTcpBTMapLoader@@6B@ @ 244
??_7UTcpNetDriver@@6BFExec@@@ @ 245
??_7UTcpNetDriver@@6BUObject@@@ @ 246
??_7UTcpTickChecker@@6B@ @ 247
??_7UTcpipConnection@@6BFExec@@@ @ 248
??_7UTcpipConnection@@6BFOutputDevice@@@ @ 249
??_7UTcpipConnection@@6BUObject@@@ @ 250
?AddRemoteAddrForSend@UNatCheckStater@@QAEHAAUsockaddr_in@@@Z @ 251
?AddRemoteAddrForSendDummyPacket@UTcpNetDriver@@UAEHHAAVFString@@H@Z @ 252
?AtEnd@FArchiveTcpReader@@UAEHXZ @ 253
?AtEnd@FArchiveUdpReader@@UAEHXZ @ 254
?BandwidthReceiveBudget@FInternetLink@@1HA @ 255
?BandwidthSendBudget@FInternetLink@@1HA @ 256
?BindPort@FUdpLink@@UAEHH@Z @ 257
?CalcChecksum@UBTUdpPingChecker@@QAEGPADH@Z @ 258
?ChangeToClient@UTcpNetDriver@@UAEHPAVFURL@@PBGW4ETravelType@@@Z @ 259
?ChangeToServer@UTcpNetDriver@@UAEHPAVFURL@@PBGW4ETravelType@@@Z @ 260
?Check@UBTUdpPingChecker@@UAEHAAV?$TArray@H@@AAV?$TArray@VFString@@@@@Z @ 261
?CheckConnectionAttempt@ATcpLink@@QAEXXZ @ 262
?CheckConnectionQueue@ATcpLink@@QAEXXZ @ 263
?CheckSendHeaderLiveTime@UBTUdpPingChecker@@QAEHXZ @ 264
?ClearNatCheckStater@UTcpNetDriver@@UAEHE@Z @ 265
?Close@FTcpLink@@UAEXH@Z @ 266
?ComparePackageGuidToHost@UTcpBTMapLoader@@UAEHXZ @ 267
?CompletePacketsAvailable@FArchiveTcpReader@@EAEHXZ @ 268
?Connect@FTcpLink@@UAEXUFIpAddr@@@Z @ 269
?CreateImage@UTcpBTMapLoader@@QAEHXZ @ 270
?CreateNatChecker@UTcpNetDriver@@UAEHPAVUGameEngine@@@Z @ 271
?CreateNetDriver@UTcpBTLoadingState_ClientLoading@@UAEHPAGH@Z @ 272
?CreateNetDriver@UTcpBTLoadingState_HostLoading@@UAEHPAGH@Z @ 273
?DataAvailable@FTcpLink@@UAEHXZ @ 274
?Destroy@AInternetLink@@UAEXXZ @ 275
?Destroy@AMasterServerClient@@UAEXXZ @ 276
?Destroy@AMasterServerUplink@@UAEXXZ @ 277
?Destroy@AServerQueryClient@@UAEXXZ @ 278
?Destroy@UBTUdpPingChecker@@UAEXXZ @ 279
?Destroy@UDWebzenShopItemListDownloader@@UAEXXZ @ 280
?Destroy@UNatCheckStater@@UAEXXZ @ 281
?Destroy@UNatChecker@@UAEXXZ @ 282
?Destroy@UTcpBTLoadingState_ChangeClient@@UAEXXZ @ 283
?Destroy@UTcpBTLoadingState_ChangeHost@@UAEXXZ @ 284
?Destroy@UTcpBTLoadingState_ClientLoading@@UAEXXZ @ 285
?Destroy@UTcpBTLoadingState_HostLoading@@UAEXXZ @ 286
?Destroy@UTcpBTMapLoader@@UAEXXZ @ 287
?DestroyImage@UTcpBTMapLoader@@QAEHXZ @ 288
?DisconnectClientConnection@UTcpNetDriver@@UAEHK@Z @ 289
?Download@UDWebzenShopItemListDownloader@@UAEXHHH@Z @ 290
?DrawLoadingScreen@UTcpBTMapLoader@@UAEHH@Z @ 291
?EndLoading@UTcpBTLoadingState_ChangeClient@@UAEXXZ @ 292
?EndLoading@UTcpBTLoadingState_ChangeHost@@UAEXXZ @ 293
?EndLoading@UTcpBTLoadingState_ClientLoading@@UAEXXZ @ 294
?EndLoading@UTcpBTLoadingState_HostLoading@@UAEXXZ @ 295
?EndMapLoad@UTcpBTMapLoader@@UAEXXZ @ 296
?ErrorHandling@UTcpBTLoadingState_ChangeClient@@UAEHXZ @ 297
?ErrorHandling@UTcpBTLoadingState_ChangeHost@@UAEHXZ @ 298
?ErrorHandling@UTcpBTLoadingState_ClientLoading@@UAEHXZ @ 299
?ErrorHandling@UTcpBTLoadingState_HostLoading@@UAEHXZ @ 300
?Flush@FArchiveTcpWriter@@UAEXXZ @ 301
?Flush@FArchiveUdpWriter@@UAEXXZ @ 302
?FlushSendBuffer@ATcpLink@@QAEHXZ @ 303
?ForceEndLoading@UTcpBTLoadingState_ChangeClient@@UAEXXZ @ 304
?ForceEndLoading@UTcpBTLoadingState_ChangeHost@@UAEXXZ @ 305
?ForceEndLoading@UTcpBTLoadingState_ClientLoading@@UAEXXZ @ 306
?ForceEndLoading@UTcpBTLoadingState_HostLoading@@UAEXXZ @ 307
?ForceGoToNextStep@UTcpBTLoadingState_ChangeClient@@UAEHH@Z @ 308
?ForceGoToNextStep@UTcpBTLoadingState_ChangeHost@@UAEHH@Z @ 309
?ForceGoToNextStep@UTcpBTLoadingState_ClientLoading@@UAEHH@Z @ 310
?ForceGoToNextStep@UTcpBTLoadingState_HostLoading@@UAEHH@Z @ 311
?GetClientConnection@UTcpNetDriver@@UAEPAVUNetConnection@@K@Z @ 312
?GetCompletedDummyUserCount@UTcpNetDriver@@UAEHXZ @ 313
?GetLimitSec@UTcpTickChecker@@UAENXZ @ 314
?GetLoadingState@UTcpBTMapLoader@@UAEEXZ @ 315
?GetLoadingStateStr@UTcpBTMapLoader@@UAEXAAVFString@@EH@Z @ 316
?GetRequestMyAddressTime@UTcpNetDriver@@UAENXZ @ 317
?GetResolveInfo@AInternetLink@@QAEAAPAVFResolveInfo@@XZ @ 318
?GetSendMyAddressTime@UTcpNetDriver@@UAENXZ @ 319
?GetServerConnection@UTcpNetDriver@@QAEPAVUTcpipConnection@@XZ @ 320
?GetServerConnectionAddress@UTcpNetDriver@@UAEHAAVFString@@@Z @ 321
?GetSockAddr@FIpAddr@@QAE?AUsockaddr_in@@XZ @ 322
?GetSocket@AInternetLink@@QAEAAIXZ @ 323
?GetSocketData@AUdpLink@@QAE?AUFSocketData@@XZ @ 324
?GetSocketData@UTcpNetDriver@@QAE?AUFSocketData@@XZ @ 325
?GetString@FIpAddr@@QAE?AVFString@@H@Z @ 326
?GetString@FSocketData@@QAE?AVFString@@H@Z @ 327
?GotoNextStep@UTcpBTLoadingState_ChangeClient@@UAEHH@Z @ 328
?GotoNextStep@UTcpBTLoadingState_ChangeHost@@UAEHH@Z @ 329
?GotoNextStep@UTcpBTLoadingState_ClientLoading@@UAEHH@Z @ 330
?GotoNextStep@UTcpBTLoadingState_HostLoading@@UAEHH@Z @ 331
?HasBudgetToRecv@FInternetLink@@MAEHXZ @ 332
?HasBudgetToRecv@FTcpLink@@MAEHXZ @ 333
?HasSendPending@FTcpLink@@MAEHXZ @ 334
?IPDRV_Accepted@@3VFName@@A @ 335
?IPDRV_Closed@@3VFName@@A @ 336
?IPDRV_ConnectionFailed@@3VFName@@A @ 337
?IPDRV_GetMasterServer@@3VFName@@A @ 338
?IPDRV_LogStatLine@@3VFName@@A @ 339
?IPDRV_OnPingTimeout@@3VFName@@A @ 340
?IPDRV_OnQueryFinished@@3VFName@@A @ 341
?IPDRV_OnReceivedMOTDData@@3VFName@@A @ 342
?IPDRV_OnReceivedModMOTDData@@3VFName@@A @ 343
?IPDRV_OnReceivedOwnageItem@@3VFName@@A @ 344
?IPDRV_OnReceivedPingInfo@@3VFName@@A @ 345
?IPDRV_OnReceivedServer@@3VFName@@A @ 346
?IPDRV_Opened@@3VFName@@A @ 347
?IPDRV_ReceivedBinary@@3VFName@@A @ 348
?IPDRV_ReceivedLine@@3VFName@@A @ 349
?IPDRV_ReceivedText@@3VFName@@A @ 350
?IPDRV_Refresh@@3VFName@@A @ 351
?IPDRV_ResolveFailed@@3VFName@@A @ 352
?IPDRV_Resolved@@3VFName@@A @ 353
?Init@AMasterServerClient@@QAEXXZ @ 354
?Init@AServerQueryClient@@QAEXXZ @ 355
?InitBase@UTcpNetDriver@@QAEHHPAVFNetworkNotify@@AAVFURL@@AAVFString@@@Z @ 356
?InitClient@UNatChecker@@QAEHHAAVFString@@HEE@Z @ 357
?InitClientNatChecker@UTcpNetDriver@@UAEHHAAVFString@@HEE@Z @ 358
?InitConnect@UTcpNetDriver@@UAEHPAVFNetworkNotify@@AAVFURL@@AAVFString@@H@Z @ 359
?InitHost@UNatChecker@@QAEHHAAVFString@@HEE@Z @ 360
?InitHostNatChecker@UTcpNetDriver@@UAEHHAAVFString@@AAHEE@Z @ 361
?InitListen@UTcpNetDriver@@UAEHPAVFNetworkNotify@@AAVFURL@@AAVFString@@@Z @ 362
?InitRemoteAddr@UTcpipConnection@@UAEXAAVFString@@H@Z @ 363
?Initialize@UBTUdpPingChecker@@QAEHXZ @ 364
?InternalConstructor@AInternetLink@@SAXPAX@Z @ 365
?InternalConstructor@AMasterServerClient@@SAXPAX@Z @ 366
?InternalConstructor@AMasterServerGameStats@@SAXPAX@Z @ 367
?InternalConstructor@AMasterServerLink@@SAXPAX@Z @ 368
?InternalConstructor@AMasterServerUplink@@SAXPAX@Z @ 369
?InternalConstructor@AServerQueryClient@@SAXPAX@Z @ 370
?InternalConstructor@ATcpLink@@SAXPAX@Z @ 371
?InternalConstructor@AUdpLink@@SAXPAX@Z @ 372
?InternalConstructor@UBTUdpPingChecker@@SAXPAX@Z @ 373
?InternalConstructor@UDWebzenShopItemListDownloader@@SAXPAX@Z @ 374
?InternalConstructor@UNatCheckStater@@SAXPAX@Z @ 375
?InternalConstructor@UNatChecker@@SAXPAX@Z @ 376
?InternalConstructor@UTcpBTLoadingState_ChangeClient@@SAXPAX@Z @ 377
?InternalConstructor@UTcpBTLoadingState_ChangeHost@@SAXPAX@Z @ 378
?InternalConstructor@UTcpBTLoadingState_ClientLoading@@SAXPAX@Z @ 379
?InternalConstructor@UTcpBTLoadingState_HostLoading@@SAXPAX@Z @ 380
?InternalConstructor@UTcpBTMapLoader@@SAXPAX@Z @ 381
?InternalConstructor@UTcpNetDriver@@SAXPAX@Z @ 382
?InternalConstructor@UTcpTickChecker@@SAXPAX@Z @ 383
?InternalConstructor@UTcpipConnection@@SAXPAX@Z @ 384
?InternalDataAvailable@FTcpLink@@MAEHXZ @ 385
?IsSameAddr@UNatCheckStater@@QAEHAAUsockaddr_in@@@Z @ 386
?IsValidRecvHeader@UBTUdpPingChecker@@QAEHUICMPheader@1@AAN@Z @ 387
?Listen@FTcpLink@@UAEXH@Z @ 388
?LoadMap@UTcpBTMapLoader@@UAEHAAVFURL@@AAVFString@@@Z @ 389
?LoadMap_DS@UTcpBTMapLoader@@UAEHAAVFURL@@AAVFString@@@Z @ 390
?LowLevelDescribe@UTcpipConnection@@UAE?AVFString@@XZ @ 391
?LowLevelDestroy@UTcpNetDriver@@UAEXXZ @ 392
?LowLevelGetNetworkNumber@UTcpNetDriver@@UAE?AVFString@@XZ @ 393
?LowLevelGetRemoteAddress@UTcpipConnection@@UAE?AVFString@@XZ @ 394
?LowLevelSend@UTcpipConnection@@UAEXPAXH@Z @ 395
?NetworkError@FInternetLink@@UAEHXZ @ 396
?OnClosed@FTcpLink@@UAEXXZ @ 397
?OnConnectionFailed@FTcpLink@@UAEXXZ @ 398
?OnConnectionSucceeded@FTcpLink@@UAEXXZ @ 399
?OnDataReceived@FTcpLink@@UAEXXZ @ 400
?OnIncomingConnection@FTcpLink@@UAEXUFSocketData@@@Z @ 401
?OnResolveFailed@FTcpLink@@UAEXXZ @ 402
?OnResolved@FTcpLink@@UAEXUFIpAddr@@@Z @ 403
?PeekData@FTcpLink@@UAEXAAPAEAAH@Z @ 404
?Poll@AMasterServerClient@@UAEHH@Z @ 405
?Poll@AMasterServerLink@@UAEHH@Z @ 406
?Poll@AMasterServerUplink@@UAEHH@Z @ 407
?Poll@AServerQueryClient@@UAEHH@Z @ 408
?Poll@FTcpLink@@UAEHH@Z @ 409
?Poll@FUdpLink@@UAEXXZ @ 410
?PollConnections@ATcpLink@@QAEXXZ @ 411
?PostScriptDestroyed@AMasterServerClient@@UAEXXZ @ 412
?PostScriptDestroyed@AMasterServerUplink@@UAEXXZ @ 413
?PostScriptDestroyed@AServerQueryClient@@UAEXXZ @ 414
?PostScriptDestroyed@ATcpLink@@UAEXXZ @ 415
?PostScriptDestroyed@AUdpLink@@UAEXXZ @ 416
?PrivateStaticClass@AInternetLink@@0VUClass@@A @ 417
?PrivateStaticClass@AMasterServerClient@@0VUClass@@A @ 418
?PrivateStaticClass@AMasterServerGameStats@@0VUClass@@A @ 419
?PrivateStaticClass@AMasterServerLink@@0VUClass@@A @ 420
?PrivateStaticClass@AMasterServerUplink@@0VUClass@@A @ 421
?PrivateStaticClass@AServerQueryClient@@0VUClass@@A @ 422
?PrivateStaticClass@ATcpLink@@0VUClass@@A @ 423
?PrivateStaticClass@AUdpLink@@0VUClass@@A @ 424
?PrivateStaticClass@UBTUdpPingChecker@@0VUClass@@A @ 425
?PrivateStaticClass@UDWebzenShopItemListDownloader@@0VUClass@@A @ 426
?PrivateStaticClass@UNatCheckStater@@0VUClass@@A @ 427
?PrivateStaticClass@UNatChecker@@0VUClass@@A @ 428
?PrivateStaticClass@UTcpBTLoadingState_ChangeClient@@0VUClass@@A @ 429
?PrivateStaticClass@UTcpBTLoadingState_ChangeHost@@0VUClass@@A @ 430
?PrivateStaticClass@UTcpBTLoadingState_ClientLoading@@0VUClass@@A @ 431
?PrivateStaticClass@UTcpBTLoadingState_HostLoading@@0VUClass@@A @ 432
?PrivateStaticClass@UTcpBTMapLoader@@0VUClass@@A @ 433
?PrivateStaticClass@UTcpNetDriver@@0VUClass@@A @ 434
?PrivateStaticClass@UTcpTickChecker@@0VUClass@@A @ 435
?PrivateStaticClass@UTcpipConnection@@0VUClass@@A @ 436
?ReceiveDataFromLink@FArchiveTcpReader@@EAEXXZ @ 437
?ReceivePendingData@FTcpLink@@UAEXXZ @ 438
?ReceivedTick@UNatChecker@@QAEHPADHAAUsockaddr_in@@H@Z @ 439
?Recv@FTcpLink@@UAEHPAEH@Z @ 440
?RecvDummyPacket@UNatCheckStater@@QAEHAAUsockaddr_in@@H@Z @ 441
?RecvLog@UTcpNetDriver@@QAEXXZ @ 442
?RecvTickLog@UTcpNetDriver@@QAEXXZ @ 443
?RelayServerOff@UTcpipConnection@@UAEXXZ @ 444
?RelayServerOn@UTcpipConnection@@UAEXVFURL@@@Z @ 445
?RemoveNatCheckStater@UTcpNetDriver@@UAEHH@Z @ 446
?ResendTick@UNatChecker@@QAEHN@Z @ 447
?ResetNatCheckerTick@UTcpNetDriver@@UAEXXZ @ 448
?ResetTick@UNatChecker@@QAEXXZ @ 449
?Resolve@FTcpLink@@UAEXPBG@Z @ 450
?ResolveIP@UBTUdpPingChecker@@QAEHPADPAPAD@Z @ 451
?Send@FTcpLink@@UAEHPAEH@Z @ 452
?SendDummyPacket@UNatCheckStater@@QAEHPADH@Z @ 453
?SendLog@UTcpipConnection@@QAEXXZ @ 454
?SendPendingData@FTcpLink@@UAEXXZ @ 455
?SendPing@UBTUdpPingChecker@@UAEHPAD@Z @ 456
?SendText@UBTUdpPingChecker@@UAEHVFString@@H0@Z @ 457
?SendTickCheckDummy@UTcpTickChecker@@UAEHN@Z @ 458
?SendTo@FUdpLink@@UAEHUFIpAddr@@PAEH@Z @ 459
?Serialize@FArchiveTcpReader@@UAEXPAXH@Z @ 460
?Serialize@FArchiveTcpWriter@@UAEXPAXH@Z @ 461
?Serialize@FArchiveUdpReader@@UAEXPAXH@Z @ 462
?Serialize@FArchiveUdpWriter@@UAEXPAXH@Z @ 463
?SetAllowNatCheckerTick@UTcpNetDriver@@UAEHXZ @ 464
?SetAllowStart@UNatCheckStater@@QAEXXZ @ 465
?SetAllowStartHolePunchingAll@UTcpNetDriver@@UAEHXZ @ 466
?SetAllowStartHolePunchingOnlyOne@UTcpNetDriver@@UAEHK@Z @ 467
?SetAllowTick@UNatChecker@@QAEXXZ @ 468
?SetArVer@FArchiveTcpSocket@@QAEXH@Z @ 469
?SetLimitSec@UTcpTickChecker@@UAEXN@Z @ 470
?SetLinkMode@FTcpLink@@UAEXW4ETcpLinkMode@@@Z @ 471
?SetLoadingState@UTcpBTMapLoader@@UAEXEH@Z @ 472
?SetPhraseNatCheckStater@UTcpNetDriver@@UAEHHE@Z @ 473
?SetServerInfo_CN@UDWebzenShopItemListDownloader@@AAEXAAPAVCShopListManager@@AAPAVCListVersionInfo@@H@Z @ 474
?SetServerInfo_KR@UDWebzenShopItemListDownloader@@AAEXAAPAVCShopListManager@@AAPAVCListVersionInfo@@H@Z @ 475
?SetServerInfo_TH@UDWebzenShopItemListDownloader@@AAEXAAPAVCShopListManager@@AAPAVCListVersionInfo@@H@Z @ 476
?ShouldTickInEntry@ATcpLink@@UAEHXZ @ 477
?ShutdownConnection@ATcpLink@@QAEXXZ @ 478
?StartDrawLoadingScreen@UTcpBTMapLoader@@UAEXXZ @ 479
?StartLoading@UTcpBTLoadingState_ChangeClient@@UAEXXZ @ 480
?StartLoading@UTcpBTLoadingState_ChangeHost@@UAEXXZ @ 481
?StartLoading@UTcpBTLoadingState_ClientLoading@@UAEXXZ @ 482
?StartLoading@UTcpBTLoadingState_HostLoading@@UAEXXZ @ 483
?StartMapLoad@UTcpBTMapLoader@@UAEXXZ @ 484
?StartTick@UTcpTickChecker@@UAEHXZ @ 485
?StaticClass@AInternetLink@@SAPAVUClass@@XZ @ 486
?StaticClass@AMasterServerClient@@SAPAVUClass@@XZ @ 487
?StaticClass@AMasterServerGameStats@@SAPAVUClass@@XZ @ 488
?StaticClass@AMasterServerLink@@SAPAVUClass@@XZ @ 489
?StaticClass@AMasterServerUplink@@SAPAVUClass@@XZ @ 490
?StaticClass@AServerQueryClient@@SAPAVUClass@@XZ @ 491
?StaticClass@ATcpLink@@SAPAVUClass@@XZ @ 492
?StaticClass@AUdpLink@@SAPAVUClass@@XZ @ 493
?StaticClass@UBTUdpPingChecker@@SAPAVUClass@@XZ @ 494
?StaticClass@UDWebzenShopItemListDownloader@@SAPAVUClass@@XZ @ 495
?StaticClass@UNatCheckStater@@SAPAVUClass@@XZ @ 496
?StaticClass@UNatChecker@@SAPAVUClass@@XZ @ 497
?StaticClass@UTcpBTLoadingState_ChangeClient@@SAPAVUClass@@XZ @ 498
?StaticClass@UTcpBTLoadingState_ChangeHost@@SAPAVUClass@@XZ @ 499
?StaticClass@UTcpBTLoadingState_ClientLoading@@SAPAVUClass@@XZ @ 500
?StaticClass@UTcpBTLoadingState_HostLoading@@SAPAVUClass@@XZ @ 501
?StaticClass@UTcpBTMapLoader@@SAPAVUClass@@XZ @ 502
?StaticClass@UTcpNetDriver@@SAPAVUClass@@XZ @ 503
?StaticClass@UTcpTickChecker@@SAPAVUClass@@XZ @ 504
?StaticClass@UTcpipConnection@@SAPAVUClass@@XZ @ 505
?StaticConstructor@UTcpNetDriver@@QAEXXZ @ 506
?StaticConstructor@UTcpTickChecker@@QAEXXZ @ 507
?StopDrawLoadingScreen@UTcpBTMapLoader@@UAEXXZ @ 508
?Tell@FArchiveUdpWriter@@UAEHXZ @ 509
?ThrottleBandwidth@FInternetLink@@SAXHH@Z @ 510
?ThrottleReceive@FInternetLink@@1HA @ 511
?ThrottleSend@FInternetLink@@1HA @ 512
?Tick@AInternetLink@@UAEHMW4ELevelTick@@@Z @ 513
?Tick@ATcpLink@@UAEHMW4ELevelTick@@@Z @ 514
?Tick@AUdpLink@@UAEHMW4ELevelTick@@@Z @ 515
?Tick@UNatCheckStater@@QAEHM@Z @ 516
?Tick@UNatChecker@@QAEHM@Z @ 517
?Tick@UTcpBTLoadingState_ChangeClient@@UAEHM@Z @ 518
?Tick@UTcpBTLoadingState_ChangeHost@@UAEHM@Z @ 519
?Tick@UTcpBTLoadingState_ClientLoading@@UAEHM@Z @ 520
?Tick@UTcpBTLoadingState_HostLoading@@UAEHM@Z @ 521
?Tick@UTcpBTMapLoader@@UAEHM@Z @ 522
?Tick@UTcpTickChecker@@UAEHM@Z @ 523
?TickDispatch@UTcpNetDriver@@UAEXM@Z @ 524
?UnInitialize@UBTUdpPingChecker@@QAEHXZ @ 525
?UpdateFromSocket@FSocketData@@QAEXXZ @ 526
?UpdateOtherLoadingMsg@UTcpBTMapLoader@@UAEXAAUFLoadingMessageItem@@@Z @ 527
?UpdateProgress@UTcpBTMapLoader@@UAEHMH@Z @ 528
?ValidateChecksum@UBTUdpPingChecker@@QAEHPADH@Z @ 529
?WaitForConnections@FTcpLink@@UAEXH@Z @ 530
?delegateOnPingTimeout@AServerQueryClient@@QAEXHE@Z @ 531
?delegateOnQueryFinished@AMasterServerClient@@QAEXEH@Z @ 532
?delegateOnReceivedMOTDData@AMasterServerClient@@QAEXEABVFString@@@Z @ 533
?delegateOnReceivedModMOTDData@AMasterServerClient@@QAEXABVFString@@@Z @ 534
?delegateOnReceivedOwnageItem@AMasterServerClient@@QAEXHABVFString@@00@Z @ 535
?delegateOnReceivedPingInfo@AServerQueryClient@@QAEXHEUFServerResponseLine@@@Z @ 536
?delegateOnReceivedServer@AMasterServerClient@@QAEXUFServerResponseLine@@@Z @ 537
?eventAccepted@ATcpLink@@QAEXXZ @ 538
?eventClosed@ATcpLink@@QAEXXZ @ 539
?eventConnectionFailed@AMasterServerUplink@@QAEXK@Z @ 540
?eventGetMasterServer@AMasterServerLink@@QAEXAAVFString@@AAH@Z @ 541
?eventLogStatLine@AMasterServerUplink@@QAEKABVFString@@@Z @ 542
?eventOpened@ATcpLink@@QAEXXZ @ 543
?eventReceivedBinary@ATcpLink@@QAEXHPAE@Z @ 544
?eventReceivedBinary@AUdpLink@@QAEXUFIpAddr@@HPAE@Z @ 545
?eventReceivedLine@ATcpLink@@QAEXABVFString@@@Z @ 546
?eventReceivedLine@AUdpLink@@QAEXUFIpAddr@@ABVFString@@@Z @ 547
?eventReceivedText@ATcpLink@@QAEXABVFString@@@Z @ 548
?eventReceivedText@AUdpLink@@QAEXUFIpAddr@@ABVFString@@@Z @ 549
?eventRefresh@AMasterServerUplink@@QAEXXZ @ 550
?eventResolveFailed@AInternetLink@@QAEXXZ @ 551
?eventResolved@AInternetLink@@QAEXUFIpAddr@@@Z @ 552
?execBindPort@ATcpLink@@QAEXAAUFFrame@@QAX@Z @ 553
?execBindPort@AUdpLink@@QAEXAAUFFrame@@QAX@Z @ 554
?execCancelPings@AServerQueryClient@@QAEXAAUFFrame@@QAX@Z @ 555
?execClose@ATcpLink@@QAEXAAUFFrame@@QAX@Z @ 556
?execForceGameStateRefresh@AMasterServerUplink@@QAEXAAUFFrame@@QAX@Z @ 557
?execGameSpyGameName@AInternetLink@@QAEXAAUFFrame@@QAX@Z @ 558
?execGameSpyValidate@AInternetLink@@QAEXAAUFFrame@@QAX@Z @ 559
?execGetLastError@AInternetLink@@QAEXAAUFFrame@@QAX@Z @ 560
?execGetLocalIP@AInternetLink@@QAEXAAUFFrame@@QAX@Z @ 561
?execIpAddrToString@AInternetLink@@QAEXAAUFFrame@@QAX@Z @ 562
?execIsConnected@ATcpLink@@QAEXAAUFFrame@@QAX@Z @ 563
?execIsDataPending@AInternetLink@@QAEXAAUFFrame@@QAX@Z @ 564
?execLaunchAutoUpdate@AMasterServerClient@@QAEXAAUFFrame@@QAX@Z @ 565
?execListen@ATcpLink@@QAEXAAUFFrame@@QAX@Z @ 566
?execLogStatLine@AMasterServerUplink@@QAEXAAUFFrame@@QAX@Z @ 567
?execNetworkError@AServerQueryClient@@QAEXAAUFFrame@@QAX@Z @ 568
?execOpen@ATcpLink@@QAEXAAUFFrame@@QAX@Z @ 569
?execParseURL@AInternetLink@@QAEXAAUFFrame@@QAX@Z @ 570
?execPingServer@AServerQueryClient@@QAEXAAUFFrame@@QAX@Z @ 571
?execPoll@AMasterServerLink@@QAEXAAUFFrame@@QAX@Z @ 572
?execReadBinary@ATcpLink@@QAEXAAUFFrame@@QAX@Z @ 573
?execReadBinary@AUdpLink@@QAEXAAUFFrame@@QAX@Z @ 574
?execReadText@ATcpLink@@QAEXAAUFFrame@@QAX@Z @ 575
?execReadText@AUdpLink@@QAEXAAUFFrame@@QAX@Z @ 576
?execReconnect@AMasterServerUplink@@QAEXAAUFFrame@@QAX@Z @ 577
?execResolve@AInternetLink@@QAEXAAUFFrame@@QAX@Z @ 578
?execSendBinary@ATcpLink@@QAEXAAUFFrame@@QAX@Z @ 579
?execSendBinary@AUdpLink@@QAEXAAUFFrame@@QAX@Z @ 580
?execSendText@ATcpLink@@QAEXAAUFFrame@@QAX@Z @ 581
?execSendText@AUdpLink@@QAEXAAUFFrame@@QAX@Z @ 582
?execStartQuery@AMasterServerClient@@QAEXAAUFFrame@@QAX@Z @ 583
?execStop@AMasterServerClient@@QAEXAAUFFrame@@QAX@Z @ 584
?execStringToIpAddr@AInternetLink@@QAEXAAUFFrame@@QAX@Z @ 585
?receivedPacketFromNatServer@UNatChecker@@QAEHPADH@Z @ 586
?sendOutSideAddrToChannelServer@UNatChecker@@QAEHXZ @ 587
?sendToNatServer@UNatChecker@@QAEHH@Z @ 588
?sfReqFailedStartGame@UTcpNetDriver@@UAEXH@Z @ 589
?sfReqForceDisconnectUDPFromHost@UTcpNetDriver@@UAEXH@Z @ 590
?sfReqGetHolePunchingResult@UTcpNetDriver@@UAEXXZ @ 591
?sfReqNotifyClientJoinTime@UTcpNetDriver@@UAEXH@Z @ 592
?sfReqNotifyHostBlocking@UTcpNetDriver@@UAEXH@Z @ 593
?sfReqNotifyLoadingState@UTcpNetDriver@@UAEXE@Z @ 594
?sfReqNotifyLoadingStatus@UTcpNetDriver@@UAEXH@Z @ 595
?sfReqNotifyRecvDummyForHolePunching@UTcpNetDriver@@UAEXKE@Z @ 596
?sfReqWriteServerLog@UTcpNetDriver@@UAEXEAAVFString@@@Z @ 597
GPackage @ 599
_DllMain@12 @ 598
autoclassAInternetLink @ 600
autoclassAMasterServerClient @ 601
autoclassAMasterServerGameStats @ 602
autoclassAMasterServerLink @ 603
autoclassAMasterServerUplink @ 604
autoclassAServerQueryClient @ 605
autoclassATcpLink @ 606
autoclassAUdpLink @ 607
autoclassUBTUdpPingChecker @ 608
autoclassUCompressCommandlet @ 609
autoclassUDWebzenShopItemListDownloader @ 610
autoclassUDecompressCommandlet @ 611
autoclassUHTTPDownload @ 612
autoclassUNatCheckStater @ 613
autoclassUNatChecker @ 614
autoclassUTcpBTLoadingState_ChangeClient @ 615
autoclassUTcpBTLoadingState_ChangeHost @ 616
autoclassUTcpBTLoadingState_ClientLoading @ 617
autoclassUTcpBTLoadingState_HostLoading @ 618
autoclassUTcpBTMapLoader @ 619
autoclassUTcpNetDriver @ 620
autoclassUTcpTickChecker @ 621
autoclassUTcpipConnection @ 622
intAInternetLinkexecGameSpyGameName @ 623
intAInternetLinkexecGameSpyValidate @ 624
intAInternetLinkexecGetLastError @ 625
intAInternetLinkexecGetLocalIP @ 626
intAInternetLinkexecIpAddrToString @ 627
intAInternetLinkexecIsDataPending @ 628
intAInternetLinkexecParseURL @ 629
intAInternetLinkexecResolve @ 630
intAInternetLinkexecStringToIpAddr @ 631
intAMasterServerClientexecLaunchAutoUpdate @ 632
intAMasterServerClientexecStartQuery @ 633
intAMasterServerClientexecStop @ 634
intAMasterServerLinkexecPoll @ 635
intAMasterServerUplinkexecForceGameStateRefresh @ 636
intAMasterServerUplinkexecLogStatLine @ 637
intAMasterServerUplinkexecReconnect @ 638
intAServerQueryClientexecCancelPings @ 639
intAServerQueryClientexecNetworkError @ 640
intAServerQueryClientexecPingServer @ 641
intATcpLinkexecBindPort @ 642
intATcpLinkexecClose @ 643
intATcpLinkexecIsConnected @ 644
intATcpLinkexecListen @ 645
intATcpLinkexecOpen @ 646
intATcpLinkexecReadBinary @ 647
intATcpLinkexecReadText @ 648
intATcpLinkexecSendBinary @ 649
intATcpLinkexecSendText @ 650
intAUdpLinkexecBindPort @ 651
intAUdpLinkexecReadBinary @ 652
intAUdpLinkexecReadText @ 653
intAUdpLinkexecSendBinary @ 654
intAUdpLinkexecSendText @ 655
