LIBRARY UWeb.dll

EXPORTS
??0UWebRequest@@IAE@XZ @ 1
??0UWebRequest@@QAE@ABV0@@Z @ 2
??0UWebResponse@@IAE@XZ @ 3
??0UWebResponse@@QAE@ABV0@@Z @ 4
??1UWebRequest@@UAE@XZ @ 5
??1UWebResponse@@UAE@XZ @ 6
??2UWebRequest@@SAPAXIPAVUObject@@PAGK@Z @ 7
??2UWebRequest@@SAPAXIPAVUObject@@PBGK@Z @ 8
??2UWebRequest@@SAPAXIPAVUObject@@VFName@@K@Z @ 9
??2UWebRequest@@SAPAXIPAW4EInternal@@@Z @ 10
??2UWebResponse@@SAPAXIPAVUObject@@PAGK@Z @ 11
??2UWebResponse@@SAPAXIPAVUObject@@PBGK@Z @ 12
??2UWebResponse@@SAPAXIPAVUObject@@VFName@@K@Z @ 13
??2UWebResponse@@SAPAXIPAW4EInternal@@@Z @ 14
??4UWebRequest@@QAEAAV0@ABV0@@Z @ 15
??4UWebResponse@@QAEAAV0@ABV0@@Z @ 16
??_7UWebRequest@@6B@ @ 17
??_7UWebResponse@@6B@ @ 18
?GetIncludePath@UWebResponse@@AAE?AVFString@@XZ @ 19
?IncludeTextFile@UWebResponse@@AAE_NABVFString@@0_NPAV2@@Z @ 20
?InternalConstructor@UWebRequest@@SAXPAX@Z @ 21
?InternalConstructor@UWebResponse@@SAXPAX@Z @ 22
?PrivateStaticClass@UWebRequest@@0VUClass@@A @ 23
?PrivateStaticClass@UWebResponse@@0VUClass@@A @ 24
?SendInParts@UWebResponse@@AAEXABVFString@@@Z @ 25
?StaticClass@UWebRequest@@SAPAVUClass@@XZ @ 26
?StaticClass@UWebResponse@@SAPAVUClass@@XZ @ 27
?ValidWebFile@UWebResponse@@AAE_NABVFString@@@Z @ 28
?eventSendBinary@UWebResponse@@QAEXHPAE@Z @ 29
?eventSendText@UWebResponse@@QAEXABVFString@@K@Z @ 30
?execAddVariable@UWebRequest@@QAEXAAUFFrame@@QAX@Z @ 31
?execClearSubst@UWebResponse@@QAEXAAUFFrame@@QAX@Z @ 32
?execDecodeBase64@UWebRequest@@QAEXAAUFFrame@@QAX@Z @ 33
?execDump@UWebRequest@@QAEXAAUFFrame@@QAX@Z @ 34
?execDump@UWebResponse@@QAEXAAUFFrame@@QAX@Z @ 35
?execGetHTTPExpiration@UWebResponse@@QAEXAAUFFrame@@QAX@Z @ 36
?execGetVariable@UWebRequest@@QAEXAAUFFrame@@QAX@Z @ 37
?execGetVariableCount@UWebRequest@@QAEXAAUFFrame@@QAX@Z @ 38
?execGetVariableNumber@UWebRequest@@QAEXAAUFFrame@@QAX@Z @ 39
?execIncludeBinaryFile@UWebResponse@@QAEXAAUFFrame@@QAX@Z @ 40
?execIncludeUHTM@UWebResponse@@QAEXAAUFFrame@@QAX@Z @ 41
?execLoadParsedUHTM@UWebResponse@@QAEXAAUFFrame@@QAX@Z @ 42
?execSubst@UWebResponse@@QAEXAAUFFrame@@QAX@Z @ 43
GPackage @ 45
_DllMain@12 @ 44
autoclassUWebRequest @ 46
autoclassUWebResponse @ 47
intUWebRequestexecAddVariable @ 48
intUWebRequestexecDecodeBase64 @ 49
intUWebRequestexecDump @ 50
intUWebRequestexecGetVariable @ 51
intUWebRequestexecGetVariableCount @ 52
intUWebRequestexecGetVariableNumber @ 53
intUWebResponseexecClearSubst @ 54
intUWebResponseexecDump @ 55
intUWebResponseexecGetHTTPExpiration @ 56
intUWebResponseexecIncludeBinaryFile @ 57
intUWebResponseexecIncludeUHTM @ 58
intUWebResponseexecLoadParsedUHTM @ 59
intUWebResponseexecSubst @ 60
