LIBRARY WGame.dll

EXPORTS
??0AAimedAttachment@@QAE@ABV0@@Z @ 1
??0AAimedAttachment@@QAE@XZ @ 2
??0AwAIBotBase@@IAE@XZ @ 3
??0AwAIBotBase@@QAE@ABV0@@Z @ 4
??0AwAILevel@@IAE@XZ @ 5
??0AwAILevel@@QAE@ABV0@@Z @ 6
??0FPlayerRecord@@QAE@ABU0@@Z @ 7
??0FPlayerRecord@@QAE@XZ @ 8
??0UCachePlayers@@IAE@XZ @ 9
??0UCachePlayers@@QAE@ABV0@@Z @ 10
??0UDecoText@@IAE@XZ @ 11
??0UDecoText@@QAE@ABV0@@Z @ 12
??0UMemoryItem@@IAE@XZ @ 13
??0UMemoryItem@@QAE@ABV0@@Z @ 14
??0UShortMemory@@IAE@XZ @ 15
??0UShortMemory@@QAE@ABV0@@Z @ 16
??0USpeciesType@@IAE@XZ @ 17
??0USpeciesType@@QAE@ABV0@@Z @ 18
??0UwPlayerInfo@@IAE@XZ @ 19
??0UwPlayerInfo@@QAE@ABV0@@Z @ 20
??0UwState@@IAE@XZ @ 21
??0UwState@@QAE@ABV0@@Z @ 22
??0UwUtil@@QAE@ABV0@@Z @ 23
??0UwUtil@@QAE@XZ @ 24
??1AAimedAttachment@@UAE@XZ @ 25
??1AwAIBotBase@@UAE@XZ @ 26
??1AwAILevel@@UAE@XZ @ 27
??1FPlayerRecord@@QAE@XZ @ 28
??1UCachePlayers@@UAE@XZ @ 29
??1UDecoText@@UAE@XZ @ 30
??1UMemoryItem@@UAE@XZ @ 31
??1UShortMemory@@UAE@XZ @ 32
??1USpeciesType@@UAE@XZ @ 33
??1UwPlayerInfo@@UAE@XZ @ 34
??1UwState@@UAE@XZ @ 35
??1UwUtil@@UAE@XZ @ 36
??2AAimedAttachment@@SAPAXIPAVUObject@@PAGK@Z @ 37
??2AAimedAttachment@@SAPAXIPAVUObject@@PBGK@Z @ 38
??2AAimedAttachment@@SAPAXIPAVUObject@@VFName@@K@Z @ 39
??2AAimedAttachment@@SAPAXIPAW4EInternal@@@Z @ 40
??2AwAIBotBase@@SAPAXIPAVUObject@@PAGK@Z @ 41
??2AwAIBotBase@@SAPAXIPAVUObject@@PBGK@Z @ 42
??2AwAIBotBase@@SAPAXIPAVUObject@@VFName@@K@Z @ 43
??2AwAIBotBase@@SAPAXIPAW4EInternal@@@Z @ 44
??2AwAILevel@@SAPAXIPAVUObject@@PAGK@Z @ 45
??2AwAILevel@@SAPAXIPAVUObject@@PBGK@Z @ 46
??2AwAILevel@@SAPAXIPAVUObject@@VFName@@K@Z @ 47
??2AwAILevel@@SAPAXIPAW4EInternal@@@Z @ 48
??2UCachePlayers@@SAPAXIPAVUObject@@PAGK@Z @ 49
??2UCachePlayers@@SAPAXIPAVUObject@@PBGK@Z @ 50
??2UCachePlayers@@SAPAXIPAVUObject@@VFName@@K@Z @ 51
??2UCachePlayers@@SAPAXIPAW4EInternal@@@Z @ 52
??2UDecoText@@SAPAXIPAVUObject@@PAGK@Z @ 53
??2UDecoText@@SAPAXIPAVUObject@@PBGK@Z @ 54
??2UDecoText@@SAPAXIPAVUObject@@VFName@@K@Z @ 55
??2UDecoText@@SAPAXIPAW4EInternal@@@Z @ 56
??2UMemoryItem@@SAPAXIPAVUObject@@PAGK@Z @ 57
??2UMemoryItem@@SAPAXIPAVUObject@@PBGK@Z @ 58
??2UMemoryItem@@SAPAXIPAVUObject@@VFName@@K@Z @ 59
??2UMemoryItem@@SAPAXIPAW4EInternal@@@Z @ 60
??2UShortMemory@@SAPAXIPAVUObject@@PAGK@Z @ 61
??2UShortMemory@@SAPAXIPAVUObject@@PBGK@Z @ 62
??2UShortMemory@@SAPAXIPAVUObject@@VFName@@K@Z @ 63
??2UShortMemory@@SAPAXIPAW4EInternal@@@Z @ 64
??2USpeciesType@@SAPAXIPAVUObject@@PAGK@Z @ 65
??2USpeciesType@@SAPAXIPAVUObject@@PBGK@Z @ 66
??2USpeciesType@@SAPAXIPAVUObject@@VFName@@K@Z @ 67
??2USpeciesType@@SAPAXIPAW4EInternal@@@Z @ 68
??2UwPlayerInfo@@SAPAXIPAVUObject@@PAGK@Z @ 69
??2UwPlayerInfo@@SAPAXIPAVUObject@@PBGK@Z @ 70
??2UwPlayerInfo@@SAPAXIPAVUObject@@VFName@@K@Z @ 71
??2UwPlayerInfo@@SAPAXIPAW4EInternal@@@Z @ 72
??2UwState@@SAPAXIPAVUObject@@PAGK@Z @ 73
??2UwState@@SAPAXIPAVUObject@@PBGK@Z @ 74
??2UwState@@SAPAXIPAVUObject@@VFName@@K@Z @ 75
??2UwState@@SAPAXIPAW4EInternal@@@Z @ 76
??2UwUtil@@SAPAXIPAVUObject@@PAGK@Z @ 77
??2UwUtil@@SAPAXIPAVUObject@@PBGK@Z @ 78
??2UwUtil@@SAPAXIPAVUObject@@VFName@@K@Z @ 79
??2UwUtil@@SAPAXIPAW4EInternal@@@Z @ 80
??4AAimedAttachment@@QAEAAV0@ABV0@@Z @ 81
??4AwAIBotBase@@QAEAAV0@ABV0@@Z @ 82
??4AwAILevel@@QAEAAV0@ABV0@@Z @ 83
??4FPlayerRecord@@QAEAAU0@ABU0@@Z @ 84
??4UCachePlayers@@QAEAAV0@ABV0@@Z @ 85
??4UDecoText@@QAEAAV0@ABV0@@Z @ 86
??4UMemoryItem@@QAEAAV0@ABV0@@Z @ 87
??4UShortMemory@@QAEAAV0@ABV0@@Z @ 88
??4USpeciesType@@QAEAAV0@ABV0@@Z @ 89
??4UwPlayerInfo@@QAEAAV0@ABV0@@Z @ 90
??4UwState@@QAEAAV0@ABV0@@Z @ 91
??4UwUtil@@QAEAAV0@ABV0@@Z @ 92
??_7AAimedAttachment@@6B@ @ 93
??_7AwAIBotBase@@6B@ @ 94
??_7AwAILevel@@6B@ @ 95
??_7UCachePlayers@@6B@ @ 96
??_7UDecoText@@6B@ @ 97
??_7UMemoryItem@@6B@ @ 98
??_7UShortMemory@@6B@ @ 99
??_7USpeciesType@@6B@ @ 100
??_7UwPlayerInfo@@6B@ @ 101
??_7UwState@@6B@ @ 102
??_7UwUtil@@6B@ @ 103
?GetPlayerList@UwUtil@@QAEXXZ @ 104
?InternalConstructor@AAimedAttachment@@SAXPAX@Z @ 105
?InternalConstructor@AwAIBotBase@@SAXPAX@Z @ 106
?InternalConstructor@AwAILevel@@SAXPAX@Z @ 107
?InternalConstructor@UCachePlayers@@SAXPAX@Z @ 108
?InternalConstructor@UDecoText@@SAXPAX@Z @ 109
?InternalConstructor@UMemoryItem@@SAXPAX@Z @ 110
?InternalConstructor@UShortMemory@@SAXPAX@Z @ 111
?InternalConstructor@USpeciesType@@SAXPAX@Z @ 112
?InternalConstructor@UwPlayerInfo@@SAXPAX@Z @ 113
?InternalConstructor@UwState@@SAXPAX@Z @ 114
?InternalConstructor@UwUtil@@SAXPAX@Z @ 115
?LoadDecoText@UwUtil@@SAPAVUDecoText@@PBGH@Z @ 116
?PrivateStaticClass@AAimedAttachment@@0VUClass@@A @ 117
?PrivateStaticClass@AwAIBotBase@@0VUClass@@A @ 118
?PrivateStaticClass@AwAILevel@@0VUClass@@A @ 119
?PrivateStaticClass@UCachePlayers@@0VUClass@@A @ 120
?PrivateStaticClass@UDecoText@@0VUClass@@A @ 121
?PrivateStaticClass@UMemoryItem@@0VUClass@@A @ 122
?PrivateStaticClass@UShortMemory@@0VUClass@@A @ 123
?PrivateStaticClass@USpeciesType@@0VUClass@@A @ 124
?PrivateStaticClass@UwPlayerInfo@@0VUClass@@A @ 125
?PrivateStaticClass@UwState@@0VUClass@@A @ 126
?PrivateStaticClass@UwUtil@@0VUClass@@A @ 127
?StaticClass@AAimedAttachment@@SAPAVUClass@@XZ @ 128
?StaticClass@AwAIBotBase@@SAPAVUClass@@XZ @ 129
?StaticClass@AwAILevel@@SAPAVUClass@@XZ @ 130
?StaticClass@UCachePlayers@@SAPAVUClass@@XZ @ 131
?StaticClass@UDecoText@@SAPAVUClass@@XZ @ 132
?StaticClass@UMemoryItem@@SAPAVUClass@@XZ @ 133
?StaticClass@UShortMemory@@SAPAVUClass@@XZ @ 134
?StaticClass@USpeciesType@@SAPAVUClass@@XZ @ 135
?StaticClass@UwPlayerInfo@@SAPAVUClass@@XZ @ 136
?StaticClass@UwState@@SAPAVUClass@@XZ @ 137
?StaticClass@UwUtil@@SAPAVUClass@@XZ @ 138
?WGAME_GetByPawn2@@3VFName@@A @ 139
?WGAME_GetByPawn@@3VFName@@A @ 140
?eventGetByPawn2@UShortMemory@@QAEPAVUMemoryItem@@PAVAPawn@@@Z @ 141
?eventGetByPawn@UShortMemory@@QAEPAVUMemoryItem@@PAVAPawn@@K@Z @ 142
?execFindUPLPlayerRecord@UwUtil@@QAEXAAUFFrame@@QAX@Z @ 143
?execGetPlayerList@UwUtil@@QAEXAAUFFrame@@QAX@Z @ 144
?execGetPlayerRecord@UwUtil@@QAEXAAUFFrame@@QAX@Z @ 145
?execLoadDecoText@UwUtil@@QAEXAAUFFrame@@QAX@Z @ 146
?execSetupWStateNative@AwAIBotBase@@QAEXAAUFFrame@@QAX@Z @ 147
?execUpdateInfluenceListNative@AwAILevel@@QAEXAAUFFrame@@QAX@Z @ 148
?execUpdateNavDetourExtraCostNative@AwAIBotBase@@QAEXAAUFFrame@@QAX@Z @ 149
?performPhysics@AAimedAttachment@@UAEXM@Z @ 150
GPackage @ 152
_DllMain@12 @ 151
autoclassAAimedAttachment @ 153
autoclassAwAIBotBase @ 154
autoclassAwAILevel @ 155
autoclassUCachePlayers @ 156
autoclassUDecoText @ 157
autoclassUMemoryItem @ 158
autoclassUShortMemory @ 159
autoclassUSpeciesType @ 160
autoclassUwPlayerInfo @ 161
autoclassUwState @ 162
autoclassUwUtil @ 163
intAwAIBotBaseexecSetupWStateNative @ 164
intAwAIBotBaseexecUpdateNavDetourExtraCostNative @ 165
intAwAILevelexecUpdateInfluenceListNative @ 166
intUwUtilexecFindUPLPlayerRecord @ 167
intUwUtilexecGetPlayerList @ 168
intUwUtilexecGetPlayerRecord @ 169
intUwUtilexecLoadDecoText @ 170
