LIBRARY WinDrv.dll

EXPORTS
??0UDebuggerCore@@QAE@ABV0@@Z @ 1
??0UDebuggerCore@@QAE@PAVWLog@@@Z @ 2
??0UWindowsClient@@QAE@ABV0@@Z @ 3
??0UWindowsClient@@QAE@XZ @ 4
??0UWindowsViewport@@QAE@ABV0@@Z @ 5
??0UWindowsViewport@@QAE@XZ @ 6
??0UWindowsWebLog@@QAE@ABV0@@Z @ 7
??0UWindowsWebLog@@QAE@XZ @ 8
??0WWindowsViewportWindow@@QAE@ABV0@@Z @ 9
??0WWindowsViewportWindow@@QAE@PAVUWindowsViewport@@@Z @ 10
??0WWindowsViewportWindow@@QAE@XZ @ 11
??1UDebuggerCore@@QAE@XZ @ 12
??1UWindowsClient@@UAE@XZ @ 13
??1UWindowsViewport@@UAE@XZ @ 14
??1UWindowsWebLog@@UAE@XZ @ 15
??1WWindowsViewportWindow@@UAE@XZ @ 16
??2UWindowsClient@@SAPAXIPAVUObject@@PAGK@Z @ 17
??2UWindowsClient@@SAPAXIPAVUObject@@PBGK@Z @ 18
??2UWindowsClient@@SAPAXIPAVUObject@@VFName@@K@Z @ 19
??2UWindowsClient@@SAPAXIPAW4EInternal@@@Z @ 20
??2UWindowsViewport@@SAPAXIPAVUObject@@PAGK@Z @ 21
??2UWindowsViewport@@SAPAXIPAVUObject@@PBGK@Z @ 22
??2UWindowsViewport@@SAPAXIPAVUObject@@VFName@@K@Z @ 23
??2UWindowsViewport@@SAPAXIPAW4EInternal@@@Z @ 24
??2UWindowsWebLog@@SAPAXIPAVUObject@@PAGK@Z @ 25
??2UWindowsWebLog@@SAPAXIPAVUObject@@PBGK@Z @ 26
??2UWindowsWebLog@@SAPAXIPAVUObject@@VFName@@K@Z @ 27
??2UWindowsWebLog@@SAPAXIPAW4EInternal@@@Z @ 28
??4UDebuggerCore@@QAEAAV0@ABV0@@Z @ 29
??4UWindowsClient@@QAEAAV0@ABV0@@Z @ 30
??4UWindowsViewport@@QAEAAV0@ABV0@@Z @ 31
??4UWindowsWebLog@@QAEAAV0@ABV0@@Z @ 32
??4WWindowsViewportWindow@@QAEAAV0@ABV0@@Z @ 33
??_7UDebuggerCore@@6B@ @ 34
??_7UWindowsClient@@6BFNotifyHook@@@ @ 35
??_7UWindowsClient@@6BUClient@@@ @ 36
??_7UWindowsViewport@@6BFExec@@@ @ 37
??_7UWindowsViewport@@6BFOutputDevice@@@ @ 38
??_7UWindowsViewport@@6BUObject@@@ @ 39
??_7UWindowsWebLog@@6B@ @ 40
??_7WWindowsViewportWindow@@6B@ @ 41
??_FUDebuggerCore@@QAEXXZ @ 42
?AddWatch@UDebuggerCore@@QAEXPBG@Z @ 43
?AttachDebugger@UWindowsViewport@@QAEXXZ @ 44
?BlockAltTab@UWindowsViewport@@UAEXXZ @ 45
?Break@UDebuggerCore@@QAEXXZ @ 46
?BuildParentChain@UDebuggerCore@@AAEXHAAV?$TMap@PAVUClass@@H@@PAVUClass@@H@Z @ 47
?CauseInputEvent@UWindowsViewport@@QAEHHW4EInputAction@@M@Z @ 48
?ChangeDisplayRes@UWindowsViewport@@UAEXHH@Z @ 49
?ChangeState@UDebuggerCore@@QAEXPAVFDebuggerState@@H@Z @ 50
?ClearWatches@UDebuggerCore@@QAEXXZ @ 51
?Close@UDebuggerCore@@QAEXXZ @ 52
?CloseWebInClient@UWindowsViewport@@UAEXXZ @ 53
?CloseWindow@UWindowsViewport@@UAEXXZ @ 54
?CoInitialized@UWindowsViewport@@2HA @ 55
?DebugInfo@UDebuggerCore@@UAEXPBVUObject@@PBUFFrame@@EHH@Z @ 56
?Destroy@UWindowsClient@@UAEXXZ @ 57
?Destroy@UWindowsViewport@@UAEXXZ @ 58
?DirectInput8@UWindowsViewport@@2PAUIDirectInput8W@@A @ 59
?DirectInputError@@YAXVFString@@JH@Z @ 60
?DumpStack@UDebuggerCore@@QAEXXZ @ 61
?EnableViewportWindows@UWindowsClient@@UAEXKH@Z @ 62
?EndFullscreen@UWindowsViewport@@QAEXXZ @ 63
?EnumAxesCallback@UWindowsViewport@@SGHPBUDIDEVICEOBJECTINSTANCEW@@PAX@Z @ 64
?EnumJoysticksCallback@UWindowsViewport@@SGHPBUDIDEVICEINSTANCEW@@PAX@Z @ 65
?Exec@UWindowsClient@@UAEHPBGAAVFOutputDevice@@@Z @ 66
?Exec@UWindowsViewport@@UAEHPBGAAVFOutputDevice@@@Z @ 67
?FireWallHack@UWindowsViewport@@UAEHH@Z @ 68
?GetBreakpointManager@UDebuggerCore@@QBEPAVFBreakpointManager@@XZ @ 69
?GetCallStack@UDebuggerCore@@QBEPAVFCallStack@@XZ @ 70
?GetCurrentNode@UDebuggerCore@@QBEPBVFStackNode@@XZ @ 71
?GetCurrentState@UDebuggerCore@@QBEPAVFDebuggerState@@XZ @ 72
?GetInterface@UDebuggerCore@@QBEPAVUDebuggerInterface@@XZ @ 73
?GetLastCurrent@UWindowsClient@@UAEPAVUViewport@@XZ @ 74
?GetLocalizedKeyName@UWindowsViewport@@UAEPAGW4EInputKey@@@Z @ 75
?GetOuterUWindowsClient@UWindowsViewport@@QBEPAVUWindowsClient@@XZ @ 76
?GetPackageName@WWindowsViewportWindow@@UAEPBGXZ @ 77
?GetShortName@UDebuggerCore@@AAEPAGPAVUProperty@@@Z @ 78
?GetStackOwnerClass@UDebuggerCore@@QBEPAVUClass@@PBUFFrame@@@Z @ 79
?GetViewportButtonFlags@UWindowsViewport@@QAEKK@Z @ 80
?GetWindow@UWindowsViewport@@UAEPAXXZ @ 81
?GetWindowClassName@WWindowsViewportWindow@@UAEXPAG@Z @ 82
?Init@UWindowsClient@@UAEXPAVUEngine@@@Z @ 83
?Initialize@UDebuggerCore@@QAEXXZ @ 84
?InternalConstructor@UWindowsClient@@SAXPAX@Z @ 85
?InternalConstructor@UWindowsViewport@@SAXPAX@Z @ 86
?InternalConstructor@UWindowsWebLog@@SAXPAX@Z @ 87
?IsFullscreen@UWindowsViewport@@UAEHXZ @ 88
?IsInitialized@UDebuggerCore@@QBEHXZ @ 89
?IsStartupFullscreen@UWindowsClient@@UAEHXZ @ 90
?IsWindowModeInLobby@UWindowsClient@@UAEHXZ @ 91
?Joystick@UWindowsViewport@@2PAUIDirectInputDevice8W@@A @ 92
?JoystickCaps@UWindowsViewport@@2UDIDEVCAPS@@A @ 93
?LoadEditPackages@UDebuggerCore@@QAEXXZ @ 94
?LoadSRGrammar@UWindowsViewport@@UAEXHABVFString@@@Z @ 95
?Lock@UWindowsViewport@@UAEHPAEPAH@Z @ 96
?MakeCurrent@UWindowsClient@@UAEXPAVUViewport@@@Z @ 97
?Mouse@UWindowsViewport@@2PAUIDirectInputDevice8W@@A @ 98
?MovieEncodeFrame@UWindowsViewport@@UAEXXZ @ 99
?MovieEncodeStart@UWindowsViewport@@UAEXVFString@@MHH@Z @ 100
?MovieEncodeStop@UWindowsViewport@@UAEXXZ @ 101
?NewViewport@UWindowsClient@@UAEPAVUViewport@@VFName@@@Z @ 102
?NotifyAccessedNone@UDebuggerCore@@UAEXXZ @ 103
?NotifyAssertionFailed@UDebuggerCore@@UAEHH@Z @ 104
?NotifyDestroy@UWindowsClient@@UAEXPAX@Z @ 105
?NotifyGC@UDebuggerCore@@UAEXXZ @ 106
?NotifyInfiniteLoop@UDebuggerCore@@UAEHXZ @ 107
?OpenWebInClient@UWindowsViewport@@UAEXPBGHHHH@Z @ 108
?OpenWindow@UWindowsViewport@@UAEXKHHHHH@Z @ 109
?PostEditChange@UWindowsClient@@UAEXXZ @ 110
?PrivateStaticClass@UWindowsClient@@0VUClass@@A @ 111
?PrivateStaticClass@UWindowsViewport@@0VUClass@@A @ 112
?PrivateStaticClass@UWindowsWebLog@@0VUClass@@A @ 113
?ProcessInput@UDebuggerCore@@QAEXW4EUserAction@@@Z @ 114
?ProcessPendingState@UDebuggerCore@@QAEXXZ @ 115
?PropertyToWatch@UDebuggerCore@@AAEXPAVUProperty@@PAEHHHPBG@Z @ 116
?PropertyToWatch@UDebuggerCore@@AAEXPAVUProperty@@PAEHHPBG@Z @ 117
?RefreshUserWatches@UDebuggerCore@@AAEXXZ @ 118
?RefreshWatch@UDebuggerCore@@AAEXPBVFStackNode@@@Z @ 119
?RemoveWatch@UDebuggerCore@@QAEXPBG@Z @ 120
?Repaint@UWindowsViewport@@UAEXH@Z @ 121
?ResizeViewport@UWindowsViewport@@UAEHKHHH@Z @ 122
?Send@UWindowsWebLog@@UAEXHH@Z @ 123
?SendURL@UWindowsWebLog@@AAEXPBG@Z @ 124
?SetBreakOnNone@UDebuggerCore@@QAEXH@Z @ 125
?SetCondition@UDebuggerCore@@QAEXPBG0@Z @ 126
?SetDataBreakpoint@UDebuggerCore@@QAEXPBG@Z @ 127
?SetModeCursor@UWindowsViewport@@UAEXXZ @ 128
?SetMouseCapture@UWindowsViewport@@UAEXHHH@Z @ 129
?SetTopness@UWindowsViewport@@QAEXXZ @ 130
?ShowViewportWindows@UWindowsClient@@UAEXKH@Z @ 131
?ShutdownAfterError@UWindowsClient@@UAEXXZ @ 132
?ShutdownAfterError@UWindowsViewport@@UAEXXZ @ 133
?SpeechAudioInput@UWindowsViewport@@2PAVFSpeechAudioInput@@A @ 134
?SpeechRecognition@UWindowsViewport@@2PAVFSpeechRecognitionSAPI@@A @ 135
?StackChanged@UDebuggerCore@@QAEXPBVFStackNode@@@Z @ 136
?StaticClass@UWindowsClient@@SAPAVUClass@@XZ @ 137
?StaticClass@UWindowsViewport@@SAPAVUClass@@XZ @ 138
?StaticClass@UWindowsWebLog@@SAPAVUClass@@XZ @ 139
?StaticConstructor@UWindowsClient@@QAEXXZ @ 140
?TeardownSR@UWindowsClient@@UAEXXZ @ 141
?TextToSpeech@UWindowsViewport@@UAEXABVFString@@M@Z @ 142
?TextToSpeechObject@UWindowsViewport@@2PAUISpVoice@@A @ 143
?TextToSpeechVolume@UWindowsViewport@@2MA @ 144
?Tick@UWindowsClient@@UAEXXZ @ 145
?ToggleFullscreen@UWindowsViewport@@QAEXXZ @ 146
?ToggleIME@UWindowsViewport@@QAEXH@Z @ 147
?TryRenderDevice@UWindowsViewport@@UAEHPBGHHH@Z @ 148
?UnBlockAltTab@UWindowsViewport@@UAEXXZ @ 149
?Unlock@UWindowsViewport@@UAEXXZ @ 150
?UpdateInput@UWindowsViewport@@UAEXHM@Z @ 151
?UpdateInterface@UDebuggerCore@@QAEXXZ @ 152
?UpdateMousePosition@UWindowsViewport@@UAEXXZ @ 153
?UpdateWindowFrame@UWindowsViewport@@UAEXXZ @ 154
?ViewportWndProc@UWindowsViewport@@QAEJIIJ@Z @ 155
?WndProc@WWindowsViewportWindow@@UAEJIIJ@Z @ 156
GPackage @ 158
_DllMain@12 @ 157
autoclassUWindowsClient @ 159
autoclassUWindowsViewport @ 160
autoclassUWindowsWebLog @ 161
