LIBRARY Window.dll

EXPORTS
??0FCategoryItem@@QAE@ABV0@@Z @ 1
??0FCategoryItem@@QAE@PAVWPropertiesBase@@PAVFTreeItem@@PAVUClass@@VFName@@H@Z @ 2
??0FClassItem@@QAE@ABV0@@Z @ 3
??0FClassItem@@QAE@PAVWPropertiesBase@@PAVFTreeItem@@KPBGPAVUClass@@@Z @ 4
??0FClassItem@@QAE@XZ @ 5
??0FCommandTarget@@QAE@ABV0@@Z @ 6
??0FCommandTarget@@QAE@XZ @ 7
??0FConfigItem@@QAE@ABV0@@Z @ 8
??0FConfigItem@@QAE@ABVFPreferencesInfo@@PAVWPropertiesBase@@PAVFTreeItem@@@Z @ 9
??0FConfigItem@@QAE@XZ @ 10
??0FContainer@@QAE@XZ @ 11
??0FControlSnoop@@QAE@ABV0@@Z @ 12
??0FControlSnoop@@QAE@XZ @ 13
??0FDelegate@@QAE@ABU0@@Z @ 14
??0FDelegate@@QAE@PAVFCommandTarget@@P81@AEXXZ@Z @ 15
??0FDelegateInt@@QAE@ABU0@@Z @ 16
??0FDelegateInt@@QAE@PAVFCommandTarget@@P81@AEXH@Z@Z @ 17
??0FHeaderItem@@QAE@ABV0@@Z @ 18
??0FHeaderItem@@QAE@PAVWPropertiesBase@@PAVFTreeItem@@H@Z @ 19
??0FHeaderItem@@QAE@XZ @ 20
??0FNewObjectItem@@QAE@ABV0@@Z @ 21
??0FNewObjectItem@@QAE@PAVWPropertiesBase@@PAVFTreeItem@@PAVUObjectProperty@@@Z @ 22
??0FNewObjectItem@@QAE@XZ @ 23
??0FObjectConfigItem@@QAE@ABV0@@Z @ 24
??0FObjectConfigItem@@QAE@PAVWPropertiesBase@@PAVFTreeItem@@PBG2HVFName@@@Z @ 25
??0FObjectsItem@@QAE@ABV0@@Z @ 26
??0FObjectsItem@@QAE@PAVWPropertiesBase@@PAVFTreeItem@@KPBGHH@Z @ 27
??0FObjectsItem@@QAE@XZ @ 28
??0FPropertyItem@@QAE@ABV0@@Z @ 29
??0FPropertyItem@@QAE@PAVWPropertiesBase@@PAVFTreeItem@@PAVUProperty@@VFName@@HHH@Z @ 30
??0FPropertyItemBase@@QAE@ABV0@@Z @ 31
??0FPropertyItemBase@@QAE@PAVWPropertiesBase@@PAVFTreeItem@@KPBG@Z @ 32
??0FPropertyItemBase@@QAE@XZ @ 33
??0FTreeItem@@QAE@ABV0@@Z @ 34
??0FTreeItem@@QAE@PAVWPropertiesBase@@PAV0@H@Z @ 35
??0FTreeItem@@QAE@XZ @ 36
??0FTreeItemBase@@QAE@ABV0@@Z @ 37
??0FTreeItemBase@@QAE@XZ @ 38
??0FUDNHelpTopic@@QAE@ABV0@@Z @ 39
??0FUDNHelpTopic@@QAE@VFString@@0@Z @ 40
??0FUDNHelpTopic@@QAE@XZ @ 41
??0FWaitCursor@@QAE@XZ @ 42
??0FWindowAnchor@@QAE@PAUHWND__@@0HHHHHH@Z @ 43
??0FWindowAnchor@@QAE@XZ @ 44
??0FWindowsBitmap@@QAE@H@Z @ 45
??0WBitmapButton@@QAE@ABV0@@Z @ 46
??0WBitmapButton@@QAE@PAVWWindow@@HUFDelegate@@P6GJPAUHWND__@@IIJ@Z@Z @ 47
??0WBitmapButton@@QAE@XZ @ 48
??0WButton@@QAE@ABV0@@Z @ 49
??0WButton@@QAE@PAVWWindow@@HUFDelegate@@P6GJPAUHWND__@@IIJ@Z@Z @ 50
??0WButton@@QAE@XZ @ 51
??0WCheckBox@@QAE@ABV0@@Z @ 52
??0WCheckBox@@QAE@PAVWWindow@@HUFDelegate@@@Z @ 53
??0WCheckBox@@QAE@XZ @ 54
??0WCheckListBox@@QAE@ABV0@@Z @ 55
??0WCheckListBox@@QAE@PAVWWindow@@HP6GJPAUHWND__@@IIJ@Z@Z @ 56
??0WCheckListBox@@QAE@XZ @ 57
??0WClassProperties@@QAE@ABV0@@Z @ 58
??0WClassProperties@@QAE@VFName@@KPBGPAVUClass@@@Z @ 59
??0WClassProperties@@QAE@XZ @ 60
??0WColorButton@@QAE@ABV0@@Z @ 61
??0WColorButton@@QAE@PAVWWindow@@HUFDelegate@@P6GJPAUHWND__@@IIJ@Z@Z @ 62
??0WColorButton@@QAE@XZ @ 63
??0WComboBox@@QAE@ABV0@@Z @ 64
??0WComboBox@@QAE@PAVWWindow@@HP6GJPAUHWND__@@IIJ@Z@Z @ 65
??0WComboBox@@QAE@XZ @ 66
??0WConfigProperties@@QAE@ABV0@@Z @ 67
??0WConfigProperties@@QAE@VFName@@PBG@Z @ 68
??0WConfigProperties@@QAE@XZ @ 69
??0WControl@@QAE@ABV0@@Z @ 70
??0WControl@@QAE@PAVWWindow@@HP6GJPAUHWND__@@IIJ@Z@Z @ 71
??0WControl@@QAE@XZ @ 72
??0WCoolButton@@QAE@ABV0@@Z @ 73
??0WCoolButton@@QAE@PAVWWindow@@HUFDelegate@@K@Z @ 74
??0WCoolButton@@QAE@XZ @ 75
??0WCrashBoxDialog@@QAE@ABV0@@Z @ 76
??0WCrashBoxDialog@@QAE@PBG0@Z @ 77
??0WCrashBoxDialog@@QAE@XZ @ 78
??0WCustomLabel@@QAE@ABV0@@Z @ 79
??0WCustomLabel@@QAE@PAVWWindow@@HP6GJPAUHWND__@@IIJ@Z@Z @ 80
??0WCustomLabel@@QAE@XZ @ 81
??0WDialog@@QAE@ABV0@@Z @ 82
??0WDialog@@QAE@VFName@@HPAVWWindow@@@Z @ 83
??0WDialog@@QAE@XZ @ 84
??0WDragInterceptor@@QAE@ABV0@@Z @ 85
??0WDragInterceptor@@QAE@PAVWWindow@@UFPoint@@UFRect@@1@Z @ 86
??0WDragInterceptor@@QAE@XZ @ 87
??0WEdit@@QAE@ABV0@@Z @ 88
??0WEdit@@QAE@PAVWWindow@@HP6GJPAUHWND__@@IIJ@Z@Z @ 89
??0WEdit@@QAE@XZ @ 90
??0WEditTerminal@@QAE@ABV0@@Z @ 91
??0WEditTerminal@@QAE@PAVWTerminalBase@@@Z @ 92
??0WGroupBox@@QAE@ABV0@@Z @ 93
??0WGroupBox@@QAE@PAVWWindow@@HP6GJPAUHWND__@@IIJ@Z@Z @ 94
??0WGroupBox@@QAE@XZ @ 95
??0WItemBox@@QAE@ABV0@@Z @ 96
??0WItemBox@@QAE@PAVWWindow@@H@Z @ 97
??0WItemBox@@QAE@XZ @ 98
??0WLabel@@QAE@ABV0@@Z @ 99
??0WLabel@@QAE@PAVWWindow@@HP6GJPAUHWND__@@IIJ@Z@Z @ 100
??0WLabel@@QAE@XZ @ 101
??0WListBox@@QAE@ABV0@@Z @ 102
??0WListBox@@QAE@PAVWWindow@@HP6GJPAUHWND__@@IIJ@Z@Z @ 103
??0WListBox@@QAE@XZ @ 104
??0WListView@@QAE@ABV0@@Z @ 105
??0WListView@@QAE@PAVWWindow@@HP6GJPAUHWND__@@IIJ@Z@Z @ 106
??0WListView@@QAE@XZ @ 107
??0WLog@@QAE@ABV0@@Z @ 108
??0WLog@@QAE@PBGAAPAVFArchive@@VFName@@PAVWWindow@@@Z @ 109
??0WLog@@QAE@XZ @ 110
??0WObjectProperties@@QAE@ABV0@@Z @ 111
??0WObjectProperties@@QAE@VFName@@KPBGPAVWWindow@@H@Z @ 112
??0WObjectProperties@@QAE@XZ @ 113
??0WPictureButton@@QAE@ABV0@@Z @ 114
??0WPictureButton@@QAE@PAVWWindow@@@Z @ 115
??0WProgressBar@@QAE@ABV0@@Z @ 116
??0WProgressBar@@QAE@PAVWWindow@@HP6GJPAUHWND__@@IIJ@Z@Z @ 117
??0WProgressBar@@QAE@XZ @ 118
??0WProperties@@QAE@ABV0@@Z @ 119
??0WProperties@@QAE@VFName@@PAVWWindow@@@Z @ 120
??0WProperties@@QAE@XZ @ 121
??0WPropertiesBase@@QAE@ABV0@@Z @ 122
??0WPropertiesBase@@QAE@VFName@@PAVWWindow@@@Z @ 123
??0WPropertiesBase@@QAE@XZ @ 124
??0WPropertyPage@@QAE@ABV0@@Z @ 125
??0WPropertyPage@@QAE@PAVWWindow@@@Z @ 126
??0WPropertySheet@@QAE@ABV0@@Z @ 127
??0WPropertySheet@@QAE@PAVWWindow@@HP6GJPAUHWND__@@IIJ@Z@Z @ 128
??0WPropertySheet@@QAE@XZ @ 129
??0WRichEdit@@QAE@ABV0@@Z @ 130
??0WRichEdit@@QAE@PAVWWindow@@HP6GJPAUHWND__@@IIJ@Z@Z @ 131
??0WRichEdit@@QAE@XZ @ 132
??0WScrollBar@@QAE@ABV0@@Z @ 133
??0WScrollBar@@QAE@PAVWWindow@@HP6GJPAUHWND__@@IIJ@Z@Z @ 134
??0WScrollBar@@QAE@XZ @ 135
??0WSplitter@@QAE@ABV0@@Z @ 136
??0WSplitter@@QAE@PAVWWindow@@@Z @ 137
??0WSplitter@@QAE@XZ @ 138
??0WSplitterContainer@@QAE@ABV0@@Z @ 139
??0WSplitterContainer@@QAE@PAVWWindow@@@Z @ 140
??0WSplitterPane@@QAE@ABV0@@Z @ 141
??0WSplitterPane@@QAE@PAVWWindow@@@Z @ 142
??0WSplitterPane@@QAE@XZ @ 143
??0WTabControl@@QAE@ABV0@@Z @ 144
??0WTabControl@@QAE@PAVWWindow@@HP6GJPAUHWND__@@IIJ@Z@Z @ 145
??0WTabControl@@QAE@XZ @ 146
??0WTerminal@@QAE@ABV0@@Z @ 147
??0WTerminal@@QAE@VFName@@PAVWWindow@@@Z @ 148
??0WTerminal@@QAE@XZ @ 149
??0WTerminalBase@@QAE@ABV0@@Z @ 150
??0WTerminalBase@@QAE@VFName@@PAVWWindow@@@Z @ 151
??0WTerminalBase@@QAE@XZ @ 152
??0WThinScrollBar@@QAE@ABV0@@Z @ 153
??0WThinScrollBar@@QAE@PAVWWindow@@H@Z @ 154
??0WTimeScrollBar@@QAE@ABV0@@Z @ 155
??0WTimeScrollBar@@QAE@PAVWWindow@@H@Z @ 156
??0WToolTip@@QAE@ABV0@@Z @ 157
??0WToolTip@@QAE@PAVWWindow@@HP6GJPAUHWND__@@IIJ@Z@Z @ 158
??0WToolTip@@QAE@XZ @ 159
??0WTrackBar@@QAE@ABV0@@Z @ 160
??0WTrackBar@@QAE@PAVWWindow@@HP6GJPAUHWND__@@IIJ@Z@Z @ 161
??0WTrackBar@@QAE@XZ @ 162
??0WTreeView@@QAE@ABV0@@Z @ 163
??0WTreeView@@QAE@PAVWWindow@@HP6GJPAUHWND__@@IIJ@Z@Z @ 164
??0WTreeView@@QAE@XZ @ 165
??0WUDNWindow@@QAE@ABV0@@Z @ 166
??0WUDNWindow@@QAE@PAVWWindow@@@Z @ 167
??0WUrlButton@@QAE@ABV0@@Z @ 168
??0WUrlButton@@QAE@PAVWWindow@@PBGH@Z @ 169
??0WUrlButton@@QAE@XZ @ 170
??0WWindow@@QAE@ABV0@@Z @ 171
??0WWindow@@QAE@VFName@@PAV0@@Z @ 172
??0WWizardDialog@@QAE@ABV0@@Z @ 173
??0WWizardDialog@@QAE@XZ @ 174
??0WWizardPage@@QAE@ABV0@@Z @ 175
??0WWizardPage@@QAE@PBGHPAVWWizardDialog@@@Z @ 176
??0WWizardPage@@QAE@XZ @ 177
??1FCategoryItem@@UAE@XZ @ 178
??1FClassItem@@UAE@XZ @ 179
??1FConfigItem@@UAE@XZ @ 180
??1FHeaderItem@@UAE@XZ @ 181
??1FNewObjectItem@@UAE@XZ @ 182
??1FObjectConfigItem@@UAE@XZ @ 183
??1FObjectsItem@@UAE@XZ @ 184
??1FPropertyItem@@UAE@XZ @ 185
??1FPropertyItemBase@@UAE@XZ @ 186
??1FTreeItem@@UAE@XZ @ 187
??1FUDNHelpTopic@@QAE@XZ @ 188
??1FWaitCursor@@QAE@XZ @ 189
??1FWindowAnchor@@QAE@XZ @ 190
??1FWindowsBitmap@@QAE@XZ @ 191
??1WBitmapButton@@UAE@XZ @ 192
??1WButton@@UAE@XZ @ 193
??1WCheckBox@@UAE@XZ @ 194
??1WCheckListBox@@UAE@XZ @ 195
??1WClassProperties@@UAE@XZ @ 196
??1WColorButton@@UAE@XZ @ 197
??1WComboBox@@UAE@XZ @ 198
??1WConfigProperties@@UAE@XZ @ 199
??1WControl@@UAE@XZ @ 200
??1WCoolButton@@UAE@XZ @ 201
??1WCrashBoxDialog@@UAE@XZ @ 202
??1WCustomLabel@@UAE@XZ @ 203
??1WDialog@@UAE@XZ @ 204
??1WDragInterceptor@@UAE@XZ @ 205
??1WEdit@@UAE@XZ @ 206
??1WEditTerminal@@UAE@XZ @ 207
??1WGroupBox@@UAE@XZ @ 208
??1WItemBox@@UAE@XZ @ 209
??1WLabel@@UAE@XZ @ 210
??1WListBox@@UAE@XZ @ 211
??1WListView@@UAE@XZ @ 212
??1WLog@@UAE@XZ @ 213
??1WObjectProperties@@UAE@XZ @ 214
??1WPictureButton@@UAE@XZ @ 215
??1WProgressBar@@UAE@XZ @ 216
??1WProperties@@UAE@XZ @ 217
??1WPropertiesBase@@UAE@XZ @ 218
??1WPropertyPage@@UAE@XZ @ 219
??1WPropertySheet@@UAE@XZ @ 220
??1WRichEdit@@UAE@XZ @ 221
??1WScrollBar@@UAE@XZ @ 222
??1WSplitter@@UAE@XZ @ 223
??1WSplitterContainer@@UAE@XZ @ 224
??1WSplitterPane@@UAE@XZ @ 225
??1WTabControl@@UAE@XZ @ 226
??1WTerminal@@UAE@XZ @ 227
??1WTerminalBase@@UAE@XZ @ 228
??1WThinScrollBar@@UAE@XZ @ 229
??1WTimeScrollBar@@UAE@XZ @ 230
??1WToolTip@@UAE@XZ @ 231
??1WTrackBar@@UAE@XZ @ 232
??1WTreeView@@UAE@XZ @ 233
??1WUDNWindow@@UAE@XZ @ 234
??1WUrlButton@@UAE@XZ @ 235
??1WWindow@@UAE@XZ @ 236
??1WWizardDialog@@UAE@XZ @ 237
??1WWizardPage@@UAE@XZ @ 238
??4FCategoryItem@@QAEAAV0@ABV0@@Z @ 239
??4FClassItem@@QAEAAV0@ABV0@@Z @ 240
??4FCommandTarget@@QAEAAV0@ABV0@@Z @ 241
??4FConfigItem@@QAEAAV0@ABV0@@Z @ 242
??4FContainer@@QAEAAV0@ABV0@@Z @ 243
??4FControlSnoop@@QAEAAV0@ABV0@@Z @ 244
??4FDelegate@@QAEAAU0@ABU0@@Z @ 245
??4FDelegateInt@@QAEAAU0@ABU0@@Z @ 246
??4FHeaderItem@@QAEAAV0@ABV0@@Z @ 247
??4FNewObjectItem@@QAEAAV0@ABV0@@Z @ 248
??4FObjectConfigItem@@QAEAAV0@ABV0@@Z @ 249
??4FObjectsItem@@QAEAAV0@ABV0@@Z @ 250
??4FPropertyItem@@QAEAAV0@ABV0@@Z @ 251
??4FPropertyItemBase@@QAEAAV0@ABV0@@Z @ 252
??4FTreeItem@@QAEAAV0@ABV0@@Z @ 253
??4FTreeItemBase@@QAEAAV0@ABV0@@Z @ 254
??4FUDNHelpTopic@@QAEAAV0@ABV0@@Z @ 255
??4FWaitCursor@@QAEAAV0@ABV0@@Z @ 256
??4FWindowAnchor@@QAE?AV0@ABV0@@Z @ 257
??4FWindowsBitmap@@AAEXAAV0@@Z @ 258
??4WBitmapButton@@QAEAAV0@ABV0@@Z @ 259
??4WButton@@QAEAAV0@ABV0@@Z @ 260
??4WCheckBox@@QAEAAV0@ABV0@@Z @ 261
??4WCheckListBox@@QAEAAV0@ABV0@@Z @ 262
??4WClassProperties@@QAEAAV0@ABV0@@Z @ 263
??4WColorButton@@QAEAAV0@ABV0@@Z @ 264
??4WComboBox@@QAEAAV0@ABV0@@Z @ 265
??4WConfigProperties@@QAEAAV0@ABV0@@Z @ 266
??4WControl@@QAEAAV0@ABV0@@Z @ 267
??4WCoolButton@@QAEAAV0@ABV0@@Z @ 268
??4WCrashBoxDialog@@QAEAAV0@ABV0@@Z @ 269
??4WCustomLabel@@QAEAAV0@ABV0@@Z @ 270
??4WDialog@@QAEAAV0@ABV0@@Z @ 271
??4WDragInterceptor@@QAEAAV0@ABV0@@Z @ 272
??4WEdit@@QAEAAV0@ABV0@@Z @ 273
??4WEditTerminal@@QAEAAV0@ABV0@@Z @ 274
??4WGroupBox@@QAEAAV0@ABV0@@Z @ 275
??4WItemBox@@QAEAAV0@ABV0@@Z @ 276
??4WLabel@@QAEAAV0@ABV0@@Z @ 277
??4WListBox@@QAEAAV0@ABV0@@Z @ 278
??4WListView@@QAEAAV0@ABV0@@Z @ 279
??4WObjectProperties@@QAEAAV0@ABV0@@Z @ 280
??4WPictureButton@@QAEAAV0@ABV0@@Z @ 281
??4WProgressBar@@QAEAAV0@ABV0@@Z @ 282
??4WProperties@@QAEAAV0@ABV0@@Z @ 283
??4WPropertiesBase@@QAEAAV0@ABV0@@Z @ 284
??4WPropertyPage@@QAEAAV0@ABV0@@Z @ 285
??4WPropertySheet@@QAEAAV0@ABV0@@Z @ 286
??4WRichEdit@@QAEAAV0@ABV0@@Z @ 287
??4WScrollBar@@QAEAAV0@ABV0@@Z @ 288
??4WSplitter@@QAEAAV0@ABV0@@Z @ 289
??4WSplitterContainer@@QAEAAV0@ABV0@@Z @ 290
??4WSplitterPane@@QAEAAV0@ABV0@@Z @ 291
??4WTabControl@@QAEAAV0@ABV0@@Z @ 292
??4WTerminal@@QAEAAV0@ABV0@@Z @ 293
??4WTerminalBase@@QAEAAV0@ABV0@@Z @ 294
??4WThinScrollBar@@QAEAAV0@ABV0@@Z @ 295
??4WTimeScrollBar@@QAEAAV0@ABV0@@Z @ 296
??4WToolTip@@QAEAAV0@ABV0@@Z @ 297
??4WTrackBar@@QAEAAV0@ABV0@@Z @ 298
??4WTreeView@@QAEAAV0@ABV0@@Z @ 299
??4WUDNWindow@@QAEAAV0@ABV0@@Z @ 300
??4WUrlButton@@QAEAAV0@ABV0@@Z @ 301
??4WWindow@@QAEAAV0@ABV0@@Z @ 302
??4WWizardDialog@@QAEAAV0@ABV0@@Z @ 303
??4WWizardPage@@QAEAAV0@ABV0@@Z @ 304
??BWWindow@@QBEPAUHWND__@@XZ @ 305
??RFDelegate@@UAEXXZ @ 306
??RFDelegateInt@@UAEXH@Z @ 307
??_7FCategoryItem@@6BFCommandTarget@@@ @ 308
??_7FCategoryItem@@6BFControlSnoop@@@ @ 309
??_7FClassItem@@6BFCommandTarget@@@ @ 310
??_7FClassItem@@6BFControlSnoop@@@ @ 311
??_7FCommandTarget@@6B@ @ 312
??_7FConfigItem@@6BFCommandTarget@@@ @ 313
??_7FConfigItem@@6BFControlSnoop@@@ @ 314
??_7FControlSnoop@@6B@ @ 315
??_7FDelegate@@6B@ @ 316
??_7FDelegateInt@@6B@ @ 317
??_7FHeaderItem@@6BFCommandTarget@@@ @ 318
??_7FHeaderItem@@6BFControlSnoop@@@ @ 319
??_7FNewObjectItem@@6BFCommandTarget@@@ @ 320
??_7FNewObjectItem@@6BFControlSnoop@@@ @ 321
??_7FObjectConfigItem@@6BFCommandTarget@@@ @ 322
??_7FObjectConfigItem@@6BFControlSnoop@@@ @ 323
??_7FObjectsItem@@6BFCommandTarget@@@ @ 324
??_7FObjectsItem@@6BFControlSnoop@@@ @ 325
??_7FPropertyItem@@6BFCommandTarget@@@ @ 326
??_7FPropertyItem@@6BFControlSnoop@@@ @ 327
??_7FPropertyItemBase@@6BFCommandTarget@@@ @ 328
??_7FPropertyItemBase@@6BFControlSnoop@@@ @ 329
??_7FTreeItem@@6BFCommandTarget@@@ @ 330
??_7FTreeItem@@6BFControlSnoop@@@ @ 331
??_7FTreeItemBase@@6BFCommandTarget@@@ @ 332
??_7FTreeItemBase@@6BFControlSnoop@@@ @ 333
??_7WBitmapButton@@6B@ @ 334
??_7WButton@@6B@ @ 335
??_7WCheckBox@@6B@ @ 336
??_7WCheckListBox@@6B@ @ 337
??_7WClassProperties@@6BFControlSnoop@@@ @ 338
??_7WClassProperties@@6BWWindow@@@ @ 339
??_7WColorButton@@6B@ @ 340
??_7WComboBox@@6B@ @ 341
??_7WConfigProperties@@6BFControlSnoop@@@ @ 342
??_7WConfigProperties@@6BWWindow@@@ @ 343
??_7WControl@@6B@ @ 344
??_7WCoolButton@@6B@ @ 345
??_7WCrashBoxDialog@@6B@ @ 346
??_7WCustomLabel@@6B@ @ 347
??_7WDialog@@6B@ @ 348
??_7WDragInterceptor@@6B@ @ 349
??_7WEdit@@6B@ @ 350
??_7WEditTerminal@@6B@ @ 351
??_7WGroupBox@@6B@ @ 352
??_7WItemBox@@6B@ @ 353
??_7WLabel@@6B@ @ 354
??_7WListBox@@6B@ @ 355
??_7WListView@@6B@ @ 356
??_7WLog@@6BFOutputDevice@@@ @ 357
??_7WLog@@6BWTerminalBase@@@ @ 358
??_7WObjectProperties@@6BFControlSnoop@@@ @ 359
??_7WObjectProperties@@6BWWindow@@@ @ 360
??_7WPictureButton@@6B@ @ 361
??_7WProgressBar@@6B@ @ 362
??_7WProperties@@6BFControlSnoop@@@ @ 363
??_7WProperties@@6BWWindow@@@ @ 364
??_7WPropertiesBase@@6BFControlSnoop@@@ @ 365
??_7WPropertiesBase@@6BWWindow@@@ @ 366
??_7WPropertyPage@@6B@ @ 367
??_7WPropertySheet@@6B@ @ 368
??_7WRichEdit@@6B@ @ 369
??_7WScrollBar@@6B@ @ 370
??_7WSplitter@@6B@ @ 371
??_7WSplitterContainer@@6B@ @ 372
??_7WSplitterPane@@6B@ @ 373
??_7WTabControl@@6B@ @ 374
??_7WTerminal@@6BFOutputDevice@@@ @ 375
??_7WTerminal@@6BWTerminalBase@@@ @ 376
??_7WTerminalBase@@6B@ @ 377
??_7WThinScrollBar@@6B@ @ 378
??_7WTimeScrollBar@@6B@ @ 379
??_7WToolTip@@6B@ @ 380
??_7WTrackBar@@6B@ @ 381
??_7WTreeView@@6B@ @ 382
??_7WUDNWindow@@6B@ @ 383
??_7WUrlButton@@6B@ @ 384
??_7WWindow@@6B@ @ 385
??_7WWizardDialog@@6B@ @ 386
??_7WWizardPage@@6B@ @ 387
??_FFDelegate@@QAEXXZ @ 388
??_FFDelegateInt@@QAEXXZ @ 389
??_FFWindowsBitmap@@QAEXXZ @ 390
??_FWEditTerminal@@QAEXXZ @ 391
??_FWWindow@@QAEXXZ @ 392
?AcceptFlags@FPropertyItemBase@@UAEHK@Z @ 393
?AcceptFlags@FTreeItem@@UAEHK@Z @ 394
?AddButton@FTreeItem@@UAEXPBGUFDelegate@@@Z @ 395
?AddItem@WListBox@@QAEHPBX@Z @ 396
?AddItem@WTreeView@@QAEPAU_TREEITEM@@PBGPAU2@H@Z @ 397
?AddPage@WPropertySheet@@QAEXPAVWPropertyPage@@@Z @ 398
?AddString@WComboBox@@UAEXPBG@Z @ 399
?AddString@WListBox@@QAEHPBG@Z @ 400
?AddTab@WTabControl@@QAEXVFString@@H@Z @ 401
?AddTool@WToolTip@@QAEXPAUHWND__@@VFString@@HPAUtagRECT@@@Z @ 402
?Advance@FPropertyItem@@UAEXXZ @ 403
?Advance@WWizardDialog@@UAEXPAVWWizardPage@@@Z @ 404
?BeginSplitterDrag@WProperties@@UAEXXZ @ 405
?CallDefaultProc@WControl@@UAEJIIJ@Z @ 406
?CallDefaultProc@WDialog@@UAEJIIJ@Z @ 407
?CallDefaultProc@WWindow@@UAEJIIJ@Z @ 408
?Capture@WUDNWindow@@QAEXXZ @ 409
?CenterInOwnerWindow@WDialog@@QAEXXZ @ 410
?Cleanup@WPropertyPage@@QAEXXZ @ 411
?ClearSel@WListBox@@QAEXXZ @ 412
?Clicked@WBitmapButton@@UAEXXZ @ 413
?Clicked@WButton@@UAEXXZ @ 414
?Clicked@WCheckBox@@UAEXXZ @ 415
?ClientToScreen@WWindow@@QAE?AUFPoint@@ABU2@@Z @ 416
?ClientToScreen@WWindow@@QAE?AUFRect@@ABU2@@Z @ 417
?Collapse@FCategoryItem@@UAEXXZ @ 418
?Collapse@FConfigItem@@UAEXXZ @ 419
?Collapse@FPropertyItem@@UAEXXZ @ 420
?Collapse@FPropertyItemBase@@UAEXXZ @ 421
?Collapse@FTreeItem@@UAEXXZ @ 422
?ComboSelectionEndCancel@FNewObjectItem@@QAEXXZ @ 423
?ComboSelectionEndCancel@FPropertyItem@@QAEXXZ @ 424
?ComboSelectionEndOk@FNewObjectItem@@QAEXXZ @ 425
?ComboSelectionEndOk@FPropertyItem@@QAEXXZ @ 426
?DeleteString@WListBox@@QAEXH@Z @ 427
?DoDestroy@WProperties@@UAEXXZ @ 428
?DoDestroy@WWindow@@UAEXXZ @ 429
?DoModal@WDialog@@UAEHPAUHINSTANCE__@@@Z @ 430
?Draw@FHeaderItem@@UAEXPAUHDC__@@@Z @ 431
?Draw@FNewObjectItem@@UAEXPAUHDC__@@@Z @ 432
?Draw@FPropertyItem@@UAEXPAUHDC__@@@Z @ 433
?DrawTreeLines@FTreeItem@@UAEXPAUHDC__@@UFRect@@H@Z @ 434
?Empty@WComboBox@@QAEXXZ @ 435
?Empty@WListBox@@QAEXXZ @ 436
?Empty@WListView@@QAEXXZ @ 437
?Empty@WPropertySheet@@QAEXXZ @ 438
?Empty@WTabControl@@QAEXXZ @ 439
?Empty@WTreeView@@QAEXXZ @ 440
?EmptyChildren@FTreeItem@@QAEXXZ @ 441
?EndDialog@WDialog@@QAEXH@Z @ 442
?EndDialogFalse@WDialog@@QAEXXZ @ 443
?EndDialogTrue@WDialog@@QAEXXZ @ 444
?Eval@FObjectsItem@@QAEHVFString@@PAM@Z @ 445
?Expand@FCategoryItem@@UAEXXZ @ 446
?Expand@FClassItem@@UAEXXZ @ 447
?Expand@FConfigItem@@UAEXXZ @ 448
?Expand@FObjectConfigItem@@UAEXXZ @ 449
?Expand@FObjectsItem@@UAEXXZ @ 450
?Expand@FPropertyItem@@UAEXXZ @ 451
?Expand@FTreeItem@@UAEXXZ @ 452
?ExpandAll@WProperties@@UAEXXZ @ 453
?Finalize@WPropertyPage@@QAEXXZ @ 454
?FindItem@WListBox@@QAEHPBX@Z @ 455
?FindItemChecked@WListBox@@QAEHPBX@Z @ 456
?FindString@WComboBox@@UAEHPBG@Z @ 457
?FindString@WListBox@@QAEHPBG@Z @ 458
?FindStringChecked@WListBox@@QAEHPBG@Z @ 459
?FindStringExact@WComboBox@@UAEHPBG@Z @ 460
?FindStringExact@WListBox@@QAEHPBG@Z @ 461
?ForceRefresh@WProperties@@UAEXXZ @ 462
?FromHSV@FHeaderItem@@QAE?AVFVector@@EEE@Z @ 463
?GLogWindow@@3PAVWLog@@A @ 464
?GNotify@@3HA @ 465
?GOnKillFocus@@YAXPAUHWND__@@@Z @ 466
?GOnSetFocus@@YAXPAUHWND__@@@Z @ 467
?GetBackText@WWizardPage@@UAEPBGXZ @ 468
?GetBackgroundBrush@FTreeItem@@UAEPAUHBRUSH__@@H@Z @ 469
?GetBase@FClassItem@@UAEPAEPAE@Z @ 470
?GetBase@FObjectConfigItem@@UAEPAEPAE@Z @ 471
?GetBase@FObjectsItem@@UAEPAEPAE@Z @ 472
?GetBase@FPropertyItem@@UAEPAEPAE@Z @ 473
?GetBase@FTreeItem@@UAEPAEPAE@Z @ 474
?GetBitmapHandle@FWindowsBitmap@@QAEPAUHBITMAP__@@XZ @ 475
?GetCancelText@WWizardPage@@UAEPBGXZ @ 476
?GetCaption@FCategoryItem@@UBE?AVFString@@XZ @ 477
?GetCaption@FConfigItem@@UBE?AVFString@@XZ @ 478
?GetCaption@FNewObjectItem@@UBE?AVFString@@XZ @ 479
?GetCaption@FObjectsItem@@UBE?AVFString@@XZ @ 480
?GetCaption@FPropertyItem@@UBE?AVFString@@XZ @ 481
?GetCaption@FPropertyItemBase@@UBE?AVFString@@XZ @ 482
?GetCaption@WPropertyPage@@QAE?AVFString@@XZ @ 483
?GetClientRect@WWindow@@QBE?AUFRect@@XZ @ 484
?GetColor@WColorButton@@QAEXAAH00@Z @ 485
?GetContents@FPropertyItem@@UAEPAEPAE@Z @ 486
?GetContents@FTreeItem@@UAEPAEPAE@Z @ 487
?GetCount@WComboBox@@UAEHXZ @ 488
?GetCount@WListBox@@QAEHXZ @ 489
?GetCount@WTabControl@@QAEHXZ @ 490
?GetCurrent@WComboBox@@UAEHXZ @ 491
?GetCurrent@WListBox@@QAEHXZ @ 492
?GetCurrent@WListView@@QAEHXZ @ 493
?GetCurrent@WTabControl@@QAEHXZ @ 494
?GetCurrentTopicID@WUDNWindow@@QAEHXZ @ 495
?GetCursorPos@WWindow@@QAE?AUFPoint@@XZ @ 496
?GetDividerWidth@WProperties@@UAEHXZ @ 497
?GetExpanderRect@FTreeItem@@UAE?AUFRect@@XZ @ 498
?GetFinishText@WWizardPage@@UAEPBGXZ @ 499
?GetHeight@FHeaderItem@@UAEHXZ @ 500
?GetHeight@FPropertyItem@@UAEHXZ @ 501
?GetID@WPropertyPage@@QAEHXZ @ 502
?GetId@FCategoryItem@@UBE_KXZ @ 503
?GetId@FConfigItem@@UBE_KXZ @ 504
?GetId@FNewObjectItem@@UBE_KXZ @ 505
?GetId@FPropertyItem@@UBE_KXZ @ 506
?GetId@FPropertyItemBase@@UBE_KXZ @ 507
?GetIndent@FTreeItem@@QAEHXZ @ 508
?GetIndentPixels@FTreeItem@@UAEHH@Z @ 509
?GetIndexFromlParam@WTabControl@@QAEHH@Z @ 510
?GetItemData@WListBox@@QAEPAXH@Z @ 511
?GetItemHeight@WListBox@@QAEHH@Z @ 512
?GetItemRect@WListBox@@QAE?AUFRect@@H@Z @ 513
?GetLength@WWindow@@UAEHXZ @ 514
?GetLineCount@WEdit@@QAEHXZ @ 515
?GetLineIndex@WEdit@@QAEHH@Z @ 516
?GetListItem@WPropertiesBase@@QAEPAVFTreeItem@@H@Z @ 517
?GetModify@WEdit@@QAEHXZ @ 518
?GetNext@WWizardPage@@UAEPAV1@XZ @ 519
?GetNextText@WWizardPage@@UAEPBGXZ @ 520
?GetPackageName@WBitmapButton@@UAEPBGXZ @ 521
?GetPackageName@WButton@@UAEPBGXZ @ 522
?GetPackageName@WCheckBox@@UAEPBGXZ @ 523
?GetPackageName@WCheckListBox@@UAEPBGXZ @ 524
?GetPackageName@WClassProperties@@UAEPBGXZ @ 525
?GetPackageName@WColorButton@@UAEPBGXZ @ 526
?GetPackageName@WComboBox@@UAEPBGXZ @ 527
?GetPackageName@WConfigProperties@@UAEPBGXZ @ 528
?GetPackageName@WCoolButton@@UAEPBGXZ @ 529
?GetPackageName@WCrashBoxDialog@@UAEPBGXZ @ 530
?GetPackageName@WCustomLabel@@UAEPBGXZ @ 531
?GetPackageName@WDialog@@UAEPBGXZ @ 532
?GetPackageName@WDragInterceptor@@UAEPBGXZ @ 533
?GetPackageName@WEdit@@UAEPBGXZ @ 534
?GetPackageName@WEditTerminal@@UAEPBGXZ @ 535
?GetPackageName@WGroupBox@@UAEPBGXZ @ 536
?GetPackageName@WItemBox@@UAEPBGXZ @ 537
?GetPackageName@WLabel@@UAEPBGXZ @ 538
?GetPackageName@WListBox@@UAEPBGXZ @ 539
?GetPackageName@WListView@@UAEPBGXZ @ 540
?GetPackageName@WLog@@UAEPBGXZ @ 541
?GetPackageName@WObjectProperties@@UAEPBGXZ @ 542
?GetPackageName@WPictureButton@@UAEPBGXZ @ 543
?GetPackageName@WProgressBar@@UAEPBGXZ @ 544
?GetPackageName@WProperties@@UAEPBGXZ @ 545
?GetPackageName@WPropertyPage@@UAEPBGXZ @ 546
?GetPackageName@WPropertySheet@@UAEPBGXZ @ 547
?GetPackageName@WRichEdit@@UAEPBGXZ @ 548
?GetPackageName@WScrollBar@@UAEPBGXZ @ 549
?GetPackageName@WSplitter@@UAEPBGXZ @ 550
?GetPackageName@WSplitterContainer@@UAEPBGXZ @ 551
?GetPackageName@WSplitterPane@@UAEPBGXZ @ 552
?GetPackageName@WTabControl@@UAEPBGXZ @ 553
?GetPackageName@WTerminal@@UAEPBGXZ @ 554
?GetPackageName@WTerminalBase@@UAEPBGXZ @ 555
?GetPackageName@WThinScrollBar@@UAEPBGXZ @ 556
?GetPackageName@WTimeScrollBar@@UAEPBGXZ @ 557
?GetPackageName@WToolTip@@UAEPBGXZ @ 558
?GetPackageName@WTrackBar@@UAEPBGXZ @ 559
?GetPackageName@WTreeView@@UAEPBGXZ @ 560
?GetPackageName@WUDNWindow@@UAEPBGXZ @ 561
?GetPackageName@WUrlButton@@UAEPBGXZ @ 562
?GetPackageName@WWindow@@UAEPBGXZ @ 563
?GetPackageName@WWizardDialog@@UAEPBGXZ @ 564
?GetPackageName@WWizardPage@@UAEPBGXZ @ 565
?GetParentObject@FObjectsItem@@UAEPAVUObject@@XZ @ 566
?GetParentObject@FTreeItem@@UAEPAVUObject@@XZ @ 567
?GetPct@WTimeScrollBar@@QAEMXZ @ 568
?GetPos@WThinScrollBar@@QAEHXZ @ 569
?GetPos@WTimeScrollBar@@QAEHXZ @ 570
?GetPos@WTrackBar@@QAEHXZ @ 571
?GetPropertyText@FPropertyItem@@QAEXPAG@Z @ 572
?GetReadAddress@FClassItem@@UAEPAEPAVFPropertyItem@@H@Z @ 573
?GetReadAddress@FObjectConfigItem@@UAEPAEPAVFPropertyItem@@H@Z @ 574
?GetReadAddress@FObjectsItem@@UAEPAEPAVFPropertyItem@@H@Z @ 575
?GetReadAddress@FTreeItem@@UAEPAEPAVFPropertyItem@@H@Z @ 576
?GetReadOnly@WEdit@@QAEHXZ @ 577
?GetRect@FTreeItem@@UAE?AUFRect@@XZ @ 578
?GetRoot@WClassProperties@@UAEPAVFTreeItem@@XZ @ 579
?GetRoot@WConfigProperties@@UAEPAVFTreeItem@@XZ @ 580
?GetRoot@WObjectProperties@@UAEPAVFTreeItem@@XZ @ 581
?GetSelected@FTreeItem@@UAEHXZ @ 582
?GetSelected@WListBox@@QAEHH@Z @ 583
?GetSelectedCount@WListBox@@QAEHXZ @ 584
?GetSelectedItems@WListBox@@QAEHHPAH@Z @ 585
?GetSelection@WEdit@@QAEXAAH0@Z @ 586
?GetShow@WWizardPage@@UAEHXZ @ 587
?GetStates@FPropertyItemBase@@UAEXAAV?$TArray@VFName@@@@@Z @ 588
?GetStates@FTreeItem@@UAEXAAV?$TArray@VFName@@@@@Z @ 589
?GetString@WComboBox@@UAE?AVFString@@H@Z @ 590
?GetString@WListBox@@QAE?AVFString@@H@Z @ 591
?GetString@WTabControl@@QAE?AVFString@@H@Z @ 592
?GetText@WWindow@@UAE?AVFString@@XZ @ 593
?GetTextColor@FTreeItem@@UAEKH@Z @ 594
?GetThumbRect@WThinScrollBar@@QAE?AUFRect@@XZ @ 595
?GetThumbRect@WTimeScrollBar@@QAE?AUFRect@@XZ @ 596
?GetTop@WListBox@@QAEHXZ @ 597
?GetUnitIndentPixels@FTreeItem@@QAEHXZ @ 598
?GetWindowClassName@WBitmapButton@@UAEXPAG@Z @ 599
?GetWindowClassName@WButton@@UAEXPAG@Z @ 600
?GetWindowClassName@WCheckBox@@UAEXPAG@Z @ 601
?GetWindowClassName@WCheckListBox@@UAEXPAG@Z @ 602
?GetWindowClassName@WClassProperties@@UAEXPAG@Z @ 603
?GetWindowClassName@WColorButton@@UAEXPAG@Z @ 604
?GetWindowClassName@WComboBox@@UAEXPAG@Z @ 605
?GetWindowClassName@WConfigProperties@@UAEXPAG@Z @ 606
?GetWindowClassName@WCoolButton@@UAEXPAG@Z @ 607
?GetWindowClassName@WCrashBoxDialog@@UAEXPAG@Z @ 608
?GetWindowClassName@WCustomLabel@@UAEXPAG@Z @ 609
?GetWindowClassName@WDialog@@UAEXPAG@Z @ 610
?GetWindowClassName@WDragInterceptor@@UAEXPAG@Z @ 611
?GetWindowClassName@WEdit@@UAEXPAG@Z @ 612
?GetWindowClassName@WEditTerminal@@UAEXPAG@Z @ 613
?GetWindowClassName@WGroupBox@@UAEXPAG@Z @ 614
?GetWindowClassName@WItemBox@@UAEXPAG@Z @ 615
?GetWindowClassName@WLabel@@UAEXPAG@Z @ 616
?GetWindowClassName@WListBox@@UAEXPAG@Z @ 617
?GetWindowClassName@WListView@@UAEXPAG@Z @ 618
?GetWindowClassName@WLog@@UAEXPAG@Z @ 619
?GetWindowClassName@WObjectProperties@@UAEXPAG@Z @ 620
?GetWindowClassName@WPictureButton@@UAEXPAG@Z @ 621
?GetWindowClassName@WProgressBar@@UAEXPAG@Z @ 622
?GetWindowClassName@WProperties@@UAEXPAG@Z @ 623
?GetWindowClassName@WPropertyPage@@UAEXPAG@Z @ 624
?GetWindowClassName@WPropertySheet@@UAEXPAG@Z @ 625
?GetWindowClassName@WRichEdit@@UAEXPAG@Z @ 626
?GetWindowClassName@WScrollBar@@UAEXPAG@Z @ 627
?GetWindowClassName@WSplitter@@UAEXPAG@Z @ 628
?GetWindowClassName@WSplitterContainer@@UAEXPAG@Z @ 629
?GetWindowClassName@WSplitterPane@@UAEXPAG@Z @ 630
?GetWindowClassName@WTabControl@@UAEXPAG@Z @ 631
?GetWindowClassName@WTerminal@@UAEXPAG@Z @ 632
?GetWindowClassName@WTerminalBase@@UAEXPAG@Z @ 633
?GetWindowClassName@WThinScrollBar@@UAEXPAG@Z @ 634
?GetWindowClassName@WTimeScrollBar@@UAEXPAG@Z @ 635
?GetWindowClassName@WToolTip@@UAEXPAG@Z @ 636
?GetWindowClassName@WTrackBar@@UAEXPAG@Z @ 637
?GetWindowClassName@WTreeView@@UAEXPAG@Z @ 638
?GetWindowClassName@WUDNWindow@@UAEXPAG@Z @ 639
?GetWindowClassName@WUrlButton@@UAEXPAG@Z @ 640
?GetWindowClassName@WWizardDialog@@UAEXPAG@Z @ 641
?GetWindowClassName@WWizardPage@@UAEXPAG@Z @ 642
?GetWindowRect@WWindow@@QBE?AUFRect@@H@Z @ 643
?GetlParam@WTabControl@@QAEHH@Z @ 644
?GlobalCoolButton@WCoolButton@@2PAV1@A @ 645
?GrabChar@FObjectsItem@@QAE?AVFString@@PAV2@@Z @ 646
?InitWindowing@@YAXXZ @ 647
?InsertItem@WListBox@@QAEXHPBX@Z @ 648
?InsertItemAfter@WListBox@@QAEXPBX0@Z @ 649
?InsertString@WListBox@@QAEXHPBG@Z @ 650
?InsertStringAfter@WListBox@@QAEXPBG0@Z @ 651
?InterceptControlCommand@WButton@@UAEHIIJ@Z @ 652
?InterceptControlCommand@WComboBox@@UAEHIIJ@Z @ 653
?InterceptControlCommand@WEdit@@UAEHIIJ@Z @ 654
?InterceptControlCommand@WListBox@@UAEHIIJ@Z @ 655
?InterceptControlCommand@WListView@@UAEHIIJ@Z @ 656
?InterceptControlCommand@WRichEdit@@UAEHIIJ@Z @ 657
?InterceptControlCommand@WTabControl@@UAEHIIJ@Z @ 658
?InterceptControlCommand@WTrackBar@@UAEHIIJ@Z @ 659
?InterceptControlCommand@WTreeView@@UAEHIIJ@Z @ 660
?InterceptControlCommand@WWindow@@UAEHIIJ@Z @ 661
?IsChecked@WButton@@QAEHXZ @ 662
?IsPropertyItem@FPropertyItem@@UBEHXZ @ 663
?IsPropertyItem@FTreeItem@@UBEHXZ @ 664
?ItemFromPoint@WListBox@@QAEHUFPoint@@@Z @ 665
?LazyLoadClass@FObjectConfigItem@@QAEXXZ @ 666
?LoadFile@FWindowsBitmap@@QAEHPBG@Z @ 667
?LoadFileToBitmap@@YAPAUHBITMAP__@@PBGAAH1@Z @ 668
?LoadLocalizedMenu@@YAPAUHMENU__@@PAUHINSTANCE__@@HPBG1@Z @ 669
?LocalizeText@WDialog@@UAEXPBG0@Z @ 670
?LocalizeTextEnumProc@WDialog@@SGHPAUHWND__@@J@Z @ 671
?MaybeDestroy@WWindow@@QAEXXZ @ 672
?ModalCount@WWindow@@2HA @ 673
?MoveWindow@WWindow@@QAEXHHHHH@Z @ 674
?MoveWindow@WWindow@@QAEXUFRect@@H@Z @ 675
?MyDrawEdge@WWindow@@UAEXPAUHDC__@@PAUtagRECT@@H@Z @ 676
?NID@@3U_NOTIFYICONDATAW@@A @ 677
?NIDA@@3U_NOTIFYICONDATAA@@A @ 678
?NotifyChange@FObjectsItem@@UAEXXZ @ 679
?NotifyChange@FTreeItem@@UAEXXZ @ 680
?OnActivate@WProperties@@UAEXH@Z @ 681
?OnActivate@WWindow@@UAEXH@Z @ 682
?OnArrayAdd@FPropertyItem@@QAEXXZ @ 683
?OnArrayDelete@FPropertyItem@@QAEXXZ @ 684
?OnArrayEmpty@FPropertyItem@@QAEXXZ @ 685
?OnArrayInsert@FPropertyItem@@QAEXXZ @ 686
?OnBack@WWizardDialog@@UAEXXZ @ 687
?OnBrowseButton@FPropertyItem@@QAEXXZ @ 688
?OnBugReport@WCrashBoxDialog@@QAEXXZ @ 689
?OnCancel@WWizardDialog@@UAEXXZ @ 690
?OnCancel@WWizardPage@@UAEXXZ @ 691
?OnChar@WEditTerminal@@UAEXG@Z @ 692
?OnChar@WWindow@@UAEXG@Z @ 693
?OnChooseColorButton@FPropertyItem@@QAEXXZ @ 694
?OnChooseHSLColorButton@FHeaderItem@@QAEXXZ @ 695
?OnClearButton@FPropertyItem@@QAEXXZ @ 696
?OnClick@WUrlButton@@QAEXXZ @ 697
?OnClose@WLog@@UAE_NXZ @ 698
?OnClose@WWindow@@UAE_NXZ @ 699
?OnClose@WWizardDialog@@UAE_NXZ @ 700
?OnCommand@WLog@@UAEXH@Z @ 701
?OnCommand@WWindow@@UAEXH@Z @ 702
?OnCopy@WCrashBoxDialog@@UAEXXZ @ 703
?OnCopy@WWindow@@UAEXXZ @ 704
?OnCopyData@WLog@@UAEXPAUHWND__@@PAUtagCOPYDATASTRUCT@@@Z @ 705
?OnCopyData@WWindow@@UAEXPAUHWND__@@PAUtagCOPYDATASTRUCT@@@Z @ 706
?OnCreate@WCheckBox@@UAEXXZ @ 707
?OnCreate@WLog@@UAEXXZ @ 708
?OnCreate@WPropertySheet@@UAEXXZ @ 709
?OnCreate@WTerminal@@UAEXXZ @ 710
?OnCreate@WWindow@@UAEXXZ @ 711
?OnCurrent@WWizardPage@@UAEXXZ @ 712
?OnCut@WWindow@@UAEXXZ @ 713
?OnDestroy@WBitmapButton@@UAEXXZ @ 714
?OnDestroy@WCheckListBox@@UAEXXZ @ 715
?OnDestroy@WCoolButton@@UAEXXZ @ 716
?OnDestroy@WLog@@UAEXXZ @ 717
?OnDestroy@WPictureButton@@UAEXXZ @ 718
?OnDestroy@WProperties@@UAEXXZ @ 719
?OnDestroy@WSplitterContainer@@UAEXXZ @ 720
?OnDestroy@WThinScrollBar@@UAEXXZ @ 721
?OnDestroy@WTimeScrollBar@@UAEXXZ @ 722
?OnDestroy@WWindow@@UAEXXZ @ 723
?OnDestroy@WWizardDialog@@UAEXXZ @ 724
?OnDrawItem@WBitmapButton@@UAEXPAUtagDRAWITEMSTRUCT@@@Z @ 725
?OnDrawItem@WButton@@UAEXPAUtagDRAWITEMSTRUCT@@@Z @ 726
?OnDrawItem@WCheckListBox@@UAEXPAUtagDRAWITEMSTRUCT@@@Z @ 727
?OnDrawItem@WColorButton@@UAEXPAUtagDRAWITEMSTRUCT@@@Z @ 728
?OnDrawItem@WItemBox@@UAEXPAUtagDRAWITEMSTRUCT@@@Z @ 729
?OnDrawItem@WWindow@@UAEXPAUtagDRAWITEMSTRUCT@@@Z @ 730
?OnEnterIdle@WWindow@@UAEXXZ @ 731
?OnEraseBkgnd@WItemBox@@UAEHXZ @ 732
?OnEraseBkgnd@WWindow@@UAEHXZ @ 733
?OnFindButton@FPropertyItem@@QAEXXZ @ 734
?OnFinish@WWizardDialog@@UAEXXZ @ 735
?OnFinishSplitterDrag@WProperties@@UAEXPAVWDragInterceptor@@H@Z @ 736
?OnFinishSplitterDrag@WWindow@@UAEXPAVWDragInterceptor@@H@Z @ 737
?OnHScroll@WWindow@@UAEXIJ@Z @ 738
?OnInitDialog@WCrashBoxDialog@@UAEXXZ @ 739
?OnInitDialog@WDialog@@UAEXXZ @ 740
?OnInitDialog@WWindow@@UAEXXZ @ 741
?OnInitDialog@WWizardDialog@@UAEXXZ @ 742
?OnItemDoubleClick@FPropertyItem@@UAEXXZ @ 743
?OnItemDoubleClick@FTreeItem@@UAEXXZ @ 744
?OnItemHelp@FTreeItem@@UAEXXZ @ 745
?OnItemKillFocus@FHeaderItem@@UAEXH@Z @ 746
?OnItemKillFocus@FNewObjectItem@@UAEXH@Z @ 747
?OnItemKillFocus@FPropertyItem@@UAEXH@Z @ 748
?OnItemKillFocus@FTreeItem@@UAEXH@Z @ 749
?OnItemLeftMouseDown@FPropertyItem@@UAEXUFPoint@@@Z @ 750
?OnItemLeftMouseDown@FTreeItem@@UAEXUFPoint@@@Z @ 751
?OnItemRightMouseDown@FTreeItem@@UAEXUFPoint@@@Z @ 752
?OnItemSetFocus@FHeaderItem@@UAEXXZ @ 753
?OnItemSetFocus@FNewObjectItem@@UAEXXZ @ 754
?OnItemSetFocus@FObjectConfigItem@@UAEXXZ @ 755
?OnItemSetFocus@FPropertyItem@@UAEXXZ @ 756
?OnItemSetFocus@FTreeItem@@UAEXXZ @ 757
?OnKeyDown@WDragInterceptor@@UAEXG@Z @ 758
?OnKeyDown@WUDNWindow@@UAEXG@Z @ 759
?OnKeyDown@WWindow@@UAEXG@Z @ 760
?OnKeyUp@WWindow@@UAEXIJ@Z @ 761
?OnKillFocus@WWindow@@UAEXPAUHWND__@@@Z @ 762
?OnLeftButtonDoubleClick@WThinScrollBar@@UAEXXZ @ 763
?OnLeftButtonDoubleClick@WTimeScrollBar@@UAEXXZ @ 764
?OnLeftButtonDoubleClick@WWindow@@UAEXXZ @ 765
?OnLeftButtonDown@WCheckListBox@@UAEXXZ @ 766
?OnLeftButtonDown@WPictureButton@@UAEXXZ @ 767
?OnLeftButtonDown@WSplitter@@UAEXXZ @ 768
?OnLeftButtonDown@WThinScrollBar@@UAEXXZ @ 769
?OnLeftButtonDown@WTimeScrollBar@@UAEXXZ @ 770
?OnLeftButtonDown@WUDNWindow@@UAEXXZ @ 771
?OnLeftButtonDown@WWindow@@UAEXXZ @ 772
?OnLeftButtonUp@WDragInterceptor@@UAEXXZ @ 773
?OnLeftButtonUp@WSplitter@@UAEXXZ @ 774
?OnLeftButtonUp@WThinScrollBar@@UAEXXZ @ 775
?OnLeftButtonUp@WTimeScrollBar@@UAEXXZ @ 776
?OnLeftButtonUp@WWindow@@UAEXXZ @ 777
?OnListDoubleClick@WProperties@@QAEXXZ @ 778
?OnListSelectionChange@WProperties@@QAEXXZ @ 779
?OnMdiActivate@WWindow@@UAEXH@Z @ 780
?OnMeasureItem@WItemBox@@UAEXPAUtagMEASUREITEMSTRUCT@@@Z @ 781
?OnMeasureItem@WWindow@@UAEXPAUtagMEASUREITEMSTRUCT@@@Z @ 782
?OnMiddleButtonDoubleClick@WWindow@@UAEXXZ @ 783
?OnMouseEnter@WWindow@@UAEXXZ @ 784
?OnMouseHover@WWindow@@UAEXXZ @ 785
?OnMouseLeave@WWindow@@UAEXXZ @ 786
?OnMouseMove@WDragInterceptor@@UAEXKUFPoint@@@Z @ 787
?OnMouseMove@WSplitter@@UAEXKUFPoint@@@Z @ 788
?OnMouseMove@WThinScrollBar@@UAEXKUFPoint@@@Z @ 789
?OnMouseMove@WTimeScrollBar@@UAEXKUFPoint@@@Z @ 790
?OnMouseMove@WUDNWindow@@UAEXKUFPoint@@@Z @ 791
?OnMouseMove@WWindow@@UAEXKUFPoint@@@Z @ 792
?OnMove@WWindow@@UAEXHH@Z @ 793
?OnNew@FNewObjectItem@@QAEXXZ @ 794
?OnNext@WWizardDialog@@UAEXXZ @ 795
?OnPaint@WCustomLabel@@UAEXXZ @ 796
?OnPaint@WPictureButton@@UAEXXZ @ 797
?OnPaint@WProperties@@UAEXXZ @ 798
?OnPaint@WSplitter@@UAEXXZ @ 799
?OnPaint@WSplitterContainer@@UAEXXZ @ 800
?OnPaint@WSplitterPane@@UAEXXZ @ 801
?OnPaint@WThinScrollBar@@UAEXXZ @ 802
?OnPaint@WTimeScrollBar@@UAEXXZ @ 803
?OnPaint@WWindow@@UAEXXZ @ 804
?OnPaste@WEditTerminal@@UAEXXZ @ 805
?OnPaste@WWindow@@UAEXXZ @ 806
?OnPickColorButton@FHeaderItem@@QAEXXZ @ 807
?OnPickColorButton@FPropertyItem@@QAEXXZ @ 808
?OnPreviewPostEffect@FPropertyItem@@QAEXXZ @ 809
?OnReleaseCapture@WDragInterceptor@@UAEXXZ @ 810
?OnReleaseCapture@WWindow@@UAEXXZ @ 811
?OnResetToDefaultsButton@FObjectConfigItem@@QAEXXZ @ 812
?OnRightButtonDoubleClick@WWindow@@UAEXXZ @ 813
?OnRightButtonDown@WCheckBox@@UAEXXZ @ 814
?OnRightButtonDown@WEditTerminal@@UAEXXZ @ 815
?OnRightButtonDown@WListBox@@UAEXXZ @ 816
?OnRightButtonDown@WTimeScrollBar@@UAEXXZ @ 817
?OnRightButtonDown@WTreeView@@UAEXXZ @ 818
?OnRightButtonDown@WWindow@@UAEXXZ @ 819
?OnRightButtonUp@WWindow@@UAEXXZ @ 820
?OnSetCursor@FPropertyItem@@UAEHXZ @ 821
?OnSetCursor@FTreeItem@@UAEHXZ @ 822
?OnSetCursor@WProperties@@UAEHXZ @ 823
?OnSetCursor@WSplitter@@UAEHXZ @ 824
?OnSetCursor@WThinScrollBar@@UAEHXZ @ 825
?OnSetCursor@WTimeScrollBar@@UAEHXZ @ 826
?OnSetCursor@WWindow@@UAEHXZ @ 827
?OnSetFocus@WTerminal@@UAEXPAUHWND__@@@Z @ 828
?OnSetFocus@WWindow@@UAEXPAUHWND__@@@Z @ 829
?OnShowWindow@WLog@@UAEXH@Z @ 830
?OnShowWindow@WTerminal@@UAEXH@Z @ 831
?OnShowWindow@WWindow@@UAEXH@Z @ 832
?OnSize@WPictureButton@@UAEXKHH@Z @ 833
?OnSize@WProperties@@UAEXKHH@Z @ 834
?OnSize@WPropertySheet@@UAEXKHH@Z @ 835
?OnSize@WSplitterContainer@@UAEXKHH@Z @ 836
?OnSize@WTerminal@@UAEXKHH@Z @ 837
?OnSize@WWindow@@UAEXKHH@Z @ 838
?OnSysCommand@WWindow@@UAEHH@Z @ 839
?OnTabsSelChange@WPropertySheet@@QAEXXZ @ 840
?OnTimer@WWindow@@UAEXXZ @ 841
?OnTrackBarThumbPosition@FPropertyItem@@QAEXXZ @ 842
?OnTrackBarThumbTrack@FPropertyItem@@QAEXXZ @ 843
?OnUndo@WEditTerminal@@UAEXXZ @ 844
?OnUndo@WWindow@@UAEXXZ @ 845
?OnUseCurrentButton@FPropertyItem@@QAEXXZ @ 846
?OnVScroll@WWindow@@UAEXIJ@Z @ 847
?OnWindowPosChanging@WWindow@@UAEXPAH000@Z @ 848
?OpenChildWindow@WDialog@@QAEXHH@Z @ 849
?OpenChildWindow@WProperties@@QAEXH@Z @ 850
?OpenWindow@WBitmapButton@@QAEXHKKPAUHBITMAP__@@UFRect@@11@Z @ 851
?OpenWindow@WButton@@QAEXHHHHHPBGHK@Z @ 852
?OpenWindow@WCheckBox@@QAEXHHHHHPBGHHK@Z @ 853
?OpenWindow@WCheckListBox@@QAEXHHHHK@Z @ 854
?OpenWindow@WColorButton@@QAEXHK@Z @ 855
?OpenWindow@WComboBox@@QAEXHHI@Z @ 856
?OpenWindow@WCoolButton@@QAEXHHHHHPBG@Z @ 857
?OpenWindow@WDragInterceptor@@UAEXXZ @ 858
?OpenWindow@WEdit@@QAEXHHHHH@Z @ 859
?OpenWindow@WGroupBox@@QAEXHK@Z @ 860
?OpenWindow@WLabel@@QAEXHHK@Z @ 861
?OpenWindow@WListBox@@QAEXHHHHHK@Z @ 862
?OpenWindow@WListView@@QAEXHK@Z @ 863
?OpenWindow@WLog@@QAEXHH@Z @ 864
?OpenWindow@WPictureButton@@QAEXXZ @ 865
?OpenWindow@WProgressBar@@QAEXH@Z @ 866
?OpenWindow@WProperties@@QAEXPAUHWND__@@@Z @ 867
?OpenWindow@WPropertyPage@@UAEXHPAUHINSTANCE__@@@Z @ 868
?OpenWindow@WPropertySheet@@QAEXHHK@Z @ 869
?OpenWindow@WRichEdit@@QAEXHH@Z @ 870
?OpenWindow@WScrollBar@@QAEXHHHHHH@Z @ 871
?OpenWindow@WSplitter@@QAEXH@Z @ 872
?OpenWindow@WSplitterContainer@@UAEXH@Z @ 873
?OpenWindow@WSplitterPane@@QAEXXZ @ 874
?OpenWindow@WTabControl@@QAEXHK@Z @ 875
?OpenWindow@WTerminal@@QAEXHH@Z @ 876
?OpenWindow@WThinScrollBar@@QAEXHHHH@Z @ 877
?OpenWindow@WTimeScrollBar@@QAEXHHH@Z @ 878
?OpenWindow@WToolTip@@QAEXXZ @ 879
?OpenWindow@WTrackBar@@QAEXHH@Z @ 880
?OpenWindow@WTreeView@@QAEXHHHHHK@Z @ 881
?OpenWindow@WUDNWindow@@QAEXXZ @ 882
?Paste@WTerminal@@UAEXXZ @ 883
?PerformCreateWindowEx@WWindow@@QAEXKPBGKHHHHPAUHWND__@@PAUHMENU__@@PAUHINSTANCE__@@@Z @ 884
?PlaceControl@WPropertyPage@@QAEXPAVWControl@@@Z @ 885
?PositionPanes@WSplitterContainer@@QAEXXZ @ 886
?PositionSplitter@WSplitter@@QAEXXZ @ 887
?PropertiesWindows@WProperties@@2V?$TArray@PAVWProperties@@@@A @ 888
?ReceiveFromControl@FPropertyItem@@UAEXXZ @ 889
?Redraw@FTreeItem@@UAEXXZ @ 890
?Refresh@WPropertyPage@@UAEXXZ @ 891
?RefreshControls@FContainer@@QAEXXZ @ 892
?RefreshPage@WWizardDialog@@UAEXXZ @ 893
?RefreshPages@WPropertySheet@@QAEXXZ @ 894
?RegisterWindowClass@WControl@@SAP6GJPAUHWND__@@IIJ@ZPBG1@Z @ 895
?RegisterWindowClass@WWindow@@SAP6GJPAUHWND__@@IIJ@ZPBGK@Z @ 896
?Release@WUDNWindow@@QAEXXZ @ 897
?ResizeList@WProperties@@UAEXXZ @ 898
?ResizeWindow@WWindow@@QAEXHHH@Z @ 899
?Restore@FWaitCursor@@QAEXXZ @ 900
?SHGetSpecialFolderPathWX@@3P6GHPAUHWND__@@PAGHH@ZA @ 901
?SaveWindowPos@WWindow@@QAEXXZ @ 902
?ScreenToClient@WWindow@@QAE?AUFPoint@@ABU2@@Z @ 903
?ScreenToClient@WWindow@@QAE?AUFRect@@ABU2@@Z @ 904
?ScrollCaret@WEdit@@QAEXXZ @ 905
?SelectTyping@WTerminal@@QAEXXZ @ 906
?SendToControl@FPropertyItem@@UAEXXZ @ 907
?Serialize@FCategoryItem@@UAEXAAVFArchive@@@Z @ 908
?Serialize@FObjectConfigItem@@UAEXAAVFArchive@@@Z @ 909
?Serialize@FObjectsItem@@UAEXAAVFArchive@@@Z @ 910
?Serialize@FPropertyItem@@UAEXAAVFArchive@@@Z @ 911
?Serialize@FPropertyItemBase@@UAEXAAVFArchive@@@Z @ 912
?Serialize@FTreeItem@@UAEXAAVFArchive@@@Z @ 913
?Serialize@WProperties@@UAEXAAVFArchive@@@Z @ 914
?Serialize@WTerminal@@UAEXPBGW4EName@@@Z @ 915
?Serialize@WWindow@@UAEXAAVFArchive@@@Z @ 916
?SetAnchors@FContainer@@QAEXPAV?$TMap@KVFWindowAnchor@@@@@Z @ 917
?SetBitmap@WButton@@QAEXPAUHBITMAP__@@@Z @ 918
?SetCheck@WButton@@QAEXH@Z @ 919
?SetColor@WColorButton@@QAEXHHH@Z @ 920
?SetCurrent@WComboBox@@UAEXH@Z @ 921
?SetCurrent@WComboBox@@UAEXPBG@Z @ 922
?SetCurrent@WListBox@@QAEHHH@Z @ 923
?SetCurrent@WPropertySheet@@QAEHH@Z @ 924
?SetCurrent@WPropertySheet@@QAEHPAVWPropertyPage@@@Z @ 925
?SetCurrent@WTabControl@@QAEHH@Z @ 926
?SetExec@WTerminal@@QAEXPAVFExec@@@Z @ 927
?SetFocusToItem@FPropertyItem@@UAEXXZ @ 928
?SetFocusToItem@FTreeItem@@UAEXXZ @ 929
?SetFont@WWindow@@QAEXPAUHFONT__@@@Z @ 930
?SetItemData@WListBox@@QAEXHH@Z @ 931
?SetItemData@WListBox@@QAEXHPAX@Z @ 932
?SetItemFocus@WProperties@@UAEXH@Z @ 933
?SetModify@WEdit@@QAEXH@Z @ 934
?SetNotifyHook@WWindow@@QAEXPAVFNotifyHook@@@Z @ 935
?SetObjects@FObjectsItem@@UAEXPAPAVUObject@@H@Z @ 936
?SetPct@WSplitterContainer@@QAEXM@Z @ 937
?SetPct@WTimeScrollBar@@QAEXM@Z @ 938
?SetPos@WThinScrollBar@@QAEXHM@Z @ 939
?SetPos@WTimeScrollBar@@QAEXH@Z @ 940
?SetPos@WTrackBar@@QAEXH@Z @ 941
?SetProgress@WProgressBar@@QAEX_J0@Z @ 942
?SetProperty@FClassItem@@UAEXPAVFPropertyItem@@PBG@Z @ 943
?SetProperty@FObjectConfigItem@@UAEXPAVFPropertyItem@@PBG@Z @ 944
?SetProperty@FObjectsItem@@UAEXPAVFPropertyItem@@PBG@Z @ 945
?SetProperty@FTreeItem@@UAEXPAVFPropertyItem@@PBG@Z @ 946
?SetRange@WThinScrollBar@@QAEXH@Z @ 947
?SetRange@WTimeScrollBar@@QAEXH@Z @ 948
?SetRange@WTrackBar@@QAEXHH@Z @ 949
?SetReadOnly@WEdit@@QAEXH@Z @ 950
?SetReadOnly@WRichEdit@@QAEXH@Z @ 951
?SetRedraw@WWindow@@QAEXH@Z @ 952
?SetSelected@FTreeItem@@UAEXH@Z @ 953
?SetSelectedText@WEdit@@QAEXPBG@Z @ 954
?SetSelection@WEdit@@QAEXHH@Z @ 955
?SetText@WLog@@UAEXPBG@Z @ 956
?SetText@WWindow@@UAEXPBG@Z @ 957
?SetTextLimit@WRichEdit@@QAEXH@Z @ 958
?SetTicFreq@WTrackBar@@QAEXH@Z @ 959
?SetTicks@WTrackBar@@QAEXPAHH@Z @ 960
?SetTop@WListBox@@QAEXH@Z @ 961
?SetUp@WPictureButton@@QAEXVFString@@HHHHHPAUHBITMAP__@@HHHH1HHHH@Z @ 962
?SetValue@FHeaderItem@@UAEXPBG@Z @ 963
?SetValue@FPropertyItem@@UAEXPBG@Z @ 964
?SetValue@FTreeItem@@UAEXPBG@Z @ 965
?SetValue@WProperties@@UAEXPBG@Z @ 966
?SetVisibleText@WButton@@QAEXPBG@Z @ 967
?Shell_NotifyIconWX@@3P6GHKPAU_NOTIFYICONDATAW@@@ZA @ 968
?Show@WDialog@@UAEXH@Z @ 969
?Show@WObjectProperties@@UAEXH@Z @ 970
?Show@WWindow@@UAEXH@Z @ 971
?SnoopChar@FControlSnoop@@UAEXPAVWWindow@@H@Z @ 972
?SnoopChar@FPropertyItem@@UAEXPAVWWindow@@H@Z @ 973
?SnoopChar@FTreeItem@@UAEXPAVWWindow@@H@Z @ 974
?SnoopChar@WProperties@@UAEXPAVWWindow@@H@Z @ 975
?SnoopKeyDown@FControlSnoop@@UAEXPAVWWindow@@H@Z @ 976
?SnoopKeyDown@FTreeItem@@UAEXPAVWWindow@@H@Z @ 977
?SnoopKeyDown@WProperties@@UAEXPAVWWindow@@H@Z @ 978
?SnoopLeftMouseDown@FControlSnoop@@UAEXPAVWWindow@@UFPoint@@@Z @ 979
?SnoopLeftMouseDown@WProperties@@UAEXPAVWWindow@@UFPoint@@@Z @ 980
?SnoopRightMouseDown@FControlSnoop@@UAEXPAVWWindow@@UFPoint@@@Z @ 981
?SnoopRightMouseDown@WProperties@@UAEXPAVWWindow@@UFPoint@@@Z @ 982
?StaticDlgProc@WWindow@@SGHPAUHWND__@@IIJ@Z @ 983
?StaticWndProc@WWindow@@SGJPAUHWND__@@IIJ@Z @ 984
?StreamTextIn@WRichEdit@@QAEXPADH@Z @ 985
?StreamTextOut@WRichEdit@@QAEXPADH@Z @ 986
?SubEval@FObjectsItem@@QAEHPAVFString@@PAMH@Z @ 987
?SuperProc@WBitmapButton@@2P6GJPAUHWND__@@IIJ@ZA @ 988
?SuperProc@WButton@@2P6GJPAUHWND__@@IIJ@ZA @ 989
?SuperProc@WCheckBox@@2P6GJPAUHWND__@@IIJ@ZA @ 990
?SuperProc@WCheckListBox@@2P6GJPAUHWND__@@IIJ@ZA @ 991
?SuperProc@WColorButton@@2P6GJPAUHWND__@@IIJ@ZA @ 992
?SuperProc@WComboBox@@2P6GJPAUHWND__@@IIJ@ZA @ 993
?SuperProc@WCoolButton@@2P6GJPAUHWND__@@IIJ@ZA @ 994
?SuperProc@WCustomLabel@@2P6GJPAUHWND__@@IIJ@ZA @ 995
?SuperProc@WEdit@@2P6GJPAUHWND__@@IIJ@ZA @ 996
?SuperProc@WGroupBox@@2P6GJPAUHWND__@@IIJ@ZA @ 997
?SuperProc@WLabel@@2P6GJPAUHWND__@@IIJ@ZA @ 998
?SuperProc@WListBox@@2P6GJPAUHWND__@@IIJ@ZA @ 999
?SuperProc@WListView@@2P6GJPAUHWND__@@IIJ@ZA @ 1000
?SuperProc@WProgressBar@@2P6GJPAUHWND__@@IIJ@ZA @ 1001
?SuperProc@WPropertySheet@@2P6GJPAUHWND__@@IIJ@ZA @ 1002
?SuperProc@WRichEdit@@2P6GJPAUHWND__@@IIJ@ZA @ 1003
?SuperProc@WScrollBar@@2P6GJPAUHWND__@@IIJ@ZA @ 1004
?SuperProc@WTabControl@@2P6GJPAUHWND__@@IIJ@ZA @ 1005
?SuperProc@WToolTip@@2P6GJPAUHWND__@@IIJ@ZA @ 1006
?SuperProc@WTrackBar@@2P6GJPAUHWND__@@IIJ@ZA @ 1007
?SuperProc@WTreeView@@2P6GJPAUHWND__@@IIJ@ZA @ 1008
?SuperProc@WUrlButton@@2P6GJPAUHWND__@@IIJ@ZA @ 1009
?ToHSL@FHeaderItem@@QAE?AVFVector@@V2@@Z @ 1010
?ToggleDraw@WDragInterceptor@@UAEXPAUHDC__@@@Z @ 1011
?ToggleExpansion@FTreeItem@@UAEXXZ @ 1012
?TypeChar@WTerminal@@UAEXG@Z @ 1013
?Unused@FCommandTarget@@UAEXXZ @ 1014
?UpdateTyping@WTerminal@@QAEXXZ @ 1015
?Val@FObjectsItem@@QAEMVFString@@@Z @ 1016
?VerifyPosition@WWindow@@QAEXXZ @ 1017
?WindowMessageMouseWheel@@3IA @ 1018
?WindowMessageOpen@@3IA @ 1019
?WndProc@WComboBox@@UAEJIIJ@Z @ 1020
?WndProc@WLog@@UAEJIIJ@Z @ 1021
?WndProc@WWindow@@UAEJIIJ@Z @ 1022
?_CloseWindow@WWindow@@QAEXXZ @ 1023
?_DeleteWindows@WWindow@@2V?$TArray@PAVWWindow@@@@A @ 1024
?_Windows@WWindow@@2V?$TArray@PAVWWindow@@@@A @ 1025
?__FUNC_NAME__@?2???0FPropertyItem@@QAE@PAVWPropertiesBase@@PAVFTreeItem@@PAVUProperty@@VFName@@HHH@Z@4QBGB @ 1026
?__FUNC_NAME__@?2???0WProperties@@QAE@VFName@@PAVWWindow@@@Z@4QBGB @ 1027
?__FUNC_NAME__@?2???1FTreeItem@@UAE@XZ@4QBGB @ 1028
?__FUNC_NAME__@?2??LoadLocalizedMenu@@YAPAUHMENU__@@PAUHINSTANCE__@@HPBG1@Z@4QBGB @ 1029
?hBrushBlack@@3PAUHBRUSH__@@A @ 1030
?hBrushCurrent@@3PAUHBRUSH__@@A @ 1031
?hBrushCyanHighlight@@3PAUHBRUSH__@@A @ 1032
?hBrushCyanLow@@3PAUHBRUSH__@@A @ 1033
?hBrushDark@@3PAUHBRUSH__@@A @ 1034
?hBrushDarkGrey@@3PAUHBRUSH__@@A @ 1035
?hBrushGrey160@@3PAUHBRUSH__@@A @ 1036
?hBrushGrey180@@3PAUHBRUSH__@@A @ 1037
?hBrushGrey197@@3PAUHBRUSH__@@A @ 1038
?hBrushGrey@@3PAUHBRUSH__@@A @ 1039
?hBrushGreyWindow@@3PAUHBRUSH__@@A @ 1040
?hBrushHeadline@@3PAUHBRUSH__@@A @ 1041
?hBrushOffWhite@@3PAUHBRUSH__@@A @ 1042
?hBrushWhite@@3PAUHBRUSH__@@A @ 1043
?hFontHeadline@@3PAUHFONT__@@A @ 1044
?hFontText@@3PAUHFONT__@@A @ 1045
?hFontUrl@@3PAUHFONT__@@A @ 1046
?hInstanceWindow@@3PAUHINSTANCE__@@A @ 1047
GPackage @ 1049
_DllMain@12 @ 1048
autoclassUWindowManager @ 1050
