LIBRARY XInterface.dll

EXPORTS
??0AHudBase@@QAE@ABV0@@Z @ 1
??0AHudBase@@QAE@XZ @ 2
??0AwHudPart_KillMessage@@QAE@ABV0@@Z @ 3
??0AwHudPart_KillMessage@@QAE@XZ @ 4
??0FAutoLoadMenu@@QAE@ABU0@@Z @ 5
??0FAutoLoadMenu@@QAE@XZ @ 6
??0FDesignModeHint@@QAE@ABU0@@Z @ 7
??0FDesignModeHint@@QAE@XZ @ 8
??0FGUIListElem@@QAE@ABU0@@Z @ 9
??0FGUIListElem@@QAE@XZ @ 10
??0FGUITreeNode@@QAE@ABU0@@Z @ 11
??0FGUITreeNode@@QAE@XZ @ 12
??0FHudLocalizedMessage@@QAE@ABU0@@Z @ 13
??0FHudLocalizedMessage@@QAE@XZ @ 14
??0FKillMessageItem@@QAE@ABU0@@Z @ 15
??0FKillMessageItem@@QAE@XZ @ 16
??0FMultiColumnSortData@@QAE@ABU0@@Z @ 17
??0FMultiColumnSortData@@QAE@HPBG@Z @ 18
??0FMultiSelectListElem@@QAE@ABU0@@Z @ 19
??0FMultiSelectListElem@@QAE@XZ @ 20
??0FProfileStruct@@QAE@ABU0@@Z @ 21
??0FProfileStruct@@QAE@XZ @ 22
??0FRestoreMenuItem@@QAE@ABU0@@Z @ 23
??0FRestoreMenuItem@@QAE@XZ @ 24
??0FTimerData@@QAE@XZ @ 25
??0FeOwnageMap@@QAE@ABU0@@Z @ 26
??0FeOwnageMap@@QAE@XZ @ 27
??0UBTTcpHandler_DS_Script@@IAE@XZ @ 28
??0UBTTcpHandler_DS_Script@@QAE@ABV0@@Z @ 29
??0UCoolImage@@QAE@ABV0@@Z @ 30
??0UCoolImage@@QAE@XZ @ 31
??0UGUI@@QAE@ABV0@@Z @ 32
??0UGUI@@QAE@XZ @ 33
??0UGUIBorder@@QAE@ABV0@@Z @ 34
??0UGUIBorder@@QAE@XZ @ 35
??0UGUIButton@@QAE@ABV0@@Z @ 36
??0UGUIButton@@QAE@XZ @ 37
??0UGUICharacterList@@QAE@ABV0@@Z @ 38
??0UGUICharacterList@@QAE@XZ @ 39
??0UGUICheckBoxButton@@QAE@ABV0@@Z @ 40
??0UGUICheckBoxButton@@QAE@XZ @ 41
??0UGUICircularImageList@@QAE@ABV0@@Z @ 42
??0UGUICircularImageList@@QAE@XZ @ 43
??0UGUICircularList@@QAE@ABV0@@Z @ 44
??0UGUICircularList@@QAE@XZ @ 45
??0UGUIComboBox@@QAE@ABV0@@Z @ 46
??0UGUIComboBox@@QAE@XZ @ 47
??0UGUIComponent@@QAE@ABV0@@Z @ 48
??0UGUIComponent@@QAE@XZ @ 49
??0UGUIContextMenu@@QAE@ABV0@@Z @ 50
??0UGUIContextMenu@@QAE@XZ @ 51
??0UGUIController@@QAE@ABV0@@Z @ 52
??0UGUIController@@QAE@XZ @ 53
??0UGUIEditBox@@QAE@ABV0@@Z @ 54
??0UGUIEditBox@@QAE@XZ @ 55
??0UGUIFloatEdit@@QAE@ABV0@@Z @ 56
??0UGUIFloatEdit@@QAE@XZ @ 57
??0UGUIFont@@IAE@XZ @ 58
??0UGUIFont@@QAE@ABV0@@Z @ 59
??0UGUIGFXButton@@QAE@ABV0@@Z @ 60
??0UGUIGFXButton@@QAE@XZ @ 61
??0UGUIGripButtonBase@@IAE@XZ @ 62
??0UGUIGripButtonBase@@QAE@ABV0@@Z @ 63
??0UGUIHorzList@@QAE@ABV0@@Z @ 64
??0UGUIHorzList@@QAE@XZ @ 65
??0UGUIImage@@QAE@ABV0@@Z @ 66
??0UGUIImage@@QAE@XZ @ 67
??0UGUILabel@@QAE@ABV0@@Z @ 68
??0UGUILabel@@QAE@XZ @ 69
??0UGUIList@@QAE@ABV0@@Z @ 70
??0UGUIList@@QAE@XZ @ 71
??0UGUIListBase@@QAE@ABV0@@Z @ 72
??0UGUIListBase@@QAE@XZ @ 73
??0UGUIListBox@@IAE@XZ @ 74
??0UGUIListBox@@QAE@ABV0@@Z @ 75
??0UGUIListBoxBase@@QAE@ABV0@@Z @ 76
??0UGUIListBoxBase@@QAE@XZ @ 77
??0UGUIMenuOption@@QAE@ABV0@@Z @ 78
??0UGUIMenuOption@@QAE@XZ @ 79
??0UGUIMultiColumnList@@QAE@ABV0@@Z @ 80
??0UGUIMultiColumnList@@QAE@XZ @ 81
??0UGUIMultiColumnListBox@@QAE@ABV0@@Z @ 82
??0UGUIMultiColumnListBox@@QAE@XZ @ 83
??0UGUIMultiColumnListDerived@@QAE@ABV0@@Z @ 84
??0UGUIMultiColumnListDerived@@QAE@XZ @ 85
??0UGUIMultiColumnListHeader@@QAE@ABV0@@Z @ 86
??0UGUIMultiColumnListHeader@@QAE@XZ @ 87
??0UGUIMultiComponent@@QAE@ABV0@@Z @ 88
??0UGUIMultiComponent@@QAE@XZ @ 89
??0UGUIMultiOptionList@@QAE@ABV0@@Z @ 90
??0UGUIMultiOptionList@@QAE@XZ @ 91
??0UGUINumericEdit@@QAE@ABV0@@Z @ 92
??0UGUINumericEdit@@QAE@XZ @ 93
??0UGUIPage@@QAE@ABV0@@Z @ 94
??0UGUIPage@@QAE@XZ @ 95
??0UGUIPanel@@QAE@ABV0@@Z @ 96
??0UGUIPanel@@QAE@XZ @ 97
??0UGUIProgressBar@@QAE@ABV0@@Z @ 98
??0UGUIProgressBar@@QAE@XZ @ 99
??0UGUIScrollBarBase@@QAE@ABV0@@Z @ 100
??0UGUIScrollBarBase@@QAE@XZ @ 101
??0UGUIScrollButtonBase@@IAE@XZ @ 102
??0UGUIScrollButtonBase@@QAE@ABV0@@Z @ 103
??0UGUIScrollText@@QAE@ABV0@@Z @ 104
??0UGUIScrollText@@QAE@XZ @ 105
??0UGUIScrollTextBox@@IAE@XZ @ 106
??0UGUIScrollTextBox@@QAE@ABV0@@Z @ 107
??0UGUIScrollZoneBase@@QAE@ABV0@@Z @ 108
??0UGUIScrollZoneBase@@QAE@XZ @ 109
??0UGUISectionBackground@@QAE@ABV0@@Z @ 110
??0UGUISectionBackground@@QAE@XZ @ 111
??0UGUISlider@@QAE@ABV0@@Z @ 112
??0UGUISlider@@QAE@XZ @ 113
??0UGUISpinnerButton@@QAE@ABV0@@Z @ 114
??0UGUISpinnerButton@@QAE@XZ @ 115
??0UGUISplitter@@QAE@ABV0@@Z @ 116
??0UGUISplitter@@QAE@XZ @ 117
??0UGUIStyles@@QAE@ABV0@@Z @ 118
??0UGUIStyles@@QAE@XZ @ 119
??0UGUITabButton@@QAE@ABV0@@Z @ 120
??0UGUITabButton@@QAE@XZ @ 121
??0UGUITabControl@@QAE@ABV0@@Z @ 122
??0UGUITabControl@@QAE@XZ @ 123
??0UGUITabPanel@@IAE@XZ @ 124
??0UGUITabPanel@@QAE@ABV0@@Z @ 125
??0UGUITitleBar@@QAE@ABV0@@Z @ 126
??0UGUITitleBar@@QAE@XZ @ 127
??0UGUIToolTip@@QAE@ABV0@@Z @ 128
??0UGUIToolTip@@QAE@XZ @ 129
??0UGUITreeList@@QAE@ABV0@@Z @ 130
??0UGUITreeList@@QAE@XZ @ 131
??0UGUITreeListBox@@QAE@ABV0@@Z @ 132
??0UGUITreeListBox@@QAE@XZ @ 133
??0UGUIVertImageList@@QAE@ABV0@@Z @ 134
??0UGUIVertImageList@@QAE@XZ @ 135
??0UGUIVertList@@QAE@ABV0@@Z @ 136
??0UGUIVertList@@QAE@XZ @ 137
??0UMultiSelectList@@QAE@ABV0@@Z @ 138
??0UMultiSelectList@@QAE@XZ @ 139
??0UPropertyManagerBase@@QAE@ABV0@@Z @ 140
??0UPropertyManagerBase@@QAE@XZ @ 141
??0UStateButton@@QAE@ABV0@@Z @ 142
??0UStateButton@@QAE@XZ @ 143
??1AHudBase@@UAE@XZ @ 144
??1AwHudPart_KillMessage@@UAE@XZ @ 145
??1FAutoLoadMenu@@QAE@XZ @ 146
??1FDesignModeHint@@QAE@XZ @ 147
??1FGUIListElem@@QAE@XZ @ 148
??1FGUITreeNode@@QAE@XZ @ 149
??1FHudLocalizedMessage@@QAE@XZ @ 150
??1FKillMessageItem@@QAE@XZ @ 151
??1FMultiColumnSortData@@QAE@XZ @ 152
??1FMultiSelectListElem@@QAE@XZ @ 153
??1FProfileStruct@@QAE@XZ @ 154
??1FRestoreMenuItem@@QAE@XZ @ 155
??1FeOwnageMap@@QAE@XZ @ 156
??1UBTTcpHandler_DS_Script@@UAE@XZ @ 157
??1UCoolImage@@UAE@XZ @ 158
??1UGUI@@UAE@XZ @ 159
??1UGUIBorder@@UAE@XZ @ 160
??1UGUIButton@@UAE@XZ @ 161
??1UGUICharacterList@@UAE@XZ @ 162
??1UGUICheckBoxButton@@UAE@XZ @ 163
??1UGUICircularImageList@@UAE@XZ @ 164
??1UGUICircularList@@UAE@XZ @ 165
??1UGUIComboBox@@UAE@XZ @ 166
??1UGUIComponent@@UAE@XZ @ 167
??1UGUIContextMenu@@UAE@XZ @ 168
??1UGUIController@@UAE@XZ @ 169
??1UGUIEditBox@@UAE@XZ @ 170
??1UGUIFloatEdit@@UAE@XZ @ 171
??1UGUIFont@@UAE@XZ @ 172
??1UGUIGFXButton@@UAE@XZ @ 173
??1UGUIGripButtonBase@@UAE@XZ @ 174
??1UGUIHorzList@@UAE@XZ @ 175
??1UGUIImage@@UAE@XZ @ 176
??1UGUILabel@@UAE@XZ @ 177
??1UGUIList@@UAE@XZ @ 178
??1UGUIListBase@@UAE@XZ @ 179
??1UGUIListBox@@UAE@XZ @ 180
??1UGUIListBoxBase@@UAE@XZ @ 181
??1UGUIMenuOption@@UAE@XZ @ 182
??1UGUIMultiColumnList@@UAE@XZ @ 183
??1UGUIMultiColumnListBox@@UAE@XZ @ 184
??1UGUIMultiColumnListDerived@@UAE@XZ @ 185
??1UGUIMultiColumnListHeader@@UAE@XZ @ 186
??1UGUIMultiComponent@@UAE@XZ @ 187
??1UGUIMultiOptionList@@UAE@XZ @ 188
??1UGUINumericEdit@@UAE@XZ @ 189
??1UGUIPage@@UAE@XZ @ 190
??1UGUIPanel@@UAE@XZ @ 191
??1UGUIProgressBar@@UAE@XZ @ 192
??1UGUIScrollBarBase@@UAE@XZ @ 193
??1UGUIScrollButtonBase@@UAE@XZ @ 194
??1UGUIScrollText@@UAE@XZ @ 195
??1UGUIScrollTextBox@@UAE@XZ @ 196
??1UGUIScrollZoneBase@@UAE@XZ @ 197
??1UGUISectionBackground@@UAE@XZ @ 198
??1UGUISlider@@UAE@XZ @ 199
??1UGUISpinnerButton@@UAE@XZ @ 200
??1UGUISplitter@@UAE@XZ @ 201
??1UGUIStyles@@UAE@XZ @ 202
??1UGUITabButton@@UAE@XZ @ 203
??1UGUITabControl@@UAE@XZ @ 204
??1UGUITabPanel@@UAE@XZ @ 205
??1UGUITitleBar@@UAE@XZ @ 206
??1UGUIToolTip@@UAE@XZ @ 207
??1UGUITreeList@@UAE@XZ @ 208
??1UGUITreeListBox@@UAE@XZ @ 209
??1UGUIVertImageList@@UAE@XZ @ 210
??1UGUIVertList@@UAE@XZ @ 211
??1UMultiSelectList@@UAE@XZ @ 212
??1UPropertyManagerBase@@UAE@XZ @ 213
??1UStateButton@@UAE@XZ @ 214
??2AHudBase@@SAPAXIPAVUObject@@PAGK@Z @ 215
??2AHudBase@@SAPAXIPAVUObject@@PBGK@Z @ 216
??2AHudBase@@SAPAXIPAVUObject@@VFName@@K@Z @ 217
??2AHudBase@@SAPAXIPAW4EInternal@@@Z @ 218
??2AwHudPart_KillMessage@@SAPAXIPAVUObject@@PAGK@Z @ 219
??2AwHudPart_KillMessage@@SAPAXIPAVUObject@@PBGK@Z @ 220
??2AwHudPart_KillMessage@@SAPAXIPAVUObject@@VFName@@K@Z @ 221
??2AwHudPart_KillMessage@@SAPAXIPAW4EInternal@@@Z @ 222
??2UBTTcpHandler_DS_Script@@SAPAXIPAVUObject@@PAGK@Z @ 223
??2UBTTcpHandler_DS_Script@@SAPAXIPAVUObject@@PBGK@Z @ 224
??2UBTTcpHandler_DS_Script@@SAPAXIPAVUObject@@VFName@@K@Z @ 225
??2UBTTcpHandler_DS_Script@@SAPAXIPAW4EInternal@@@Z @ 226
??2UCoolImage@@SAPAXIPAVUObject@@PAGK@Z @ 227
??2UCoolImage@@SAPAXIPAVUObject@@PBGK@Z @ 228
??2UCoolImage@@SAPAXIPAVUObject@@VFName@@K@Z @ 229
??2UCoolImage@@SAPAXIPAW4EInternal@@@Z @ 230
??2UGUI@@SAPAXIPAVUObject@@PAGK@Z @ 231
??2UGUI@@SAPAXIPAVUObject@@PBGK@Z @ 232
??2UGUI@@SAPAXIPAVUObject@@VFName@@K@Z @ 233
??2UGUI@@SAPAXIPAW4EInternal@@@Z @ 234
??2UGUIBorder@@SAPAXIPAVUObject@@PAGK@Z @ 235
??2UGUIBorder@@SAPAXIPAVUObject@@PBGK@Z @ 236
??2UGUIBorder@@SAPAXIPAVUObject@@VFName@@K@Z @ 237
??2UGUIBorder@@SAPAXIPAW4EInternal@@@Z @ 238
??2UGUIButton@@SAPAXIPAVUObject@@PAGK@Z @ 239
??2UGUIButton@@SAPAXIPAVUObject@@PBGK@Z @ 240
??2UGUIButton@@SAPAXIPAVUObject@@VFName@@K@Z @ 241
??2UGUIButton@@SAPAXIPAW4EInternal@@@Z @ 242
??2UGUICharacterList@@SAPAXIPAVUObject@@PAGK@Z @ 243
??2UGUICharacterList@@SAPAXIPAVUObject@@PBGK@Z @ 244
??2UGUICharacterList@@SAPAXIPAVUObject@@VFName@@K@Z @ 245
??2UGUICharacterList@@SAPAXIPAW4EInternal@@@Z @ 246
??2UGUICheckBoxButton@@SAPAXIPAVUObject@@PAGK@Z @ 247
??2UGUICheckBoxButton@@SAPAXIPAVUObject@@PBGK@Z @ 248
??2UGUICheckBoxButton@@SAPAXIPAVUObject@@VFName@@K@Z @ 249
??2UGUICheckBoxButton@@SAPAXIPAW4EInternal@@@Z @ 250
??2UGUICircularImageList@@SAPAXIPAVUObject@@PAGK@Z @ 251
??2UGUICircularImageList@@SAPAXIPAVUObject@@PBGK@Z @ 252
??2UGUICircularImageList@@SAPAXIPAVUObject@@VFName@@K@Z @ 253
??2UGUICircularImageList@@SAPAXIPAW4EInternal@@@Z @ 254
??2UGUICircularList@@SAPAXIPAVUObject@@PAGK@Z @ 255
??2UGUICircularList@@SAPAXIPAVUObject@@PBGK@Z @ 256
??2UGUICircularList@@SAPAXIPAVUObject@@VFName@@K@Z @ 257
??2UGUICircularList@@SAPAXIPAW4EInternal@@@Z @ 258
??2UGUIComboBox@@SAPAXIPAVUObject@@PAGK@Z @ 259
??2UGUIComboBox@@SAPAXIPAVUObject@@PBGK@Z @ 260
??2UGUIComboBox@@SAPAXIPAVUObject@@VFName@@K@Z @ 261
??2UGUIComboBox@@SAPAXIPAW4EInternal@@@Z @ 262
??2UGUIComponent@@SAPAXIPAVUObject@@PAGK@Z @ 263
??2UGUIComponent@@SAPAXIPAVUObject@@PBGK@Z @ 264
??2UGUIComponent@@SAPAXIPAVUObject@@VFName@@K@Z @ 265
??2UGUIComponent@@SAPAXIPAW4EInternal@@@Z @ 266
??2UGUIContextMenu@@SAPAXIPAVUObject@@PAGK@Z @ 267
??2UGUIContextMenu@@SAPAXIPAVUObject@@PBGK@Z @ 268
??2UGUIContextMenu@@SAPAXIPAVUObject@@VFName@@K@Z @ 269
??2UGUIContextMenu@@SAPAXIPAW4EInternal@@@Z @ 270
??2UGUIController@@SAPAXIPAVUObject@@PAGK@Z @ 271
??2UGUIController@@SAPAXIPAVUObject@@PBGK@Z @ 272
??2UGUIController@@SAPAXIPAVUObject@@VFName@@K@Z @ 273
??2UGUIController@@SAPAXIPAW4EInternal@@@Z @ 274
??2UGUIEditBox@@SAPAXIPAVUObject@@PAGK@Z @ 275
??2UGUIEditBox@@SAPAXIPAVUObject@@PBGK@Z @ 276
??2UGUIEditBox@@SAPAXIPAVUObject@@VFName@@K@Z @ 277
??2UGUIEditBox@@SAPAXIPAW4EInternal@@@Z @ 278
??2UGUIFloatEdit@@SAPAXIPAVUObject@@PAGK@Z @ 279
??2UGUIFloatEdit@@SAPAXIPAVUObject@@PBGK@Z @ 280
??2UGUIFloatEdit@@SAPAXIPAVUObject@@VFName@@K@Z @ 281
??2UGUIFloatEdit@@SAPAXIPAW4EInternal@@@Z @ 282
??2UGUIFont@@SAPAXIPAVUObject@@PAGK@Z @ 283
??2UGUIFont@@SAPAXIPAVUObject@@PBGK@Z @ 284
??2UGUIFont@@SAPAXIPAVUObject@@VFName@@K@Z @ 285
??2UGUIFont@@SAPAXIPAW4EInternal@@@Z @ 286
??2UGUIGFXButton@@SAPAXIPAVUObject@@PAGK@Z @ 287
??2UGUIGFXButton@@SAPAXIPAVUObject@@PBGK@Z @ 288
??2UGUIGFXButton@@SAPAXIPAVUObject@@VFName@@K@Z @ 289
??2UGUIGFXButton@@SAPAXIPAW4EInternal@@@Z @ 290
??2UGUIGripButtonBase@@SAPAXIPAVUObject@@PAGK@Z @ 291
??2UGUIGripButtonBase@@SAPAXIPAVUObject@@PBGK@Z @ 292
??2UGUIGripButtonBase@@SAPAXIPAVUObject@@VFName@@K@Z @ 293
??2UGUIGripButtonBase@@SAPAXIPAW4EInternal@@@Z @ 294
??2UGUIHorzList@@SAPAXIPAVUObject@@PAGK@Z @ 295
??2UGUIHorzList@@SAPAXIPAVUObject@@PBGK@Z @ 296
??2UGUIHorzList@@SAPAXIPAVUObject@@VFName@@K@Z @ 297
??2UGUIHorzList@@SAPAXIPAW4EInternal@@@Z @ 298
??2UGUIImage@@SAPAXIPAVUObject@@PAGK@Z @ 299
??2UGUIImage@@SAPAXIPAVUObject@@PBGK@Z @ 300
??2UGUIImage@@SAPAXIPAVUObject@@VFName@@K@Z @ 301
??2UGUIImage@@SAPAXIPAW4EInternal@@@Z @ 302
??2UGUILabel@@SAPAXIPAVUObject@@PAGK@Z @ 303
??2UGUILabel@@SAPAXIPAVUObject@@PBGK@Z @ 304
??2UGUILabel@@SAPAXIPAVUObject@@VFName@@K@Z @ 305
??2UGUILabel@@SAPAXIPAW4EInternal@@@Z @ 306
??2UGUIList@@SAPAXIPAVUObject@@PAGK@Z @ 307
??2UGUIList@@SAPAXIPAVUObject@@PBGK@Z @ 308
??2UGUIList@@SAPAXIPAVUObject@@VFName@@K@Z @ 309
??2UGUIList@@SAPAXIPAW4EInternal@@@Z @ 310
??2UGUIListBase@@SAPAXIPAVUObject@@PAGK@Z @ 311
??2UGUIListBase@@SAPAXIPAVUObject@@PBGK@Z @ 312
??2UGUIListBase@@SAPAXIPAVUObject@@VFName@@K@Z @ 313
??2UGUIListBase@@SAPAXIPAW4EInternal@@@Z @ 314
??2UGUIListBox@@SAPAXIPAVUObject@@PAGK@Z @ 315
??2UGUIListBox@@SAPAXIPAVUObject@@PBGK@Z @ 316
??2UGUIListBox@@SAPAXIPAVUObject@@VFName@@K@Z @ 317
??2UGUIListBox@@SAPAXIPAW4EInternal@@@Z @ 318
??2UGUIListBoxBase@@SAPAXIPAVUObject@@PAGK@Z @ 319
??2UGUIListBoxBase@@SAPAXIPAVUObject@@PBGK@Z @ 320
??2UGUIListBoxBase@@SAPAXIPAVUObject@@VFName@@K@Z @ 321
??2UGUIListBoxBase@@SAPAXIPAW4EInternal@@@Z @ 322
??2UGUIMenuOption@@SAPAXIPAVUObject@@PAGK@Z @ 323
??2UGUIMenuOption@@SAPAXIPAVUObject@@PBGK@Z @ 324
??2UGUIMenuOption@@SAPAXIPAVUObject@@VFName@@K@Z @ 325
??2UGUIMenuOption@@SAPAXIPAW4EInternal@@@Z @ 326
??2UGUIMultiColumnList@@SAPAXIPAVUObject@@PAGK@Z @ 327
??2UGUIMultiColumnList@@SAPAXIPAVUObject@@PBGK@Z @ 328
??2UGUIMultiColumnList@@SAPAXIPAVUObject@@VFName@@K@Z @ 329
??2UGUIMultiColumnList@@SAPAXIPAW4EInternal@@@Z @ 330
??2UGUIMultiColumnListBox@@SAPAXIPAVUObject@@PAGK@Z @ 331
??2UGUIMultiColumnListBox@@SAPAXIPAVUObject@@PBGK@Z @ 332
??2UGUIMultiColumnListBox@@SAPAXIPAVUObject@@VFName@@K@Z @ 333
??2UGUIMultiColumnListBox@@SAPAXIPAW4EInternal@@@Z @ 334
??2UGUIMultiColumnListDerived@@SAPAXIPAVUObject@@PAGK@Z @ 335
??2UGUIMultiColumnListDerived@@SAPAXIPAVUObject@@PBGK@Z @ 336
??2UGUIMultiColumnListDerived@@SAPAXIPAVUObject@@VFName@@K@Z @ 337
??2UGUIMultiColumnListDerived@@SAPAXIPAW4EInternal@@@Z @ 338
??2UGUIMultiColumnListHeader@@SAPAXIPAVUObject@@PAGK@Z @ 339
??2UGUIMultiColumnListHeader@@SAPAXIPAVUObject@@PBGK@Z @ 340
??2UGUIMultiColumnListHeader@@SAPAXIPAVUObject@@VFName@@K@Z @ 341
??2UGUIMultiColumnListHeader@@SAPAXIPAW4EInternal@@@Z @ 342
??2UGUIMultiComponent@@SAPAXIPAVUObject@@PAGK@Z @ 343
??2UGUIMultiComponent@@SAPAXIPAVUObject@@PBGK@Z @ 344
??2UGUIMultiComponent@@SAPAXIPAVUObject@@VFName@@K@Z @ 345
??2UGUIMultiComponent@@SAPAXIPAW4EInternal@@@Z @ 346
??2UGUIMultiOptionList@@SAPAXIPAVUObject@@PAGK@Z @ 347
??2UGUIMultiOptionList@@SAPAXIPAVUObject@@PBGK@Z @ 348
??2UGUIMultiOptionList@@SAPAXIPAVUObject@@VFName@@K@Z @ 349
??2UGUIMultiOptionList@@SAPAXIPAW4EInternal@@@Z @ 350
??2UGUINumericEdit@@SAPAXIPAVUObject@@PAGK@Z @ 351
??2UGUINumericEdit@@SAPAXIPAVUObject@@PBGK@Z @ 352
??2UGUINumericEdit@@SAPAXIPAVUObject@@VFName@@K@Z @ 353
??2UGUINumericEdit@@SAPAXIPAW4EInternal@@@Z @ 354
??2UGUIPage@@SAPAXIPAVUObject@@PAGK@Z @ 355
??2UGUIPage@@SAPAXIPAVUObject@@PBGK@Z @ 356
??2UGUIPage@@SAPAXIPAVUObject@@VFName@@K@Z @ 357
??2UGUIPage@@SAPAXIPAW4EInternal@@@Z @ 358
??2UGUIPanel@@SAPAXIPAVUObject@@PAGK@Z @ 359
??2UGUIPanel@@SAPAXIPAVUObject@@PBGK@Z @ 360
??2UGUIPanel@@SAPAXIPAVUObject@@VFName@@K@Z @ 361
??2UGUIPanel@@SAPAXIPAW4EInternal@@@Z @ 362
??2UGUIProgressBar@@SAPAXIPAVUObject@@PAGK@Z @ 363
??2UGUIProgressBar@@SAPAXIPAVUObject@@PBGK@Z @ 364
??2UGUIProgressBar@@SAPAXIPAVUObject@@VFName@@K@Z @ 365
??2UGUIProgressBar@@SAPAXIPAW4EInternal@@@Z @ 366
??2UGUIScrollBarBase@@SAPAXIPAVUObject@@PAGK@Z @ 367
??2UGUIScrollBarBase@@SAPAXIPAVUObject@@PBGK@Z @ 368
??2UGUIScrollBarBase@@SAPAXIPAVUObject@@VFName@@K@Z @ 369
??2UGUIScrollBarBase@@SAPAXIPAW4EInternal@@@Z @ 370
??2UGUIScrollButtonBase@@SAPAXIPAVUObject@@PAGK@Z @ 371
??2UGUIScrollButtonBase@@SAPAXIPAVUObject@@PBGK@Z @ 372
??2UGUIScrollButtonBase@@SAPAXIPAVUObject@@VFName@@K@Z @ 373
??2UGUIScrollButtonBase@@SAPAXIPAW4EInternal@@@Z @ 374
??2UGUIScrollText@@SAPAXIPAVUObject@@PAGK@Z @ 375
??2UGUIScrollText@@SAPAXIPAVUObject@@PBGK@Z @ 376
??2UGUIScrollText@@SAPAXIPAVUObject@@VFName@@K@Z @ 377
??2UGUIScrollText@@SAPAXIPAW4EInternal@@@Z @ 378
??2UGUIScrollTextBox@@SAPAXIPAVUObject@@PAGK@Z @ 379
??2UGUIScrollTextBox@@SAPAXIPAVUObject@@PBGK@Z @ 380
??2UGUIScrollTextBox@@SAPAXIPAVUObject@@VFName@@K@Z @ 381
??2UGUIScrollTextBox@@SAPAXIPAW4EInternal@@@Z @ 382
??2UGUIScrollZoneBase@@SAPAXIPAVUObject@@PAGK@Z @ 383
??2UGUIScrollZoneBase@@SAPAXIPAVUObject@@PBGK@Z @ 384
??2UGUIScrollZoneBase@@SAPAXIPAVUObject@@VFName@@K@Z @ 385
??2UGUIScrollZoneBase@@SAPAXIPAW4EInternal@@@Z @ 386
??2UGUISectionBackground@@SAPAXIPAVUObject@@PAGK@Z @ 387
??2UGUISectionBackground@@SAPAXIPAVUObject@@PBGK@Z @ 388
??2UGUISectionBackground@@SAPAXIPAVUObject@@VFName@@K@Z @ 389
??2UGUISectionBackground@@SAPAXIPAW4EInternal@@@Z @ 390
??2UGUISlider@@SAPAXIPAVUObject@@PAGK@Z @ 391
??2UGUISlider@@SAPAXIPAVUObject@@PBGK@Z @ 392
??2UGUISlider@@SAPAXIPAVUObject@@VFName@@K@Z @ 393
??2UGUISlider@@SAPAXIPAW4EInternal@@@Z @ 394
??2UGUISpinnerButton@@SAPAXIPAVUObject@@PAGK@Z @ 395
??2UGUISpinnerButton@@SAPAXIPAVUObject@@PBGK@Z @ 396
??2UGUISpinnerButton@@SAPAXIPAVUObject@@VFName@@K@Z @ 397
??2UGUISpinnerButton@@SAPAXIPAW4EInternal@@@Z @ 398
??2UGUISplitter@@SAPAXIPAVUObject@@PAGK@Z @ 399
??2UGUISplitter@@SAPAXIPAVUObject@@PBGK@Z @ 400
??2UGUISplitter@@SAPAXIPAVUObject@@VFName@@K@Z @ 401
??2UGUISplitter@@SAPAXIPAW4EInternal@@@Z @ 402
??2UGUIStyles@@SAPAXIPAVUObject@@PAGK@Z @ 403
??2UGUIStyles@@SAPAXIPAVUObject@@PBGK@Z @ 404
??2UGUIStyles@@SAPAXIPAVUObject@@VFName@@K@Z @ 405
??2UGUIStyles@@SAPAXIPAW4EInternal@@@Z @ 406
??2UGUITabButton@@SAPAXIPAVUObject@@PAGK@Z @ 407
??2UGUITabButton@@SAPAXIPAVUObject@@PBGK@Z @ 408
??2UGUITabButton@@SAPAXIPAVUObject@@VFName@@K@Z @ 409
??2UGUITabButton@@SAPAXIPAW4EInternal@@@Z @ 410
??2UGUITabControl@@SAPAXIPAVUObject@@PAGK@Z @ 411
??2UGUITabControl@@SAPAXIPAVUObject@@PBGK@Z @ 412
??2UGUITabControl@@SAPAXIPAVUObject@@VFName@@K@Z @ 413
??2UGUITabControl@@SAPAXIPAW4EInternal@@@Z @ 414
??2UGUITabPanel@@SAPAXIPAVUObject@@PAGK@Z @ 415
??2UGUITabPanel@@SAPAXIPAVUObject@@PBGK@Z @ 416
??2UGUITabPanel@@SAPAXIPAVUObject@@VFName@@K@Z @ 417
??2UGUITabPanel@@SAPAXIPAW4EInternal@@@Z @ 418
??2UGUITitleBar@@SAPAXIPAVUObject@@PAGK@Z @ 419
??2UGUITitleBar@@SAPAXIPAVUObject@@PBGK@Z @ 420
??2UGUITitleBar@@SAPAXIPAVUObject@@VFName@@K@Z @ 421
??2UGUITitleBar@@SAPAXIPAW4EInternal@@@Z @ 422
??2UGUIToolTip@@SAPAXIPAVUObject@@PAGK@Z @ 423
??2UGUIToolTip@@SAPAXIPAVUObject@@PBGK@Z @ 424
??2UGUIToolTip@@SAPAXIPAVUObject@@VFName@@K@Z @ 425
??2UGUIToolTip@@SAPAXIPAW4EInternal@@@Z @ 426
??2UGUITreeList@@SAPAXIPAVUObject@@PAGK@Z @ 427
??2UGUITreeList@@SAPAXIPAVUObject@@PBGK@Z @ 428
??2UGUITreeList@@SAPAXIPAVUObject@@VFName@@K@Z @ 429
??2UGUITreeList@@SAPAXIPAW4EInternal@@@Z @ 430
??2UGUITreeListBox@@SAPAXIPAVUObject@@PAGK@Z @ 431
??2UGUITreeListBox@@SAPAXIPAVUObject@@PBGK@Z @ 432
??2UGUITreeListBox@@SAPAXIPAVUObject@@VFName@@K@Z @ 433
??2UGUITreeListBox@@SAPAXIPAW4EInternal@@@Z @ 434
??2UGUIVertImageList@@SAPAXIPAVUObject@@PAGK@Z @ 435
??2UGUIVertImageList@@SAPAXIPAVUObject@@PBGK@Z @ 436
??2UGUIVertImageList@@SAPAXIPAVUObject@@VFName@@K@Z @ 437
??2UGUIVertImageList@@SAPAXIPAW4EInternal@@@Z @ 438
??2UGUIVertList@@SAPAXIPAVUObject@@PAGK@Z @ 439
??2UGUIVertList@@SAPAXIPAVUObject@@PBGK@Z @ 440
??2UGUIVertList@@SAPAXIPAVUObject@@VFName@@K@Z @ 441
??2UGUIVertList@@SAPAXIPAW4EInternal@@@Z @ 442
??2UMultiSelectList@@SAPAXIPAVUObject@@PAGK@Z @ 443
??2UMultiSelectList@@SAPAXIPAVUObject@@PBGK@Z @ 444
??2UMultiSelectList@@SAPAXIPAVUObject@@VFName@@K@Z @ 445
??2UMultiSelectList@@SAPAXIPAW4EInternal@@@Z @ 446
??2UPropertyManagerBase@@SAPAXIPAVUObject@@PAGK@Z @ 447
??2UPropertyManagerBase@@SAPAXIPAVUObject@@PBGK@Z @ 448
??2UPropertyManagerBase@@SAPAXIPAVUObject@@VFName@@K@Z @ 449
??2UPropertyManagerBase@@SAPAXIPAW4EInternal@@@Z @ 450
??2UStateButton@@SAPAXIPAVUObject@@PAGK@Z @ 451
??2UStateButton@@SAPAXIPAVUObject@@PBGK@Z @ 452
??2UStateButton@@SAPAXIPAVUObject@@VFName@@K@Z @ 453
??2UStateButton@@SAPAXIPAW4EInternal@@@Z @ 454
??4AHudBase@@QAEAAV0@ABV0@@Z @ 455
??4AwHudPart_KillMessage@@QAEAAV0@ABV0@@Z @ 456
??4BTCheckNick@BatteryNetlib@@QAEAAV01@ABV01@@Z @ 457
??4FAnimInfo@@QAEAAU0@ABU0@@Z @ 458
??4FAutoLoadMenu@@QAEAAU0@ABU0@@Z @ 459
??4FDesignModeHint@@QAEAAU0@ABU0@@Z @ 460
??4FGUIListElem@@QAEAAU0@ABU0@@Z @ 461
??4FGUITreeNode@@QAEAAU0@ABU0@@Z @ 462
??4FHudLocalizedMessage@@QAEAAU0@ABU0@@Z @ 463
??4FImageListElem@@QAEAAU0@ABU0@@Z @ 464
??4FKillMessageItem@@QAEAAU0@ABU0@@Z @ 465
??4FMultiColumnSortData@@QAEAAU0@ABU0@@Z @ 466
??4FMultiSelectListElem@@QAEAAU0@ABU0@@Z @ 467
??4FPaddingPercent@@QAEAAU0@ABU0@@Z @ 468
??4FProfileStruct@@QAEAAU0@ABU0@@Z @ 469
??4FRestoreMenuItem@@QAEAAU0@ABU0@@Z @ 470
??4FTimerData@@QAEAAU0@ABU0@@Z @ 471
??4FeOwnageMap@@QAEAAU0@ABU0@@Z @ 472
??4UBTTcpHandler_DS_Script@@QAEAAV0@ABV0@@Z @ 473
??4UCoolImage@@QAEAAV0@ABV0@@Z @ 474
??4UGUI@@QAEAAV0@ABV0@@Z @ 475
??4UGUIBorder@@QAEAAV0@ABV0@@Z @ 476
??4UGUIButton@@QAEAAV0@ABV0@@Z @ 477
??4UGUICharacterList@@QAEAAV0@ABV0@@Z @ 478
??4UGUICheckBoxButton@@QAEAAV0@ABV0@@Z @ 479
??4UGUICircularImageList@@QAEAAV0@ABV0@@Z @ 480
??4UGUICircularList@@QAEAAV0@ABV0@@Z @ 481
??4UGUIComboBox@@QAEAAV0@ABV0@@Z @ 482
??4UGUIComponent@@QAEAAV0@ABV0@@Z @ 483
??4UGUIContextMenu@@QAEAAV0@ABV0@@Z @ 484
??4UGUIController@@QAEAAV0@ABV0@@Z @ 485
??4UGUIEditBox@@QAEAAV0@ABV0@@Z @ 486
??4UGUIFloatEdit@@QAEAAV0@ABV0@@Z @ 487
??4UGUIFont@@QAEAAV0@ABV0@@Z @ 488
??4UGUIGFXButton@@QAEAAV0@ABV0@@Z @ 489
??4UGUIGripButtonBase@@QAEAAV0@ABV0@@Z @ 490
??4UGUIHorzList@@QAEAAV0@ABV0@@Z @ 491
??4UGUIImage@@QAEAAV0@ABV0@@Z @ 492
??4UGUILabel@@QAEAAV0@ABV0@@Z @ 493
??4UGUIList@@QAEAAV0@ABV0@@Z @ 494
??4UGUIListBase@@QAEAAV0@ABV0@@Z @ 495
??4UGUIListBox@@QAEAAV0@ABV0@@Z @ 496
??4UGUIListBoxBase@@QAEAAV0@ABV0@@Z @ 497
??4UGUIMenuOption@@QAEAAV0@ABV0@@Z @ 498
??4UGUIMultiColumnList@@QAEAAV0@ABV0@@Z @ 499
??4UGUIMultiColumnListBox@@QAEAAV0@ABV0@@Z @ 500
??4UGUIMultiColumnListDerived@@QAEAAV0@ABV0@@Z @ 501
??4UGUIMultiColumnListHeader@@QAEAAV0@ABV0@@Z @ 502
??4UGUIMultiComponent@@QAEAAV0@ABV0@@Z @ 503
??4UGUIMultiOptionList@@QAEAAV0@ABV0@@Z @ 504
??4UGUINumericEdit@@QAEAAV0@ABV0@@Z @ 505
??4UGUIPage@@QAEAAV0@ABV0@@Z @ 506
??4UGUIPanel@@QAEAAV0@ABV0@@Z @ 507
??4UGUIProgressBar@@QAEAAV0@ABV0@@Z @ 508
??4UGUIScrollBarBase@@QAEAAV0@ABV0@@Z @ 509
??4UGUIScrollButtonBase@@QAEAAV0@ABV0@@Z @ 510
??4UGUIScrollText@@QAEAAV0@ABV0@@Z @ 511
??4UGUIScrollTextBox@@QAEAAV0@ABV0@@Z @ 512
??4UGUIScrollZoneBase@@QAEAAV0@ABV0@@Z @ 513
??4UGUISectionBackground@@QAEAAV0@ABV0@@Z @ 514
??4UGUISlider@@QAEAAV0@ABV0@@Z @ 515
??4UGUISpinnerButton@@QAEAAV0@ABV0@@Z @ 516
??4UGUISplitter@@QAEAAV0@ABV0@@Z @ 517
??4UGUIStyles@@QAEAAV0@ABV0@@Z @ 518
??4UGUITabButton@@QAEAAV0@ABV0@@Z @ 519
??4UGUITabControl@@QAEAAV0@ABV0@@Z @ 520
??4UGUITabPanel@@QAEAAV0@ABV0@@Z @ 521
??4UGUITitleBar@@QAEAAV0@ABV0@@Z @ 522
??4UGUIToolTip@@QAEAAV0@ABV0@@Z @ 523
??4UGUITreeList@@QAEAAV0@ABV0@@Z @ 524
??4UGUITreeListBox@@QAEAAV0@ABV0@@Z @ 525
??4UGUIVertImageList@@QAEAAV0@ABV0@@Z @ 526
??4UGUIVertList@@QAEAAV0@ABV0@@Z @ 527
??4UMultiSelectList@@QAEAAV0@ABV0@@Z @ 528
??4UPropertyManagerBase@@QAEAAV0@ABV0@@Z @ 529
??4UStateButton@@QAEAAV0@ABV0@@Z @ 530
??8FGUITreeNode@@QBEHABU0@@Z @ 531
??_7AHudBase@@6B@ @ 532
??_7AwHudPart_KillMessage@@6B@ @ 533
??_7UBTTcpHandler_DS_Script@@6B@ @ 534
??_7UCoolImage@@6B@ @ 535
??_7UGUI@@6B@ @ 536
??_7UGUIBorder@@6B@ @ 537
??_7UGUIButton@@6B@ @ 538
??_7UGUICharacterList@@6B@ @ 539
??_7UGUICheckBoxButton@@6B@ @ 540
??_7UGUICircularImageList@@6B@ @ 541
??_7UGUICircularList@@6B@ @ 542
??_7UGUIComboBox@@6B@ @ 543
??_7UGUIComponent@@6B@ @ 544
??_7UGUIContextMenu@@6B@ @ 545
??_7UGUIController@@6B@ @ 546
??_7UGUIEditBox@@6B@ @ 547
??_7UGUIFloatEdit@@6B@ @ 548
??_7UGUIFont@@6B@ @ 549
??_7UGUIGFXButton@@6B@ @ 550
??_7UGUIGripButtonBase@@6B@ @ 551
??_7UGUIHorzList@@6B@ @ 552
??_7UGUIImage@@6B@ @ 553
??_7UGUILabel@@6B@ @ 554
??_7UGUIList@@6B@ @ 555
??_7UGUIListBase@@6B@ @ 556
??_7UGUIListBox@@6B@ @ 557
??_7UGUIListBoxBase@@6B@ @ 558
??_7UGUIMenuOption@@6B@ @ 559
??_7UGUIMultiColumnList@@6B@ @ 560
??_7UGUIMultiColumnListBox@@6B@ @ 561
??_7UGUIMultiColumnListDerived@@6B@ @ 562
??_7UGUIMultiColumnListHeader@@6B@ @ 563
??_7UGUIMultiComponent@@6B@ @ 564
??_7UGUIMultiOptionList@@6B@ @ 565
??_7UGUINumericEdit@@6B@ @ 566
??_7UGUIPage@@6B@ @ 567
??_7UGUIPanel@@6B@ @ 568
??_7UGUIProgressBar@@6B@ @ 569
??_7UGUIScrollBarBase@@6B@ @ 570
??_7UGUIScrollButtonBase@@6B@ @ 571
??_7UGUIScrollText@@6B@ @ 572
??_7UGUIScrollTextBox@@6B@ @ 573
??_7UGUIScrollZoneBase@@6B@ @ 574
??_7UGUISectionBackground@@6B@ @ 575
??_7UGUISlider@@6B@ @ 576
??_7UGUISpinnerButton@@6B@ @ 577
??_7UGUISplitter@@6B@ @ 578
??_7UGUIStyles@@6B@ @ 579
??_7UGUITabButton@@6B@ @ 580
??_7UGUITabControl@@6B@ @ 581
??_7UGUITabPanel@@6B@ @ 582
??_7UGUITitleBar@@6B@ @ 583
??_7UGUIToolTip@@6B@ @ 584
??_7UGUITreeList@@6B@ @ 585
??_7UGUITreeListBox@@6B@ @ 586
??_7UGUIVertImageList@@6B@ @ 587
??_7UGUIVertList@@6B@ @ 588
??_7UMultiSelectList@@6B@ @ 589
??_7UPropertyManagerBase@@6B@ @ 590
??_7UStateButton@@6B@ @ 591
??_FFMultiColumnSortData@@QAEXXZ @ 592
?ActualHeight@UGUIComponent@@QBEMMH@Z @ 593
?ActualLeft@UGUIComponent@@QBEMMH@Z @ 594
?ActualTop@UGUIComponent@@QBEMMH@Z @ 595
?ActualWidth@UGUIComponent@@QBEMMH@Z @ 596
?AutoPosition@UGUIComponent@@UAEXAAV?$TArray@PAVUGUIComponent@@@@MMMMHM@Z @ 597
?AutoPosition@UGUISectionBackground@@UAEXAAV?$TArray@PAVUGUIComponent@@@@MMMMHM@Z @ 598
?AutoPositionOn@UGUIComponent@@UAEXAAV?$TArray@PAVUGUIComponent@@@@PAV1@MMMMHM@Z @ 599
?CalcNametagPosNativeImp@AHudBase@@QAE?AVFVector@@PAVAPawn@@@Z @ 600
?CalcPivotCoords@AHudBase@@QAEXW4EDrawPivot@@AAM1MM@Z @ 601
?CalculateIndex@UGUIMultiOptionList@@QAEHH@Z @ 602
?CloneDims@UGUIComponent@@UAEXPAV1@@Z @ 603
?Close@UGUIContextMenu@@UAEHXZ @ 604
?CreatePropertyWindow@UGUIController@@QAEXE@Z @ 605
?DesignKeyEvent@UGUIController@@QAEHEEM@Z @ 606
?DesignerVisible@UGUIController@@QAEHE@Z @ 607
?Destroy@UGUIController@@UAEXXZ @ 608
?Draw@UCoolImage@@UAEXPAVUCanvas@@@Z @ 609
?Draw@UGUIBorder@@UAEXPAVUCanvas@@@Z @ 610
?Draw@UGUIButton@@UAEXPAVUCanvas@@@Z @ 611
?Draw@UGUICheckBoxButton@@UAEXPAVUCanvas@@@Z @ 612
?Draw@UGUICircularList@@UAEXPAVUCanvas@@@Z @ 613
?Draw@UGUIComponent@@UAEXPAVUCanvas@@@Z @ 614
?Draw@UGUIContextMenu@@UAEXPAVUCanvas@@@Z @ 615
?Draw@UGUIEditBox@@UAEXPAVUCanvas@@@Z @ 616
?Draw@UGUIGFXButton@@UAEXPAVUCanvas@@@Z @ 617
?Draw@UGUIHorzList@@UAEXPAVUCanvas@@@Z @ 618
?Draw@UGUIImage@@UAEXPAVUCanvas@@@Z @ 619
?Draw@UGUILabel@@UAEXPAVUCanvas@@@Z @ 620
?Draw@UGUIListBoxBase@@UAEXPAVUCanvas@@@Z @ 621
?Draw@UGUIMultiColumnListBox@@UAEXPAVUCanvas@@@Z @ 622
?Draw@UGUIMultiColumnListDerived@@UAEXPAVUCanvas@@@Z @ 623
?Draw@UGUIMultiColumnListHeader@@UAEXPAVUCanvas@@@Z @ 624
?Draw@UGUIMultiComponent@@UAEXPAVUCanvas@@@Z @ 625
?Draw@UGUIMultiOptionList@@UAEXPAVUCanvas@@@Z @ 626
?Draw@UGUIPage@@UAEXPAVUCanvas@@@Z @ 627
?Draw@UGUIPanel@@UAEXPAVUCanvas@@@Z @ 628
?Draw@UGUIProgressBar@@UAEXPAVUCanvas@@@Z @ 629
?Draw@UGUIScrollText@@UAEXPAVUCanvas@@@Z @ 630
?Draw@UGUIScrollZoneBase@@UAEXPAVUCanvas@@@Z @ 631
?Draw@UGUISectionBackground@@UAEXPAVUCanvas@@@Z @ 632
?Draw@UGUISlider@@UAEXPAVUCanvas@@@Z @ 633
?Draw@UGUISpinnerButton@@UAEXPAVUCanvas@@@Z @ 634
?Draw@UGUISplitter@@UAEXPAVUCanvas@@@Z @ 635
?Draw@UGUIStyles@@QAEXPAVUCanvas@@EMMMM@Z @ 636
?Draw@UGUITabButton@@UAEXPAVUCanvas@@@Z @ 637
?Draw@UGUITabControl@@UAEXPAVUCanvas@@@Z @ 638
?Draw@UGUIToolTip@@UAEXPAVUCanvas@@@Z @ 639
?Draw@UGUITreeList@@UAEXPAVUCanvas@@@Z @ 640
?Draw@UGUIVertImageList@@UAEXPAVUCanvas@@@Z @ 641
?Draw@UGUIVertList@@UAEXPAVUCanvas@@@Z @ 642
?Draw@UMultiSelectList@@UAEXPAVUCanvas@@@Z @ 643
?Draw@UStateButton@@UAEXPAVUCanvas@@@Z @ 644
?DrawControls@UGUIMultiComponent@@QAEXPAVUCanvas@@@Z @ 645
?DrawItem@UGUICharacterList@@MAEXPAVUCanvas@@HMMMMHH@Z @ 646
?DrawItem@UGUICircularImageList@@MAEXPAVUCanvas@@HMMMMHH@Z @ 647
?DrawItem@UGUIList@@MAEXPAVUCanvas@@HMMMMHH@Z @ 648
?DrawItem@UGUIListBase@@MAEXPAVUCanvas@@HMMMMHH@Z @ 649
?DrawItem@UGUIMultiOptionList@@MAEXPAVUCanvas@@HMMMMHH@Z @ 650
?DrawItem@UGUIScrollText@@MAEXPAVUCanvas@@HMMMMHH@Z @ 651
?DrawItem@UGUITreeList@@MAEXPAVUCanvas@@HMMMMHH@Z @ 652
?DrawItem@UGUIVertImageList@@UAEXPAVUCanvas@@HMMMMHH@Z @ 653
?DrawItem@UMultiSelectList@@MAEXPAVUCanvas@@HMMMMHH@Z @ 654
?DrawNameTagNativeImp@AHudBase@@QAEXPAVUCanvas@@PAVAPawn@@@Z @ 655
?DrawNativeImp@AwHudPart_KillMessage@@QAEXPAVUCanvas@@@Z @ 656
?DrawNumericWidget@AHudBase@@QAEXPAVUCanvas@@PAUFNumericWidget@@PAUFDigitSet@@@Z @ 657
?DrawSpriteWidget@AHudBase@@QAEXPAVUCanvas@@PAUFSpriteWidget@@@Z @ 658
?DrawTextW@UGUIStyles@@QAEXPAVUCanvas@@EMMMMEPBGE@Z @ 659
?DrawTileFromSpriteWidget2@AHudBase@@QAEXPAVUCanvas@@ABUFSpriteWidget@@MM@Z @ 660
?DrawTileFromSpriteWidget@AHudBase@@QAEXPAVUCanvas@@ABUFSpriteWidget@@@Z @ 661
?FindParentIndex@UGUITreeList@@QBEHH@Z @ 662
?FindSortIndex@UGUIMultiColumnList@@QBEHH@Z @ 663
?FocusToPropertyWindow@UGUIController@@QAEXE_N@Z @ 664
?GUIappSprintf@@YAXHPAGPBGZZ @ 665
?GetCursorPos@UGUIController@@QAEXAAH0@Z @ 666
?GetFocused@UGUIComponent@@UBEPAV1@XZ @ 667
?GetFocused@UGUIMultiComponent@@UBEPAVUGUIComponent@@XZ @ 668
?GetFocused@UGUIMultiOptionList@@UBEPAVUGUIComponent@@XZ @ 669
?GetHook@UPropertyManagerBase@@UAEPAXXZ @ 670
?GetMenuPath@UGUIComponent@@QBEPAGPAG@Z @ 671
?GetNametagColorNativeImp@AHudBase@@QAE?AVFColor@@PAVAPlayerReplicationInfo@@@Z @ 672
?GetSnoop@UPropertyManagerBase@@UAEPAXXZ @ 673
?GetWindow@UPropertyManagerBase@@UAEPAXXZ @ 674
?HasMouseMoved@UGUIController@@QAEHM@Z @ 675
?HidePropertyWindow@UGUIController@@QAEXXZ @ 676
?IME_Notify@UGUIComponent@@UAEHW4IME_NOTIFY_TYPE@@GVFString@@HH@Z @ 677
?IME_Notify@UGUIEditBox@@UAEHW4IME_NOTIFY_TYPE@@GVFString@@HH@Z @ 678
?IME_Notify@UGUIMultiComponent@@UAEHW4IME_NOTIFY_TYPE@@GVFString@@HH@Z @ 679
?InitializeControls@UGUIMultiComponent@@UAEXXZ @ 680
?InternalConstructor@AHudBase@@SAXPAX@Z @ 681
?InternalConstructor@AwHudPart_KillMessage@@SAXPAX@Z @ 682
?InternalConstructor@UBTTcpHandler_DS_Script@@SAXPAX@Z @ 683
?InternalConstructor@UCoolImage@@SAXPAX@Z @ 684
?InternalConstructor@UGUI@@SAXPAX@Z @ 685
?InternalConstructor@UGUIBorder@@SAXPAX@Z @ 686
?InternalConstructor@UGUIButton@@SAXPAX@Z @ 687
?InternalConstructor@UGUICharacterList@@SAXPAX@Z @ 688
?InternalConstructor@UGUICheckBoxButton@@SAXPAX@Z @ 689
?InternalConstructor@UGUICircularImageList@@SAXPAX@Z @ 690
?InternalConstructor@UGUICircularList@@SAXPAX@Z @ 691
?InternalConstructor@UGUIComboBox@@SAXPAX@Z @ 692
?InternalConstructor@UGUIComponent@@SAXPAX@Z @ 693
?InternalConstructor@UGUIContextMenu@@SAXPAX@Z @ 694
?InternalConstructor@UGUIController@@SAXPAX@Z @ 695
?InternalConstructor@UGUIEditBox@@SAXPAX@Z @ 696
?InternalConstructor@UGUIFloatEdit@@SAXPAX@Z @ 697
?InternalConstructor@UGUIFont@@SAXPAX@Z @ 698
?InternalConstructor@UGUIGFXButton@@SAXPAX@Z @ 699
?InternalConstructor@UGUIGripButtonBase@@SAXPAX@Z @ 700
?InternalConstructor@UGUIHorzList@@SAXPAX@Z @ 701
?InternalConstructor@UGUIImage@@SAXPAX@Z @ 702
?InternalConstructor@UGUILabel@@SAXPAX@Z @ 703
?InternalConstructor@UGUIList@@SAXPAX@Z @ 704
?InternalConstructor@UGUIListBase@@SAXPAX@Z @ 705
?InternalConstructor@UGUIListBox@@SAXPAX@Z @ 706
?InternalConstructor@UGUIListBoxBase@@SAXPAX@Z @ 707
?InternalConstructor@UGUIMenuOption@@SAXPAX@Z @ 708
?InternalConstructor@UGUIMultiColumnList@@SAXPAX@Z @ 709
?InternalConstructor@UGUIMultiColumnListBox@@SAXPAX@Z @ 710
?InternalConstructor@UGUIMultiColumnListDerived@@SAXPAX@Z @ 711
?InternalConstructor@UGUIMultiColumnListHeader@@SAXPAX@Z @ 712
?InternalConstructor@UGUIMultiComponent@@SAXPAX@Z @ 713
?InternalConstructor@UGUIMultiOptionList@@SAXPAX@Z @ 714
?InternalConstructor@UGUINumericEdit@@SAXPAX@Z @ 715
?InternalConstructor@UGUIPage@@SAXPAX@Z @ 716
?InternalConstructor@UGUIPanel@@SAXPAX@Z @ 717
?InternalConstructor@UGUIProgressBar@@SAXPAX@Z @ 718
?InternalConstructor@UGUIScrollBarBase@@SAXPAX@Z @ 719
?InternalConstructor@UGUIScrollButtonBase@@SAXPAX@Z @ 720
?InternalConstructor@UGUIScrollText@@SAXPAX@Z @ 721
?InternalConstructor@UGUIScrollTextBox@@SAXPAX@Z @ 722
?InternalConstructor@UGUIScrollZoneBase@@SAXPAX@Z @ 723
?InternalConstructor@UGUISectionBackground@@SAXPAX@Z @ 724
?InternalConstructor@UGUISlider@@SAXPAX@Z @ 725
?InternalConstructor@UGUISpinnerButton@@SAXPAX@Z @ 726
?InternalConstructor@UGUISplitter@@SAXPAX@Z @ 727
?InternalConstructor@UGUIStyles@@SAXPAX@Z @ 728
?InternalConstructor@UGUITabButton@@SAXPAX@Z @ 729
?InternalConstructor@UGUITabControl@@SAXPAX@Z @ 730
?InternalConstructor@UGUITabPanel@@SAXPAX@Z @ 731
?InternalConstructor@UGUITitleBar@@SAXPAX@Z @ 732
?InternalConstructor@UGUIToolTip@@SAXPAX@Z @ 733
?InternalConstructor@UGUITreeList@@SAXPAX@Z @ 734
?InternalConstructor@UGUITreeListBox@@SAXPAX@Z @ 735
?InternalConstructor@UGUIVertImageList@@SAXPAX@Z @ 736
?InternalConstructor@UGUIVertList@@SAXPAX@Z @ 737
?InternalConstructor@UMultiSelectList@@SAXPAX@Z @ 738
?InternalConstructor@UPropertyManagerBase@@SAXPAX@Z @ 739
?InternalConstructor@UStateButton@@SAXPAX@Z @ 740
?IsAnimating@UGUIComponent@@UAEHXZ @ 741
?IsFocusedOn@UGUIComponent@@UBEHPBV1@@Z @ 742
?IsFocusedOn@UGUIMultiComponent@@UBEHPBVUGUIComponent@@@Z @ 743
?IsFocusedOn@UGUITabControl@@UBEHPBVUGUIComponent@@@Z @ 744
?IsTargetInFrontOfPlayer2NativeImp@AHudBase@@QAE_NPAVUCanvas@@VFVector@@PAV3@1VFRotator@@@Z @ 745
?IsVisible@UPropertyManagerBase@@UAEHXZ @ 746
?KeyEvent@UGUIContextMenu@@UAEHAAE0M@Z @ 747
?LookUnderCursor@UGUIController@@UAEXMM@Z @ 748
?MemoryIsZero@AHudBase@@QAEHPBXI@Z @ 749
?MouseHover@UGUIComponent@@UAEHXZ @ 750
?MouseHover@UGUIMultiColumnListHeader@@UAEHXZ @ 751
?MouseHover@UGUIPage@@UAEHXZ @ 752
?MouseHover@UGUISplitter@@UAEHXZ @ 753
?MouseMove@UGUIComponent@@UAEHHH@Z @ 754
?MouseMove@UGUIMultiColumnListHeader@@UAEHHH@Z @ 755
?MouseMove@UGUISplitter@@UAEHHH@Z @ 756
?MousePressed@UGUIComponent@@UAEHH@Z @ 757
?MousePressed@UGUIController@@UAEHH@Z @ 758
?MousePressed@UGUIMenuOption@@UAEHH@Z @ 759
?MousePressed@UGUIMultiColumnListHeader@@UAEHH@Z @ 760
?MousePressed@UGUIMultiComponent@@UAEHH@Z @ 761
?MousePressed@UGUIMultiOptionList@@UAEHH@Z @ 762
?MousePressed@UGUIPage@@UAEHH@Z @ 763
?MousePressed@UGUISplitter@@UAEHH@Z @ 764
?MousePressed@UGUITabButton@@UAEHH@Z @ 765
?MousePressed@UGUITabControl@@UAEHH@Z @ 766
?MouseReleased@UGUIComponent@@UAEHXZ @ 767
?MouseReleased@UGUIController@@UAEHXZ @ 768
?MouseReleased@UGUIMenuOption@@UAEHXZ @ 769
?MouseReleased@UGUIMultiColumnListHeader@@UAEHXZ @ 770
?MouseReleased@UGUIMultiComponent@@UAEHXZ @ 771
?MouseReleased@UGUIMultiOptionList@@UAEHXZ @ 772
?MouseReleased@UGUIPage@@UAEHXZ @ 773
?MouseReleased@UGUISplitter@@UAEHXZ @ 774
?MouseReleased@UGUITabButton@@UAEHXZ @ 775
?MouseReleased@UGUITabControl@@UAEHXZ @ 776
?NativeIME_Notify@UGUIController@@UAEHHGVFString@@HH@Z @ 777
?NativeInvalidate@UGUIComponent@@UAEXPAV1@@Z @ 778
?NativeInvalidate@UGUIMultiComponent@@UAEXPAVUGUIComponent@@@Z @ 779
?NativeInvalidate@UGUIMultiOptionList@@UAEXPAVUGUIComponent@@@Z @ 780
?NativeKeyEvent@UGUIComponent@@UAEHAAE0M@Z @ 781
?NativeKeyEvent@UGUIController@@UAEHAAE0M@Z @ 782
?NativeKeyEvent@UGUIMultiComponent@@UAEHAAE0M@Z @ 783
?NativeKeyEvent@UGUIMultiOptionList@@UAEHAAE0M@Z @ 784
?NativeKeyEvent@UGUIPage@@UAEHAAE0M@Z @ 785
?NativeKeyType@UGUIComponent@@UAEHAAEG@Z @ 786
?NativeKeyType@UGUIController@@UAEHAAEG@Z @ 787
?NativeKeyType@UGUIMultiComponent@@UAEHAAEG@Z @ 788
?NativeKeyType@UGUIMultiOptionList@@UAEHAAEG@Z @ 789
?NativeMessage@UGUIController@@UAEXVFString@@M@Z @ 790
?NativePostRender@UGUIController@@UAEXPAVUCanvas@@@Z @ 791
?NativePreRender@UGUIController@@UAEXPAVUCanvas@@@Z @ 792
?NativeTick@UGUIController@@UAEXM@Z @ 793
?NotifyResolutionChange@UGUIComponent@@UAEXHH@Z @ 794
?NotifyResolutionChange@UGUIMultiComponent@@UAEXHH@Z @ 795
?PerformDoubleClick@UGUIComponent@@UAEHXZ @ 796
?PerformHitTest@UGUIComponent@@UAEHHH@Z @ 797
?PerformHitTest@UGUIMultiComponent@@UAEHHH@Z @ 798
?PerformHitTest@UGUIPanel@@UAEHHH@Z @ 799
?PlayComponentSound@UGUIController@@QAEXE@Z @ 800
?PlayInterfaceSound@UGUIController@@QAEXPAVUSound@@@Z @ 801
?PreDraw@UGUIButton@@UAEXPAVUCanvas@@@Z @ 802
?PreDraw@UGUICharacterList@@UAEXPAVUCanvas@@@Z @ 803
?PreDraw@UGUICircularImageList@@UAEXPAVUCanvas@@@Z @ 804
?PreDraw@UGUIComboBox@@UAEXPAVUCanvas@@@Z @ 805
?PreDraw@UGUIComponent@@UAEXPAVUCanvas@@@Z @ 806
?PreDraw@UGUIContextMenu@@UAEXPAVUCanvas@@@Z @ 807
?PreDraw@UGUIFloatEdit@@UAEXPAVUCanvas@@@Z @ 808
?PreDraw@UGUIListBoxBase@@UAEXPAVUCanvas@@@Z @ 809
?PreDraw@UGUIMenuOption@@UAEXPAVUCanvas@@@Z @ 810
?PreDraw@UGUIMultiColumnListBox@@UAEXPAVUCanvas@@@Z @ 811
?PreDraw@UGUIMultiColumnListDerived@@UAEXPAVUCanvas@@@Z @ 812
?PreDraw@UGUIMultiColumnListHeader@@UAEXPAVUCanvas@@@Z @ 813
?PreDraw@UGUIMultiComponent@@UAEXPAVUCanvas@@@Z @ 814
?PreDraw@UGUIMultiOptionList@@UAEXPAVUCanvas@@@Z @ 815
?PreDraw@UGUINumericEdit@@UAEXPAVUCanvas@@@Z @ 816
?PreDraw@UGUIScrollBarBase@@UAEXPAVUCanvas@@@Z @ 817
?PreDraw@UGUIScrollText@@UAEXPAVUCanvas@@@Z @ 818
?PreDraw@UGUISectionBackground@@UAEXPAVUCanvas@@@Z @ 819
?PreDraw@UGUISplitter@@UAEXPAVUCanvas@@@Z @ 820
?PreDraw@UGUITabControl@@UAEXPAVUCanvas@@@Z @ 821
?PreDraw@UGUITitleBar@@UAEXPAVUCanvas@@@Z @ 822
?PreDraw@UGUIToolTip@@UAEXPAVUCanvas@@@Z @ 823
?PreDraw@UGUITreeListBox@@UAEXPAVUCanvas@@@Z @ 824
?PreDraw@UGUIVertImageList@@UAEXPAVUCanvas@@@Z @ 825
?PreDraw@UGUIVertList@@UAEXPAVUCanvas@@@Z @ 826
?PreDrawControls@UGUIMultiComponent@@QAEXPAVUCanvas@@@Z @ 827
?PrivateStaticClass@AHudBase@@0VUClass@@A @ 828
?PrivateStaticClass@AwHudPart_KillMessage@@0VUClass@@A @ 829
?PrivateStaticClass@UBTTcpHandler_DS_Script@@0VUClass@@A @ 830
?PrivateStaticClass@UCoolImage@@0VUClass@@A @ 831
?PrivateStaticClass@UGUI@@0VUClass@@A @ 832
?PrivateStaticClass@UGUIBorder@@0VUClass@@A @ 833
?PrivateStaticClass@UGUIButton@@0VUClass@@A @ 834
?PrivateStaticClass@UGUICharacterList@@0VUClass@@A @ 835
?PrivateStaticClass@UGUICheckBoxButton@@0VUClass@@A @ 836
?PrivateStaticClass@UGUICircularImageList@@0VUClass@@A @ 837
?PrivateStaticClass@UGUICircularList@@0VUClass@@A @ 838
?PrivateStaticClass@UGUIComboBox@@0VUClass@@A @ 839
?PrivateStaticClass@UGUIComponent@@0VUClass@@A @ 840
?PrivateStaticClass@UGUIContextMenu@@0VUClass@@A @ 841
?PrivateStaticClass@UGUIController@@0VUClass@@A @ 842
?PrivateStaticClass@UGUIEditBox@@0VUClass@@A @ 843
?PrivateStaticClass@UGUIFloatEdit@@0VUClass@@A @ 844
?PrivateStaticClass@UGUIFont@@0VUClass@@A @ 845
?PrivateStaticClass@UGUIGFXButton@@0VUClass@@A @ 846
?PrivateStaticClass@UGUIGripButtonBase@@0VUClass@@A @ 847
?PrivateStaticClass@UGUIHorzList@@0VUClass@@A @ 848
?PrivateStaticClass@UGUIImage@@0VUClass@@A @ 849
?PrivateStaticClass@UGUILabel@@0VUClass@@A @ 850
?PrivateStaticClass@UGUIList@@0VUClass@@A @ 851
?PrivateStaticClass@UGUIListBase@@0VUClass@@A @ 852
?PrivateStaticClass@UGUIListBox@@0VUClass@@A @ 853
?PrivateStaticClass@UGUIListBoxBase@@0VUClass@@A @ 854
?PrivateStaticClass@UGUIMenuOption@@0VUClass@@A @ 855
?PrivateStaticClass@UGUIMultiColumnList@@0VUClass@@A @ 856
?PrivateStaticClass@UGUIMultiColumnListBox@@0VUClass@@A @ 857
?PrivateStaticClass@UGUIMultiColumnListDerived@@0VUClass@@A @ 858
?PrivateStaticClass@UGUIMultiColumnListHeader@@0VUClass@@A @ 859
?PrivateStaticClass@UGUIMultiComponent@@0VUClass@@A @ 860
?PrivateStaticClass@UGUIMultiOptionList@@0VUClass@@A @ 861
?PrivateStaticClass@UGUINumericEdit@@0VUClass@@A @ 862
?PrivateStaticClass@UGUIPage@@0VUClass@@A @ 863
?PrivateStaticClass@UGUIPanel@@0VUClass@@A @ 864
?PrivateStaticClass@UGUIProgressBar@@0VUClass@@A @ 865
?PrivateStaticClass@UGUIScrollBarBase@@0VUClass@@A @ 866
?PrivateStaticClass@UGUIScrollButtonBase@@0VUClass@@A @ 867
?PrivateStaticClass@UGUIScrollText@@0VUClass@@A @ 868
?PrivateStaticClass@UGUIScrollTextBox@@0VUClass@@A @ 869
?PrivateStaticClass@UGUIScrollZoneBase@@0VUClass@@A @ 870
?PrivateStaticClass@UGUISectionBackground@@0VUClass@@A @ 871
?PrivateStaticClass@UGUISlider@@0VUClass@@A @ 872
?PrivateStaticClass@UGUISpinnerButton@@0VUClass@@A @ 873
?PrivateStaticClass@UGUISplitter@@0VUClass@@A @ 874
?PrivateStaticClass@UGUIStyles@@0VUClass@@A @ 875
?PrivateStaticClass@UGUITabButton@@0VUClass@@A @ 876
?PrivateStaticClass@UGUITabControl@@0VUClass@@A @ 877
?PrivateStaticClass@UGUITabPanel@@0VUClass@@A @ 878
?PrivateStaticClass@UGUITitleBar@@0VUClass@@A @ 879
?PrivateStaticClass@UGUIToolTip@@0VUClass@@A @ 880
?PrivateStaticClass@UGUITreeList@@0VUClass@@A @ 881
?PrivateStaticClass@UGUITreeListBox@@0VUClass@@A @ 882
?PrivateStaticClass@UGUIVertImageList@@0VUClass@@A @ 883
?PrivateStaticClass@UGUIVertList@@0VUClass@@A @ 884
?PrivateStaticClass@UMultiSelectList@@0VUClass@@A @ 885
?PrivateStaticClass@UPropertyManagerBase@@0VUClass@@A @ 886
?PrivateStaticClass@UStateButton@@0VUClass@@A @ 887
?Profile@UGUIController@@QAEXAAVFString@@@Z @ 888
?RelativeHeight@UGUIComponent@@QBEMMH@Z @ 889
?RelativeLeft@UGUIComponent@@QBEMMH@Z @ 890
?RelativeTop@UGUIComponent@@QBEMMH@Z @ 891
?RelativeWidth@UGUIComponent@@QBEMMH@Z @ 892
?RemapComponents@UGUIMultiComponent@@UAEXXZ @ 893
?RenderDesignMode@UGUIController@@QAEXPAVUCanvas@@@Z @ 894
?ResetCounter@UGUIComponent@@UAEXXZ @ 895
?ResetCounter@UGUIMultiComponent@@UAEXXZ @ 896
?ResetCounter@UGUIMultiOptionList@@UAEXXZ @ 897
?ResetCounter@UGUITabControl@@UAEXXZ @ 898
?ResetDesigner@UGUIController@@QAEXXZ @ 899
?ResetInput@UGUIController@@UAEXXZ @ 900
?ResolutionChanged@UGUIController@@UAEXHH@Z @ 901
?RestoreCanvasState@UGUI@@UAEXPAVUCanvas@@@Z @ 902
?SaveCanvasState@UGUI@@UAEXPAVUCanvas@@@Z @ 903
?SetAdjustedDims@UGUIComponent@@UAEXMMMM@Z @ 904
?SetCurrent@UPropertyManagerBase@@UAEXPAPAVUObject@@@Z @ 905
?SetDims@UGUIComponent@@UAEXMMMM@Z @ 906
?SetMoveControl@UGUIController@@QAEXPAVUGUIComponent@@@Z @ 907
?SetParent@UPropertyManagerBase@@UAEXPAVUGUIController@@@Z @ 908
?SetTip@UGUIToolTip@@QAEXAAVFString@@@Z @ 909
?SetWindow@UPropertyManagerBase@@UAEXPAX@Z @ 910
?Show@UPropertyManagerBase@@UAEXH@Z @ 911
?ShowProperties@UGUIController@@QAEHPAVUGUIComponent@@E@Z @ 912
?SpecialHit@UGUIComponent@@UAEHH@Z @ 913
?SpecialHit@UGUIMultiComponent@@UAEHH@Z @ 914
?SpecialHit@UGUIMultiOptionList@@UAEHH@Z @ 915
?SpecialHit@UGUITabControl@@UAEHH@Z @ 916
?SplitterUpdatePositions@UGUISplitter@@QAEXXZ @ 917
?StaticClass@AHudBase@@SAPAVUClass@@XZ @ 918
?StaticClass@AwHudPart_KillMessage@@SAPAVUClass@@XZ @ 919
?StaticClass@UBTTcpHandler_DS_Script@@SAPAVUClass@@XZ @ 920
?StaticClass@UCoolImage@@SAPAVUClass@@XZ @ 921
?StaticClass@UGUI@@SAPAVUClass@@XZ @ 922
?StaticClass@UGUIBorder@@SAPAVUClass@@XZ @ 923
?StaticClass@UGUIButton@@SAPAVUClass@@XZ @ 924
?StaticClass@UGUICharacterList@@SAPAVUClass@@XZ @ 925
?StaticClass@UGUICheckBoxButton@@SAPAVUClass@@XZ @ 926
?StaticClass@UGUICircularImageList@@SAPAVUClass@@XZ @ 927
?StaticClass@UGUICircularList@@SAPAVUClass@@XZ @ 928
?StaticClass@UGUIComboBox@@SAPAVUClass@@XZ @ 929
?StaticClass@UGUIComponent@@SAPAVUClass@@XZ @ 930
?StaticClass@UGUIContextMenu@@SAPAVUClass@@XZ @ 931
?StaticClass@UGUIController@@SAPAVUClass@@XZ @ 932
?StaticClass@UGUIEditBox@@SAPAVUClass@@XZ @ 933
?StaticClass@UGUIFloatEdit@@SAPAVUClass@@XZ @ 934
?StaticClass@UGUIFont@@SAPAVUClass@@XZ @ 935
?StaticClass@UGUIGFXButton@@SAPAVUClass@@XZ @ 936
?StaticClass@UGUIGripButtonBase@@SAPAVUClass@@XZ @ 937
?StaticClass@UGUIHorzList@@SAPAVUClass@@XZ @ 938
?StaticClass@UGUIImage@@SAPAVUClass@@XZ @ 939
?StaticClass@UGUILabel@@SAPAVUClass@@XZ @ 940
?StaticClass@UGUIList@@SAPAVUClass@@XZ @ 941
?StaticClass@UGUIListBase@@SAPAVUClass@@XZ @ 942
?StaticClass@UGUIListBox@@SAPAVUClass@@XZ @ 943
?StaticClass@UGUIListBoxBase@@SAPAVUClass@@XZ @ 944
?StaticClass@UGUIMenuOption@@SAPAVUClass@@XZ @ 945
?StaticClass@UGUIMultiColumnList@@SAPAVUClass@@XZ @ 946
?StaticClass@UGUIMultiColumnListBox@@SAPAVUClass@@XZ @ 947
?StaticClass@UGUIMultiColumnListDerived@@SAPAVUClass@@XZ @ 948
?StaticClass@UGUIMultiColumnListHeader@@SAPAVUClass@@XZ @ 949
?StaticClass@UGUIMultiComponent@@SAPAVUClass@@XZ @ 950
?StaticClass@UGUIMultiOptionList@@SAPAVUClass@@XZ @ 951
?StaticClass@UGUINumericEdit@@SAPAVUClass@@XZ @ 952
?StaticClass@UGUIPage@@SAPAVUClass@@XZ @ 953
?StaticClass@UGUIPanel@@SAPAVUClass@@XZ @ 954
?StaticClass@UGUIProgressBar@@SAPAVUClass@@XZ @ 955
?StaticClass@UGUIScrollBarBase@@SAPAVUClass@@XZ @ 956
?StaticClass@UGUIScrollButtonBase@@SAPAVUClass@@XZ @ 957
?StaticClass@UGUIScrollText@@SAPAVUClass@@XZ @ 958
?StaticClass@UGUIScrollTextBox@@SAPAVUClass@@XZ @ 959
?StaticClass@UGUIScrollZoneBase@@SAPAVUClass@@XZ @ 960
?StaticClass@UGUISectionBackground@@SAPAVUClass@@XZ @ 961
?StaticClass@UGUISlider@@SAPAVUClass@@XZ @ 962
?StaticClass@UGUISpinnerButton@@SAPAVUClass@@XZ @ 963
?StaticClass@UGUISplitter@@SAPAVUClass@@XZ @ 964
?StaticClass@UGUIStyles@@SAPAVUClass@@XZ @ 965
?StaticClass@UGUITabButton@@SAPAVUClass@@XZ @ 966
?StaticClass@UGUITabControl@@SAPAVUClass@@XZ @ 967
?StaticClass@UGUITabPanel@@SAPAVUClass@@XZ @ 968
?StaticClass@UGUITitleBar@@SAPAVUClass@@XZ @ 969
?StaticClass@UGUIToolTip@@SAPAVUClass@@XZ @ 970
?StaticClass@UGUITreeList@@SAPAVUClass@@XZ @ 971
?StaticClass@UGUITreeListBox@@SAPAVUClass@@XZ @ 972
?StaticClass@UGUIVertImageList@@SAPAVUClass@@XZ @ 973
?StaticClass@UGUIVertList@@SAPAVUClass@@XZ @ 974
?StaticClass@UMultiSelectList@@SAPAVUClass@@XZ @ 975
?StaticClass@UPropertyManagerBase@@SAPAVUClass@@XZ @ 976
?StaticClass@UStateButton@@SAPAVUClass@@XZ @ 977
?TextSize@UGUIStyles@@QAEXPAVUCanvas@@EPBGAAM2E@Z @ 978
?UnderCursor@UGUIComponent@@UAEPAV1@MM@Z @ 979
?UnderCursor@UGUIController@@QAEPAVUGUIComponent@@MM@Z @ 980
?UnderCursor@UGUIMultiComponent@@UAEPAVUGUIComponent@@MM@Z @ 981
?UnderCursor@UGUIMultiOptionList@@UAEPAVUGUIComponent@@MM@Z @ 982
?UnderCursor@UGUIPage@@UAEPAVUGUIComponent@@MM@Z @ 983
?UnderCursor@UGUITabButton@@UAEPAVUGUIComponent@@MM@Z @ 984
?UnderCursor@UGUITabControl@@UAEPAVUGUIComponent@@MM@Z @ 985
?UpdateBounds@UGUIComponent@@UAEXXZ @ 986
?UpdateBounds@UGUIImage@@UAEXXZ @ 987
?UpdateIndex@UGUIContextMenu@@UAEXHH@Z @ 988
?UpdateOffset@UGUIComponent@@UAEXMMMM@Z @ 989
?UpdateTimers@UGUIPage@@QAEXM@Z @ 990
?UpdateVisibleCount@UGUITreeList@@QAEXXZ @ 991
?WithinBounds@UGUIComponent@@QBEHMM@Z @ 992
?WrapURL@UGUIScrollText@@QBEHAAVFString@@@Z @ 993
?XINTERFACE_AddBuddy@@3VFName@@A @ 994
?XINTERFACE_AddComponent@@3VFName@@A @ 995
?XINTERFACE_AddComponentClass@@3VFName@@A @ 996
?XINTERFACE_AdditionalDebugString@@3VFName@@A @ 997
?XINTERFACE_AlignThumb@@3VFName@@A @ 998
?XINTERFACE_AppendComponent@@3VFName@@A @ 999
?XINTERFACE_BeginAnimation@@3VFName@@A @ 1000
?XINTERFACE_CalcMarkerPosition@@3VFName@@A @ 1001
?XINTERFACE_CalculateIndex@@3VFName@@A @ 1002
?XINTERFACE_CanAcceptFocus@@3VFName@@A @ 1003
?XINTERFACE_CanFocusElement@@3VFName@@A @ 1004
?XINTERFACE_CanShowHints@@3VFName@@A @ 1005
?XINTERFACE_ChangeFocus@@3VFName@@A @ 1006
?XINTERFACE_ChangeHint@@3VFName@@A @ 1007
?XINTERFACE_CheckLinkedObjects@@3VFName@@A @ 1008
?XINTERFACE_Closed@@3VFName@@A @ 1009
?XINTERFACE_CompareItem@@3VFName@@A @ 1010
?XINTERFACE_CreateMenu@@3VFName@@A @ 1011
?XINTERFACE_DropStateChange@@3VFName@@A @ 1012
?XINTERFACE_ElementVisible@@3VFName@@A @ 1013
?XINTERFACE_EndAnimation@@3VFName@@A @ 1014
?XINTERFACE_EnterArea@@3VFName@@A @ 1015
?XINTERFACE_FadedIn@@3VFName@@A @ 1016
?XINTERFACE_FadedOut@@3VFName@@A @ 1017
?XINTERFACE_FindMenuIndex@@3VFName@@A @ 1018
?XINTERFACE_FindMenuIndexByName@@3VFName@@A @ 1019
?XINTERFACE_FindPersistentMenuByName@@3VFName@@A @ 1020
?XINTERFACE_FindPersistentMenuIndex@@3VFName@@A @ 1021
?XINTERFACE_FocusFirst@@3VFName@@A @ 1022
?XINTERFACE_FocusLast@@3VFName@@A @ 1023
?XINTERFACE_GetFont@@3VFName@@A @ 1024
?XINTERFACE_GetHeight@@3VFName@@A @ 1025
?XINTERFACE_GetItemHeight@@3VFName@@A @ 1026
?XINTERFACE_GetLeft@@3VFName@@A @ 1027
?XINTERFACE_GetMarkerPosition@@3VFName@@A @ 1028
?XINTERFACE_GetMenuFont@@3VFName@@A @ 1029
?XINTERFACE_GetSortString@@3VFName@@A @ 1030
?XINTERFACE_GetStyle@@3VFName@@A @ 1031
?XINTERFACE_GetTop@@3VFName@@A @ 1032
?XINTERFACE_GetWidth@@3VFName@@A @ 1033
?XINTERFACE_HandleContextMenuClose@@3VFName@@A @ 1034
?XINTERFACE_HandleContextMenuOpen@@3VFName@@A @ 1035
?XINTERFACE_HandleParameters@@3VFName@@A @ 1036
?XINTERFACE_HasChildren@@3VFName@@A @ 1037
?XINTERFACE_Hide@@3VFName@@A @ 1038
?XINTERFACE_HideToolTip@@3VFName@@A @ 1039
?XINTERFACE_InitComponent@@3VFName@@A @ 1040
?XINTERFACE_Initialize@@3VFName@@A @ 1041
?XINTERFACE_InitializeColumns@@3VFName@@A @ 1042
?XINTERFACE_InsertComponent@@3VFName@@A @ 1043
?XINTERFACE_IsExpanded@@3VFName@@A @ 1044
?XINTERFACE_IsMultiSelect@@3VFName@@A @ 1045
?XINTERFACE_LeaveArea@@3VFName@@A @ 1046
?XINTERFACE_LoseFocus@@3VFName@@A @ 1047
?XINTERFACE_MakeTabActive@@3VFName@@A @ 1048
?XINTERFACE_MenuStateChange@@3VFName@@A @ 1049
?XINTERFACE_MoveFocused@@3VFName@@A @ 1050
?XINTERFACE_MoveGripBy@@3VFName@@A @ 1051
?XINTERFACE_MultiCalculateIndex@@3VFName@@A @ 1052
?XINTERFACE_NextControl@@3VFName@@A @ 1053
?XINTERFACE_NextPage@@3VFName@@A @ 1054
?XINTERFACE_NotifyContextSelect@@3VFName@@A @ 1055
?XINTERFACE_OnActivate@@3VFName@@A @ 1056
?XINTERFACE_OnAdjustTop@@3VFName@@A @ 1057
?XINTERFACE_OnArrival@@3VFName@@A @ 1058
?XINTERFACE_OnBeginDrag@@3VFName@@A @ 1059
?XINTERFACE_OnBeginTooltip@@3VFName@@A @ 1060
?XINTERFACE_OnCanClose@@3VFName@@A @ 1061
?XINTERFACE_OnCapturedMouseMove@@3VFName@@A @ 1062
?XINTERFACE_OnChange@@3VFName@@A @ 1063
?XINTERFACE_OnClick@@3VFName@@A @ 1064
?XINTERFACE_OnClose@@3VFName@@A @ 1065
?XINTERFACE_OnColumnSized@@3VFName@@A @ 1066
?XINTERFACE_OnContextHitTest@@3VFName@@A @ 1067
?XINTERFACE_OnCreateComponent@@3VFName@@A @ 1068
?XINTERFACE_OnDblClick@@3VFName@@A @ 1069
?XINTERFACE_OnDeActivate@@3VFName@@A @ 1070
?XINTERFACE_OnDesignModeKeyEvent@@3VFName@@A @ 1071
?XINTERFACE_OnDragDrop@@3VFName@@A @ 1072
?XINTERFACE_OnDragEnter@@3VFName@@A @ 1073
?XINTERFACE_OnDragLeave@@3VFName@@A @ 1074
?XINTERFACE_OnDragOver@@3VFName@@A @ 1075
?XINTERFACE_OnDraw@@3VFName@@A @ 1076
?XINTERFACE_OnDrawCaption@@3VFName@@A @ 1077
?XINTERFACE_OnDrawItem@@3VFName@@A @ 1078
?XINTERFACE_OnDrawText@@3VFName@@A @ 1079
?XINTERFACE_OnEndAnimation@@3VFName@@A @ 1080
?XINTERFACE_OnEndDrag@@3VFName@@A @ 1081
?XINTERFACE_OnEndOfLine@@3VFName@@A @ 1082
?XINTERFACE_OnEndTooltip@@3VFName@@A @ 1083
?XINTERFACE_OnHide@@3VFName@@A @ 1084
?XINTERFACE_OnHideList@@3VFName@@A @ 1085
?XINTERFACE_OnHitTest@@3VFName@@A @ 1086
?XINTERFACE_OnHover@@3VFName@@A @ 1087
?XINTERFACE_OnInvalidate@@3VFName@@A @ 1088
?XINTERFACE_OnIsSelectibleIndex@@3VFName@@A @ 1089
?XINTERFACE_OnItemDblClick@@3VFName@@A @ 1090
?XINTERFACE_OnKeyEvent@@3VFName@@A @ 1091
?XINTERFACE_OnKeyType@@3VFName@@A @ 1092
?XINTERFACE_OnLoadINI@@3VFName@@A @ 1093
?XINTERFACE_OnMessage@@3VFName@@A @ 1094
?XINTERFACE_OnMinusClick@@3VFName@@A @ 1095
?XINTERFACE_OnMousePressed@@3VFName@@A @ 1096
?XINTERFACE_OnMouseRelease@@3VFName@@A @ 1097
?XINTERFACE_OnMultiSelect@@3VFName@@A @ 1098
?XINTERFACE_OnNeedRawKeyPress@@3VFName@@A @ 1099
?XINTERFACE_OnOpen@@3VFName@@A @ 1100
?XINTERFACE_OnPlusClick@@3VFName@@A @ 1101
?XINTERFACE_OnPostDraw@@3VFName@@A @ 1102
?XINTERFACE_OnPreDraw@@3VFName@@A @ 1103
?XINTERFACE_OnPreDrawCaption@@3VFName@@A @ 1104
?XINTERFACE_OnReOpen@@3VFName@@A @ 1105
?XINTERFACE_OnReleaseSplitter@@3VFName@@A @ 1106
?XINTERFACE_OnRender@@3VFName@@A @ 1107
?XINTERFACE_OnRendered@@3VFName@@A @ 1108
?XINTERFACE_OnRightClick@@3VFName@@A @ 1109
?XINTERFACE_OnSaveINI@@3VFName@@A @ 1110
?XINTERFACE_OnScrollBy@@3VFName@@A @ 1111
?XINTERFACE_OnScrollZoneClick@@3VFName@@A @ 1112
?XINTERFACE_OnSelect@@3VFName@@A @ 1113
?XINTERFACE_OnShow@@3VFName@@A @ 1114
?XINTERFACE_OnShowList@@3VFName@@A @ 1115
?XINTERFACE_OnSortChanged@@3VFName@@A @ 1116
?XINTERFACE_OnTimer@@3VFName@@A @ 1117
?XINTERFACE_OnTrack@@3VFName@@A @ 1118
?XINTERFACE_OnWatch@@3VFName@@A @ 1119
?XINTERFACE_Opened@@3VFName@@A @ 1120
?XINTERFACE_OwnerPage@@3VFName@@A @ 1121
?XINTERFACE_PopMenu@@3VFName@@A @ 1122
?XINTERFACE_PositionChanged@@3VFName@@A @ 1123
?XINTERFACE_PressedCloseWndBtn@@3VFName@@A @ 1124
?XINTERFACE_PrevControl@@3VFName@@A @ 1125
?XINTERFACE_PrevPage@@3VFName@@A @ 1126
?XINTERFACE_PushMenu@@3VFName@@A @ 1127
?XINTERFACE_RemoveComponent@@3VFName@@A @ 1128
?XINTERFACE_RemoveMenu@@3VFName@@A @ 1129
?XINTERFACE_ResetItem@@3VFName@@A @ 1130
?XINTERFACE_ResolutionChanged@@3VFName@@A @ 1131
?XINTERFACE_SetFocus@@3VFName@@A @ 1132
?XINTERFACE_SetText@@3VFName@@A @ 1133
?XINTERFACE_SetVisibility@@3VFName@@A @ 1134
?XINTERFACE_Show@@3VFName@@A @ 1135
?XINTERFACE_ShowToolTip@@3VFName@@A @ 1136
?XINTERFACE_Swap@@3VFName@@A @ 1137
?XINTERFACE_Tick@@3VFName@@A @ 1138
?XINTERFACE_Timer@@3VFName@@A @ 1139
?XINTERFACE_UpdatePosition@@3VFName@@A @ 1140
?XINTERFACE_UpdateScrollbarForcedPosition@@3VFName@@A @ 1141
?XINTERFACE_ValidIndex@@3VFName@@A @ 1142
?XINTERFACE_ValidSelection@@3VFName@@A @ 1143
?XINTERFACE_ValidSelectionAt@@3VFName@@A @ 1144
?XINTERFACE_Validate@@3VFName@@A @ 1145
?XINTERFACE_free@@3VFName@@A @ 1146
?btrDrawTextStyles@UGUIStyles@@QAEXPAVUCanvas@@EMMMMEPBGE@Z @ 1147
?btrTextSizeStyles@UGUIStyles@@QAEXPAVUCanvas@@EPBGAAM2EH@Z @ 1148
?delegateAddBuddy@UGUIController@@QAEXABVFString@@@Z @ 1149
?delegateAlignThumb@UGUIScrollBarBase@@QAEXXZ @ 1150
?delegateCalcMarkerPosition@UGUISlider@@QAEMXZ @ 1151
?delegateCheckLinkedObjects@UGUIListBase@@QAEXPAV1@@Z @ 1152
?delegateCompareItem@UGUIList@@QAEHUFGUIListElem@@0@Z @ 1153
?delegateCompareItem@UGUITreeList@@QAEHUFGUITreeNode@@0@Z @ 1154
?delegateEnterArea@UGUIToolTip@@QAEPAV1@XZ @ 1155
?delegateFadedIn@UGUIPage@@QAEXXZ @ 1156
?delegateFadedOut@UGUIPage@@QAEXXZ @ 1157
?delegateGetHeight@UGUIToolTip@@QAEMPAVUCanvas@@@Z @ 1158
?delegateGetItemHeight@UGUIVertList@@QAEMPAVUCanvas@@@Z @ 1159
?delegateGetLeft@UGUIToolTip@@QAEMPAVUCanvas@@@Z @ 1160
?delegateGetSortString@UGUIMultiColumnList@@QAE?AVFString@@H@Z @ 1161
?delegateGetTop@UGUIToolTip@@QAEMPAVUCanvas@@@Z @ 1162
?delegateGetWidth@UGUIToolTip@@QAEMPAVUCanvas@@@Z @ 1163
?delegateHandleContextMenuClose@UGUIMultiComponent@@QAEKPAVUGUIContextMenu@@@Z @ 1164
?delegateHandleContextMenuOpen@UGUIMultiComponent@@QAEKPAVUGUIComponent@@PAVUGUIContextMenu@@0@Z @ 1165
?delegateHideToolTip@UGUIToolTip@@QAEXXZ @ 1166
?delegateLeaveArea@UGUIToolTip@@QAEKXZ @ 1167
?delegateMoveGripBy@UGUIScrollBarBase@@QAEXH@Z @ 1168
?delegateNotifyContextSelect@UGUIMultiComponent@@QAEKPAVUGUIContextMenu@@H@Z @ 1169
?delegateOnActivate@UGUIComponent@@QAEXXZ @ 1170
?delegateOnAdjustTop@UGUIListBase@@QAEXPAVUGUIComponent@@@Z @ 1171
?delegateOnArrival@UGUIComponent@@QAEXPAV1@E@Z @ 1172
?delegateOnBeginDrag@UGUIComponent@@QAEKPAV1@@Z @ 1173
?delegateOnBeginTooltip@UGUIComponent@@QAEPAVUGUIToolTip@@XZ @ 1174
?delegateOnCanClose@UGUIPage@@QAEKK@Z @ 1175
?delegateOnCapturedMouseMove@UGUIComponent@@QAEKMM@Z @ 1176
?delegateOnChange@UGUIComponent@@QAEXPAV1@@Z @ 1177
?delegateOnClick@UGUIComponent@@QAEKPAV1@@Z @ 1178
?delegateOnClose@UGUIContextMenu@@QAEKPAV1@@Z @ 1179
?delegateOnClose@UGUIPage@@QAEXK@Z @ 1180
?delegateOnColumnSized@UGUIMultiColumnList@@QAEXH@Z @ 1181
?delegateOnContextHitTest@UGUIContextMenu@@QAEKMM@Z @ 1182
?delegateOnCreateComponent@UGUIMultiComponent@@QAEXPAVUGUIComponent@@0@Z @ 1183
?delegateOnCreateComponent@UGUIMultiOptionList@@QAEXPAVUGUIMenuOption@@PAV1@@Z @ 1184
?delegateOnDblClick@UGUIComponent@@QAEKPAV1@@Z @ 1185
?delegateOnDeActivate@UGUIComponent@@QAEXXZ @ 1186
?delegateOnDesignModeKeyEvent@UGUIComponent@@QAEKEE@Z @ 1187
?delegateOnDragDrop@UGUIComponent@@QAEKPAV1@@Z @ 1188
?delegateOnDragEnter@UGUIComponent@@QAEXPAV1@@Z @ 1189
?delegateOnDragLeave@UGUIComponent@@QAEXPAV1@@Z @ 1190
?delegateOnDragOver@UGUIComponent@@QAEXPAV1@@Z @ 1191
?delegateOnDraw@UGUIComponent@@QAEKPAVUCanvas@@@Z @ 1192
?delegateOnDraw@UGUIStyles@@QAEKPAVUCanvas@@EMMMM@Z @ 1193
?delegateOnDrawCaption@UGUISlider@@QAE?AVFString@@XZ @ 1194
?delegateOnDrawItem@UGUIListBase@@QAEXPAVUCanvas@@HMMMMKK@Z @ 1195
?delegateOnDrawText@UGUIStyles@@QAEKPAVUCanvas@@EMMMMEABVFString@@E@Z @ 1196
?delegateOnEndAnimation@UGUIComponent@@QAEXPAV1@E@Z @ 1197
?delegateOnEndDrag@UGUIComponent@@QAEXPAV1@K@Z @ 1198
?delegateOnEndOfLine@UGUIScrollText@@QAEXXZ @ 1199
?delegateOnEndTooltip@UGUIComponent@@QAEKXZ @ 1200
?delegateOnHide@UGUIComponent@@QAEXXZ @ 1201
?delegateOnHideList@UGUIComboBox@@QAEXXZ @ 1202
?delegateOnHitTest@UGUIComponent@@QAEXMM@Z @ 1203
?delegateOnHover@UGUIComponent@@QAEKPAV1@@Z @ 1204
?delegateOnInvalidate@UGUIComponent@@QAEXPAV1@@Z @ 1205
?delegateOnIsSelectibleIndex@UGUIVertImageList@@QAEKPAVUGUIComponent@@H@Z @ 1206
?delegateOnItemDblClick@UGUIVertImageList@@QAEKPAVUGUIComponent@@@Z @ 1207
?delegateOnKeyEvent@UGUIComponent@@QAEKAAE0M@Z @ 1208
?delegateOnKeyType@UGUIComponent@@QAEKAAEABVFString@@@Z @ 1209
?delegateOnLoadINI@UGUIComponent@@QAEXPAV1@ABVFString@@@Z @ 1210
?delegateOnMessage@UGUIComponent@@QAEXABVFString@@M@Z @ 1211
?delegateOnMinusClick@UGUISpinnerButton@@QAEKPAVUGUIComponent@@@Z @ 1212
?delegateOnMousePressed@UGUIComponent@@QAEXPAV1@K@Z @ 1213
?delegateOnMouseRelease@UGUIComponent@@QAEXPAV1@@Z @ 1214
?delegateOnMultiSelect@UGUIComponent@@QAEKPAV1@@Z @ 1215
?delegateOnNeedRawKeyPress@UGUIController@@QAEKE@Z @ 1216
?delegateOnOpen@UGUIContextMenu@@QAEKPAV1@@Z @ 1217
?delegateOnOpen@UGUIPage@@QAEXXZ @ 1218
?delegateOnPlusClick@UGUISpinnerButton@@QAEKPAVUGUIComponent@@@Z @ 1219
?delegateOnPostDraw@UGUIPanel@@QAEKPAVUCanvas@@@Z @ 1220
?delegateOnPreDraw@UGUIComponent@@QAEKPAVUCanvas@@@Z @ 1221
?delegateOnPreDrawCaption@UGUISlider@@QAEKAAM000AAE@Z @ 1222
?delegateOnReOpen@UGUIPage@@QAEXXZ @ 1223
?delegateOnReleaseSplitter@UGUISplitter@@QAEXPAVUGUIComponent@@M@Z @ 1224
?delegateOnRender@UGUIComponent@@QAEXPAVUCanvas@@@Z @ 1225
?delegateOnRendered@UGUIComponent@@QAEXPAVUCanvas@@@Z @ 1226
?delegateOnRightClick@UGUIComponent@@QAEKPAV1@@Z @ 1227
?delegateOnSaveINI@UGUIComponent@@QAE?AVFString@@PAV1@@Z @ 1228
?delegateOnScrollBy@UGUIListBase@@QAEXPAVUGUIComponent@@@Z @ 1229
?delegateOnScrollZoneClick@UGUIScrollZoneBase@@QAEXM@Z @ 1230
?delegateOnSelect@UGUIContextMenu@@QAEXPAV1@H@Z @ 1231
?delegateOnShow@UGUIComponent@@QAEXXZ @ 1232
?delegateOnShowList@UGUIComboBox@@QAEXXZ @ 1233
?delegateOnTimer@UGUIComponent@@QAEXPAV1@@Z @ 1234
?delegateOnTrack@UGUIListBase@@QAEXPAVUGUIComponent@@H@Z @ 1235
?delegateOnWatch@UGUIComponent@@QAEXXZ @ 1236
?delegatePositionChanged@UGUIScrollBarBase@@QAEXH@Z @ 1237
?delegatePressedCloseWndBtn@UGUIController@@QAEXXZ @ 1238
?delegateShowToolTip@UGUIToolTip@@QAEXXZ @ 1239
?delegateTick@UGUIToolTip@@QAEXM@Z @ 1240
?eventAddComponent@UGUIMultiComponent@@QAEPAVUGUIComponent@@ABVFString@@K@Z @ 1241
?eventAddComponentClass@UGUIController@@QAEPAVUClass@@ABVFString@@@Z @ 1242
?eventAdditionalDebugString@UGUIComponent@@QAE?AVFString@@XZ @ 1243
?eventAppendComponent@UGUIMultiComponent@@QAEPAVUGUIComponent@@PAV2@K@Z @ 1244
?eventBeginAnimation@UGUIComponent@@QAEXPAV1@@Z @ 1245
?eventCalculateIndex@UGUIListBase@@QAEHK@Z @ 1246
?eventCanAcceptFocus@UGUIComponent@@QAEKXZ @ 1247
?eventCanFocusElement@UGUIMultiOptionList@@QAEKPAVUGUIMenuOption@@@Z @ 1248
?eventCanShowHints@UGUIController@@QAEKXZ @ 1249
?eventChangeFocus@UGUIController@@QAEXPAVUGUIComponent@@@Z @ 1250
?eventChangeHint@UGUIPage@@QAEXABVFString@@@Z @ 1251
?eventClosed@UGUIComponent@@QAEXPAV1@K@Z @ 1252
?eventCreateMenu@UGUIController@@QAEPAVUGUIPage@@ABVFString@@@Z @ 1253
?eventDropStateChange@UGUIComponent@@QAEXE@Z @ 1254
?eventElementVisible@UGUIMultiOptionList@@QAEKH@Z @ 1255
?eventEndAnimation@UGUIComponent@@QAEXPAV1@E@Z @ 1256
?eventFindMenuIndex@UGUIController@@QAEHPAVUGUIPage@@@Z @ 1257
?eventFindMenuIndexByName@UGUIController@@QAEHABVFString@@@Z @ 1258
?eventFindPersistentMenuByName@UGUIController@@QAEPAVUGUIPage@@ABVFString@@@Z @ 1259
?eventFindPersistentMenuIndex@UGUIController@@QAEHPAVUGUIPage@@@Z @ 1260
?eventFocusFirst@UGUIComponent@@QAEKPAV1@@Z @ 1261
?eventFocusLast@UGUIComponent@@QAEKPAV1@@Z @ 1262
?eventGetFont@UGUIFont@@QAEPAVUFont@@H@Z @ 1263
?eventGetMarkerPosition@UGUISlider@@QAEMXZ @ 1264
?eventGetMenuFont@UGUIController@@QAEPAVUGUIFont@@ABVFString@@@Z @ 1265
?eventGetStyle@UGUIController@@QAEPAVUGUIStyles@@ABVFString@@AAE@Z @ 1266
?eventHandleParameters@UGUIPage@@QAEXABVFString@@0@Z @ 1267
?eventHasChildren@UGUITreeList@@QAEKH@Z @ 1268
?eventHide@UGUIComponent@@QAEXXZ @ 1269
?eventInitComponent@UGUIComponent@@QAEXPAVUGUIController@@PAV1@@Z @ 1270
?eventInitialize@UGUIStyles@@QAEXXZ @ 1271
?eventInitializeColumns@UGUIMultiColumnList@@QAEXPAVUCanvas@@@Z @ 1272
?eventInsertComponent@UGUIMultiComponent@@QAEPAVUGUIComponent@@PAV2@HK@Z @ 1273
?eventIsExpanded@UGUITreeList@@QAEKH@Z @ 1274
?eventIsMultiSelect@UGUIComponent@@QAEKXZ @ 1275
?eventLoseFocus@UGUIComponent@@QAEXPAV1@@Z @ 1276
?eventMakeTabActive@UGUITabControl@@QAEXPAVUGUITabButton@@@Z @ 1277
?eventMenuStateChange@UGUIComponent@@QAEXE@Z @ 1278
?eventMoveFocused@UGUIController@@QAEXPAVUGUIComponent@@HHHHMMM@Z @ 1279
?eventMultiCalculateIndex@UGUIListBase@@QAEHK@Z @ 1280
?eventNextControl@UGUIComponent@@QAEKPAV1@@Z @ 1281
?eventNextPage@UGUIComponent@@QAEKXZ @ 1282
?eventOnSortChanged@UGUIMultiColumnList@@QAEXXZ @ 1283
?eventOpened@UGUIComponent@@QAEXPAV1@@Z @ 1284
?eventOwnerPage@UGUIComponent@@QAEPAVUGUIPage@@XZ @ 1285
?eventPopMenu@UGUIController@@QAEXHPAVUGUIPage@@K@Z @ 1286
?eventPrevControl@UGUIComponent@@QAEKPAV1@@Z @ 1287
?eventPrevPage@UGUIComponent@@QAEKXZ @ 1288
?eventPushMenu@UGUIController@@QAEXHPAVUGUIPage@@ABVFString@@1@Z @ 1289
?eventRemoveComponent@UGUIMultiComponent@@QAEKPAVUGUIComponent@@K@Z @ 1290
?eventRemoveMenu@UGUIController@@QAEKPAVUGUIPage@@K@Z @ 1291
?eventResetItem@UCoolImage@@QAEXH@Z @ 1292
?eventResolutionChanged@UGUIComponent@@QAEXHH@Z @ 1293
?eventSetFocus@UGUIComponent@@QAEXPAV1@@Z @ 1294
?eventSetText@UGUIEditBox@@QAEXABVFString@@@Z @ 1295
?eventSetVisibility@UGUIComponent@@QAEXK@Z @ 1296
?eventShow@UGUIComponent@@QAEXXZ @ 1297
?eventSwap@UGUICircularImageList@@QAEXHH@Z @ 1298
?eventSwap@UGUIList@@QAEXHH@Z @ 1299
?eventSwap@UGUITreeList@@QAEKHH@Z @ 1300
?eventSwap@UGUIVertImageList@@QAEXHH@Z @ 1301
?eventTimer@UGUIComponent@@QAEXXZ @ 1302
?eventUpdatePosition@UGUIToolTip@@QAEXPAVUCanvas@@@Z @ 1303
?eventUpdateScrollbarForcedPosition@UGUIListBase@@QAEXXZ @ 1304
?eventValidIndex@UGUIMultiOptionList@@QAEKH@Z @ 1305
?eventValidSelection@UGUITreeList@@QAEKXZ @ 1306
?eventValidSelectionAt@UGUITreeList@@QAEKH@Z @ 1307
?eventValidate@UGUIController@@QAEXXZ @ 1308
?eventfree@UGUIComponent@@QAEXXZ @ 1309
?execActualHeight@UGUIComponent@@QAEXAAUFFrame@@QAX@Z @ 1310
?execActualLeft@UGUIComponent@@QAEXAAUFFrame@@QAX@Z @ 1311
?execActualTop@UGUIComponent@@QAEXAAUFFrame@@QAX@Z @ 1312
?execActualWidth@UGUIComponent@@QAEXAAUFFrame@@QAX@Z @ 1313
?execAddedItem@UGUIMultiColumnList@@QAEXAAUFFrame@@QAX@Z @ 1314
?execAuthroizeFirewall@UGUIController@@QAEXAAUFFrame@@QAX@Z @ 1315
?execAutoPosition@UGUIComponent@@QAEXAAUFFrame@@QAX@Z @ 1316
?execAutoPositionOn@UGUIComponent@@QAEXAAUFFrame@@QAX@Z @ 1317
?execCalcNametagPosNative@AHudBase@@QAEXAAUFFrame@@QAX@Z @ 1318
?execCalculateCoordinate@AHudBase@@QAEXAAUFFrame@@QAX@Z @ 1319
?execCalculateCoordinateDigit@AHudBase@@QAEXAAUFFrame@@QAX@Z @ 1320
?execCalculateCoordinateDigitEx@AHudBase@@QAEXAAUFFrame@@QAX@Z @ 1321
?execCalculateCoordinateEx@AHudBase@@QAEXAAUFFrame@@QAX@Z @ 1322
?execChangeSortOrder@UGUIMultiColumnList@@QAEXAAUFFrame@@QAX@Z @ 1323
?execCheckFirewall@UGUIController@@QAEXAAUFFrame@@QAX@Z @ 1324
?execCheckForECE@UGUIController@@QAEXAAUFFrame@@QAX@Z @ 1325
?execDraw@UGUIStyles@@QAEXAAUFFrame@@QAX@Z @ 1326
?execDrawNametagsNative@AHudBase@@QAEXAAUFFrame@@QAX@Z @ 1327
?execDrawNative@AwHudPart_KillMessage@@QAEXAAUFFrame@@QAX@Z @ 1328
?execDrawNumericWidget@AHudBase@@QAEXAAUFFrame@@QAX@Z @ 1329
?execDrawSpriteWidget@AHudBase@@QAEXAAUFFrame@@QAX@Z @ 1330
?execDrawText@UGUIStyles@@QAEXAAUFFrame@@QAX@Z @ 1331
?execDrawTileFromSpriteWidget2@AHudBase@@QAEXAAUFFrame@@QAX@Z @ 1332
?execDrawTileFromSpriteWidget@AHudBase@@QAEXAAUFFrame@@QAX@Z @ 1333
?execDrawWarfareCrosshairExtNative@AHudBase@@QAEXAAUFFrame@@QAX@Z @ 1334
?execFindComponentIndex@UGUIMultiComponent@@QAEXAAUFFrame@@QAX@Z @ 1335
?execGetCurrentRes@UGUIController@@QAEXAAUFFrame@@QAX@Z @ 1336
?execGetDEMHeader@UGUIController@@QAEXAAUFFrame@@QAX@Z @ 1337
?execGetDEMList@UGUIController@@QAEXAAUFFrame@@QAX@Z @ 1338
?execGetFont@UGUIFont@@QAEXAAUFFrame@@QAX@Z @ 1339
?execGetListIndex@UGUIMultiColumnList@@QAEXAAUFFrame@@QAX@Z @ 1340
?execGetMainMenuClass@UGUIController@@QAEXAAUFFrame@@QAX@Z @ 1341
?execGetMapList@UGUIController@@QAEXAAUFFrame@@QAX@Z @ 1342
?execGetMenuFont@UGUIController@@QAEXAAUFFrame@@QAX@Z @ 1343
?execGetMenuPath@UGUIComponent@@QAEXAAUFFrame@@QAX@Z @ 1344
?execGetModList@UGUI@@QAEXAAUFFrame@@QAX@Z @ 1345
?execGetModLogo@UGUI@@QAEXAAUFFrame@@QAX@Z @ 1346
?execGetModValue@UGUI@@QAEXAAUFFrame@@QAX@Z @ 1347
?execGetOGGList@UGUIController@@QAEXAAUFFrame@@QAX@Z @ 1348
?execGetOwnageList@UGUIController@@QAEXAAUFFrame@@QAX@Z @ 1349
?execGetProfileList@UGUIController@@QAEXAAUFFrame@@QAX@Z @ 1350
?execGetStyle@UGUIController@@QAEXAAUFFrame@@QAX@Z @ 1351
?execGetWeaponList@UGUIController@@QAEXAAUFFrame@@QAX@Z @ 1352
?execGetWordUnderCursor@UGUIScrollText@@QAEXAAUFFrame@@QAX@Z @ 1353
?execInitializeControls@UGUIMultiComponent@@QAEXAAUFFrame@@QAX@Z @ 1354
?execIsCorrectUserName@UGUIComponent@@QAEXAAUFFrame@@QAX@Z @ 1355
?execIsCorrectUserName_China@UGUIComponent@@QAEXAAUFFrame@@QAX@Z @ 1356
?execIsCorrectUserName_THAILAND@UGUIComponent@@QAEXAAUFFrame@@QAX@Z @ 1357
?execIsInIncompleteLetter@UGUIComponent@@QAEXAAUFFrame@@QAX@Z @ 1358
?execKillTimer@UGUIComponent@@QAEXAAUFFrame@@QAX@Z @ 1359
?execLaunchURL@UGUIController@@QAEXAAUFFrame@@QAX@Z @ 1360
?execOnIME_Notify@UGUIEditBox@@QAEXAAUFFrame@@QAX@Z @ 1361
?execPlayInterfaceSound@UGUIController@@QAEXAAUFFrame@@QAX@Z @ 1362
?execPlayerOwner@UGUIComponent@@QAEXAAUFFrame@@QAX@Z @ 1363
?execProfile@UGUI@@QAEXAAUFFrame@@QAX@Z @ 1364
?execProfile@UGUIController@@QAEXAAUFFrame@@QAX@Z @ 1365
?execRelativeHeight@UGUIComponent@@QAEXAAUFFrame@@QAX@Z @ 1366
?execRelativeLeft@UGUIComponent@@QAEXAAUFFrame@@QAX@Z @ 1367
?execRelativeTop@UGUIComponent@@QAEXAAUFFrame@@QAX@Z @ 1368
?execRelativeWidth@UGUIComponent@@QAEXAAUFFrame@@QAX@Z @ 1369
?execRemapComponents@UGUIMultiComponent@@QAEXAAUFFrame@@QAX@Z @ 1370
?execRemovedItem@UGUIMultiColumnList@@QAEXAAUFFrame@@QAX@Z @ 1371
?execResetDesigner@UGUIController@@QAEXAAUFFrame@@QAX@Z @ 1372
?execResetInput@UGUIController@@QAEXAAUFFrame@@QAX@Z @ 1373
?execResetKeyboard@UGUIController@@QAEXAAUFFrame@@QAX@Z @ 1374
?execSaveOwnageList@UGUIController@@QAEXAAUFFrame@@QAX@Z @ 1375
?execSetMoveControl@UGUIController@@QAEXAAUFFrame@@QAX@Z @ 1376
?execSetRenderDevice@UGUIController@@QAEXAAUFFrame@@QAX@Z @ 1377
?execSetTimer@UGUIComponent@@QAEXAAUFFrame@@QAX@Z @ 1378
?execSetTip@UGUIToolTip@@QAEXAAUFFrame@@QAX@Z @ 1379
?execSortList@UGUIList@@QAEXAAUFFrame@@QAX@Z @ 1380
?execSortList@UGUIMultiColumnList@@QAEXAAUFFrame@@QAX@Z @ 1381
?execSortList@UGUITreeList@@QAEXAAUFFrame@@QAX@Z @ 1382
?execSpecialHit@UGUIComponent@@QAEXAAUFFrame@@QAX@Z @ 1383
?execSplitterUpdatePositions@UGUISplitter@@QAEXAAUFFrame@@QAX@Z @ 1384
?execTextSize@UGUIStyles@@QAEXAAUFFrame@@QAX@Z @ 1385
?execUpdateBounds@UGUIComponent@@QAEXAAUFFrame@@QAX@Z @ 1386
?execUpdateOffset@UGUIComponent@@QAEXAAUFFrame@@QAX@Z @ 1387
?execUpdateVisibleCount@UGUITreeList@@QAEXAAUFFrame@@QAX@Z @ 1388
?execUpdatedItem@UGUIMultiColumnList@@QAEXAAUFFrame@@QAX@Z @ 1389
?execbtrDrawTextStyles@UGUIStyles@@QAEXAAUFFrame@@QAX@Z @ 1390
?execbtrTextSizeStyles@UGUIStyles@@QAEXAAUFFrame@@QAX@Z @ 1391
GPackage @ 1393
_DllMain@12 @ 1392
autoclassAHudBase @ 1394
autoclassAwHudPart_KillMessage @ 1395
autoclassUBTTcpHandler_DS_Script @ 1396
autoclassUCoolImage @ 1397
autoclassUGUI @ 1398
autoclassUGUIBorder @ 1399
autoclassUGUIButton @ 1400
autoclassUGUICharacterList @ 1401
autoclassUGUICheckBoxButton @ 1402
autoclassUGUICircularImageList @ 1403
autoclassUGUICircularList @ 1404
autoclassUGUIComboBox @ 1405
autoclassUGUIComponent @ 1406
autoclassUGUIContextMenu @ 1407
autoclassUGUIController @ 1408
autoclassUGUIEditBox @ 1409
autoclassUGUIFloatEdit @ 1410
autoclassUGUIFont @ 1411
autoclassUGUIGFXButton @ 1412
autoclassUGUIGripButtonBase @ 1413
autoclassUGUIHorzList @ 1414
autoclassUGUIImage @ 1415
autoclassUGUILabel @ 1416
autoclassUGUIList @ 1417
autoclassUGUIListBase @ 1418
autoclassUGUIListBox @ 1419
autoclassUGUIListBoxBase @ 1420
autoclassUGUIMenuOption @ 1421
autoclassUGUIMultiColumnList @ 1422
autoclassUGUIMultiColumnListBox @ 1423
autoclassUGUIMultiColumnListDerived @ 1424
autoclassUGUIMultiColumnListHeader @ 1425
autoclassUGUIMultiComponent @ 1426
autoclassUGUIMultiOptionList @ 1427
autoclassUGUINumericEdit @ 1428
autoclassUGUIPage @ 1429
autoclassUGUIPanel @ 1430
autoclassUGUIProgressBar @ 1431
autoclassUGUIScrollBarBase @ 1432
autoclassUGUIScrollButtonBase @ 1433
autoclassUGUIScrollText @ 1434
autoclassUGUIScrollTextBox @ 1435
autoclassUGUIScrollZoneBase @ 1436
autoclassUGUISectionBackground @ 1437
autoclassUGUISlider @ 1438
autoclassUGUISpinnerButton @ 1439
autoclassUGUISplitter @ 1440
autoclassUGUIStyles @ 1441
autoclassUGUITabButton @ 1442
autoclassUGUITabControl @ 1443
autoclassUGUITabPanel @ 1444
autoclassUGUITitleBar @ 1445
autoclassUGUIToolTip @ 1446
autoclassUGUITreeList @ 1447
autoclassUGUITreeListBox @ 1448
autoclassUGUIVertImageList @ 1449
autoclassUGUIVertList @ 1450
autoclassUMultiSelectList @ 1451
autoclassUPropertyManagerBase @ 1452
autoclassUStateButton @ 1453
intAHudBaseexecCalcNametagPosNative @ 1454
intAHudBaseexecCalculateCoordinate @ 1455
intAHudBaseexecCalculateCoordinateDigit @ 1456
intAHudBaseexecCalculateCoordinateDigitEx @ 1457
intAHudBaseexecCalculateCoordinateEx @ 1458
intAHudBaseexecDrawNametagsNative @ 1459
intAHudBaseexecDrawNumericWidget @ 1460
intAHudBaseexecDrawSpriteWidget @ 1461
intAHudBaseexecDrawTileFromSpriteWidget @ 1462
intAHudBaseexecDrawTileFromSpriteWidget2 @ 1463
intAHudBaseexecDrawWarfareCrosshairExtNative @ 1464
intAwHudPart_KillMessageexecDrawNative @ 1465
intUGUIComponentexecActualHeight @ 1466
intUGUIComponentexecActualLeft @ 1467
intUGUIComponentexecActualTop @ 1468
intUGUIComponentexecActualWidth @ 1469
intUGUIComponentexecAutoPosition @ 1470
intUGUIComponentexecAutoPositionOn @ 1471
intUGUIComponentexecGetMenuPath @ 1472
intUGUIComponentexecIsCorrectUserName @ 1473
intUGUIComponentexecIsCorrectUserName_China @ 1474
intUGUIComponentexecIsCorrectUserName_THAILAND @ 1475
intUGUIComponentexecIsInIncompleteLetter @ 1476
intUGUIComponentexecKillTimer @ 1477
intUGUIComponentexecPlayerOwner @ 1478
intUGUIComponentexecRelativeHeight @ 1479
intUGUIComponentexecRelativeLeft @ 1480
intUGUIComponentexecRelativeTop @ 1481
intUGUIComponentexecRelativeWidth @ 1482
intUGUIComponentexecSetTimer @ 1483
intUGUIComponentexecSpecialHit @ 1484
intUGUIComponentexecUpdateBounds @ 1485
intUGUIComponentexecUpdateOffset @ 1486
intUGUIControllerexecAuthroizeFirewall @ 1487
intUGUIControllerexecCheckFirewall @ 1488
intUGUIControllerexecCheckForECE @ 1489
intUGUIControllerexecGetCurrentRes @ 1490
intUGUIControllerexecGetDEMHeader @ 1491
intUGUIControllerexecGetDEMList @ 1492
intUGUIControllerexecGetMainMenuClass @ 1493
intUGUIControllerexecGetMapList @ 1494
intUGUIControllerexecGetMenuFont @ 1495
intUGUIControllerexecGetOGGList @ 1496
intUGUIControllerexecGetOwnageList @ 1497
intUGUIControllerexecGetProfileList @ 1498
intUGUIControllerexecGetStyle @ 1499
intUGUIControllerexecGetWeaponList @ 1500
intUGUIControllerexecLaunchURL @ 1501
intUGUIControllerexecPlayInterfaceSound @ 1502
intUGUIControllerexecProfile @ 1503
intUGUIControllerexecResetDesigner @ 1504
intUGUIControllerexecResetInput @ 1505
intUGUIControllerexecResetKeyboard @ 1506
intUGUIControllerexecSaveOwnageList @ 1507
intUGUIControllerexecSetMoveControl @ 1508
intUGUIControllerexecSetRenderDevice @ 1509
intUGUIEditBoxexecOnIME_Notify @ 1510
intUGUIFontexecGetFont @ 1511
intUGUIListexecSortList @ 1512
intUGUIMultiColumnListexecAddedItem @ 1513
intUGUIMultiColumnListexecChangeSortOrder @ 1514
intUGUIMultiColumnListexecGetListIndex @ 1515
intUGUIMultiColumnListexecRemovedItem @ 1516
intUGUIMultiColumnListexecSortList @ 1517
intUGUIMultiColumnListexecUpdatedItem @ 1518
intUGUIMultiComponentexecFindComponentIndex @ 1519
intUGUIMultiComponentexecInitializeControls @ 1520
intUGUIMultiComponentexecRemapComponents @ 1521
intUGUIScrollTextexecGetWordUnderCursor @ 1522
intUGUISplitterexecSplitterUpdatePositions @ 1523
intUGUIStylesexecDraw @ 1524
intUGUIStylesexecDrawText @ 1525
intUGUIStylesexecTextSize @ 1526
intUGUIStylesexecbtrDrawTextStyles @ 1527
intUGUIStylesexecbtrTextSizeStyles @ 1528
intUGUIToolTipexecSetTip @ 1529
intUGUITreeListexecSortList @ 1530
intUGUITreeListexecUpdateVisibleCount @ 1531
intUGUIexecGetModList @ 1532
intUGUIexecGetModLogo @ 1533
intUGUIexecGetModValue @ 1534
intUGUIexecProfile @ 1535
